; Listing generated by Microsoft (R) Optimizing Compiler Version 19.38.33030.0 

include listing.inc

INCLUDELIB MSVCRTD
INCLUDELIB OLDNAMES

PUBLIC	?_inst@Application@@0PEAV1@EA			; Application::_inst
_BSS	SEGMENT
?_inst@Application@@0PEAV1@EA DQ 01H DUP (?)		; Application::_inst
_BSS	ENDS
msvcjmc	SEGMENT
__B51A3A23_Core@h DB 01H
__0ED14FEE_winpackagefamily@h DB 01H
__F92EF742_winapifamily@h DB 01H
__22E515EB_sdkddkver@h DB 01H
__4A250794_concurrencysal@h DB 01H
__64794009_sal@h DB 01H
__A3E7195B_vadefs@h DB 01H
__978626E5_vcruntime@h DB 01H
__73193115_excpt@h DB 01H
__EF35C9F2_stdarg@h DB 01H
__29F49F40_specstrings_undef@h DB 01H
__D0F42932_specstrings_strict@h DB 01H
__F00405FD_sdv_driverspecs@h DB 01H
__173E09CA_driverspecs@h DB 01H
__9A452361_specstrings@h DB 01H
__1B0272D9_corecrt@h DB 01H
__74484FB3_corecrt_wctype@h DB 01H
__1EC467ED_ctype@h DB 01H
__98517906_kernelspecs@h DB 01H
__D3497022_basetsd@h DB 01H
__61CC25A1_errno@h DB 01H
__4CB5F942_vcruntime_string@h DB 01H
__E4C945B4_corecrt_memcpy_s@h DB 01H
__8EAFF484_corecrt_memory@h DB 01H
__6490AEC5_corecrt_wstring@h DB 01H
__E8295E1E_string@h DB 01H
__7FCB5136_guiddef@h DB 01H
__FF8A9E11_pshpack4@h DB 01H
__D5438902_poppack@h DB 01H
__FB07E2A3_pshpack2@h DB 01H
__F6906775_pshpack8@h DB 01H
__F9415CFA_pshpack1@h DB 01H
__E58C6F1C_apiset@h DB 01H
__A5C52262_ktmtypes@h DB 01H
__FBBA8F9D_winnt@h DB 01H
__A32D3D2C_minwindef@h DB 01H
__7D798299_windef@h DB 01H
__9AE108E9_apisetcconv@h DB 01H
__9CE53D2C_minwinbase@h DB 01H
__5D0AA210_apiquery2@h DB 01H
__4DD4E726_processenv@h DB 01H
__3575CC96_fileapi@h DB 01H
__8EA220E6_fileapifromapp@h DB 01H
__BF9B31FE_debugapi@h DB 01H
__C3AFE134_utilapiset@h DB 01H
__76F69E51_handleapi@h DB 01H
__7E63D784_errhandlingapi@h DB 01H
__FFA7003C_fibersapi@h DB 01H
__8971CECF_namedpipeapi@h DB 01H
__46C9D8A6_profileapi@h DB 01H
__98D4F0A3_heapapi@h DB 01H
__50EF2A88_ioapiset@h DB 01H
__92EA1464_synchapi@h DB 01H
__A53D8AED_interlockedapi@h DB 01H
__B506CAAF_processthreadsapi@h DB 01H
__FF735694_sysinfoapi@h DB 01H
__29589789_memoryapi@h DB 01H
__E9C7A663_enclaveapi@h DB 01H
__D035F9F7_threadpoollegacyapiset@h DB 01H
__C899130C_threadpoolapiset@h DB 01H
__E0441EE7_jobapi@h DB 01H
__CEF86838_jobapi2@h DB 01H
__35AC6B9A_wow64apiset@h DB 01H
__C8AE41A5_libloaderapi@h DB 01H
__CC9E232D_securitybaseapi@h DB 01H
__C9D0C9B8_namespaceapi@h DB 01H
__30FF9CAD_systemtopologyapi@h DB 01H
__4D358795_processtopologyapi@h DB 01H
__40446D10_securityappcontainer@h DB 01H
__3A952EDF_realtimeapiset@h DB 01H
__F4865F4B_winerror@h DB 01H
__53C1BD93_timezoneapi@h DB 01H
__1FFBEDBF_winbase@h DB 01H
__43D3FA34_wingdi@h DB 01H
__D24A7391_tvout@h DB 01H
__7713A6C8_winuser@h DB 01H
__0B345F71_datetimeapi@h DB 01H
__9AC6960C_winnls@h DB 01H
__973A40A8_stringapiset@h DB 01H
__CC46FEE2_wincontypes@h DB 01H
__97D70BE1_consoleapi@h DB 01H
__27EC5E18_consoleapi2@h DB 01H
__262E342F_consoleapi3@h DB 01H
__641DCD70_wincon@h DB 01H
__5A96C7A7_verrsrc@h DB 01H
__B69C6FF2_winver@h DB 01H
__7AEB8C37_reason@h DB 01H
__59F1A8A9_winreg@h DB 01H
__EE0E2B7F_wnnc@h DB 01H
__DCDB7054_winnetwk@h DB 01H
__EDC72EEB_cderr@h DB 01H
__95F9199D_dde@h DB 01H
__66427627_ddeml@h DB 01H
__957C29A0_dlgs@h DB 01H
__12EA15AF_lzexpand@h DB 01H
__62131F15_mmsyscom@h DB 01H
__47E68D49_mciapi@h DB 01H
__5D7DD356_mmiscapi@h DB 01H
__7223D2EF_mmiscapi2@h DB 01H
__A330DBB3_playsoundapi@h DB 01H
__601B366F_mmeapi@h DB 01H
__1134ADD5_timeapi@h DB 01H
__93F2265A_joystickapi@h DB 01H
__DF6EB4E3_mmsystem@h DB 01H
__BD641FCB_nb30@h DB 01H
__DF8704F0_rpcdcep@h DB 01H
__5C6CA7BB_rpcdce@h DB 01H
__853533C4_rpcnsi@h DB 01H
__2D2406C3_rpcnterr@h DB 01H
__64521D71_rpcasync@h DB 01H
__AADCBA08_rpc@h DB 01H
__19E26CFF_shellapi@h DB 01H
__1E9F31D3_winperf@h DB 01H
__832A4112_inaddr@h DB 01H
__32C6F875_winsock@h DB 01H
__7953A3F8_bcrypt@h DB 01H
__E4169492_ncrypt@h DB 01H
__AF3DDDC3_dpapi@h DB 01H
__D1E23BF2_wincrypt@h DB 01H
__82AB4779_winefs@h DB 01H
__1FE431C9_rpcnsip@h DB 01H
__2B741F2D_rpcsal@h DB 01H
__92623256_rpcndr@h DB 01H
__9C18532E_wtypesbase@h DB 01H
__EA2E1D6D_wtypes@h DB 01H
__7DDD9F45_winioctl@h DB 01H
__E550A843_winsmcrd@h DB 01H
__9809C1BA_winscard@h DB 01H
__EA174FA4_prsht@h DB 01H
__0E1BD114_winspool@h DB 01H
__45DED006_corecrt_malloc@h DB 01H
__13F5961F_stddef@h DB 01H
__FD6DBD68_corecrt_search@h DB 01H
__E2E33A61_corecrt_wstdlib@h DB 01H
__659C5902_limits@h DB 01H
__6E5ACABA_stdlib@h DB 01H
__30B1AFDA_unknwnbase@h DB 01H
__328C1996_objidlbase@h DB 01H
__C4E06B6A_cguid@h DB 01H
__434718C5_combaseapi@h DB 01H
__DE6FDEF1_unknwn@h DB 01H
__CCE0BACC_objidl@h DB 01H
__8C7011E5_oaidl@h DB 01H
__2E0B7863_propidlbase@h DB 01H
__BF4CF2EC_coml2api@h DB 01H
__6D897344_oleidl@h DB 01H
__1129FC2C_servprov@h DB 01H
__757952E4_msxml@h DB 01H
__B1191D53_urlmon@h DB 01H
__404D1A47_propidl@h DB 01H
__A1C63593_objbase@h DB 01H
__C1B0A9CB_oleauto@h DB 01H
__24EAF61F_ole2@h DB 01H
__2B1843DA_commdlg@h DB 01H
__81DDEDE3_stralign@h DB 01H
__2134D1B4_winsvc@h DB 01H
__11C07376_mcx@h DB 01H
__577CE3E7_ime_cmodes@h DB 01H
__1E72C31E_imm@h DB 01H
__63AA7AF5_Windows@h DB 01H
__735B63F8_xkeycheck@h DB 01H
__142C9C9C_yvals_core@h DB 01H
__84C50014_vcruntime_new@h DB 01H
__7A6EC116_vcruntime_new_debug@h DB 01H
__935DC21B_crtdbg@h DB 01H
__E5B2708F_crtdefs@h DB 01H
__61229A4B_use_ansi@h DB 01H
__8C2D0B1D_yvals@h DB 01H
__44420885_corecrt_stdio_config@h DB 01H
__AB601D8D_corecrt_wstdio@h DB 01H
__C1EC35D3_stdio@h DB 01H
__4CF83D73_cstdio DB 01H
__76FF1542_cstring DB 01H
__EF1F6BBA_corecrt_wconio@h DB 01H
__3D1D430C_corecrt_wdirect@h DB 01H
__8ECB7138_corecrt_share@h DB 01H
__DB7FEBA6_corecrt_wio@h DB 01H
__9A9F0068_corecrt_wprocess@h DB 01H
__369A9BC3_corecrt_wtime@h DB 01H
__CE789B9D_types@h DB 01H
__9901C817_stat@h DB 01H
__3FCAD62E_wchar@h DB 01H
__D673EB20_cwchar DB 01H
__9A2CA802_xtr1common DB 01H
__95B36E16_iosfwd DB 01H
__DBEA773D_stdint@h DB 01H
__87335CDF_cstdint DB 01H
__BB16330F_corecrt_math@h DB 01H
__3BF2A406_math@h DB 01H
__3A6DBDA2_cstdlib DB 01H
__B9985323_float@h DB 01H
__3FBCF6F4_cfloat DB 01H
__BE829F50_climits DB 01H
__51ADDFC3_intrin0@inl@h DB 01H
__FC9FC984_intrin0@h DB 01H
__595ABB90_limits DB 01H
__9FA6670F_cstddef DB 01H
__3DF2A533_type_traits DB 01H
__FA77ED4C_malloc@h DB 01H
__89766DA4_corecrt_terminate@h DB 01H
__35BB339F_eh@h DB 01H
__7280C444_vcruntime_exception@h DB 01H
__2DED1E19_exception DB 01H
__A5D71DBC_new DB 01H
__27E192CF_xatomic@h DB 01H
__50E371A7_initializer_list DB 01H
__339AE60A_concepts DB 01H
__C3788713_compare DB 01H
__0D603829_utility DB 01H
__874288EA___msvc_iter_core@hpp DB 01H
__B7320FC0_xutility DB 01H
__A0E057FF_tuple DB 01H
__67F55BEA_xmemory DB 01H
__A0A2F5C0_xpolymorphic_allocator@h DB 01H
__C671E263___msvc_sanitizer_annotate_container@hpp DB 01H
__1326DD76_xstring DB 01H
__4333DAD4_cctype DB 01H
__91273182_string DB 01H
__F3EA4CCC___msvc_bit_utils@hpp DB 01H
__14F7CB70_vector DB 01H
__FBEF5BAE_Array@h DB 01H
__9024636E_DarkString@h DB 01H
__C7215CCD_algorithm DB 01H
__103905FF_Application@h DB 01H
__92B9F28F_CommandLine@h DB 01H
__9021FEEF_Application@cpp DB 01H
msvcjmc	ENDS
PUBLIC	??2@YAPEAX_KPEAX@Z				; operator new
PUBLIC	?is_constant_evaluated@std@@YA_NXZ		; std::is_constant_evaluated
PUBLIC	?max@?$numeric_limits@_J@std@@SA_JXZ		; std::numeric_limits<__int64>::max
PUBLIC	??0exception@std@@QEAA@QEBDH@Z			; std::exception::exception
PUBLIC	??0exception@std@@QEAA@AEBV01@@Z		; std::exception::exception
PUBLIC	??1exception@std@@UEAA@XZ			; std::exception::~exception
PUBLIC	?what@exception@std@@UEBAPEBDXZ			; std::exception::what
PUBLIC	??_Gexception@std@@UEAAPEAXI@Z			; std::exception::`scalar deleting destructor'
PUBLIC	??0bad_alloc@std@@AEAA@QEBD@Z			; std::bad_alloc::bad_alloc
PUBLIC	??1bad_alloc@std@@UEAA@XZ			; std::bad_alloc::~bad_alloc
PUBLIC	??0bad_alloc@std@@QEAA@AEBV01@@Z		; std::bad_alloc::bad_alloc
PUBLIC	??_Gbad_alloc@std@@UEAAPEAXI@Z			; std::bad_alloc::`scalar deleting destructor'
PUBLIC	??0bad_array_new_length@std@@QEAA@XZ		; std::bad_array_new_length::bad_array_new_length
PUBLIC	??1bad_array_new_length@std@@UEAA@XZ		; std::bad_array_new_length::~bad_array_new_length
PUBLIC	??0bad_array_new_length@std@@QEAA@AEBV01@@Z	; std::bad_array_new_length::bad_array_new_length
PUBLIC	??_Gbad_array_new_length@std@@UEAAPEAXI@Z	; std::bad_array_new_length::`scalar deleting destructor'
PUBLIC	?_Throw_bad_array_new_length@std@@YAXXZ		; std::_Throw_bad_array_new_length
PUBLIC	?_Allocate@_Default_allocate_traits@std@@SAPEAX_K@Z ; std::_Default_allocate_traits::_Allocate
PUBLIC	?_Adjust_manually_vector_aligned@std@@YAXAEAPEAXAEA_K@Z ; std::_Adjust_manually_vector_aligned
PUBLIC	??0_Container_proxy@std@@QEAA@PEAU_Container_base12@1@@Z ; std::_Container_proxy::_Container_proxy
PUBLIC	??0_Container_base12@std@@QEAA@XZ		; std::_Container_base12::_Container_base12
PUBLIC	?_Orphan_all@_Container_base12@std@@QEAAXXZ	; std::_Container_base12::_Orphan_all
PUBLIC	?_Swap_proxy_and_iterators@_Container_base12@std@@QEAAXAEAU12@@Z ; std::_Container_base12::_Swap_proxy_and_iterators
PUBLIC	?_Orphan_all_unlocked_v3@_Container_base12@std@@AEAAXXZ ; std::_Container_base12::_Orphan_all_unlocked_v3
PUBLIC	?_Swap_proxy_and_iterators_unlocked@_Container_base12@std@@AEAAXAEAU12@@Z ; std::_Container_base12::_Swap_proxy_and_iterators_unlocked
PUBLIC	?_Orphan_all_locked_v3@_Container_base12@std@@AEAAXXZ ; std::_Container_base12::_Orphan_all_locked_v3
PUBLIC	?_Swap_proxy_and_iterators_locked@_Container_base12@std@@AEAAXAEAU12@@Z ; std::_Container_base12::_Swap_proxy_and_iterators_locked
PUBLIC	??$exchange@PEAU_Iterator_base12@std@@$$T@std@@YAPEAU_Iterator_base12@0@AEAPEAU10@$$QEA$$T@Z ; std::exchange<std::_Iterator_base12 *,std::nullptr_t>
PUBLIC	?_Release@_Basic_container_proxy_ptr12@std@@QEAAXXZ ; std::_Basic_container_proxy_ptr12::_Release
PUBLIC	??0_Basic_container_proxy_ptr12@std@@IEAA@XZ	; std::_Basic_container_proxy_ptr12::_Basic_container_proxy_ptr12
PUBLIC	??$addressof@U_Container_base12@std@@@std@@YAPEAU_Container_base12@0@AEAU10@@Z ; std::addressof<std::_Container_base12>
PUBLIC	??$_Construct_in_place@U_Container_proxy@std@@PEAU_Container_base12@2@@std@@YAXAEAU_Container_proxy@0@$$QEAPEAU_Container_base12@0@@Z ; std::_Construct_in_place<std::_Container_proxy,std::_Container_base12 *>
PUBLIC	?copy@?$_Char_traits@DH@std@@SAPEADQEADQEBD_K@Z	; std::_Char_traits<char,int>::copy
PUBLIC	?move@?$_Char_traits@DH@std@@SAPEADQEADQEBD_K@Z	; std::_Char_traits<char,int>::move
PUBLIC	?assign@?$_Char_traits@DH@std@@SAXAEADAEBD@Z	; std::_Char_traits<char,int>::assign
PUBLIC	?length@?$_Narrow_char_traits@DH@std@@SA_KQEBD@Z ; std::_Narrow_char_traits<char,int>::length
PUBLIC	?assign@?$_Narrow_char_traits@DH@std@@SAXAEADAEBD@Z ; std::_Narrow_char_traits<char,int>::assign
PUBLIC	?_Xlen_string@std@@YAXXZ			; std::_Xlen_string
PUBLIC	??0?$allocator@D@std@@QEAA@XZ			; std::allocator<char>::allocator<char>
PUBLIC	?deallocate@?$allocator@D@std@@QEAAXQEAD_K@Z	; std::allocator<char>::deallocate
PUBLIC	?allocate@?$allocator@D@std@@QEAAPEAD_K@Z	; std::allocator<char>::allocate
PUBLIC	?max_size@?$_Default_allocator_traits@V?$allocator@D@std@@@std@@SA_KAEBV?$allocator@D@2@@Z ; std::_Default_allocator_traits<std::allocator<char> >::max_size
PUBLIC	?select_on_container_copy_construction@?$_Default_allocator_traits@V?$allocator@D@std@@@std@@SA?AV?$allocator@D@2@AEBV32@@Z ; std::_Default_allocator_traits<std::allocator<char> >::select_on_container_copy_construction
PUBLIC	??0?$_String_val@U?$_Simple_types@D@std@@@std@@QEAA@XZ ; std::_String_val<std::_Simple_types<char> >::_String_val<std::_Simple_types<char> >
PUBLIC	?_Myptr@?$_String_val@U?$_Simple_types@D@std@@@std@@QEAAPEADXZ ; std::_String_val<std::_Simple_types<char> >::_Myptr
PUBLIC	?_Myptr@?$_String_val@U?$_Simple_types@D@std@@@std@@QEBAPEBDXZ ; std::_String_val<std::_Simple_types<char> >::_Myptr
PUBLIC	?_Large_string_engaged@?$_String_val@U?$_Simple_types@D@std@@@std@@QEBA_NXZ ; std::_String_val<std::_Simple_types<char> >::_Large_string_engaged
PUBLIC	?_Activate_SSO_buffer@?$_String_val@U?$_Simple_types@D@std@@@std@@QEAAXXZ ; std::_String_val<std::_Simple_types<char> >::_Activate_SSO_buffer
PUBLIC	??0_Bxty@?$_String_val@U?$_Simple_types@D@std@@@std@@QEAA@XZ ; std::_String_val<std::_Simple_types<char> >::_Bxty::_Bxty
PUBLIC	??1_Bxty@?$_String_val@U?$_Simple_types@D@std@@@std@@QEAA@XZ ; std::_String_val<std::_Simple_types<char> >::_Bxty::~_Bxty
PUBLIC	??1?$_String_val@U?$_Simple_types@D@std@@@std@@QEAA@XZ ; std::_String_val<std::_Simple_types<char> >::~_String_val<std::_Simple_types<char> >
PUBLIC	??0?$basic_string@DU?$char_traits@D@std@@V?$allocator@D@2@@std@@QEAA@XZ ; std::basic_string<char,std::char_traits<char>,std::allocator<char> >::basic_string<char,std::char_traits<char>,std::allocator<char> >
PUBLIC	??0?$basic_string@DU?$char_traits@D@std@@V?$allocator@D@2@@std@@QEAA@AEBV01@@Z ; std::basic_string<char,std::char_traits<char>,std::allocator<char> >::basic_string<char,std::char_traits<char>,std::allocator<char> >
PUBLIC	?_Start_element_lifetimes@?$basic_string@DU?$char_traits@D@std@@V?$allocator@D@2@@std@@CAXQEAD_K@Z ; std::basic_string<char,std::char_traits<char>,std::allocator<char> >::_Start_element_lifetimes
PUBLIC	??0?$basic_string@DU?$char_traits@D@std@@V?$allocator@D@2@@std@@QEAA@$$QEAV01@@Z ; std::basic_string<char,std::char_traits<char>,std::allocator<char> >::basic_string<char,std::char_traits<char>,std::allocator<char> >
PUBLIC	?_Memcpy_val_from@?$basic_string@DU?$char_traits@D@std@@V?$allocator@D@2@@std@@AEAAXAEBV12@@Z ; std::basic_string<char,std::char_traits<char>,std::allocator<char> >::_Memcpy_val_from
PUBLIC	?_Take_contents@?$basic_string@DU?$char_traits@D@std@@V?$allocator@D@2@@std@@AEAAXAEAV12@@Z ; std::basic_string<char,std::char_traits<char>,std::allocator<char> >::_Take_contents
PUBLIC	??1?$basic_string@DU?$char_traits@D@std@@V?$allocator@D@2@@std@@QEAA@XZ ; std::basic_string<char,std::char_traits<char>,std::allocator<char> >::~basic_string<char,std::char_traits<char>,std::allocator<char> >
PUBLIC	??4?$basic_string@DU?$char_traits@D@std@@V?$allocator@D@2@@std@@QEAAAEAV01@AEBV01@@Z ; std::basic_string<char,std::char_traits<char>,std::allocator<char> >::operator=
PUBLIC	??4?$basic_string@DU?$char_traits@D@std@@V?$allocator@D@2@@std@@QEAAAEAV01@QEBD@Z ; std::basic_string<char,std::char_traits<char>,std::allocator<char> >::operator=
PUBLIC	?assign@?$basic_string@DU?$char_traits@D@std@@V?$allocator@D@2@@std@@QEAAAEAV12@QEBD_K@Z ; std::basic_string<char,std::char_traits<char>,std::allocator<char> >::assign
PUBLIC	?assign@?$basic_string@DU?$char_traits@D@std@@V?$allocator@D@2@@std@@QEAAAEAV12@QEBD@Z ; std::basic_string<char,std::char_traits<char>,std::allocator<char> >::assign
PUBLIC	??A?$basic_string@DU?$char_traits@D@std@@V?$allocator@D@2@@std@@QEAAAEAD_K@Z ; std::basic_string<char,std::char_traits<char>,std::allocator<char> >::operator[]
PUBLIC	?size@?$basic_string@DU?$char_traits@D@std@@V?$allocator@D@2@@std@@QEBA_KXZ ; std::basic_string<char,std::char_traits<char>,std::allocator<char> >::size
PUBLIC	?max_size@?$basic_string@DU?$char_traits@D@std@@V?$allocator@D@2@@std@@QEBA_KXZ ; std::basic_string<char,std::char_traits<char>,std::allocator<char> >::max_size
PUBLIC	?_Calculate_growth@?$basic_string@DU?$char_traits@D@std@@V?$allocator@D@2@@std@@CA_K_K00@Z ; std::basic_string<char,std::char_traits<char>,std::allocator<char> >::_Calculate_growth
PUBLIC	?_Calculate_growth@?$basic_string@DU?$char_traits@D@std@@V?$allocator@D@2@@std@@AEBA_K_K@Z ; std::basic_string<char,std::char_traits<char>,std::allocator<char> >::_Calculate_growth
PUBLIC	?_Tidy_init@?$basic_string@DU?$char_traits@D@std@@V?$allocator@D@2@@std@@AEAAXXZ ; std::basic_string<char,std::char_traits<char>,std::allocator<char> >::_Tidy_init
PUBLIC	?_Tidy_deallocate@?$basic_string@DU?$char_traits@D@std@@V?$allocator@D@2@@std@@AEAAXXZ ; std::basic_string<char,std::char_traits<char>,std::allocator<char> >::_Tidy_deallocate
PUBLIC	?_Swap_proxy_and_iterators@?$basic_string@DU?$char_traits@D@std@@V?$allocator@D@2@@std@@AEAAXAEAV12@@Z ; std::basic_string<char,std::char_traits<char>,std::allocator<char> >::_Swap_proxy_and_iterators
PUBLIC	?_Getal@?$basic_string@DU?$char_traits@D@std@@V?$allocator@D@2@@std@@AEAAAEAV?$allocator@D@2@XZ ; std::basic_string<char,std::char_traits<char>,std::allocator<char> >::_Getal
PUBLIC	?_Getal@?$basic_string@DU?$char_traits@D@std@@V?$allocator@D@2@@std@@AEBAAEBV?$allocator@D@2@XZ ; std::basic_string<char,std::char_traits<char>,std::allocator<char> >::_Getal
PUBLIC	?_Get_first@?$_Compressed_pair@V?$allocator@D@std@@V?$_String_val@U?$_Simple_types@D@std@@@2@$00@std@@QEAAAEAV?$allocator@D@2@XZ ; std::_Compressed_pair<std::allocator<char>,std::_String_val<std::_Simple_types<char> >,1>::_Get_first
PUBLIC	?_Get_first@?$_Compressed_pair@V?$allocator@D@std@@V?$_String_val@U?$_Simple_types@D@std@@@2@$00@std@@QEBAAEBV?$allocator@D@2@XZ ; std::_Compressed_pair<std::allocator<char>,std::_String_val<std::_Simple_types<char> >,1>::_Get_first
PUBLIC	??1?$_Compressed_pair@V?$allocator@D@std@@V?$_String_val@U?$_Simple_types@D@std@@@2@$00@std@@QEAA@XZ ; std::_Compressed_pair<std::allocator<char>,std::_String_val<std::_Simple_types<char> >,1>::~_Compressed_pair<std::allocator<char>,std::_String_val<std::_Simple_types<char> >,1>
PUBLIC	??0FCMDParameter@@QEAA@XZ			; FCMDParameter::FCMDParameter
PUBLIC	??1FCMDParameter@@QEAA@XZ			; FCMDParameter::~FCMDParameter
PUBLIC	??0FCMDParameter@@QEAA@AEBU0@@Z			; FCMDParameter::FCMDParameter
PUBLIC	??0FCMDParameter@@QEAA@$$QEAU0@@Z		; FCMDParameter::FCMDParameter
PUBLIC	??_GFCMDParameter@@QEAAPEAXI@Z			; FCMDParameter::`scalar deleting destructor'
PUBLIC	??0Application@@QEAA@XZ				; Application::Application
PUBLIC	??1Application@@QEAA@XZ				; Application::~Application
PUBLIC	?Initialize@Application@@QEAAXPEAUHINSTANCE__@@0V?$basic_string@DU?$char_traits@D@std@@V?$allocator@D@2@@std@@H@Z ; Application::Initialize
PUBLIC	?ParseCmdLine@Application@@QEAAXXZ		; Application::ParseCmdLine
PUBLIC	?CheckParameterCmdLine@Application@@QEAA_NV?$basic_string@DU?$char_traits@D@std@@V?$allocator@D@2@@std@@AEAV23@@Z ; Application::CheckParameterCmdLine
PUBLIC	??0?$allocator@UFCMDParameter@@@std@@QEAA@XZ	; std::allocator<FCMDParameter>::allocator<FCMDParameter>
PUBLIC	?deallocate@?$allocator@UFCMDParameter@@@std@@QEAAXQEAUFCMDParameter@@_K@Z ; std::allocator<FCMDParameter>::deallocate
PUBLIC	?allocate@?$allocator@UFCMDParameter@@@std@@QEAAPEAUFCMDParameter@@_K@Z ; std::allocator<FCMDParameter>::allocate
PUBLIC	?max_size@?$_Default_allocator_traits@V?$allocator@UFCMDParameter@@@std@@@std@@SA_KAEBV?$allocator@UFCMDParameter@@@2@@Z ; std::_Default_allocator_traits<std::allocator<FCMDParameter> >::max_size
PUBLIC	??0?$vector@UFCMDParameter@@V?$allocator@UFCMDParameter@@@std@@@std@@QEAA@XZ ; std::vector<FCMDParameter,std::allocator<FCMDParameter> >::vector<FCMDParameter,std::allocator<FCMDParameter> >
PUBLIC	??1?$vector@UFCMDParameter@@V?$allocator@UFCMDParameter@@@std@@@std@@QEAA@XZ ; std::vector<FCMDParameter,std::allocator<FCMDParameter> >::~vector<FCMDParameter,std::allocator<FCMDParameter> >
PUBLIC	?push_back@?$vector@UFCMDParameter@@V?$allocator@UFCMDParameter@@@std@@@std@@QEAAXAEBUFCMDParameter@@@Z ; std::vector<FCMDParameter,std::allocator<FCMDParameter> >::push_back
PUBLIC	?max_size@?$vector@UFCMDParameter@@V?$allocator@UFCMDParameter@@@std@@@std@@QEBA_KXZ ; std::vector<FCMDParameter,std::allocator<FCMDParameter> >::max_size
PUBLIC	?capacity@?$vector@UFCMDParameter@@V?$allocator@UFCMDParameter@@@std@@@std@@QEBA_KXZ ; std::vector<FCMDParameter,std::allocator<FCMDParameter> >::capacity
PUBLIC	?_Calculate_growth@?$vector@UFCMDParameter@@V?$allocator@UFCMDParameter@@@std@@@std@@AEBA_K_K@Z ; std::vector<FCMDParameter,std::allocator<FCMDParameter> >::_Calculate_growth
PUBLIC	?_Change_array@?$vector@UFCMDParameter@@V?$allocator@UFCMDParameter@@@std@@@std@@AEAAXQEAUFCMDParameter@@_K1@Z ; std::vector<FCMDParameter,std::allocator<FCMDParameter> >::_Change_array
PUBLIC	?_Tidy@?$vector@UFCMDParameter@@V?$allocator@UFCMDParameter@@@std@@@std@@AEAAXXZ ; std::vector<FCMDParameter,std::allocator<FCMDParameter> >::_Tidy
PUBLIC	?_Xlength@?$vector@UFCMDParameter@@V?$allocator@UFCMDParameter@@@std@@@std@@CAXXZ ; std::vector<FCMDParameter,std::allocator<FCMDParameter> >::_Xlength
PUBLIC	?_Orphan_range_unlocked@?$vector@UFCMDParameter@@V?$allocator@UFCMDParameter@@@std@@@std@@AEBAXPEAUFCMDParameter@@0@Z ; std::vector<FCMDParameter,std::allocator<FCMDParameter> >::_Orphan_range_unlocked
PUBLIC	?_Orphan_range_locked@?$vector@UFCMDParameter@@V?$allocator@UFCMDParameter@@@std@@@std@@AEBAXPEAUFCMDParameter@@0@Z ; std::vector<FCMDParameter,std::allocator<FCMDParameter> >::_Orphan_range_locked
PUBLIC	?_Orphan_range@?$vector@UFCMDParameter@@V?$allocator@UFCMDParameter@@@std@@@std@@AEBAXPEAUFCMDParameter@@0@Z ; std::vector<FCMDParameter,std::allocator<FCMDParameter> >::_Orphan_range
PUBLIC	?_Getal@?$vector@UFCMDParameter@@V?$allocator@UFCMDParameter@@@std@@@std@@AEAAAEAV?$allocator@UFCMDParameter@@@2@XZ ; std::vector<FCMDParameter,std::allocator<FCMDParameter> >::_Getal
PUBLIC	?_Getal@?$vector@UFCMDParameter@@V?$allocator@UFCMDParameter@@@std@@@std@@AEBAAEBV?$allocator@UFCMDParameter@@@2@XZ ; std::vector<FCMDParameter,std::allocator<FCMDParameter> >::_Getal
PUBLIC	??0?$_Vector_val@U?$_Simple_types@UFCMDParameter@@@std@@@std@@QEAA@XZ ; std::_Vector_val<std::_Simple_types<FCMDParameter> >::_Vector_val<std::_Simple_types<FCMDParameter> >
PUBLIC	?_Get_first@?$_Compressed_pair@V?$allocator@UFCMDParameter@@@std@@V?$_Vector_val@U?$_Simple_types@UFCMDParameter@@@std@@@2@$00@std@@QEAAAEAV?$allocator@UFCMDParameter@@@2@XZ ; std::_Compressed_pair<std::allocator<FCMDParameter>,std::_Vector_val<std::_Simple_types<FCMDParameter> >,1>::_Get_first
PUBLIC	?_Get_first@?$_Compressed_pair@V?$allocator@UFCMDParameter@@@std@@V?$_Vector_val@U?$_Simple_types@UFCMDParameter@@@std@@@2@$00@std@@QEBAAEBV?$allocator@UFCMDParameter@@@2@XZ ; std::_Compressed_pair<std::allocator<FCMDParameter>,std::_Vector_val<std::_Simple_types<FCMDParameter> >,1>::_Get_first
PUBLIC	??$strncat_s@$0EA@@@YAHAEAY0EA@DPEBD_K@Z	; strncat_s<64>
PUBLIC	??$_Emplace_one_at_back@AEBUFCMDParameter@@@?$vector@UFCMDParameter@@V?$allocator@UFCMDParameter@@@std@@@std@@AEAAAEAUFCMDParameter@@AEBU2@@Z ; std::vector<FCMDParameter,std::allocator<FCMDParameter> >::_Emplace_one_at_back<FCMDParameter const &>
PUBLIC	?deallocate@?$allocator@U_Container_proxy@std@@@std@@QEAAXQEAU_Container_proxy@2@_K@Z ; std::allocator<std::_Container_proxy>::deallocate
PUBLIC	?allocate@?$allocator@U_Container_proxy@std@@@std@@QEAAPEAU_Container_proxy@2@_K@Z ; std::allocator<std::_Container_proxy>::allocate
PUBLIC	??$?0UFCMDParameter@@@?$allocator@U_Container_proxy@std@@@std@@QEAA@AEBV?$allocator@UFCMDParameter@@@1@@Z ; std::allocator<std::_Container_proxy>::allocator<std::_Container_proxy><FCMDParameter>
PUBLIC	??$exchange@PEAU_Container_proxy@std@@$$T@std@@YAPEAU_Container_proxy@0@AEAPEAU10@$$QEA$$T@Z ; std::exchange<std::_Container_proxy *,std::nullptr_t>
PUBLIC	??$_Delete_plain_internal@V?$allocator@U_Container_proxy@std@@@std@@@std@@YAXAEAV?$allocator@U_Container_proxy@std@@@0@QEAU_Container_proxy@0@@Z ; std::_Delete_plain_internal<std::allocator<std::_Container_proxy> >
PUBLIC	??$?0$$V@?$_Compressed_pair@V?$allocator@UFCMDParameter@@@std@@V?$_Vector_val@U?$_Simple_types@UFCMDParameter@@@std@@@2@$00@std@@QEAA@U_Zero_then_variadic_args_t@1@@Z ; std::_Compressed_pair<std::allocator<FCMDParameter>,std::_Vector_val<std::_Simple_types<FCMDParameter> >,1>::_Compressed_pair<std::allocator<FCMDParameter>,std::_Vector_val<std::_Simple_types<FCMDParameter> >,1><>
PUBLIC	??$_Alloc_proxy@V?$allocator@U_Container_proxy@std@@@std@@@_Container_base12@std@@QEAAX$$QEAV?$allocator@U_Container_proxy@std@@@1@@Z ; std::_Container_base12::_Alloc_proxy<std::allocator<std::_Container_proxy> >
PUBLIC	??$addressof@$$CBV?$basic_string@DU?$char_traits@D@std@@V?$allocator@D@2@@std@@@std@@YAPEBV?$basic_string@DU?$char_traits@D@std@@V?$allocator@D@2@@0@AEBV10@@Z ; std::addressof<std::basic_string<char,std::char_traits<char>,std::allocator<char> > const >
PUBLIC	??$_Pocca@V?$allocator@D@std@@@std@@YAXAEAV?$allocator@D@0@AEBV10@@Z ; std::_Pocca<std::allocator<char> >
PUBLIC	??$?0D@?$allocator@U_Container_proxy@std@@@std@@QEAA@AEBV?$allocator@D@1@@Z ; std::allocator<std::_Container_proxy>::allocator<std::_Container_proxy><char>
PUBLIC	??$?0V?$allocator@D@std@@$$V@?$_Compressed_pair@V?$allocator@D@std@@V?$_String_val@U?$_Simple_types@D@std@@@2@$00@std@@QEAA@U_One_then_variadic_args_t@1@$$QEAV?$allocator@D@1@@Z ; std::_Compressed_pair<std::allocator<char>,std::_String_val<std::_Simple_types<char> >,1>::_Compressed_pair<std::allocator<char>,std::_String_val<std::_Simple_types<char> >,1><std::allocator<char> >
PUBLIC	??$?0$$V@?$_Compressed_pair@V?$allocator@D@std@@V?$_String_val@U?$_Simple_types@D@std@@@2@$00@std@@QEAA@U_Zero_then_variadic_args_t@1@@Z ; std::_Compressed_pair<std::allocator<char>,std::_String_val<std::_Simple_types<char> >,1>::_Compressed_pair<std::allocator<char>,std::_String_val<std::_Simple_types<char> >,1><>
PUBLIC	??$_Construct@$01PEBD@?$basic_string@DU?$char_traits@D@std@@V?$allocator@D@2@@std@@AEAAXQEBD_K@Z ; std::basic_string<char,std::char_traits<char>,std::allocator<char> >::_Construct<2,char const *>
PUBLIC	??$_Destroy_range@V?$allocator@UFCMDParameter@@@std@@@std@@YAXPEAUFCMDParameter@@QEAU1@AEAV?$allocator@UFCMDParameter@@@0@@Z ; std::_Destroy_range<std::allocator<FCMDParameter> >
PUBLIC	??$_Destroy_in_place@PEAD@std@@YAXAEAPEAD@Z	; std::_Destroy_in_place<char *>
PUBLIC	??$_Convert_size@_K_K@std@@YA_K_K@Z		; std::_Convert_size<unsigned __int64,unsigned __int64>
PUBLIC	??R<lambda_1>@?1??assign@?$basic_string@DU?$char_traits@D@std@@V?$allocator@D@2@@std@@QEAAAEAV23@QEBD_K@Z@QEBA@QEAD10@Z ; `std::basic_string<char,std::char_traits<char>,std::allocator<char> >::assign'::`2'::<lambda_1>::operator()
PUBLIC	??$_Reallocate_for@V<lambda_1>@?1??assign@?$basic_string@DU?$char_traits@D@std@@V?$allocator@D@2@@std@@QEAAAEAV34@QEBD_K@Z@PEBD@?$basic_string@DU?$char_traits@D@std@@V?$allocator@D@2@@std@@AEAAAEAV01@_KV<lambda_1>@?1??assign@01@QEAAAEAV01@QEBD0@Z@PEBD@Z ; std::basic_string<char,std::char_traits<char>,std::allocator<char> >::_Reallocate_for<`std::basic_string<char,std::char_traits<char>,std::allocator<char> >::assign'::`2'::<lambda_1>,char const *>
PUBLIC	??$_Construct_in_place@PEADAEAPEAD@std@@YAXAEAPEAD0@Z ; std::_Construct_in_place<char *,char * &>
PUBLIC	??$_Unfancy@D@std@@YAPEADPEAD@Z			; std::_Unfancy<char>
PUBLIC	??$max@_K@std@@YAAEB_KAEB_K0@Z			; std::max<unsigned __int64>
PUBLIC	??$_Deallocate@$0BA@$0A@@std@@YAXPEAX_K@Z	; std::_Deallocate<16,0>
PUBLIC	??$addressof@V?$_String_val@U?$_Simple_types@D@std@@@std@@@std@@YAPEAV?$_String_val@U?$_Simple_types@D@std@@@0@AEAV10@@Z ; std::addressof<std::_String_val<std::_Simple_types<char> > >
PUBLIC	??$addressof@$$CBV?$_String_val@U?$_Simple_types@D@std@@@std@@@std@@YAPEBV?$_String_val@U?$_Simple_types@D@std@@@0@AEBV10@@Z ; std::addressof<std::_String_val<std::_Simple_types<char> > const >
PUBLIC	??$addressof@D@std@@YAPEADAEAD@Z		; std::addressof<char>
PUBLIC	??$construct_at@DAEBD$0A@@std@@YAPEADQEADAEBD@Z	; std::construct_at<char,char const &,0>
PUBLIC	??$addressof@U_Container_proxy@std@@@std@@YAPEAU_Container_proxy@0@AEAU10@@Z ; std::addressof<std::_Container_proxy>
PUBLIC	??$construct_at@U_Container_proxy@std@@PEAU_Container_base12@2@$0A@@std@@YAPEAU_Container_proxy@0@QEAU10@$$QEAPEAU_Container_base12@0@@Z ; std::construct_at<std::_Container_proxy,std::_Container_base12 *,0>
PUBLIC	??$_Unfancy@UFCMDParameter@@@std@@YAPEAUFCMDParameter@@PEAU1@@Z ; std::_Unfancy<FCMDParameter>
PUBLIC	??$_Emplace_back_with_unused_capacity@AEBUFCMDParameter@@@?$vector@UFCMDParameter@@V?$allocator@UFCMDParameter@@@std@@@std@@AEAAAEAUFCMDParameter@@AEBU2@@Z ; std::vector<FCMDParameter,std::allocator<FCMDParameter> >::_Emplace_back_with_unused_capacity<FCMDParameter const &>
PUBLIC	??$_Emplace_reallocate@AEBUFCMDParameter@@@?$vector@UFCMDParameter@@V?$allocator@UFCMDParameter@@@std@@@std@@AEAAPEAUFCMDParameter@@QEAU2@AEBU2@@Z ; std::vector<FCMDParameter,std::allocator<FCMDParameter> >::_Emplace_reallocate<FCMDParameter const &>
PUBLIC	??$_Deallocate_plain@V?$allocator@U_Container_proxy@std@@@std@@@std@@YAXAEAV?$allocator@U_Container_proxy@std@@@0@QEAU_Container_proxy@0@@Z ; std::_Deallocate_plain<std::allocator<std::_Container_proxy> >
PUBLIC	??$_Unfancy@U_Container_proxy@std@@@std@@YAPEAU_Container_proxy@0@PEAU10@@Z ; std::_Unfancy<std::_Container_proxy>
PUBLIC	??0?$_Container_proxy_ptr12@V?$allocator@U_Container_proxy@std@@@std@@@std@@QEAA@AEAV?$allocator@U_Container_proxy@std@@@1@AEAU_Container_base12@1@@Z ; std::_Container_proxy_ptr12<std::allocator<std::_Container_proxy> >::_Container_proxy_ptr12<std::allocator<std::_Container_proxy> >
PUBLIC	??1?$_Container_proxy_ptr12@V?$allocator@U_Container_proxy@std@@@std@@@std@@QEAA@XZ ; std::_Container_proxy_ptr12<std::allocator<std::_Container_proxy> >::~_Container_proxy_ptr12<std::allocator<std::_Container_proxy> >
PUBLIC	??$_Allocate_at_least_helper@V?$allocator@D@std@@@std@@YAPEADAEAV?$allocator@D@0@AEA_K@Z ; std::_Allocate_at_least_helper<std::allocator<char> >
PUBLIC	??$_Construct_in_place@PEADAEBQEAD@std@@YAXAEAPEADAEBQEAD@Z ; std::_Construct_in_place<char *,char * const &>
PUBLIC	??$destroy@UFCMDParameter@@@?$_Default_allocator_traits@V?$allocator@UFCMDParameter@@@std@@@std@@SAXAEAV?$allocator@UFCMDParameter@@@1@QEAUFCMDParameter@@@Z ; std::_Default_allocator_traits<std::allocator<FCMDParameter> >::destroy<FCMDParameter>
PUBLIC	??$addressof@PEAD@std@@YAPEAPEADAEAPEAD@Z	; std::addressof<char *>
PUBLIC	??$construct_at@PEADAEAPEAD$0A@@std@@YAPEAPEADQEAPEADAEAPEAD@Z ; std::construct_at<char *,char * &,0>
PUBLIC	??$_Get_size_of_n@$0BA@@std@@YA_K_K@Z		; std::_Get_size_of_n<16>
PUBLIC	??$_Allocate@$0BA@U_Default_allocate_traits@std@@$0A@@std@@YAPEAX_K@Z ; std::_Allocate<16,std::_Default_allocate_traits,0>
PUBLIC	??$min@_K@std@@YAAEB_KAEB_K0@Z			; std::min<unsigned __int64>
PUBLIC	??$construct_at@D$$V$0A@@std@@YAPEADQEAD@Z	; std::construct_at<char,0>
PUBLIC	??$construct@UFCMDParameter@@AEBU1@@?$_Default_allocator_traits@V?$allocator@UFCMDParameter@@@std@@@std@@SAXAEAV?$allocator@UFCMDParameter@@@1@QEAUFCMDParameter@@AEBU3@@Z ; std::_Default_allocator_traits<std::allocator<FCMDParameter> >::construct<FCMDParameter,FCMDParameter const &>
PUBLIC	??$_Allocate_at_least_helper@V?$allocator@UFCMDParameter@@@std@@@std@@YAPEAUFCMDParameter@@AEAV?$allocator@UFCMDParameter@@@0@AEA_K@Z ; std::_Allocate_at_least_helper<std::allocator<FCMDParameter> >
PUBLIC	??$_Uninitialized_move@PEAUFCMDParameter@@V?$allocator@UFCMDParameter@@@std@@@std@@YAPEAUFCMDParameter@@QEAU1@0PEAU1@AEAV?$allocator@UFCMDParameter@@@0@@Z ; std::_Uninitialized_move<FCMDParameter *,std::allocator<FCMDParameter> >
PUBLIC	?deallocate@?$_Default_allocator_traits@V?$allocator@U_Container_proxy@std@@@std@@@std@@SAXAEAV?$allocator@U_Container_proxy@std@@@2@QEAU_Container_proxy@2@_K@Z ; std::_Default_allocator_traits<std::allocator<std::_Container_proxy> >::deallocate
PUBLIC	??$construct_at@PEADAEBQEAD$0A@@std@@YAPEAPEADQEAPEADAEBQEAD@Z ; std::construct_at<char *,char * const &,0>
PUBLIC	??$destroy_at@UFCMDParameter@@@std@@YAXQEAUFCMDParameter@@@Z ; std::destroy_at<FCMDParameter>
PUBLIC	??$_Allocate_manually_vector_aligned@U_Default_allocate_traits@std@@@std@@YAPEAX_K@Z ; std::_Allocate_manually_vector_aligned<std::_Default_allocate_traits>
PUBLIC	??$_Get_size_of_n@$00@std@@YA_K_K@Z		; std::_Get_size_of_n<1>
PUBLIC	??$construct_at@UFCMDParameter@@AEBU1@$0A@@std@@YAPEAUFCMDParameter@@QEAU1@AEBU1@@Z ; std::construct_at<FCMDParameter,FCMDParameter const &,0>
PUBLIC	??$_Get_unwrapped@AEBQEAUFCMDParameter@@@std@@YA?A_TAEBQEAUFCMDParameter@@@Z ; std::_Get_unwrapped<FCMDParameter * const &>
PUBLIC	??0?$_Uninitialized_backout_al@V?$allocator@UFCMDParameter@@@std@@@std@@QEAA@PEAUFCMDParameter@@AEAV?$allocator@UFCMDParameter@@@1@@Z ; std::_Uninitialized_backout_al<std::allocator<FCMDParameter> >::_Uninitialized_backout_al<std::allocator<FCMDParameter> >
PUBLIC	??1?$_Uninitialized_backout_al@V?$allocator@UFCMDParameter@@@std@@@std@@QEAA@XZ ; std::_Uninitialized_backout_al<std::allocator<FCMDParameter> >::~_Uninitialized_backout_al<std::allocator<FCMDParameter> >
PUBLIC	?_Release@?$_Uninitialized_backout_al@V?$allocator@UFCMDParameter@@@std@@@std@@QEAAPEAUFCMDParameter@@XZ ; std::_Uninitialized_backout_al<std::allocator<FCMDParameter> >::_Release
PUBLIC	??$_Emplace_back@UFCMDParameter@@@?$_Uninitialized_backout_al@V?$allocator@UFCMDParameter@@@std@@@std@@QEAAX$$QEAUFCMDParameter@@@Z ; std::_Uninitialized_backout_al<std::allocator<FCMDParameter> >::_Emplace_back<FCMDParameter>
PUBLIC	??$_Get_size_of_n@$0FA@@std@@YA_K_K@Z		; std::_Get_size_of_n<80>
PUBLIC	??$construct@UFCMDParameter@@U1@@?$_Default_allocator_traits@V?$allocator@UFCMDParameter@@@std@@@std@@SAXAEAV?$allocator@UFCMDParameter@@@1@QEAUFCMDParameter@@$$QEAU3@@Z ; std::_Default_allocator_traits<std::allocator<FCMDParameter> >::construct<FCMDParameter,FCMDParameter>
PUBLIC	??$construct_at@UFCMDParameter@@U1@$0A@@std@@YAPEAUFCMDParameter@@QEAU1@$$QEAU1@@Z ; std::construct_at<FCMDParameter,FCMDParameter,0>
PUBLIC	__JustMyCode_Default
PUBLIC	??_7exception@std@@6B@				; std::exception::`vftable'
PUBLIC	??_C@_0BC@EOODALEL@Unknown?5exception@		; `string'
PUBLIC	??_7bad_alloc@std@@6B@				; std::bad_alloc::`vftable'
PUBLIC	??_7bad_array_new_length@std@@6B@		; std::bad_array_new_length::`vftable'
PUBLIC	??_C@_0BF@KINCDENJ@bad?5array?5new?5length@	; `string'
PUBLIC	_TI3?AVbad_array_new_length@std@@
PUBLIC	_CTA3?AVbad_array_new_length@std@@
PUBLIC	??_R0?AVbad_array_new_length@std@@@8		; std::bad_array_new_length `RTTI Type Descriptor'
PUBLIC	_CT??_R0?AVbad_array_new_length@std@@@8??0bad_array_new_length@std@@QEAA@AEBV01@@Z24
PUBLIC	??_R0?AVbad_alloc@std@@@8			; std::bad_alloc `RTTI Type Descriptor'
PUBLIC	_CT??_R0?AVbad_alloc@std@@@8??0bad_alloc@std@@QEAA@AEBV01@@Z24
PUBLIC	??_R0?AVexception@std@@@8			; std::exception `RTTI Type Descriptor'
PUBLIC	_CT??_R0?AVexception@std@@@8??0exception@std@@QEAA@AEBV01@@Z24
PUBLIC	?__LINE__Var@?0??_Adjust_manually_vector_aligned@std@@YAXAEAPEAXAEA_K@Z@4JA ; `std::_Adjust_manually_vector_aligned'::`1'::__LINE__Var
PUBLIC	??_C@_0BB@FCMFBGOM@invalid?5argument@		; `string'
PUBLIC	??_C@_02DKCKIIND@?$CFs@				; `string'
PUBLIC	??_C@_0GA@FLDGEGM@C?3?2Program?5Files?2Microsoft?5Visu@ ; `string'
PUBLIC	??_C@_1MA@IKJDCOIC@?$AAC?$AA?3?$AA?2?$AAP?$AAr?$AAo?$AAg?$AAr?$AAa?$AAm?$AA?5?$AAF?$AAi?$AAl?$AAe@ ; `string'
PUBLIC	??_C@_11LOCGONAA@@				; `string'
PUBLIC	??_C@_1CG@JNLFBNGN@?$AA?$CC?$AAi?$AAn?$AAv?$AAa?$AAl?$AAi?$AAd?$AA?5?$AAa?$AAr?$AAg?$AAu?$AAm?$AAe@ ; `string'
PUBLIC	??_C@_0BA@JFNIOLAK@string?5too?5long@		; `string'
PUBLIC	?app@@3VApplication@@A				; app
PUBLIC	??_C@_0BO@LFGPDMIB@string?5subscript?5out?5of?5range@ ; `string'
PUBLIC	??_C@_0GA@PMHOGIIF@C?3?2Program?5Files?2Microsoft?5Visu@ ; `string'
PUBLIC	??_C@_1MA@GEBPNHFD@?$AAC?$AA?3?$AA?2?$AAP?$AAr?$AAo?$AAg?$AAr?$AAa?$AAm?$AA?5?$AAF?$AAi?$AAl?$AAe@ ; `string'
PUBLIC	??_C@_1EA@OADAPGGK@?$AA?$CC?$AAs?$AAt?$AAr?$AAi?$AAn?$AAg?$AA?5?$AAs?$AAu?$AAb?$AAs?$AAc?$AAr?$AAi@ ; `string'
PUBLIC	??_C@_0DG@KGHKKGBC@null?5pointer?5cannot?5point?5to?5a?5@ ; `string'
PUBLIC	??_C@_1HA@FACCKGGH@?$AA?$CC?$AAn?$AAu?$AAl?$AAl?$AA?5?$AAp?$AAo?$AAi?$AAn?$AAt?$AAe?$AAr?$AA?5?$AAc@ ; `string'
PUBLIC	??_C@_0BA@FOIKENOD@vector?5too?5long@		; `string'
PUBLIC	??_R4exception@std@@6B@				; std::exception::`RTTI Complete Object Locator'
PUBLIC	??_R3exception@std@@8				; std::exception::`RTTI Class Hierarchy Descriptor'
PUBLIC	??_R2exception@std@@8				; std::exception::`RTTI Base Class Array'
PUBLIC	??_R1A@?0A@EA@exception@std@@8			; std::exception::`RTTI Base Class Descriptor at (0,-1,0,64)'
PUBLIC	??_R4bad_alloc@std@@6B@				; std::bad_alloc::`RTTI Complete Object Locator'
PUBLIC	??_R3bad_alloc@std@@8				; std::bad_alloc::`RTTI Class Hierarchy Descriptor'
PUBLIC	??_R2bad_alloc@std@@8				; std::bad_alloc::`RTTI Base Class Array'
PUBLIC	??_R1A@?0A@EA@bad_alloc@std@@8			; std::bad_alloc::`RTTI Base Class Descriptor at (0,-1,0,64)'
PUBLIC	??_R4bad_array_new_length@std@@6B@		; std::bad_array_new_length::`RTTI Complete Object Locator'
PUBLIC	??_R3bad_array_new_length@std@@8		; std::bad_array_new_length::`RTTI Class Hierarchy Descriptor'
PUBLIC	??_R2bad_array_new_length@std@@8		; std::bad_array_new_length::`RTTI Base Class Array'
PUBLIC	??_R1A@?0A@EA@bad_array_new_length@std@@8	; std::bad_array_new_length::`RTTI Base Class Descriptor at (0,-1,0,64)'
EXTRN	??2@YAPEAX_K@Z:PROC				; operator new
EXTRN	??3@YAXPEAX@Z:PROC				; operator delete
EXTRN	??3@YAXPEAX_K@Z:PROC				; operator delete
EXTRN	atexit:PROC
EXTRN	__imp__invalid_parameter:PROC
EXTRN	memcpy:PROC
EXTRN	memmove:PROC
EXTRN	memset:PROC
EXTRN	__imp_strncat_s:PROC
EXTRN	strlen:PROC
EXTRN	__imp__CrtDbgReport:PROC
EXTRN	__imp_??0_Lockit@std@@QEAA@H@Z:PROC
EXTRN	__imp_??1_Lockit@std@@QEAA@XZ:PROC
EXTRN	__std_exception_copy:PROC
EXTRN	__std_exception_destroy:PROC
EXTRN	??_Eexception@std@@UEAAPEAXI@Z:PROC		; std::exception::`vector deleting destructor'
EXTRN	??_Ebad_alloc@std@@UEAAPEAXI@Z:PROC		; std::bad_alloc::`vector deleting destructor'
EXTRN	??_Ebad_array_new_length@std@@UEAAPEAXI@Z:PROC	; std::bad_array_new_length::`vector deleting destructor'
EXTRN	?_Xlength_error@std@@YAXPEBD@Z:PROC		; std::_Xlength_error
EXTRN	_CxxThrowException:PROC
EXTRN	__CheckForDebuggerJustMyCode:PROC
EXTRN	__CxxFrameHandler4:PROC
EXTRN	??_7type_info@@6B@:BYTE				; type_info::`vftable'
_BSS	SEGMENT
?app@@3VApplication@@A DB 060H DUP (?)			; app
_BSS	ENDS
;	COMDAT pdata
pdata	SEGMENT
$pdata$??2@YAPEAX_KPEAX@Z DD imagerel $LN3
	DD	imagerel $LN3+42
	DD	imagerel $unwind$??2@YAPEAX_KPEAX@Z
pdata	ENDS
;	COMDAT pdata
pdata	SEGMENT
$pdata$?is_constant_evaluated@std@@YA_NXZ DD imagerel $LN3
	DD	imagerel $LN3+31
	DD	imagerel $unwind$?is_constant_evaluated@std@@YA_NXZ
pdata	ENDS
;	COMDAT pdata
pdata	SEGMENT
$pdata$?max@?$numeric_limits@_J@std@@SA_JXZ DD imagerel $LN3
	DD	imagerel $LN3+39
	DD	imagerel $unwind$?max@?$numeric_limits@_J@std@@SA_JXZ
pdata	ENDS
;	COMDAT pdata
pdata	SEGMENT
$pdata$??0exception@std@@QEAA@QEBDH@Z DD imagerel $LN3
	DD	imagerel $LN3+95
	DD	imagerel $unwind$??0exception@std@@QEAA@QEBDH@Z
pdata	ENDS
;	COMDAT pdata
pdata	SEGMENT
$pdata$??0exception@std@@QEAA@AEBV01@@Z DD imagerel $LN3
	DD	imagerel $LN3+102
	DD	imagerel $unwind$??0exception@std@@QEAA@AEBV01@@Z
pdata	ENDS
;	COMDAT pdata
pdata	SEGMENT
$pdata$??1exception@std@@UEAA@XZ DD imagerel $LN3
	DD	imagerel $LN3+63
	DD	imagerel $unwind$??1exception@std@@UEAA@XZ
pdata	ENDS
;	COMDAT pdata
pdata	SEGMENT
$pdata$?what@exception@std@@UEBAPEBDXZ DD imagerel $LN5
	DD	imagerel $LN5+73
	DD	imagerel $unwind$?what@exception@std@@UEBAPEBDXZ
pdata	ENDS
;	COMDAT pdata
pdata	SEGMENT
$pdata$??_Gexception@std@@UEAAPEAXI@Z DD imagerel $LN4
	DD	imagerel $LN4+62
	DD	imagerel $unwind$??_Gexception@std@@UEAAPEAXI@Z
pdata	ENDS
;	COMDAT pdata
pdata	SEGMENT
$pdata$??0bad_alloc@std@@AEAA@QEBD@Z DD imagerel $LN3
	DD	imagerel $LN3+75
	DD	imagerel $unwind$??0bad_alloc@std@@AEAA@QEBD@Z
pdata	ENDS
;	COMDAT pdata
pdata	SEGMENT
$pdata$??1bad_alloc@std@@UEAA@XZ DD imagerel $LN3
	DD	imagerel $LN3+30
	DD	imagerel $unwind$??1bad_alloc@std@@UEAA@XZ
pdata	ENDS
;	COMDAT pdata
pdata	SEGMENT
$pdata$??0bad_alloc@std@@QEAA@AEBV01@@Z DD imagerel $LN3
	DD	imagerel $LN3+57
	DD	imagerel $unwind$??0bad_alloc@std@@QEAA@AEBV01@@Z
pdata	ENDS
;	COMDAT pdata
pdata	SEGMENT
$pdata$??_Gbad_alloc@std@@UEAAPEAXI@Z DD imagerel $LN4
	DD	imagerel $LN4+62
	DD	imagerel $unwind$??_Gbad_alloc@std@@UEAAPEAXI@Z
pdata	ENDS
;	COMDAT pdata
pdata	SEGMENT
$pdata$??0bad_array_new_length@std@@QEAA@XZ DD imagerel $LN3
	DD	imagerel $LN3+67
	DD	imagerel $unwind$??0bad_array_new_length@std@@QEAA@XZ
pdata	ENDS
;	COMDAT pdata
pdata	SEGMENT
$pdata$??1bad_array_new_length@std@@UEAA@XZ DD imagerel $LN3
	DD	imagerel $LN3+30
	DD	imagerel $unwind$??1bad_array_new_length@std@@UEAA@XZ
pdata	ENDS
;	COMDAT pdata
pdata	SEGMENT
$pdata$??0bad_array_new_length@std@@QEAA@AEBV01@@Z DD imagerel $LN3
	DD	imagerel $LN3+57
	DD	imagerel $unwind$??0bad_array_new_length@std@@QEAA@AEBV01@@Z
pdata	ENDS
;	COMDAT pdata
pdata	SEGMENT
$pdata$??_Gbad_array_new_length@std@@UEAAPEAXI@Z DD imagerel $LN4
	DD	imagerel $LN4+62
	DD	imagerel $unwind$??_Gbad_array_new_length@std@@UEAAPEAXI@Z
pdata	ENDS
;	COMDAT pdata
pdata	SEGMENT
$pdata$?_Throw_bad_array_new_length@std@@YAXXZ DD imagerel $LN3
	DD	imagerel $LN3+57
	DD	imagerel $unwind$?_Throw_bad_array_new_length@std@@YAXXZ
pdata	ENDS
;	COMDAT pdata
pdata	SEGMENT
$pdata$?_Allocate@_Default_allocate_traits@std@@SAPEAX_K@Z DD imagerel $LN3
	DD	imagerel $LN3+42
	DD	imagerel $unwind$?_Allocate@_Default_allocate_traits@std@@SAPEAX_K@Z
pdata	ENDS
;	COMDAT pdata
pdata	SEGMENT
$pdata$?_Adjust_manually_vector_aligned@std@@YAXAEAPEAXAEA_K@Z DD imagerel $LN21
	DD	imagerel $LN21+433
	DD	imagerel $unwind$?_Adjust_manually_vector_aligned@std@@YAXAEAPEAXAEA_K@Z
pdata	ENDS
;	COMDAT pdata
pdata	SEGMENT
$pdata$??0_Container_proxy@std@@QEAA@PEAU_Container_base12@1@@Z DD imagerel $LN3
	DD	imagerel $LN3+65
	DD	imagerel $unwind$??0_Container_proxy@std@@QEAA@PEAU_Container_base12@1@@Z
pdata	ENDS
;	COMDAT pdata
pdata	SEGMENT
$pdata$??0_Container_base12@std@@QEAA@XZ DD imagerel $LN3
	DD	imagerel $LN3+48
	DD	imagerel $unwind$??0_Container_base12@std@@QEAA@XZ
pdata	ENDS
;	COMDAT pdata
pdata	SEGMENT
$pdata$?_Orphan_all@_Container_base12@std@@QEAAXXZ DD imagerel $LN5
	DD	imagerel $LN5+65
	DD	imagerel $unwind$?_Orphan_all@_Container_base12@std@@QEAAXXZ
pdata	ENDS
;	COMDAT pdata
pdata	SEGMENT
$pdata$?_Swap_proxy_and_iterators@_Container_base12@std@@QEAAXAEAU12@@Z DD imagerel $LN5
	DD	imagerel $LN5+78
	DD	imagerel $unwind$?_Swap_proxy_and_iterators@_Container_base12@std@@QEAAXAEAU12@@Z
pdata	ENDS
;	COMDAT pdata
pdata	SEGMENT
$pdata$?_Orphan_all_unlocked_v3@_Container_base12@std@@AEAAXXZ DD imagerel $LN7
	DD	imagerel $LN7+114
	DD	imagerel $unwind$?_Orphan_all_unlocked_v3@_Container_base12@std@@AEAAXXZ
pdata	ENDS
;	COMDAT pdata
pdata	SEGMENT
$pdata$?_Swap_proxy_and_iterators_unlocked@_Container_base12@std@@AEAAXAEAU12@@Z DD imagerel $LN5
	DD	imagerel $LN5+122
	DD	imagerel $unwind$?_Swap_proxy_and_iterators_unlocked@_Container_base12@std@@AEAAXAEAU12@@Z
pdata	ENDS
;	COMDAT pdata
pdata	SEGMENT
$pdata$?_Orphan_all_locked_v3@_Container_base12@std@@AEAAXXZ DD imagerel $LN3
	DD	imagerel $LN3+67
	DD	imagerel $unwind$?_Orphan_all_locked_v3@_Container_base12@std@@AEAAXXZ
pdata	ENDS
;	COMDAT pdata
pdata	SEGMENT
$pdata$?_Swap_proxy_and_iterators_locked@_Container_base12@std@@AEAAXAEAU12@@Z DD imagerel $LN3
	DD	imagerel $LN3+76
	DD	imagerel $unwind$?_Swap_proxy_and_iterators_locked@_Container_base12@std@@AEAAXAEAU12@@Z
pdata	ENDS
;	COMDAT pdata
pdata	SEGMENT
$pdata$??$exchange@PEAU_Iterator_base12@std@@$$T@std@@YAPEAU_Iterator_base12@0@AEAPEAU10@$$QEA$$T@Z DD imagerel $LN3
	DD	imagerel $LN3+67
	DD	imagerel $unwind$??$exchange@PEAU_Iterator_base12@std@@$$T@std@@YAPEAU_Iterator_base12@0@AEAPEAU10@$$QEA$$T@Z
pdata	ENDS
;	COMDAT pdata
pdata	SEGMENT
$pdata$?_Release@_Basic_container_proxy_ptr12@std@@QEAAXXZ DD imagerel $LN3
	DD	imagerel $LN3+44
	DD	imagerel $unwind$?_Release@_Basic_container_proxy_ptr12@std@@QEAAXXZ
pdata	ENDS
;	COMDAT pdata
pdata	SEGMENT
$pdata$??0_Basic_container_proxy_ptr12@std@@IEAA@XZ DD imagerel $LN3
	DD	imagerel $LN3+48
	DD	imagerel $unwind$??0_Basic_container_proxy_ptr12@std@@IEAA@XZ
pdata	ENDS
;	COMDAT pdata
pdata	SEGMENT
$pdata$??$addressof@U_Container_base12@std@@@std@@YAPEAU_Container_base12@0@AEAU10@@Z DD imagerel $LN3
	DD	imagerel $LN3+37
	DD	imagerel $unwind$??$addressof@U_Container_base12@std@@@std@@YAPEAU_Container_base12@0@AEAU10@@Z
pdata	ENDS
;	COMDAT pdata
pdata	SEGMENT
$pdata$??$_Construct_in_place@U_Container_proxy@std@@PEAU_Container_base12@2@@std@@YAXAEAU_Container_proxy@0@$$QEAPEAU_Container_base12@0@@Z DD imagerel $LN5
	DD	imagerel $LN5+115
	DD	imagerel $unwind$??$_Construct_in_place@U_Container_proxy@std@@PEAU_Container_base12@2@@std@@YAXAEAU_Container_proxy@0@$$QEAPEAU_Container_base12@0@@Z
pdata	ENDS
;	COMDAT pdata
pdata	SEGMENT
$pdata$?copy@?$_Char_traits@DH@std@@SAPEADQEADQEBD_K@Z DD imagerel $LN7
	DD	imagerel $LN7+148
	DD	imagerel $unwind$?copy@?$_Char_traits@DH@std@@SAPEADQEADQEBD_K@Z
pdata	ENDS
;	COMDAT pdata
pdata	SEGMENT
$pdata$?move@?$_Char_traits@DH@std@@SAPEADQEADQEBD_K@Z DD imagerel $LN16
	DD	imagerel $LN16+305
	DD	imagerel $unwind$?move@?$_Char_traits@DH@std@@SAPEADQEADQEBD_K@Z
pdata	ENDS
;	COMDAT pdata
pdata	SEGMENT
$pdata$?assign@?$_Char_traits@DH@std@@SAXAEADAEBD@Z DD imagerel $LN5
	DD	imagerel $LN5+86
	DD	imagerel $unwind$?assign@?$_Char_traits@DH@std@@SAXAEADAEBD@Z
pdata	ENDS
;	COMDAT pdata
pdata	SEGMENT
$pdata$?length@?$_Narrow_char_traits@DH@std@@SA_KQEBD@Z DD imagerel $LN4
	DD	imagerel $LN4+71
	DD	imagerel $unwind$?length@?$_Narrow_char_traits@DH@std@@SA_KQEBD@Z
pdata	ENDS
;	COMDAT pdata
pdata	SEGMENT
$pdata$?assign@?$_Narrow_char_traits@DH@std@@SAXAEADAEBD@Z DD imagerel $LN4
	DD	imagerel $LN4+78
	DD	imagerel $unwind$?assign@?$_Narrow_char_traits@DH@std@@SAXAEADAEBD@Z
pdata	ENDS
;	COMDAT pdata
pdata	SEGMENT
$pdata$?_Xlen_string@std@@YAXXZ DD imagerel $LN3
	DD	imagerel $LN3+41
	DD	imagerel $unwind$?_Xlen_string@std@@YAXXZ
pdata	ENDS
;	COMDAT pdata
pdata	SEGMENT
$pdata$??0?$allocator@D@std@@QEAA@XZ DD imagerel $LN3
	DD	imagerel $LN3+37
	DD	imagerel $unwind$??0?$allocator@D@std@@QEAA@XZ
pdata	ENDS
;	COMDAT pdata
pdata	SEGMENT
$pdata$?deallocate@?$allocator@D@std@@QEAAXQEAD_K@Z DD imagerel $LN13
	DD	imagerel $LN13+189
	DD	imagerel $unwind$?deallocate@?$allocator@D@std@@QEAAXQEAD_K@Z
pdata	ENDS
;	COMDAT pdata
pdata	SEGMENT
$pdata$?allocate@?$allocator@D@std@@QEAAPEAD_K@Z DD imagerel $LN3
	DD	imagerel $LN3+55
	DD	imagerel $unwind$?allocate@?$allocator@D@std@@QEAAPEAD_K@Z
pdata	ENDS
;	COMDAT pdata
pdata	SEGMENT
$pdata$?max_size@?$_Default_allocator_traits@V?$allocator@D@std@@@std@@SA_KAEBV?$allocator@D@2@@Z DD imagerel $LN3
	DD	imagerel $LN3+40
	DD	imagerel $unwind$?max_size@?$_Default_allocator_traits@V?$allocator@D@std@@@std@@SA_KAEBV?$allocator@D@2@@Z
pdata	ENDS
;	COMDAT pdata
pdata	SEGMENT
$pdata$?select_on_container_copy_construction@?$_Default_allocator_traits@V?$allocator@D@std@@@std@@SA?AV?$allocator@D@2@AEBV32@@Z DD imagerel $LN3
	DD	imagerel $LN3+42
	DD	imagerel $unwind$?select_on_container_copy_construction@?$_Default_allocator_traits@V?$allocator@D@std@@@std@@SA?AV?$allocator@D@2@AEBV32@@Z
pdata	ENDS
;	COMDAT pdata
pdata	SEGMENT
$pdata$??0?$_String_val@U?$_Simple_types@D@std@@@std@@QEAA@XZ DD imagerel $LN3
	DD	imagerel $LN3+86
	DD	imagerel $unwind$??0?$_String_val@U?$_Simple_types@D@std@@@std@@QEAA@XZ
pdata	ENDS
;	COMDAT pdata
pdata	SEGMENT
$pdata$?_Myptr@?$_String_val@U?$_Simple_types@D@std@@@std@@QEAAPEADXZ DD imagerel $LN4
	DD	imagerel $LN4+82
	DD	imagerel $unwind$?_Myptr@?$_String_val@U?$_Simple_types@D@std@@@std@@QEAAPEADXZ
pdata	ENDS
;	COMDAT pdata
pdata	SEGMENT
$pdata$?_Myptr@?$_String_val@U?$_Simple_types@D@std@@@std@@QEBAPEBDXZ DD imagerel $LN4
	DD	imagerel $LN4+82
	DD	imagerel $unwind$?_Myptr@?$_String_val@U?$_Simple_types@D@std@@@std@@QEBAPEBDXZ
pdata	ENDS
;	COMDAT pdata
pdata	SEGMENT
$pdata$?_Large_string_engaged@?$_String_val@U?$_Simple_types@D@std@@@std@@QEBA_NXZ DD imagerel $LN5
	DD	imagerel $LN5+64
	DD	imagerel $unwind$?_Large_string_engaged@?$_String_val@U?$_Simple_types@D@std@@@std@@QEBA_NXZ
pdata	ENDS
;	COMDAT pdata
pdata	SEGMENT
$pdata$?_Activate_SSO_buffer@?$_String_val@U?$_Simple_types@D@std@@@std@@QEAAXXZ DD imagerel $LN7
	DD	imagerel $LN7+93
	DD	imagerel $unwind$?_Activate_SSO_buffer@?$_String_val@U?$_Simple_types@D@std@@@std@@QEAAXXZ
pdata	ENDS
;	COMDAT pdata
pdata	SEGMENT
$pdata$??0_Bxty@?$_String_val@U?$_Simple_types@D@std@@@std@@QEAA@XZ DD imagerel $LN3
	DD	imagerel $LN3+56
	DD	imagerel $unwind$??0_Bxty@?$_String_val@U?$_Simple_types@D@std@@@std@@QEAA@XZ
pdata	ENDS
;	COMDAT pdata
pdata	SEGMENT
$pdata$??1_Bxty@?$_String_val@U?$_Simple_types@D@std@@@std@@QEAA@XZ DD imagerel $LN3
	DD	imagerel $LN3+33
	DD	imagerel $unwind$??1_Bxty@?$_String_val@U?$_Simple_types@D@std@@@std@@QEAA@XZ
pdata	ENDS
;	COMDAT pdata
pdata	SEGMENT
$pdata$??1?$_String_val@U?$_Simple_types@D@std@@@std@@QEAA@XZ DD imagerel $LN3
	DD	imagerel $LN3+37
	DD	imagerel $unwind$??1?$_String_val@U?$_Simple_types@D@std@@@std@@QEAA@XZ
pdata	ENDS
;	COMDAT pdata
pdata	SEGMENT
$pdata$??0?$basic_string@DU?$char_traits@D@std@@V?$allocator@D@2@@std@@QEAA@XZ DD imagerel $LN3
	DD	imagerel $LN3+108
	DD	imagerel $unwind$??0?$basic_string@DU?$char_traits@D@std@@V?$allocator@D@2@@std@@QEAA@XZ
pdata	ENDS
;	COMDAT pdata
pdata	SEGMENT
$pdata$??0?$basic_string@DU?$char_traits@D@std@@V?$allocator@D@2@@std@@QEAA@AEBV01@@Z DD imagerel $LN4
	DD	imagerel $LN4+149
	DD	imagerel $unwind$??0?$basic_string@DU?$char_traits@D@std@@V?$allocator@D@2@@std@@QEAA@AEBV01@@Z
pdata	ENDS
;	COMDAT pdata
pdata	SEGMENT
$pdata$?dtor$0@?0???0?$basic_string@DU?$char_traits@D@std@@V?$allocator@D@2@@std@@QEAA@AEBV01@@Z@4HA DD imagerel ?dtor$0@?0???0?$basic_string@DU?$char_traits@D@std@@V?$allocator@D@2@@std@@QEAA@AEBV01@@Z@4HA
	DD	imagerel ?dtor$0@?0???0?$basic_string@DU?$char_traits@D@std@@V?$allocator@D@2@@std@@QEAA@AEBV01@@Z@4HA+25
	DD	imagerel $unwind$?dtor$0@?0???0?$basic_string@DU?$char_traits@D@std@@V?$allocator@D@2@@std@@QEAA@AEBV01@@Z@4HA
pdata	ENDS
;	COMDAT pdata
pdata	SEGMENT
$pdata$?_Start_element_lifetimes@?$basic_string@DU?$char_traits@D@std@@V?$allocator@D@2@@std@@CAXQEAD_K@Z DD imagerel $LN7
	DD	imagerel $LN7+105
	DD	imagerel $unwind$?_Start_element_lifetimes@?$basic_string@DU?$char_traits@D@std@@V?$allocator@D@2@@std@@CAXQEAD_K@Z
pdata	ENDS
;	COMDAT pdata
pdata	SEGMENT
$pdata$??0?$basic_string@DU?$char_traits@D@std@@V?$allocator@D@2@@std@@QEAA@$$QEAV01@@Z DD imagerel $LN3
	DD	imagerel $LN3+144
	DD	imagerel $unwind$??0?$basic_string@DU?$char_traits@D@std@@V?$allocator@D@2@@std@@QEAA@$$QEAV01@@Z
pdata	ENDS
;	COMDAT pdata
pdata	SEGMENT
$pdata$?_Memcpy_val_from@?$basic_string@DU?$char_traits@D@std@@V?$allocator@D@2@@std@@AEAAXAEBV12@@Z DD imagerel $LN3
	DD	imagerel $LN3+97
	DD	imagerel $unwind$?_Memcpy_val_from@?$basic_string@DU?$char_traits@D@std@@V?$allocator@D@2@@std@@AEAAXAEBV12@@Z
pdata	ENDS
;	COMDAT pdata
pdata	SEGMENT
$pdata$?_Take_contents@?$basic_string@DU?$char_traits@D@std@@V?$allocator@D@2@@std@@AEAAXAEAV12@@Z DD imagerel $LN8
	DD	imagerel $LN8+311
	DD	imagerel $unwind$?_Take_contents@?$basic_string@DU?$char_traits@D@std@@V?$allocator@D@2@@std@@AEAAXAEAV12@@Z
pdata	ENDS
;	COMDAT pdata
pdata	SEGMENT
$pdata$??1?$basic_string@DU?$char_traits@D@std@@V?$allocator@D@2@@std@@QEAA@XZ DD imagerel $LN3
	DD	imagerel $LN3+121
	DD	imagerel $unwind$??1?$basic_string@DU?$char_traits@D@std@@V?$allocator@D@2@@std@@QEAA@XZ
pdata	ENDS
;	COMDAT pdata
pdata	SEGMENT
$pdata$??4?$basic_string@DU?$char_traits@D@std@@V?$allocator@D@2@@std@@QEAAAEAV01@AEBV01@@Z DD imagerel $LN4
	DD	imagerel $LN4+150
	DD	imagerel $unwind$??4?$basic_string@DU?$char_traits@D@std@@V?$allocator@D@2@@std@@QEAAAEAV01@AEBV01@@Z
pdata	ENDS
;	COMDAT pdata
pdata	SEGMENT
$pdata$??4?$basic_string@DU?$char_traits@D@std@@V?$allocator@D@2@@std@@QEAAAEAV01@QEBD@Z DD imagerel $LN3
	DD	imagerel $LN3+51
	DD	imagerel $unwind$??4?$basic_string@DU?$char_traits@D@std@@V?$allocator@D@2@@std@@QEAAAEAV01@QEBD@Z
pdata	ENDS
;	COMDAT pdata
pdata	SEGMENT
$pdata$?assign@?$basic_string@DU?$char_traits@D@std@@V?$allocator@D@2@@std@@QEAAAEAV12@QEBD_K@Z DD imagerel $LN4
	DD	imagerel $LN4+160
	DD	imagerel $unwind$?assign@?$basic_string@DU?$char_traits@D@std@@V?$allocator@D@2@@std@@QEAAAEAV12@QEBD_K@Z
pdata	ENDS
;	COMDAT pdata
pdata	SEGMENT
$pdata$?assign@?$basic_string@DU?$char_traits@D@std@@V?$allocator@D@2@@std@@QEAAAEAV12@QEBD@Z DD imagerel $LN3
	DD	imagerel $LN3+71
	DD	imagerel $unwind$?assign@?$basic_string@DU?$char_traits@D@std@@V?$allocator@D@2@@std@@QEAAAEAV12@QEBD@Z
pdata	ENDS
;	COMDAT pdata
pdata	SEGMENT
$pdata$??A?$basic_string@DU?$char_traits@D@std@@V?$allocator@D@2@@std@@QEAAAEAD_K@Z DD imagerel $LN12
	DD	imagerel $LN12+187
	DD	imagerel $unwind$??A?$basic_string@DU?$char_traits@D@std@@V?$allocator@D@2@@std@@QEAAAEAD_K@Z
pdata	ENDS
;	COMDAT pdata
pdata	SEGMENT
$pdata$?size@?$basic_string@DU?$char_traits@D@std@@V?$allocator@D@2@@std@@QEBA_KXZ DD imagerel $LN3
	DD	imagerel $LN3+41
	DD	imagerel $unwind$?size@?$basic_string@DU?$char_traits@D@std@@V?$allocator@D@2@@std@@QEBA_KXZ
pdata	ENDS
;	COMDAT pdata
pdata	SEGMENT
$pdata$?max_size@?$basic_string@DU?$char_traits@D@std@@V?$allocator@D@2@@std@@QEBA_KXZ DD imagerel $LN3
	DD	imagerel $LN3+124
	DD	imagerel $unwind$?max_size@?$basic_string@DU?$char_traits@D@std@@V?$allocator@D@2@@std@@QEBA_KXZ
pdata	ENDS
;	COMDAT pdata
pdata	SEGMENT
$pdata$?_Calculate_growth@?$basic_string@DU?$char_traits@D@std@@V?$allocator@D@2@@std@@CA_K_K00@Z DD imagerel $LN5
	DD	imagerel $LN5+151
	DD	imagerel $unwind$?_Calculate_growth@?$basic_string@DU?$char_traits@D@std@@V?$allocator@D@2@@std@@CA_K_K00@Z
pdata	ENDS
;	COMDAT pdata
pdata	SEGMENT
$pdata$?_Calculate_growth@?$basic_string@DU?$char_traits@D@std@@V?$allocator@D@2@@std@@AEBA_K_K@Z DD imagerel $LN3
	DD	imagerel $LN3+80
	DD	imagerel $unwind$?_Calculate_growth@?$basic_string@DU?$char_traits@D@std@@V?$allocator@D@2@@std@@AEBA_K_K@Z
pdata	ENDS
;	COMDAT pdata
pdata	SEGMENT
$pdata$?_Tidy_init@?$basic_string@DU?$char_traits@D@std@@V?$allocator@D@2@@std@@AEAAXXZ DD imagerel $LN3
	DD	imagerel $LN3+108
	DD	imagerel $unwind$?_Tidy_init@?$basic_string@DU?$char_traits@D@std@@V?$allocator@D@2@@std@@AEAAXXZ
pdata	ENDS
;	COMDAT pdata
pdata	SEGMENT
$pdata$?_Tidy_deallocate@?$basic_string@DU?$char_traits@D@std@@V?$allocator@D@2@@std@@AEAAXXZ DD imagerel $LN4
	DD	imagerel $LN4+205
	DD	imagerel $unwind$?_Tidy_deallocate@?$basic_string@DU?$char_traits@D@std@@V?$allocator@D@2@@std@@AEAAXXZ
pdata	ENDS
;	COMDAT pdata
pdata	SEGMENT
$pdata$?_Swap_proxy_and_iterators@?$basic_string@DU?$char_traits@D@std@@V?$allocator@D@2@@std@@AEAAXAEAV12@@Z DD imagerel $LN3
	DD	imagerel $LN3+62
	DD	imagerel $unwind$?_Swap_proxy_and_iterators@?$basic_string@DU?$char_traits@D@std@@V?$allocator@D@2@@std@@AEAAXAEAV12@@Z
pdata	ENDS
;	COMDAT pdata
pdata	SEGMENT
$pdata$?_Getal@?$basic_string@DU?$char_traits@D@std@@V?$allocator@D@2@@std@@AEAAAEAV?$allocator@D@2@XZ DD imagerel $LN3
	DD	imagerel $LN3+45
	DD	imagerel $unwind$?_Getal@?$basic_string@DU?$char_traits@D@std@@V?$allocator@D@2@@std@@AEAAAEAV?$allocator@D@2@XZ
pdata	ENDS
;	COMDAT pdata
pdata	SEGMENT
$pdata$?_Getal@?$basic_string@DU?$char_traits@D@std@@V?$allocator@D@2@@std@@AEBAAEBV?$allocator@D@2@XZ DD imagerel $LN3
	DD	imagerel $LN3+45
	DD	imagerel $unwind$?_Getal@?$basic_string@DU?$char_traits@D@std@@V?$allocator@D@2@@std@@AEBAAEBV?$allocator@D@2@XZ
pdata	ENDS
;	COMDAT pdata
pdata	SEGMENT
$pdata$?_Get_first@?$_Compressed_pair@V?$allocator@D@std@@V?$_String_val@U?$_Simple_types@D@std@@@2@$00@std@@QEAAAEAV?$allocator@D@2@XZ DD imagerel $LN3
	DD	imagerel $LN3+37
	DD	imagerel $unwind$?_Get_first@?$_Compressed_pair@V?$allocator@D@std@@V?$_String_val@U?$_Simple_types@D@std@@@2@$00@std@@QEAAAEAV?$allocator@D@2@XZ
pdata	ENDS
;	COMDAT pdata
pdata	SEGMENT
$pdata$?_Get_first@?$_Compressed_pair@V?$allocator@D@std@@V?$_String_val@U?$_Simple_types@D@std@@@2@$00@std@@QEBAAEBV?$allocator@D@2@XZ DD imagerel $LN3
	DD	imagerel $LN3+37
	DD	imagerel $unwind$?_Get_first@?$_Compressed_pair@V?$allocator@D@std@@V?$_String_val@U?$_Simple_types@D@std@@@2@$00@std@@QEBAAEBV?$allocator@D@2@XZ
pdata	ENDS
;	COMDAT pdata
pdata	SEGMENT
$pdata$??1?$_Compressed_pair@V?$allocator@D@std@@V?$_String_val@U?$_Simple_types@D@std@@@2@$00@std@@QEAA@XZ DD imagerel $LN3
	DD	imagerel $LN3+33
	DD	imagerel $unwind$??1?$_Compressed_pair@V?$allocator@D@std@@V?$_String_val@U?$_Simple_types@D@std@@@2@$00@std@@QEAA@XZ
pdata	ENDS
;	COMDAT pdata
pdata	SEGMENT
$pdata$??0FCMDParameter@@QEAA@XZ DD imagerel $LN3
	DD	imagerel $LN3+53
	DD	imagerel $unwind$??0FCMDParameter@@QEAA@XZ
pdata	ENDS
;	COMDAT pdata
pdata	SEGMENT
$pdata$??1FCMDParameter@@QEAA@XZ DD imagerel $LN3
	DD	imagerel $LN3+49
	DD	imagerel $unwind$??1FCMDParameter@@QEAA@XZ
pdata	ENDS
;	COMDAT pdata
pdata	SEGMENT
$pdata$??0FCMDParameter@@QEAA@AEBU0@@Z DD imagerel $LN5
	DD	imagerel $LN5+88
	DD	imagerel $unwind$??0FCMDParameter@@QEAA@AEBU0@@Z
pdata	ENDS
;	COMDAT pdata
pdata	SEGMENT
$pdata$?dtor$0@?0???0FCMDParameter@@QEAA@AEBU0@@Z@4HA DD imagerel ?dtor$0@?0???0FCMDParameter@@QEAA@AEBU0@@Z@4HA
	DD	imagerel ?dtor$0@?0???0FCMDParameter@@QEAA@AEBU0@@Z@4HA+25
	DD	imagerel $unwind$?dtor$0@?0???0FCMDParameter@@QEAA@AEBU0@@Z@4HA
pdata	ENDS
;	COMDAT pdata
pdata	SEGMENT
$pdata$??0FCMDParameter@@QEAA@$$QEAU0@@Z DD imagerel $LN3
	DD	imagerel $LN3+86
	DD	imagerel $unwind$??0FCMDParameter@@QEAA@$$QEAU0@@Z
pdata	ENDS
;	COMDAT pdata
pdata	SEGMENT
$pdata$??_GFCMDParameter@@QEAAPEAXI@Z DD imagerel $LN4
	DD	imagerel $LN4+62
	DD	imagerel $unwind$??_GFCMDParameter@@QEAAPEAXI@Z
pdata	ENDS
;	COMDAT pdata
pdata	SEGMENT
$pdata$??0Application@@QEAA@XZ DD imagerel $LN5
	DD	imagerel $LN5+80
	DD	imagerel $unwind$??0Application@@QEAA@XZ
pdata	ENDS
;	COMDAT pdata
pdata	SEGMENT
$pdata$??1Application@@QEAA@XZ DD imagerel $LN3
	DD	imagerel $LN3+65
	DD	imagerel $unwind$??1Application@@QEAA@XZ
pdata	ENDS
;	COMDAT pdata
pdata	SEGMENT
$pdata$?Initialize@Application@@QEAAXPEAUHINSTANCE__@@0V?$basic_string@DU?$char_traits@D@std@@V?$allocator@D@2@@std@@H@Z DD imagerel $LN4
	DD	imagerel $LN4+120
	DD	imagerel $unwind$?Initialize@Application@@QEAAXPEAUHINSTANCE__@@0V?$basic_string@DU?$char_traits@D@std@@V?$allocator@D@2@@std@@H@Z
pdata	ENDS
;	COMDAT pdata
pdata	SEGMENT
$pdata$?dtor$0@?0??Initialize@Application@@QEAAXPEAUHINSTANCE__@@0V?$basic_string@DU?$char_traits@D@std@@V?$allocator@D@2@@std@@H@Z@4HA DD imagerel ?dtor$0@?0??Initialize@Application@@QEAAXPEAUHINSTANCE__@@0V?$basic_string@DU?$char_traits@D@std@@V?$allocator@D@2@@std@@H@Z@4HA
	DD	imagerel ?dtor$0@?0??Initialize@Application@@QEAAXPEAUHINSTANCE__@@0V?$basic_string@DU?$char_traits@D@std@@V?$allocator@D@2@@std@@H@Z@4HA+25
	DD	imagerel $unwind$?dtor$0@?0??Initialize@Application@@QEAAXPEAUHINSTANCE__@@0V?$basic_string@DU?$char_traits@D@std@@V?$allocator@D@2@@std@@H@Z@4HA
pdata	ENDS
;	COMDAT pdata
pdata	SEGMENT
$pdata$?ParseCmdLine@Application@@QEAAXXZ DD imagerel $LN15
	DD	imagerel $LN15+923
	DD	imagerel $unwind$?ParseCmdLine@Application@@QEAAXXZ
pdata	ENDS
;	COMDAT pdata
pdata	SEGMENT
$pdata$?dtor$0@?0??ParseCmdLine@Application@@QEAAXXZ@4HA DD imagerel ?dtor$0@?0??ParseCmdLine@Application@@QEAAXXZ@4HA
	DD	imagerel ?dtor$0@?0??ParseCmdLine@Application@@QEAAXXZ@4HA+25
	DD	imagerel $unwind$?dtor$0@?0??ParseCmdLine@Application@@QEAAXXZ@4HA
pdata	ENDS
;	COMDAT pdata
pdata	SEGMENT
$pdata$?CheckParameterCmdLine@Application@@QEAA_NV?$basic_string@DU?$char_traits@D@std@@V?$allocator@D@2@@std@@AEAV23@@Z DD imagerel $LN4
	DD	imagerel $LN4+60
	DD	imagerel $unwind$?CheckParameterCmdLine@Application@@QEAA_NV?$basic_string@DU?$char_traits@D@std@@V?$allocator@D@2@@std@@AEAV23@@Z
pdata	ENDS
;	COMDAT pdata
pdata	SEGMENT
$pdata$??0?$allocator@UFCMDParameter@@@std@@QEAA@XZ DD imagerel $LN3
	DD	imagerel $LN3+37
	DD	imagerel $unwind$??0?$allocator@UFCMDParameter@@@std@@QEAA@XZ
pdata	ENDS
;	COMDAT pdata
pdata	SEGMENT
$pdata$?deallocate@?$allocator@UFCMDParameter@@@std@@QEAAXQEAUFCMDParameter@@_K@Z DD imagerel $LN13
	DD	imagerel $LN13+193
	DD	imagerel $unwind$?deallocate@?$allocator@UFCMDParameter@@@std@@QEAAXQEAUFCMDParameter@@_K@Z
pdata	ENDS
;	COMDAT pdata
pdata	SEGMENT
$pdata$?allocate@?$allocator@UFCMDParameter@@@std@@QEAAPEAUFCMDParameter@@_K@Z DD imagerel $LN3
	DD	imagerel $LN3+55
	DD	imagerel $unwind$?allocate@?$allocator@UFCMDParameter@@@std@@QEAAPEAUFCMDParameter@@_K@Z
pdata	ENDS
;	COMDAT pdata
pdata	SEGMENT
$pdata$?max_size@?$_Default_allocator_traits@V?$allocator@UFCMDParameter@@@std@@@std@@SA_KAEBV?$allocator@UFCMDParameter@@@2@@Z DD imagerel $LN3
	DD	imagerel $LN3+43
	DD	imagerel $unwind$?max_size@?$_Default_allocator_traits@V?$allocator@UFCMDParameter@@@std@@@std@@SA_KAEBV?$allocator@UFCMDParameter@@@2@@Z
pdata	ENDS
;	COMDAT pdata
pdata	SEGMENT
$pdata$??0?$vector@UFCMDParameter@@V?$allocator@UFCMDParameter@@@std@@@std@@QEAA@XZ DD imagerel $LN3
	DD	imagerel $LN3+99
	DD	imagerel $unwind$??0?$vector@UFCMDParameter@@V?$allocator@UFCMDParameter@@@std@@@std@@QEAA@XZ
pdata	ENDS
;	COMDAT pdata
pdata	SEGMENT
$pdata$??1?$vector@UFCMDParameter@@V?$allocator@UFCMDParameter@@@std@@@std@@QEAA@XZ DD imagerel $LN3
	DD	imagerel $LN3+110
	DD	imagerel $unwind$??1?$vector@UFCMDParameter@@V?$allocator@UFCMDParameter@@@std@@@std@@QEAA@XZ
pdata	ENDS
;	COMDAT pdata
pdata	SEGMENT
$pdata$?push_back@?$vector@UFCMDParameter@@V?$allocator@UFCMDParameter@@@std@@@std@@QEAAXAEBUFCMDParameter@@@Z DD imagerel $LN3
	DD	imagerel $LN3+51
	DD	imagerel $unwind$?push_back@?$vector@UFCMDParameter@@V?$allocator@UFCMDParameter@@@std@@@std@@QEAAXAEBUFCMDParameter@@@Z
pdata	ENDS
;	COMDAT pdata
pdata	SEGMENT
$pdata$?max_size@?$vector@UFCMDParameter@@V?$allocator@UFCMDParameter@@@std@@@std@@QEBA_KXZ DD imagerel $LN3
	DD	imagerel $LN3+79
	DD	imagerel $unwind$?max_size@?$vector@UFCMDParameter@@V?$allocator@UFCMDParameter@@@std@@@std@@QEBA_KXZ
pdata	ENDS
;	COMDAT pdata
pdata	SEGMENT
$pdata$?capacity@?$vector@UFCMDParameter@@V?$allocator@UFCMDParameter@@@std@@@std@@QEBA_KXZ DD imagerel $LN3
	DD	imagerel $LN3+70
	DD	imagerel $unwind$?capacity@?$vector@UFCMDParameter@@V?$allocator@UFCMDParameter@@@std@@@std@@QEBA_KXZ
pdata	ENDS
;	COMDAT pdata
pdata	SEGMENT
$pdata$?_Calculate_growth@?$vector@UFCMDParameter@@V?$allocator@UFCMDParameter@@@std@@@std@@AEBA_K_K@Z DD imagerel $LN5
	DD	imagerel $LN5+151
	DD	imagerel $unwind$?_Calculate_growth@?$vector@UFCMDParameter@@V?$allocator@UFCMDParameter@@@std@@@std@@AEBA_K_K@Z
pdata	ENDS
;	COMDAT pdata
pdata	SEGMENT
$pdata$?_Change_array@?$vector@UFCMDParameter@@V?$allocator@UFCMDParameter@@@std@@@std@@AEAAXQEAUFCMDParameter@@_K1@Z DD imagerel $LN4
	DD	imagerel $LN4+272
	DD	imagerel $unwind$?_Change_array@?$vector@UFCMDParameter@@V?$allocator@UFCMDParameter@@@std@@@std@@AEAAXQEAUFCMDParameter@@_K1@Z
pdata	ENDS
;	COMDAT pdata
pdata	SEGMENT
$pdata$?_Tidy@?$vector@UFCMDParameter@@V?$allocator@UFCMDParameter@@@std@@@std@@AEAAXXZ DD imagerel $LN4
	DD	imagerel $LN4+220
	DD	imagerel $unwind$?_Tidy@?$vector@UFCMDParameter@@V?$allocator@UFCMDParameter@@@std@@@std@@AEAAXXZ
pdata	ENDS
;	COMDAT pdata
pdata	SEGMENT
$pdata$?_Xlength@?$vector@UFCMDParameter@@V?$allocator@UFCMDParameter@@@std@@@std@@CAXXZ DD imagerel $LN3
	DD	imagerel $LN3+41
	DD	imagerel $unwind$?_Xlength@?$vector@UFCMDParameter@@V?$allocator@UFCMDParameter@@@std@@@std@@CAXXZ
pdata	ENDS
;	COMDAT pdata
pdata	SEGMENT
$pdata$?_Orphan_range_unlocked@?$vector@UFCMDParameter@@V?$allocator@UFCMDParameter@@@std@@@std@@AEBAXPEAUFCMDParameter@@0@Z DD imagerel $LN8
	DD	imagerel $LN8+162
	DD	imagerel $unwind$?_Orphan_range_unlocked@?$vector@UFCMDParameter@@V?$allocator@UFCMDParameter@@@std@@@std@@AEBAXPEAUFCMDParameter@@0@Z
pdata	ENDS
;	COMDAT pdata
pdata	SEGMENT
$pdata$?_Orphan_range_locked@?$vector@UFCMDParameter@@V?$allocator@UFCMDParameter@@@std@@@std@@AEBAXPEAUFCMDParameter@@0@Z DD imagerel $LN4
	DD	imagerel $LN4+87
	DD	imagerel $unwind$?_Orphan_range_locked@?$vector@UFCMDParameter@@V?$allocator@UFCMDParameter@@@std@@@std@@AEBAXPEAUFCMDParameter@@0@Z
pdata	ENDS
;	COMDAT pdata
pdata	SEGMENT
$pdata$?dtor$0@?0??_Orphan_range_locked@?$vector@UFCMDParameter@@V?$allocator@UFCMDParameter@@@std@@@std@@AEBAXPEAUFCMDParameter@@0@Z@4HA DD imagerel ?dtor$0@?0??_Orphan_range_locked@?$vector@UFCMDParameter@@V?$allocator@UFCMDParameter@@@std@@@std@@AEBAXPEAUFCMDParameter@@0@Z@4HA
	DD	imagerel ?dtor$0@?0??_Orphan_range_locked@?$vector@UFCMDParameter@@V?$allocator@UFCMDParameter@@@std@@@std@@AEBAXPEAUFCMDParameter@@0@Z@4HA+26
	DD	imagerel $unwind$?dtor$0@?0??_Orphan_range_locked@?$vector@UFCMDParameter@@V?$allocator@UFCMDParameter@@@std@@@std@@AEBAXPEAUFCMDParameter@@0@Z@4HA
pdata	ENDS
;	COMDAT pdata
pdata	SEGMENT
$pdata$?_Orphan_range@?$vector@UFCMDParameter@@V?$allocator@UFCMDParameter@@@std@@@std@@AEBAXPEAUFCMDParameter@@0@Z DD imagerel $LN5
	DD	imagerel $LN5+91
	DD	imagerel $unwind$?_Orphan_range@?$vector@UFCMDParameter@@V?$allocator@UFCMDParameter@@@std@@@std@@AEBAXPEAUFCMDParameter@@0@Z
pdata	ENDS
;	COMDAT pdata
pdata	SEGMENT
$pdata$?_Getal@?$vector@UFCMDParameter@@V?$allocator@UFCMDParameter@@@std@@@std@@AEAAAEAV?$allocator@UFCMDParameter@@@2@XZ DD imagerel $LN3
	DD	imagerel $LN3+45
	DD	imagerel $unwind$?_Getal@?$vector@UFCMDParameter@@V?$allocator@UFCMDParameter@@@std@@@std@@AEAAAEAV?$allocator@UFCMDParameter@@@2@XZ
pdata	ENDS
;	COMDAT pdata
pdata	SEGMENT
$pdata$?_Getal@?$vector@UFCMDParameter@@V?$allocator@UFCMDParameter@@@std@@@std@@AEBAAEBV?$allocator@UFCMDParameter@@@2@XZ DD imagerel $LN3
	DD	imagerel $LN3+45
	DD	imagerel $unwind$?_Getal@?$vector@UFCMDParameter@@V?$allocator@UFCMDParameter@@@std@@@std@@AEBAAEBV?$allocator@UFCMDParameter@@@2@XZ
pdata	ENDS
;	COMDAT pdata
pdata	SEGMENT
$pdata$??0?$_Vector_val@U?$_Simple_types@UFCMDParameter@@@std@@@std@@QEAA@XZ DD imagerel $LN3
	DD	imagerel $LN3+82
	DD	imagerel $unwind$??0?$_Vector_val@U?$_Simple_types@UFCMDParameter@@@std@@@std@@QEAA@XZ
pdata	ENDS
;	COMDAT pdata
pdata	SEGMENT
$pdata$?_Get_first@?$_Compressed_pair@V?$allocator@UFCMDParameter@@@std@@V?$_Vector_val@U?$_Simple_types@UFCMDParameter@@@std@@@2@$00@std@@QEAAAEAV?$allocator@UFCMDParameter@@@2@XZ DD imagerel $LN3
	DD	imagerel $LN3+37
	DD	imagerel $unwind$?_Get_first@?$_Compressed_pair@V?$allocator@UFCMDParameter@@@std@@V?$_Vector_val@U?$_Simple_types@UFCMDParameter@@@std@@@2@$00@std@@QEAAAEAV?$allocator@UFCMDParameter@@@2@XZ
pdata	ENDS
;	COMDAT pdata
pdata	SEGMENT
$pdata$?_Get_first@?$_Compressed_pair@V?$allocator@UFCMDParameter@@@std@@V?$_Vector_val@U?$_Simple_types@UFCMDParameter@@@std@@@2@$00@std@@QEBAAEBV?$allocator@UFCMDParameter@@@2@XZ DD imagerel $LN3
	DD	imagerel $LN3+37
	DD	imagerel $unwind$?_Get_first@?$_Compressed_pair@V?$allocator@UFCMDParameter@@@std@@V?$_Vector_val@U?$_Simple_types@UFCMDParameter@@@std@@@2@$00@std@@QEBAAEBV?$allocator@UFCMDParameter@@@2@XZ
pdata	ENDS
;	COMDAT pdata
pdata	SEGMENT
$pdata$??__Eapp@@YAXXZ DD imagerel ??__Eapp@@YAXXZ
	DD	imagerel ??__Eapp@@YAXXZ+53
	DD	imagerel $unwind$??__Eapp@@YAXXZ
pdata	ENDS
;	COMDAT pdata
pdata	SEGMENT
$pdata$??__Fapp@@YAXXZ DD imagerel ??__Fapp@@YAXXZ
	DD	imagerel ??__Fapp@@YAXXZ+29
	DD	imagerel $unwind$??__Fapp@@YAXXZ
pdata	ENDS
;	COMDAT pdata
pdata	SEGMENT
$pdata$??$strncat_s@$0EA@@@YAHAEAY0EA@DPEBD_K@Z DD imagerel $LN3
	DD	imagerel $LN3+66
	DD	imagerel $unwind$??$strncat_s@$0EA@@@YAHAEAY0EA@DPEBD_K@Z
pdata	ENDS
;	COMDAT pdata
pdata	SEGMENT
$pdata$??$_Emplace_one_at_back@AEBUFCMDParameter@@@?$vector@UFCMDParameter@@V?$allocator@UFCMDParameter@@@std@@@std@@AEAAAEAUFCMDParameter@@AEBU2@@Z DD imagerel $LN4
	DD	imagerel $LN4+110
	DD	imagerel $unwind$??$_Emplace_one_at_back@AEBUFCMDParameter@@@?$vector@UFCMDParameter@@V?$allocator@UFCMDParameter@@@std@@@std@@AEAAAEAUFCMDParameter@@AEBU2@@Z
pdata	ENDS
;	COMDAT pdata
pdata	SEGMENT
$pdata$?deallocate@?$allocator@U_Container_proxy@std@@@std@@QEAAXQEAU_Container_proxy@2@_K@Z DD imagerel $LN13
	DD	imagerel $LN13+193
	DD	imagerel $unwind$?deallocate@?$allocator@U_Container_proxy@std@@@std@@QEAAXQEAU_Container_proxy@2@_K@Z
pdata	ENDS
;	COMDAT pdata
pdata	SEGMENT
$pdata$?allocate@?$allocator@U_Container_proxy@std@@@std@@QEAAPEAU_Container_proxy@2@_K@Z DD imagerel $LN3
	DD	imagerel $LN3+55
	DD	imagerel $unwind$?allocate@?$allocator@U_Container_proxy@std@@@std@@QEAAPEAU_Container_proxy@2@_K@Z
pdata	ENDS
;	COMDAT pdata
pdata	SEGMENT
$pdata$??$?0UFCMDParameter@@@?$allocator@U_Container_proxy@std@@@std@@QEAA@AEBV?$allocator@UFCMDParameter@@@1@@Z DD imagerel $LN3
	DD	imagerel $LN3+42
	DD	imagerel $unwind$??$?0UFCMDParameter@@@?$allocator@U_Container_proxy@std@@@std@@QEAA@AEBV?$allocator@UFCMDParameter@@@1@@Z
pdata	ENDS
;	COMDAT pdata
pdata	SEGMENT
$pdata$??$exchange@PEAU_Container_proxy@std@@$$T@std@@YAPEAU_Container_proxy@0@AEAPEAU10@$$QEA$$T@Z DD imagerel $LN3
	DD	imagerel $LN3+67
	DD	imagerel $unwind$??$exchange@PEAU_Container_proxy@std@@$$T@std@@YAPEAU_Container_proxy@0@AEAPEAU10@$$QEA$$T@Z
pdata	ENDS
;	COMDAT pdata
pdata	SEGMENT
$pdata$??$_Delete_plain_internal@V?$allocator@U_Container_proxy@std@@@std@@@std@@YAXAEAV?$allocator@U_Container_proxy@std@@@0@QEAU_Container_proxy@0@@Z DD imagerel $LN3
	DD	imagerel $LN3+51
	DD	imagerel $unwind$??$_Delete_plain_internal@V?$allocator@U_Container_proxy@std@@@std@@@std@@YAXAEAV?$allocator@U_Container_proxy@std@@@0@QEAU_Container_proxy@0@@Z
pdata	ENDS
;	COMDAT pdata
pdata	SEGMENT
$pdata$??$?0$$V@?$_Compressed_pair@V?$allocator@UFCMDParameter@@@std@@V?$_Vector_val@U?$_Simple_types@UFCMDParameter@@@std@@@2@$00@std@@QEAA@U_Zero_then_variadic_args_t@1@@Z DD imagerel $LN3
	DD	imagerel $LN3+62
	DD	imagerel $unwind$??$?0$$V@?$_Compressed_pair@V?$allocator@UFCMDParameter@@@std@@V?$_Vector_val@U?$_Simple_types@UFCMDParameter@@@std@@@2@$00@std@@QEAA@U_Zero_then_variadic_args_t@1@@Z
pdata	ENDS
;	COMDAT pdata
pdata	SEGMENT
$pdata$??$_Alloc_proxy@V?$allocator@U_Container_proxy@std@@@std@@@_Container_base12@std@@QEAAX$$QEAV?$allocator@U_Container_proxy@std@@@1@@Z DD imagerel $LN3
	DD	imagerel $LN3+107
	DD	imagerel $unwind$??$_Alloc_proxy@V?$allocator@U_Container_proxy@std@@@std@@@_Container_base12@std@@QEAAX$$QEAV?$allocator@U_Container_proxy@std@@@1@@Z
pdata	ENDS
;	COMDAT pdata
pdata	SEGMENT
$pdata$??$addressof@$$CBV?$basic_string@DU?$char_traits@D@std@@V?$allocator@D@2@@std@@@std@@YAPEBV?$basic_string@DU?$char_traits@D@std@@V?$allocator@D@2@@0@AEBV10@@Z DD imagerel $LN3
	DD	imagerel $LN3+37
	DD	imagerel $unwind$??$addressof@$$CBV?$basic_string@DU?$char_traits@D@std@@V?$allocator@D@2@@std@@@std@@YAPEBV?$basic_string@DU?$char_traits@D@std@@V?$allocator@D@2@@0@AEBV10@@Z
pdata	ENDS
;	COMDAT pdata
pdata	SEGMENT
$pdata$??$_Pocca@V?$allocator@D@std@@@std@@YAXAEAV?$allocator@D@0@AEBV10@@Z DD imagerel $LN3
	DD	imagerel $LN3+38
	DD	imagerel $unwind$??$_Pocca@V?$allocator@D@std@@@std@@YAXAEAV?$allocator@D@0@AEBV10@@Z
pdata	ENDS
;	COMDAT pdata
pdata	SEGMENT
$pdata$??$?0D@?$allocator@U_Container_proxy@std@@@std@@QEAA@AEBV?$allocator@D@1@@Z DD imagerel $LN3
	DD	imagerel $LN3+42
	DD	imagerel $unwind$??$?0D@?$allocator@U_Container_proxy@std@@@std@@QEAA@AEBV?$allocator@D@1@@Z
pdata	ENDS
;	COMDAT pdata
pdata	SEGMENT
$pdata$??$?0V?$allocator@D@std@@$$V@?$_Compressed_pair@V?$allocator@D@std@@V?$_String_val@U?$_Simple_types@D@std@@@2@$00@std@@QEAA@U_One_then_variadic_args_t@1@$$QEAV?$allocator@D@1@@Z DD imagerel $LN3
	DD	imagerel $LN3+58
	DD	imagerel $unwind$??$?0V?$allocator@D@std@@$$V@?$_Compressed_pair@V?$allocator@D@std@@V?$_String_val@U?$_Simple_types@D@std@@@2@$00@std@@QEAA@U_One_then_variadic_args_t@1@$$QEAV?$allocator@D@1@@Z
pdata	ENDS
;	COMDAT pdata
pdata	SEGMENT
$pdata$??$?0$$V@?$_Compressed_pair@V?$allocator@D@std@@V?$_String_val@U?$_Simple_types@D@std@@@2@$00@std@@QEAA@U_Zero_then_variadic_args_t@1@@Z DD imagerel $LN3
	DD	imagerel $LN3+62
	DD	imagerel $unwind$??$?0$$V@?$_Compressed_pair@V?$allocator@D@std@@V?$_String_val@U?$_Simple_types@D@std@@@2@$00@std@@QEAA@U_Zero_then_variadic_args_t@1@@Z
pdata	ENDS
;	COMDAT pdata
pdata	SEGMENT
$pdata$??$_Construct@$01PEBD@?$basic_string@DU?$char_traits@D@std@@V?$allocator@D@2@@std@@AEAAXQEBD_K@Z DD imagerel $LN7
	DD	imagerel $LN7+471
	DD	imagerel $unwind$??$_Construct@$01PEBD@?$basic_string@DU?$char_traits@D@std@@V?$allocator@D@2@@std@@AEAAXQEBD_K@Z
pdata	ENDS
;	COMDAT pdata
pdata	SEGMENT
$pdata$?dtor$0@?0???$_Construct@$01PEBD@?$basic_string@DU?$char_traits@D@std@@V?$allocator@D@2@@std@@AEAAXQEBD_K@Z@4HA DD imagerel ?dtor$0@?0???$_Construct@$01PEBD@?$basic_string@DU?$char_traits@D@std@@V?$allocator@D@2@@std@@AEAAXQEBD_K@Z@4HA
	DD	imagerel ?dtor$0@?0???$_Construct@$01PEBD@?$basic_string@DU?$char_traits@D@std@@V?$allocator@D@2@@std@@AEAAXQEBD_K@Z@4HA+25
	DD	imagerel $unwind$?dtor$0@?0???$_Construct@$01PEBD@?$basic_string@DU?$char_traits@D@std@@V?$allocator@D@2@@std@@AEAAXQEBD_K@Z@4HA
pdata	ENDS
;	COMDAT pdata
pdata	SEGMENT
$pdata$??$_Destroy_range@V?$allocator@UFCMDParameter@@@std@@@std@@YAXPEAUFCMDParameter@@QEAU1@AEAV?$allocator@UFCMDParameter@@@0@@Z DD imagerel $LN6
	DD	imagerel $LN6+90
	DD	imagerel $unwind$??$_Destroy_range@V?$allocator@UFCMDParameter@@@std@@@std@@YAXPEAUFCMDParameter@@QEAU1@AEAV?$allocator@UFCMDParameter@@@0@@Z
pdata	ENDS
;	COMDAT pdata
pdata	SEGMENT
$pdata$??$_Destroy_in_place@PEAD@std@@YAXAEAPEAD@Z DD imagerel $LN3
	DD	imagerel $LN3+33
	DD	imagerel $unwind$??$_Destroy_in_place@PEAD@std@@YAXAEAPEAD@Z
pdata	ENDS
;	COMDAT pdata
pdata	SEGMENT
$pdata$??$_Convert_size@_K_K@std@@YA_K_K@Z DD imagerel $LN3
	DD	imagerel $LN3+37
	DD	imagerel $unwind$??$_Convert_size@_K_K@std@@YA_K_K@Z
pdata	ENDS
;	COMDAT pdata
pdata	SEGMENT
$pdata$??R<lambda_1>@?1??assign@?$basic_string@DU?$char_traits@D@std@@V?$allocator@D@2@@std@@QEAAAEAV23@QEBD_K@Z@QEBA@QEAD10@Z DD imagerel $LN3
	DD	imagerel $LN3+95
	DD	imagerel $unwind$??R<lambda_1>@?1??assign@?$basic_string@DU?$char_traits@D@std@@V?$allocator@D@2@@std@@QEAAAEAV23@QEBD_K@Z@QEBA@QEAD10@Z
pdata	ENDS
;	COMDAT pdata
pdata	SEGMENT
$pdata$??$_Reallocate_for@V<lambda_1>@?1??assign@?$basic_string@DU?$char_traits@D@std@@V?$allocator@D@2@@std@@QEAAAEAV34@QEBD_K@Z@PEBD@?$basic_string@DU?$char_traits@D@std@@V?$allocator@D@2@@std@@AEAAAEAV01@_KV<lambda_1>@?1??assign@01@QEAAAEAV01@QEBD0@Z@PEBD@Z DD imagerel $LN6
	DD	imagerel $LN6+377
	DD	imagerel $unwind$??$_Reallocate_for@V<lambda_1>@?1??assign@?$basic_string@DU?$char_traits@D@std@@V?$allocator@D@2@@std@@QEAAAEAV34@QEBD_K@Z@PEBD@?$basic_string@DU?$char_traits@D@std@@V?$allocator@D@2@@std@@AEAAAEAV01@_KV<lambda_1>@?1??assign@01@QEAAAEAV01@QEBD0@Z@PEBD@Z
pdata	ENDS
;	COMDAT pdata
pdata	SEGMENT
$pdata$??$_Construct_in_place@PEADAEAPEAD@std@@YAXAEAPEAD0@Z DD imagerel $LN5
	DD	imagerel $LN5+113
	DD	imagerel $unwind$??$_Construct_in_place@PEADAEAPEAD@std@@YAXAEAPEAD0@Z
pdata	ENDS
;	COMDAT pdata
pdata	SEGMENT
$pdata$??$_Unfancy@D@std@@YAPEADPEAD@Z DD imagerel $LN3
	DD	imagerel $LN3+37
	DD	imagerel $unwind$??$_Unfancy@D@std@@YAPEADPEAD@Z
pdata	ENDS
;	COMDAT pdata
pdata	SEGMENT
$pdata$??$max@_K@std@@YAAEB_KAEB_K0@Z DD imagerel $LN5
	DD	imagerel $LN5+84
	DD	imagerel $unwind$??$max@_K@std@@YAAEB_KAEB_K0@Z
pdata	ENDS
;	COMDAT pdata
pdata	SEGMENT
$pdata$??$_Deallocate@$0BA@$0A@@std@@YAXPEAX_K@Z DD imagerel $LN6
	DD	imagerel $LN6+98
	DD	imagerel $unwind$??$_Deallocate@$0BA@$0A@@std@@YAXPEAX_K@Z
pdata	ENDS
;	COMDAT pdata
pdata	SEGMENT
$pdata$??$addressof@V?$_String_val@U?$_Simple_types@D@std@@@std@@@std@@YAPEAV?$_String_val@U?$_Simple_types@D@std@@@0@AEAV10@@Z DD imagerel $LN3
	DD	imagerel $LN3+37
	DD	imagerel $unwind$??$addressof@V?$_String_val@U?$_Simple_types@D@std@@@std@@@std@@YAPEAV?$_String_val@U?$_Simple_types@D@std@@@0@AEAV10@@Z
pdata	ENDS
;	COMDAT pdata
pdata	SEGMENT
$pdata$??$addressof@$$CBV?$_String_val@U?$_Simple_types@D@std@@@std@@@std@@YAPEBV?$_String_val@U?$_Simple_types@D@std@@@0@AEBV10@@Z DD imagerel $LN3
	DD	imagerel $LN3+37
	DD	imagerel $unwind$??$addressof@$$CBV?$_String_val@U?$_Simple_types@D@std@@@std@@@std@@YAPEBV?$_String_val@U?$_Simple_types@D@std@@@0@AEBV10@@Z
pdata	ENDS
;	COMDAT pdata
pdata	SEGMENT
$pdata$??$addressof@D@std@@YAPEADAEAD@Z DD imagerel $LN3
	DD	imagerel $LN3+37
	DD	imagerel $unwind$??$addressof@D@std@@YAPEADAEAD@Z
pdata	ENDS
;	COMDAT pdata
pdata	SEGMENT
$pdata$??$construct_at@DAEBD$0A@@std@@YAPEADQEADAEBD@Z DD imagerel $LN3
	DD	imagerel $LN3+73
	DD	imagerel $unwind$??$construct_at@DAEBD$0A@@std@@YAPEADQEADAEBD@Z
pdata	ENDS
;	COMDAT pdata
pdata	SEGMENT
$pdata$??$addressof@U_Container_proxy@std@@@std@@YAPEAU_Container_proxy@0@AEAU10@@Z DD imagerel $LN3
	DD	imagerel $LN3+37
	DD	imagerel $unwind$??$addressof@U_Container_proxy@std@@@std@@YAPEAU_Container_proxy@0@AEAU10@@Z
pdata	ENDS
;	COMDAT pdata
pdata	SEGMENT
$pdata$??$construct_at@U_Container_proxy@std@@PEAU_Container_base12@2@$0A@@std@@YAPEAU_Container_proxy@0@QEAU10@$$QEAPEAU_Container_base12@0@@Z DD imagerel $LN3
	DD	imagerel $LN3+72
	DD	imagerel $unwind$??$construct_at@U_Container_proxy@std@@PEAU_Container_base12@2@$0A@@std@@YAPEAU_Container_proxy@0@QEAU10@$$QEAPEAU_Container_base12@0@@Z
pdata	ENDS
;	COMDAT pdata
pdata	SEGMENT
$pdata$??$_Unfancy@UFCMDParameter@@@std@@YAPEAUFCMDParameter@@PEAU1@@Z DD imagerel $LN3
	DD	imagerel $LN3+37
	DD	imagerel $unwind$??$_Unfancy@UFCMDParameter@@@std@@YAPEAUFCMDParameter@@PEAU1@@Z
pdata	ENDS
;	COMDAT pdata
pdata	SEGMENT
$pdata$??$_Emplace_back_with_unused_capacity@AEBUFCMDParameter@@@?$vector@UFCMDParameter@@V?$allocator@UFCMDParameter@@@std@@@std@@AEAAAEAUFCMDParameter@@AEBU2@@Z DD imagerel $LN3
	DD	imagerel $LN3+175
	DD	imagerel $unwind$??$_Emplace_back_with_unused_capacity@AEBUFCMDParameter@@@?$vector@UFCMDParameter@@V?$allocator@UFCMDParameter@@@std@@@std@@AEAAAEAUFCMDParameter@@AEBU2@@Z
pdata	ENDS
;	COMDAT pdata
pdata	SEGMENT
$pdata$??$_Emplace_reallocate@AEBUFCMDParameter@@@?$vector@UFCMDParameter@@V?$allocator@UFCMDParameter@@@std@@@std@@AEAAPEAUFCMDParameter@@QEAU2@AEBU2@@Z DD imagerel $LN13
	DD	imagerel $LN13+485
	DD	imagerel $unwind$??$_Emplace_reallocate@AEBUFCMDParameter@@@?$vector@UFCMDParameter@@V?$allocator@UFCMDParameter@@@std@@@std@@AEAAPEAUFCMDParameter@@QEAU2@AEBU2@@Z
pdata	ENDS
;	COMDAT pdata
pdata	SEGMENT
$pdata$?catch$0@?0???$_Emplace_reallocate@AEBUFCMDParameter@@@?$vector@UFCMDParameter@@V?$allocator@UFCMDParameter@@@std@@@std@@AEAAPEAUFCMDParameter@@QEAU2@AEBU2@@Z@4HA DD imagerel ?catch$0@?0???$_Emplace_reallocate@AEBUFCMDParameter@@@?$vector@UFCMDParameter@@V?$allocator@UFCMDParameter@@@std@@@std@@AEAAPEAUFCMDParameter@@QEAU2@AEBU2@@Z@4HA
	DD	imagerel ?catch$0@?0???$_Emplace_reallocate@AEBUFCMDParameter@@@?$vector@UFCMDParameter@@V?$allocator@UFCMDParameter@@@std@@@std@@AEAAPEAUFCMDParameter@@QEAU2@AEBU2@@Z@4HA+72
	DD	imagerel $unwind$?catch$0@?0???$_Emplace_reallocate@AEBUFCMDParameter@@@?$vector@UFCMDParameter@@V?$allocator@UFCMDParameter@@@std@@@std@@AEAAPEAUFCMDParameter@@QEAU2@AEBU2@@Z@4HA
pdata	ENDS
;	COMDAT pdata
pdata	SEGMENT
$pdata$??$_Deallocate_plain@V?$allocator@U_Container_proxy@std@@@std@@@std@@YAXAEAV?$allocator@U_Container_proxy@std@@@0@QEAU_Container_proxy@0@@Z DD imagerel $LN3
	DD	imagerel $LN3+58
	DD	imagerel $unwind$??$_Deallocate_plain@V?$allocator@U_Container_proxy@std@@@std@@@std@@YAXAEAV?$allocator@U_Container_proxy@std@@@0@QEAU_Container_proxy@0@@Z
pdata	ENDS
;	COMDAT pdata
pdata	SEGMENT
$pdata$??$_Unfancy@U_Container_proxy@std@@@std@@YAPEAU_Container_proxy@0@PEAU10@@Z DD imagerel $LN3
	DD	imagerel $LN3+37
	DD	imagerel $unwind$??$_Unfancy@U_Container_proxy@std@@@std@@YAPEAU_Container_proxy@0@PEAU10@@Z
pdata	ENDS
;	COMDAT pdata
pdata	SEGMENT
$pdata$??0?$_Container_proxy_ptr12@V?$allocator@U_Container_proxy@std@@@std@@@std@@QEAA@AEAV?$allocator@U_Container_proxy@std@@@1@AEAU_Container_base12@1@@Z DD imagerel $LN3
	DD	imagerel $LN3+140
	DD	imagerel $unwind$??0?$_Container_proxy_ptr12@V?$allocator@U_Container_proxy@std@@@std@@@std@@QEAA@AEAV?$allocator@U_Container_proxy@std@@@1@AEAU_Container_base12@1@@Z
pdata	ENDS
;	COMDAT pdata
pdata	SEGMENT
$pdata$??1?$_Container_proxy_ptr12@V?$allocator@U_Container_proxy@std@@@std@@@std@@QEAA@XZ DD imagerel $LN4
	DD	imagerel $LN4+63
	DD	imagerel $unwind$??1?$_Container_proxy_ptr12@V?$allocator@U_Container_proxy@std@@@std@@@std@@QEAA@XZ
pdata	ENDS
;	COMDAT pdata
pdata	SEGMENT
$pdata$??$_Allocate_at_least_helper@V?$allocator@D@std@@@std@@YAPEADAEAV?$allocator@D@0@AEA_K@Z DD imagerel $LN3
	DD	imagerel $LN3+54
	DD	imagerel $unwind$??$_Allocate_at_least_helper@V?$allocator@D@std@@@std@@YAPEADAEAV?$allocator@D@0@AEA_K@Z
pdata	ENDS
;	COMDAT pdata
pdata	SEGMENT
$pdata$??$_Construct_in_place@PEADAEBQEAD@std@@YAXAEAPEADAEBQEAD@Z DD imagerel $LN5
	DD	imagerel $LN5+113
	DD	imagerel $unwind$??$_Construct_in_place@PEADAEBQEAD@std@@YAXAEAPEADAEBQEAD@Z
pdata	ENDS
;	COMDAT pdata
pdata	SEGMENT
$pdata$??$destroy@UFCMDParameter@@@?$_Default_allocator_traits@V?$allocator@UFCMDParameter@@@std@@@std@@SAXAEAV?$allocator@UFCMDParameter@@@1@QEAUFCMDParameter@@@Z DD imagerel $LN3
	DD	imagerel $LN3+47
	DD	imagerel $unwind$??$destroy@UFCMDParameter@@@?$_Default_allocator_traits@V?$allocator@UFCMDParameter@@@std@@@std@@SAXAEAV?$allocator@UFCMDParameter@@@1@QEAUFCMDParameter@@@Z
pdata	ENDS
;	COMDAT pdata
pdata	SEGMENT
$pdata$??$addressof@PEAD@std@@YAPEAPEADAEAPEAD@Z DD imagerel $LN3
	DD	imagerel $LN3+37
	DD	imagerel $unwind$??$addressof@PEAD@std@@YAPEAPEADAEAPEAD@Z
pdata	ENDS
;	COMDAT pdata
pdata	SEGMENT
$pdata$??$construct_at@PEADAEAPEAD$0A@@std@@YAPEAPEADQEAPEADAEAPEAD@Z DD imagerel $LN3
	DD	imagerel $LN3+74
	DD	imagerel $unwind$??$construct_at@PEADAEAPEAD$0A@@std@@YAPEAPEADQEAPEADAEAPEAD@Z
pdata	ENDS
;	COMDAT pdata
pdata	SEGMENT
$pdata$??$_Get_size_of_n@$0BA@@std@@YA_K_K@Z DD imagerel $LN4
	DD	imagerel $LN4+77
	DD	imagerel $unwind$??$_Get_size_of_n@$0BA@@std@@YA_K_K@Z
pdata	ENDS
;	COMDAT pdata
pdata	SEGMENT
$pdata$??$_Allocate@$0BA@U_Default_allocate_traits@std@@$0A@@std@@YAPEAX_K@Z DD imagerel $LN6
	DD	imagerel $LN6+86
	DD	imagerel $unwind$??$_Allocate@$0BA@U_Default_allocate_traits@std@@$0A@@std@@YAPEAX_K@Z
pdata	ENDS
;	COMDAT pdata
pdata	SEGMENT
$pdata$??$min@_K@std@@YAAEB_KAEB_K0@Z DD imagerel $LN5
	DD	imagerel $LN5+84
	DD	imagerel $unwind$??$min@_K@std@@YAAEB_KAEB_K0@Z
pdata	ENDS
;	COMDAT pdata
pdata	SEGMENT
$pdata$??$construct_at@D$$V$0A@@std@@YAPEADQEAD@Z DD imagerel $LN3
	DD	imagerel $LN3+76
	DD	imagerel $unwind$??$construct_at@D$$V$0A@@std@@YAPEADQEAD@Z
pdata	ENDS
;	COMDAT pdata
pdata	SEGMENT
$pdata$??$construct@UFCMDParameter@@AEBU1@@?$_Default_allocator_traits@V?$allocator@UFCMDParameter@@@std@@@std@@SAXAEAV?$allocator@UFCMDParameter@@@1@QEAUFCMDParameter@@AEBU3@@Z DD imagerel $LN3
	DD	imagerel $LN3+56
	DD	imagerel $unwind$??$construct@UFCMDParameter@@AEBU1@@?$_Default_allocator_traits@V?$allocator@UFCMDParameter@@@std@@@std@@SAXAEAV?$allocator@UFCMDParameter@@@1@QEAUFCMDParameter@@AEBU3@@Z
pdata	ENDS
;	COMDAT pdata
pdata	SEGMENT
$pdata$??$_Allocate_at_least_helper@V?$allocator@UFCMDParameter@@@std@@@std@@YAPEAUFCMDParameter@@AEAV?$allocator@UFCMDParameter@@@0@AEA_K@Z DD imagerel $LN3
	DD	imagerel $LN3+54
	DD	imagerel $unwind$??$_Allocate_at_least_helper@V?$allocator@UFCMDParameter@@@std@@@std@@YAPEAUFCMDParameter@@AEAV?$allocator@UFCMDParameter@@@0@AEA_K@Z
pdata	ENDS
;	COMDAT pdata
pdata	SEGMENT
$pdata$??$_Uninitialized_move@PEAUFCMDParameter@@V?$allocator@UFCMDParameter@@@std@@@std@@YAPEAUFCMDParameter@@QEAU1@0PEAU1@AEAV?$allocator@UFCMDParameter@@@0@@Z DD imagerel $LN7
	DD	imagerel $LN7+172
	DD	imagerel $unwind$??$_Uninitialized_move@PEAUFCMDParameter@@V?$allocator@UFCMDParameter@@@std@@@std@@YAPEAUFCMDParameter@@QEAU1@0PEAU1@AEAV?$allocator@UFCMDParameter@@@0@@Z
pdata	ENDS
;	COMDAT pdata
pdata	SEGMENT
$pdata$?dtor$0@?0???$_Uninitialized_move@PEAUFCMDParameter@@V?$allocator@UFCMDParameter@@@std@@@std@@YAPEAUFCMDParameter@@QEAU1@0PEAU1@AEAV?$allocator@UFCMDParameter@@@0@@Z@4HA DD imagerel ?dtor$0@?0???$_Uninitialized_move@PEAUFCMDParameter@@V?$allocator@UFCMDParameter@@@std@@@std@@YAPEAUFCMDParameter@@QEAU1@0PEAU1@AEAV?$allocator@UFCMDParameter@@@0@@Z@4HA
	DD	imagerel ?dtor$0@?0???$_Uninitialized_move@PEAUFCMDParameter@@V?$allocator@UFCMDParameter@@@std@@@std@@YAPEAUFCMDParameter@@QEAU1@0PEAU1@AEAV?$allocator@UFCMDParameter@@@0@@Z@4HA+25
	DD	imagerel $unwind$?dtor$0@?0???$_Uninitialized_move@PEAUFCMDParameter@@V?$allocator@UFCMDParameter@@@std@@@std@@YAPEAUFCMDParameter@@QEAU1@0PEAU1@AEAV?$allocator@UFCMDParameter@@@0@@Z@4HA
pdata	ENDS
;	COMDAT pdata
pdata	SEGMENT
$pdata$?deallocate@?$_Default_allocator_traits@V?$allocator@U_Container_proxy@std@@@std@@@std@@SAXAEAV?$allocator@U_Container_proxy@std@@@2@QEAU_Container_proxy@2@_K@Z DD imagerel $LN5
	DD	imagerel $LN5+91
	DD	imagerel $unwind$?deallocate@?$_Default_allocator_traits@V?$allocator@U_Container_proxy@std@@@std@@@std@@SAXAEAV?$allocator@U_Container_proxy@std@@@2@QEAU_Container_proxy@2@_K@Z
pdata	ENDS
;	COMDAT pdata
pdata	SEGMENT
$pdata$??$construct_at@PEADAEBQEAD$0A@@std@@YAPEAPEADQEAPEADAEBQEAD@Z DD imagerel $LN3
	DD	imagerel $LN3+74
	DD	imagerel $unwind$??$construct_at@PEADAEBQEAD$0A@@std@@YAPEAPEADQEAPEADAEBQEAD@Z
pdata	ENDS
;	COMDAT pdata
pdata	SEGMENT
$pdata$??$destroy_at@UFCMDParameter@@@std@@YAXQEAUFCMDParameter@@@Z DD imagerel $LN3
	DD	imagerel $LN3+44
	DD	imagerel $unwind$??$destroy_at@UFCMDParameter@@@std@@YAXQEAUFCMDParameter@@@Z
pdata	ENDS
;	COMDAT pdata
pdata	SEGMENT
$pdata$??$_Allocate_manually_vector_aligned@U_Default_allocate_traits@std@@@std@@YAPEAX_K@Z DD imagerel $LN13
	DD	imagerel $LN13+266
	DD	imagerel $unwind$??$_Allocate_manually_vector_aligned@U_Default_allocate_traits@std@@@std@@YAPEAX_K@Z
pdata	ENDS
;	COMDAT pdata
pdata	SEGMENT
$pdata$??$_Get_size_of_n@$00@std@@YA_K_K@Z DD imagerel $LN3
	DD	imagerel $LN3+41
	DD	imagerel $unwind$??$_Get_size_of_n@$00@std@@YA_K_K@Z
pdata	ENDS
;	COMDAT pdata
pdata	SEGMENT
$pdata$??$construct_at@UFCMDParameter@@AEBU1@$0A@@std@@YAPEAUFCMDParameter@@QEAU1@AEBU1@@Z DD imagerel $LN3
	DD	imagerel $LN3+69
	DD	imagerel $unwind$??$construct_at@UFCMDParameter@@AEBU1@$0A@@std@@YAPEAUFCMDParameter@@QEAU1@AEBU1@@Z
pdata	ENDS
;	COMDAT pdata
pdata	SEGMENT
$pdata$??$_Get_unwrapped@AEBQEAUFCMDParameter@@@std@@YA?A_TAEBQEAUFCMDParameter@@@Z DD imagerel $LN3
	DD	imagerel $LN3+40
	DD	imagerel $unwind$??$_Get_unwrapped@AEBQEAUFCMDParameter@@@std@@YA?A_TAEBQEAUFCMDParameter@@@Z
pdata	ENDS
;	COMDAT pdata
pdata	SEGMENT
$pdata$??0?$_Uninitialized_backout_al@V?$allocator@UFCMDParameter@@@std@@@std@@QEAA@PEAUFCMDParameter@@AEAV?$allocator@UFCMDParameter@@@1@@Z DD imagerel $LN3
	DD	imagerel $LN3+82
	DD	imagerel $unwind$??0?$_Uninitialized_backout_al@V?$allocator@UFCMDParameter@@@std@@@std@@QEAA@PEAUFCMDParameter@@AEAV?$allocator@UFCMDParameter@@@1@@Z
pdata	ENDS
;	COMDAT pdata
pdata	SEGMENT
$pdata$??1?$_Uninitialized_backout_al@V?$allocator@UFCMDParameter@@@std@@@std@@QEAA@XZ DD imagerel $LN3
	DD	imagerel $LN3+61
	DD	imagerel $unwind$??1?$_Uninitialized_backout_al@V?$allocator@UFCMDParameter@@@std@@@std@@QEAA@XZ
pdata	ENDS
;	COMDAT pdata
pdata	SEGMENT
$pdata$?_Release@?$_Uninitialized_backout_al@V?$allocator@UFCMDParameter@@@std@@@std@@QEAAPEAUFCMDParameter@@XZ DD imagerel $LN3
	DD	imagerel $LN3+56
	DD	imagerel $unwind$?_Release@?$_Uninitialized_backout_al@V?$allocator@UFCMDParameter@@@std@@@std@@QEAAPEAUFCMDParameter@@XZ
pdata	ENDS
;	COMDAT pdata
pdata	SEGMENT
$pdata$??$_Emplace_back@UFCMDParameter@@@?$_Uninitialized_backout_al@V?$allocator@UFCMDParameter@@@std@@@std@@QEAAX$$QEAUFCMDParameter@@@Z DD imagerel $LN3
	DD	imagerel $LN3+104
	DD	imagerel $unwind$??$_Emplace_back@UFCMDParameter@@@?$_Uninitialized_backout_al@V?$allocator@UFCMDParameter@@@std@@@std@@QEAAX$$QEAUFCMDParameter@@@Z
pdata	ENDS
;	COMDAT pdata
pdata	SEGMENT
$pdata$??$_Get_size_of_n@$0FA@@std@@YA_K_K@Z DD imagerel $LN4
	DD	imagerel $LN4+77
	DD	imagerel $unwind$??$_Get_size_of_n@$0FA@@std@@YA_K_K@Z
pdata	ENDS
;	COMDAT pdata
pdata	SEGMENT
$pdata$??$construct@UFCMDParameter@@U1@@?$_Default_allocator_traits@V?$allocator@UFCMDParameter@@@std@@@std@@SAXAEAV?$allocator@UFCMDParameter@@@1@QEAUFCMDParameter@@$$QEAU3@@Z DD imagerel $LN3
	DD	imagerel $LN3+56
	DD	imagerel $unwind$??$construct@UFCMDParameter@@U1@@?$_Default_allocator_traits@V?$allocator@UFCMDParameter@@@std@@@std@@SAXAEAV?$allocator@UFCMDParameter@@@1@QEAUFCMDParameter@@$$QEAU3@@Z
pdata	ENDS
;	COMDAT pdata
pdata	SEGMENT
$pdata$??$construct_at@UFCMDParameter@@U1@$0A@@std@@YAPEAUFCMDParameter@@QEAU1@$$QEAU1@@Z DD imagerel $LN3
	DD	imagerel $LN3+69
	DD	imagerel $unwind$??$construct_at@UFCMDParameter@@U1@$0A@@std@@YAPEAUFCMDParameter@@QEAU1@$$QEAU1@@Z
pdata	ENDS
CRT$XCU	SEGMENT
?app$initializer$@@3P6AXXZEA DQ FLAT:??__Eapp@@YAXXZ	; app$initializer$
CRT$XCU	ENDS
;	COMDAT ??_R1A@?0A@EA@bad_array_new_length@std@@8
rdata$r	SEGMENT
??_R1A@?0A@EA@bad_array_new_length@std@@8 DD imagerel ??_R0?AVbad_array_new_length@std@@@8 ; std::bad_array_new_length::`RTTI Base Class Descriptor at (0,-1,0,64)'
	DD	02H
	DD	00H
	DD	0ffffffffH
	DD	00H
	DD	040H
	DD	imagerel ??_R3bad_array_new_length@std@@8
rdata$r	ENDS
;	COMDAT ??_R2bad_array_new_length@std@@8
rdata$r	SEGMENT
??_R2bad_array_new_length@std@@8 DD imagerel ??_R1A@?0A@EA@bad_array_new_length@std@@8 ; std::bad_array_new_length::`RTTI Base Class Array'
	DD	imagerel ??_R1A@?0A@EA@bad_alloc@std@@8
	DD	imagerel ??_R1A@?0A@EA@exception@std@@8
	ORG $+3
rdata$r	ENDS
;	COMDAT ??_R3bad_array_new_length@std@@8
rdata$r	SEGMENT
??_R3bad_array_new_length@std@@8 DD 00H			; std::bad_array_new_length::`RTTI Class Hierarchy Descriptor'
	DD	00H
	DD	03H
	DD	imagerel ??_R2bad_array_new_length@std@@8
rdata$r	ENDS
;	COMDAT ??_R4bad_array_new_length@std@@6B@
rdata$r	SEGMENT
??_R4bad_array_new_length@std@@6B@ DD 01H		; std::bad_array_new_length::`RTTI Complete Object Locator'
	DD	00H
	DD	00H
	DD	imagerel ??_R0?AVbad_array_new_length@std@@@8
	DD	imagerel ??_R3bad_array_new_length@std@@8
	DD	imagerel ??_R4bad_array_new_length@std@@6B@
rdata$r	ENDS
;	COMDAT ??_R1A@?0A@EA@bad_alloc@std@@8
rdata$r	SEGMENT
??_R1A@?0A@EA@bad_alloc@std@@8 DD imagerel ??_R0?AVbad_alloc@std@@@8 ; std::bad_alloc::`RTTI Base Class Descriptor at (0,-1,0,64)'
	DD	01H
	DD	00H
	DD	0ffffffffH
	DD	00H
	DD	040H
	DD	imagerel ??_R3bad_alloc@std@@8
rdata$r	ENDS
;	COMDAT ??_R2bad_alloc@std@@8
rdata$r	SEGMENT
??_R2bad_alloc@std@@8 DD imagerel ??_R1A@?0A@EA@bad_alloc@std@@8 ; std::bad_alloc::`RTTI Base Class Array'
	DD	imagerel ??_R1A@?0A@EA@exception@std@@8
	ORG $+3
rdata$r	ENDS
;	COMDAT ??_R3bad_alloc@std@@8
rdata$r	SEGMENT
??_R3bad_alloc@std@@8 DD 00H				; std::bad_alloc::`RTTI Class Hierarchy Descriptor'
	DD	00H
	DD	02H
	DD	imagerel ??_R2bad_alloc@std@@8
rdata$r	ENDS
;	COMDAT ??_R4bad_alloc@std@@6B@
rdata$r	SEGMENT
??_R4bad_alloc@std@@6B@ DD 01H				; std::bad_alloc::`RTTI Complete Object Locator'
	DD	00H
	DD	00H
	DD	imagerel ??_R0?AVbad_alloc@std@@@8
	DD	imagerel ??_R3bad_alloc@std@@8
	DD	imagerel ??_R4bad_alloc@std@@6B@
rdata$r	ENDS
;	COMDAT ??_R1A@?0A@EA@exception@std@@8
rdata$r	SEGMENT
??_R1A@?0A@EA@exception@std@@8 DD imagerel ??_R0?AVexception@std@@@8 ; std::exception::`RTTI Base Class Descriptor at (0,-1,0,64)'
	DD	00H
	DD	00H
	DD	0ffffffffH
	DD	00H
	DD	040H
	DD	imagerel ??_R3exception@std@@8
rdata$r	ENDS
;	COMDAT ??_R2exception@std@@8
rdata$r	SEGMENT
??_R2exception@std@@8 DD imagerel ??_R1A@?0A@EA@exception@std@@8 ; std::exception::`RTTI Base Class Array'
	ORG $+3
rdata$r	ENDS
;	COMDAT ??_R3exception@std@@8
rdata$r	SEGMENT
??_R3exception@std@@8 DD 00H				; std::exception::`RTTI Class Hierarchy Descriptor'
	DD	00H
	DD	01H
	DD	imagerel ??_R2exception@std@@8
rdata$r	ENDS
;	COMDAT ??_R4exception@std@@6B@
rdata$r	SEGMENT
??_R4exception@std@@6B@ DD 01H				; std::exception::`RTTI Complete Object Locator'
	DD	00H
	DD	00H
	DD	imagerel ??_R0?AVexception@std@@@8
	DD	imagerel ??_R3exception@std@@8
	DD	imagerel ??_R4exception@std@@6B@
rdata$r	ENDS
;	COMDAT ??_C@_0BA@FOIKENOD@vector?5too?5long@
CONST	SEGMENT
??_C@_0BA@FOIKENOD@vector?5too?5long@ DB 'vector too long', 00H ; `string'
CONST	ENDS
;	COMDAT ??_C@_1HA@FACCKGGH@?$AA?$CC?$AAn?$AAu?$AAl?$AAl?$AA?5?$AAp?$AAo?$AAi?$AAn?$AAt?$AAe?$AAr?$AA?5?$AAc@
CONST	SEGMENT
??_C@_1HA@FACCKGGH@?$AA?$CC?$AAn?$AAu?$AAl?$AAl?$AA?5?$AAp?$AAo?$AAi?$AAn?$AAt?$AAe?$AAr?$AA?5?$AAc@ DB '"'
	DB	00H, 'n', 00H, 'u', 00H, 'l', 00H, 'l', 00H, ' ', 00H, 'p', 00H
	DB	'o', 00H, 'i', 00H, 'n', 00H, 't', 00H, 'e', 00H, 'r', 00H, ' '
	DB	00H, 'c', 00H, 'a', 00H, 'n', 00H, 'n', 00H, 'o', 00H, 't', 00H
	DB	' ', 00H, 'p', 00H, 'o', 00H, 'i', 00H, 'n', 00H, 't', 00H, ' '
	DB	00H, 't', 00H, 'o', 00H, ' ', 00H, 'a', 00H, ' ', 00H, 'b', 00H
	DB	'l', 00H, 'o', 00H, 'c', 00H, 'k', 00H, ' ', 00H, 'o', 00H, 'f'
	DB	00H, ' ', 00H, 'n', 00H, 'o', 00H, 'n', 00H, '-', 00H, 'z', 00H
	DB	'e', 00H, 'r', 00H, 'o', 00H, ' ', 00H, 's', 00H, 'i', 00H, 'z'
	DB	00H, 'e', 00H, '"', 00H, 00H, 00H		; `string'
CONST	ENDS
;	COMDAT ??_C@_0DG@KGHKKGBC@null?5pointer?5cannot?5point?5to?5a?5@
CONST	SEGMENT
??_C@_0DG@KGHKKGBC@null?5pointer?5cannot?5point?5to?5a?5@ DB 'null pointe'
	DB	'r cannot point to a block of non-zero size', 00H ; `string'
CONST	ENDS
;	COMDAT ??_C@_1EA@OADAPGGK@?$AA?$CC?$AAs?$AAt?$AAr?$AAi?$AAn?$AAg?$AA?5?$AAs?$AAu?$AAb?$AAs?$AAc?$AAr?$AAi@
CONST	SEGMENT
??_C@_1EA@OADAPGGK@?$AA?$CC?$AAs?$AAt?$AAr?$AAi?$AAn?$AAg?$AA?5?$AAs?$AAu?$AAb?$AAs?$AAc?$AAr?$AAi@ DB '"'
	DB	00H, 's', 00H, 't', 00H, 'r', 00H, 'i', 00H, 'n', 00H, 'g', 00H
	DB	' ', 00H, 's', 00H, 'u', 00H, 'b', 00H, 's', 00H, 'c', 00H, 'r'
	DB	00H, 'i', 00H, 'p', 00H, 't', 00H, ' ', 00H, 'o', 00H, 'u', 00H
	DB	't', 00H, ' ', 00H, 'o', 00H, 'f', 00H, ' ', 00H, 'r', 00H, 'a'
	DB	00H, 'n', 00H, 'g', 00H, 'e', 00H, '"', 00H, 00H, 00H ; `string'
CONST	ENDS
;	COMDAT ??_C@_1MA@GEBPNHFD@?$AAC?$AA?3?$AA?2?$AAP?$AAr?$AAo?$AAg?$AAr?$AAa?$AAm?$AA?5?$AAF?$AAi?$AAl?$AAe@
CONST	SEGMENT
??_C@_1MA@GEBPNHFD@?$AAC?$AA?3?$AA?2?$AAP?$AAr?$AAo?$AAg?$AAr?$AAa?$AAm?$AA?5?$AAF?$AAi?$AAl?$AAe@ DB 'C'
	DB	00H, ':', 00H, '\', 00H, 'P', 00H, 'r', 00H, 'o', 00H, 'g', 00H
	DB	'r', 00H, 'a', 00H, 'm', 00H, ' ', 00H, 'F', 00H, 'i', 00H, 'l'
	DB	00H, 'e', 00H, 's', 00H, '\', 00H, 'M', 00H, 'i', 00H, 'c', 00H
	DB	'r', 00H, 'o', 00H, 's', 00H, 'o', 00H, 'f', 00H, 't', 00H, ' '
	DB	00H, 'V', 00H, 'i', 00H, 's', 00H, 'u', 00H, 'a', 00H, 'l', 00H
	DB	' ', 00H, 'S', 00H, 't', 00H, 'u', 00H, 'd', 00H, 'i', 00H, 'o'
	DB	00H, '\', 00H, '2', 00H, '0', 00H, '2', 00H, '2', 00H, '\', 00H
	DB	'P', 00H, 'r', 00H, 'e', 00H, 'v', 00H, 'i', 00H, 'e', 00H, 'w'
	DB	00H, '\', 00H, 'V', 00H, 'C', 00H, '\', 00H, 'T', 00H, 'o', 00H
	DB	'o', 00H, 'l', 00H, 's', 00H, '\', 00H, 'M', 00H, 'S', 00H, 'V'
	DB	00H, 'C', 00H, '\', 00H, '1', 00H, '4', 00H, '.', 00H, '3', 00H
	DB	'8', 00H, '.', 00H, '3', 00H, '3', 00H, '0', 00H, '3', 00H, '0'
	DB	00H, '\', 00H, 'i', 00H, 'n', 00H, 'c', 00H, 'l', 00H, 'u', 00H
	DB	'd', 00H, 'e', 00H, '\', 00H, 'x', 00H, 's', 00H, 't', 00H, 'r'
	DB	00H, 'i', 00H, 'n', 00H, 'g', 00H, 00H, 00H	; `string'
CONST	ENDS
;	COMDAT ??_C@_0GA@PMHOGIIF@C?3?2Program?5Files?2Microsoft?5Visu@
CONST	SEGMENT
??_C@_0GA@PMHOGIIF@C?3?2Program?5Files?2Microsoft?5Visu@ DB 'C:\Program F'
	DB	'iles\Microsoft Visual Studio\2022\Preview\VC\Tools\MSVC\14.38'
	DB	'.33030\include\xstring', 00H		; `string'
CONST	ENDS
;	COMDAT ??_C@_0BO@LFGPDMIB@string?5subscript?5out?5of?5range@
CONST	SEGMENT
??_C@_0BO@LFGPDMIB@string?5subscript?5out?5of?5range@ DB 'string subscrip'
	DB	't out of range', 00H			; `string'
CONST	ENDS
;	COMDAT ??_C@_0BA@JFNIOLAK@string?5too?5long@
CONST	SEGMENT
??_C@_0BA@JFNIOLAK@string?5too?5long@ DB 'string too long', 00H ; `string'
CONST	ENDS
;	COMDAT ??_C@_1CG@JNLFBNGN@?$AA?$CC?$AAi?$AAn?$AAv?$AAa?$AAl?$AAi?$AAd?$AA?5?$AAa?$AAr?$AAg?$AAu?$AAm?$AAe@
CONST	SEGMENT
??_C@_1CG@JNLFBNGN@?$AA?$CC?$AAi?$AAn?$AAv?$AAa?$AAl?$AAi?$AAd?$AA?5?$AAa?$AAr?$AAg?$AAu?$AAm?$AAe@ DB '"'
	DB	00H, 'i', 00H, 'n', 00H, 'v', 00H, 'a', 00H, 'l', 00H, 'i', 00H
	DB	'd', 00H, ' ', 00H, 'a', 00H, 'r', 00H, 'g', 00H, 'u', 00H, 'm'
	DB	00H, 'e', 00H, 'n', 00H, 't', 00H, '"', 00H, 00H, 00H ; `string'
CONST	ENDS
;	COMDAT ??_C@_11LOCGONAA@@
CONST	SEGMENT
??_C@_11LOCGONAA@@ DB 00H, 00H				; `string'
CONST	ENDS
;	COMDAT ??_C@_1MA@IKJDCOIC@?$AAC?$AA?3?$AA?2?$AAP?$AAr?$AAo?$AAg?$AAr?$AAa?$AAm?$AA?5?$AAF?$AAi?$AAl?$AAe@
CONST	SEGMENT
??_C@_1MA@IKJDCOIC@?$AAC?$AA?3?$AA?2?$AAP?$AAr?$AAo?$AAg?$AAr?$AAa?$AAm?$AA?5?$AAF?$AAi?$AAl?$AAe@ DB 'C'
	DB	00H, ':', 00H, '\', 00H, 'P', 00H, 'r', 00H, 'o', 00H, 'g', 00H
	DB	'r', 00H, 'a', 00H, 'm', 00H, ' ', 00H, 'F', 00H, 'i', 00H, 'l'
	DB	00H, 'e', 00H, 's', 00H, '\', 00H, 'M', 00H, 'i', 00H, 'c', 00H
	DB	'r', 00H, 'o', 00H, 's', 00H, 'o', 00H, 'f', 00H, 't', 00H, ' '
	DB	00H, 'V', 00H, 'i', 00H, 's', 00H, 'u', 00H, 'a', 00H, 'l', 00H
	DB	' ', 00H, 'S', 00H, 't', 00H, 'u', 00H, 'd', 00H, 'i', 00H, 'o'
	DB	00H, '\', 00H, '2', 00H, '0', 00H, '2', 00H, '2', 00H, '\', 00H
	DB	'P', 00H, 'r', 00H, 'e', 00H, 'v', 00H, 'i', 00H, 'e', 00H, 'w'
	DB	00H, '\', 00H, 'V', 00H, 'C', 00H, '\', 00H, 'T', 00H, 'o', 00H
	DB	'o', 00H, 'l', 00H, 's', 00H, '\', 00H, 'M', 00H, 'S', 00H, 'V'
	DB	00H, 'C', 00H, '\', 00H, '1', 00H, '4', 00H, '.', 00H, '3', 00H
	DB	'8', 00H, '.', 00H, '3', 00H, '3', 00H, '0', 00H, '3', 00H, '0'
	DB	00H, '\', 00H, 'i', 00H, 'n', 00H, 'c', 00H, 'l', 00H, 'u', 00H
	DB	'd', 00H, 'e', 00H, '\', 00H, 'x', 00H, 'm', 00H, 'e', 00H, 'm'
	DB	00H, 'o', 00H, 'r', 00H, 'y', 00H, 00H, 00H	; `string'
CONST	ENDS
;	COMDAT ??_C@_0GA@FLDGEGM@C?3?2Program?5Files?2Microsoft?5Visu@
CONST	SEGMENT
??_C@_0GA@FLDGEGM@C?3?2Program?5Files?2Microsoft?5Visu@ DB 'C:\Program Fi'
	DB	'les\Microsoft Visual Studio\2022\Preview\VC\Tools\MSVC\14.38.'
	DB	'33030\include\xmemory', 00H			; `string'
CONST	ENDS
;	COMDAT ??_C@_02DKCKIIND@?$CFs@
CONST	SEGMENT
??_C@_02DKCKIIND@?$CFs@ DB '%s', 00H			; `string'
CONST	ENDS
;	COMDAT ??_C@_0BB@FCMFBGOM@invalid?5argument@
CONST	SEGMENT
??_C@_0BB@FCMFBGOM@invalid?5argument@ DB 'invalid argument', 00H ; `string'
CONST	ENDS
;	COMDAT ?__LINE__Var@?0??_Adjust_manually_vector_aligned@std@@YAXAEAPEAXAEA_K@Z@4JA
_DATA	SEGMENT
?__LINE__Var@?0??_Adjust_manually_vector_aligned@std@@YAXAEAPEAXAEA_K@Z@4JA DD 09aH ; `std::_Adjust_manually_vector_aligned'::`1'::__LINE__Var
_DATA	ENDS
;	COMDAT _CT??_R0?AVexception@std@@@8??0exception@std@@QEAA@AEBV01@@Z24
xdata$x	SEGMENT
_CT??_R0?AVexception@std@@@8??0exception@std@@QEAA@AEBV01@@Z24 DD 00H
	DD	imagerel ??_R0?AVexception@std@@@8
	DD	00H
	DD	0ffffffffH
	ORG $+4
	DD	018H
	DD	imagerel ??0exception@std@@QEAA@AEBV01@@Z
xdata$x	ENDS
;	COMDAT ??_R0?AVexception@std@@@8
data$r	SEGMENT
??_R0?AVexception@std@@@8 DQ FLAT:??_7type_info@@6B@	; std::exception `RTTI Type Descriptor'
	DQ	0000000000000000H
	DB	'.?AVexception@std@@', 00H
data$r	ENDS
;	COMDAT _CT??_R0?AVbad_alloc@std@@@8??0bad_alloc@std@@QEAA@AEBV01@@Z24
xdata$x	SEGMENT
_CT??_R0?AVbad_alloc@std@@@8??0bad_alloc@std@@QEAA@AEBV01@@Z24 DD 010H
	DD	imagerel ??_R0?AVbad_alloc@std@@@8
	DD	00H
	DD	0ffffffffH
	ORG $+4
	DD	018H
	DD	imagerel ??0bad_alloc@std@@QEAA@AEBV01@@Z
xdata$x	ENDS
;	COMDAT ??_R0?AVbad_alloc@std@@@8
data$r	SEGMENT
??_R0?AVbad_alloc@std@@@8 DQ FLAT:??_7type_info@@6B@	; std::bad_alloc `RTTI Type Descriptor'
	DQ	0000000000000000H
	DB	'.?AVbad_alloc@std@@', 00H
data$r	ENDS
;	COMDAT _CT??_R0?AVbad_array_new_length@std@@@8??0bad_array_new_length@std@@QEAA@AEBV01@@Z24
xdata$x	SEGMENT
_CT??_R0?AVbad_array_new_length@std@@@8??0bad_array_new_length@std@@QEAA@AEBV01@@Z24 DD 00H
	DD	imagerel ??_R0?AVbad_array_new_length@std@@@8
	DD	00H
	DD	0ffffffffH
	ORG $+4
	DD	018H
	DD	imagerel ??0bad_array_new_length@std@@QEAA@AEBV01@@Z
xdata$x	ENDS
;	COMDAT ??_R0?AVbad_array_new_length@std@@@8
data$r	SEGMENT
??_R0?AVbad_array_new_length@std@@@8 DQ FLAT:??_7type_info@@6B@ ; std::bad_array_new_length `RTTI Type Descriptor'
	DQ	0000000000000000H
	DB	'.?AVbad_array_new_length@std@@', 00H
data$r	ENDS
;	COMDAT _CTA3?AVbad_array_new_length@std@@
xdata$x	SEGMENT
_CTA3?AVbad_array_new_length@std@@ DD 03H
	DD	imagerel _CT??_R0?AVbad_array_new_length@std@@@8??0bad_array_new_length@std@@QEAA@AEBV01@@Z24
	DD	imagerel _CT??_R0?AVbad_alloc@std@@@8??0bad_alloc@std@@QEAA@AEBV01@@Z24
	DD	imagerel _CT??_R0?AVexception@std@@@8??0exception@std@@QEAA@AEBV01@@Z24
xdata$x	ENDS
;	COMDAT _TI3?AVbad_array_new_length@std@@
xdata$x	SEGMENT
_TI3?AVbad_array_new_length@std@@ DD 00H
	DD	imagerel ??1bad_array_new_length@std@@UEAA@XZ
	DD	00H
	DD	imagerel _CTA3?AVbad_array_new_length@std@@
xdata$x	ENDS
;	COMDAT ??_C@_0BF@KINCDENJ@bad?5array?5new?5length@
CONST	SEGMENT
??_C@_0BF@KINCDENJ@bad?5array?5new?5length@ DB 'bad array new length', 00H ; `string'
CONST	ENDS
;	COMDAT ??_7bad_array_new_length@std@@6B@
CONST	SEGMENT
??_7bad_array_new_length@std@@6B@ DQ FLAT:??_R4bad_array_new_length@std@@6B@ ; std::bad_array_new_length::`vftable'
	DQ	FLAT:??_Ebad_array_new_length@std@@UEAAPEAXI@Z
	DQ	FLAT:?what@exception@std@@UEBAPEBDXZ
CONST	ENDS
;	COMDAT ??_7bad_alloc@std@@6B@
CONST	SEGMENT
??_7bad_alloc@std@@6B@ DQ FLAT:??_R4bad_alloc@std@@6B@	; std::bad_alloc::`vftable'
	DQ	FLAT:??_Ebad_alloc@std@@UEAAPEAXI@Z
	DQ	FLAT:?what@exception@std@@UEBAPEBDXZ
CONST	ENDS
;	COMDAT ??_C@_0BC@EOODALEL@Unknown?5exception@
CONST	SEGMENT
??_C@_0BC@EOODALEL@Unknown?5exception@ DB 'Unknown exception', 00H ; `string'
CONST	ENDS
;	COMDAT ??_7exception@std@@6B@
CONST	SEGMENT
??_7exception@std@@6B@ DQ FLAT:??_R4exception@std@@6B@	; std::exception::`vftable'
	DQ	FLAT:??_Eexception@std@@UEAAPEAXI@Z
	DQ	FLAT:?what@exception@std@@UEBAPEBDXZ
CONST	ENDS
;	COMDAT xdata
xdata	SEGMENT
$unwind$??$construct_at@UFCMDParameter@@U1@$0A@@std@@YAPEAUFCMDParameter@@QEAU1@$$QEAU1@@Z DD 025031401H
	DD	0d20f2314H
	DD	0500bH
xdata	ENDS
;	COMDAT xdata
xdata	SEGMENT
$unwind$??$construct@UFCMDParameter@@U1@@?$_Default_allocator_traits@V?$allocator@UFCMDParameter@@@std@@@std@@SAXAEAV?$allocator@UFCMDParameter@@@1@QEAUFCMDParameter@@$$QEAU3@@Z DD 025031901H
	DD	0b2142319H
	DD	05010H
xdata	ENDS
;	COMDAT xdata
xdata	SEGMENT
$unwind$??$_Get_size_of_n@$0FA@@std@@YA_K_K@Z DD 025030f01H
	DD	0d20a230fH
	DD	05006H
xdata	ENDS
;	COMDAT xdata
xdata	SEGMENT
$unwind$??$_Emplace_back@UFCMDParameter@@@?$_Uninitialized_backout_al@V?$allocator@UFCMDParameter@@@std@@@std@@QEAAX$$QEAUFCMDParameter@@@Z DD 025031401H
	DD	0d20f2314H
	DD	0500bH
xdata	ENDS
;	COMDAT xdata
xdata	SEGMENT
$unwind$?_Release@?$_Uninitialized_backout_al@V?$allocator@UFCMDParameter@@@std@@@std@@QEAAPEAUFCMDParameter@@XZ DD 025030f01H
	DD	0b20a230fH
	DD	05006H
xdata	ENDS
;	COMDAT xdata
xdata	SEGMENT
$unwind$??1?$_Uninitialized_backout_al@V?$allocator@UFCMDParameter@@@std@@@std@@QEAA@XZ DD 025030f01H
	DD	0b20a230fH
	DD	05006H
xdata	ENDS
;	COMDAT xdata
xdata	SEGMENT
$unwind$??0?$_Uninitialized_backout_al@V?$allocator@UFCMDParameter@@@std@@@std@@QEAA@PEAUFCMDParameter@@AEAV?$allocator@UFCMDParameter@@@1@@Z DD 025031901H
	DD	0b2142319H
	DD	05010H
xdata	ENDS
;	COMDAT xdata
xdata	SEGMENT
$unwind$??$_Get_unwrapped@AEBQEAUFCMDParameter@@@std@@YA?A_TAEBQEAUFCMDParameter@@@Z DD 025030f01H
	DD	0b20a230fH
	DD	05006H
xdata	ENDS
;	COMDAT xdata
xdata	SEGMENT
$unwind$??$construct_at@UFCMDParameter@@AEBU1@$0A@@std@@YAPEAUFCMDParameter@@QEAU1@AEBU1@@Z DD 025031401H
	DD	0d20f2314H
	DD	0500bH
xdata	ENDS
;	COMDAT xdata
xdata	SEGMENT
$unwind$??$_Get_size_of_n@$00@std@@YA_K_K@Z DD 025030f01H
	DD	0d20a230fH
	DD	05006H
xdata	ENDS
;	COMDAT xdata
xdata	SEGMENT
$unwind$??$_Allocate_manually_vector_aligned@U_Default_allocate_traits@std@@@std@@YAPEAX_K@Z DD 035041201H
	DD	010d3312H
	DD	050060012H
xdata	ENDS
;	COMDAT xdata
xdata	SEGMENT
$unwind$??$destroy_at@UFCMDParameter@@@std@@YAXQEAUFCMDParameter@@@Z DD 025030f01H
	DD	0b20a230fH
	DD	05006H
xdata	ENDS
;	COMDAT xdata
xdata	SEGMENT
$unwind$??$construct_at@PEADAEBQEAD$0A@@std@@YAPEAPEADQEAPEADAEBQEAD@Z DD 025031401H
	DD	0d20f2314H
	DD	0500bH
xdata	ENDS
;	COMDAT xdata
xdata	SEGMENT
$unwind$?deallocate@?$_Default_allocator_traits@V?$allocator@U_Container_proxy@std@@@std@@@std@@SAXAEAV?$allocator@U_Container_proxy@std@@@2@QEAU_Container_proxy@2@_K@Z DD 025031901H
	DD	0b2142319H
	DD	05010H
xdata	ENDS
;	COMDAT xdata
xdata	SEGMENT
$unwind$?dtor$0@?0???$_Uninitialized_move@PEAUFCMDParameter@@V?$allocator@UFCMDParameter@@@std@@@std@@YAPEAUFCMDParameter@@QEAU1@0PEAU1@AEAV?$allocator@UFCMDParameter@@@0@@Z@4HA DD 020601H
	DD	050023206H
xdata	ENDS
;	COMDAT xdata
xdata	SEGMENT
$ip2state$??$_Uninitialized_move@PEAUFCMDParameter@@V?$allocator@UFCMDParameter@@@std@@@std@@YAPEAUFCMDParameter@@QEAU1@0PEAU1@AEAV?$allocator@UFCMDParameter@@@0@@Z DB 06H
	DB	00H
	DB	00H
	DB	0caH
	DB	02H
	DB	'h'
	DB	00H
xdata	ENDS
;	COMDAT xdata
xdata	SEGMENT
$stateUnwindMap$??$_Uninitialized_move@PEAUFCMDParameter@@V?$allocator@UFCMDParameter@@@std@@@std@@YAPEAUFCMDParameter@@QEAU1@0PEAU1@AEAV?$allocator@UFCMDParameter@@@0@@Z DB 02H
	DB	0eH
	DD	imagerel ?dtor$0@?0???$_Uninitialized_move@PEAUFCMDParameter@@V?$allocator@UFCMDParameter@@@std@@@std@@YAPEAUFCMDParameter@@QEAU1@0PEAU1@AEAV?$allocator@UFCMDParameter@@@0@@Z@4HA
xdata	ENDS
;	COMDAT xdata
xdata	SEGMENT
$cppxdata$??$_Uninitialized_move@PEAUFCMDParameter@@V?$allocator@UFCMDParameter@@@std@@@std@@YAPEAUFCMDParameter@@QEAU1@0PEAU1@AEAV?$allocator@UFCMDParameter@@@0@@Z DB 028H
	DD	imagerel $stateUnwindMap$??$_Uninitialized_move@PEAUFCMDParameter@@V?$allocator@UFCMDParameter@@@std@@@std@@YAPEAUFCMDParameter@@QEAU1@0PEAU1@AEAV?$allocator@UFCMDParameter@@@0@@Z
	DD	imagerel $ip2state$??$_Uninitialized_move@PEAUFCMDParameter@@V?$allocator@UFCMDParameter@@@std@@@std@@YAPEAUFCMDParameter@@QEAU1@0PEAU1@AEAV?$allocator@UFCMDParameter@@@0@@Z
xdata	ENDS
;	COMDAT xdata
xdata	SEGMENT
$unwind$??$_Uninitialized_move@PEAUFCMDParameter@@V?$allocator@UFCMDParameter@@@std@@@std@@YAPEAUFCMDParameter@@QEAU1@0PEAU1@AEAV?$allocator@UFCMDParameter@@@0@@Z DD 025042111H
	DD	011c2321H
	DD	050150012H
	DD	imagerel __CxxFrameHandler4
	DD	imagerel $cppxdata$??$_Uninitialized_move@PEAUFCMDParameter@@V?$allocator@UFCMDParameter@@@std@@@std@@YAPEAUFCMDParameter@@QEAU1@0PEAU1@AEAV?$allocator@UFCMDParameter@@@0@@Z
xdata	ENDS
;	COMDAT xdata
xdata	SEGMENT
$unwind$??$_Allocate_at_least_helper@V?$allocator@UFCMDParameter@@@std@@@std@@YAPEAUFCMDParameter@@AEAV?$allocator@UFCMDParameter@@@0@AEA_K@Z DD 025031401H
	DD	0b20f2314H
	DD	0500bH
xdata	ENDS
;	COMDAT xdata
xdata	SEGMENT
$unwind$??$construct@UFCMDParameter@@AEBU1@@?$_Default_allocator_traits@V?$allocator@UFCMDParameter@@@std@@@std@@SAXAEAV?$allocator@UFCMDParameter@@@1@QEAUFCMDParameter@@AEBU3@@Z DD 025031901H
	DD	0b2142319H
	DD	05010H
xdata	ENDS
;	COMDAT xdata
xdata	SEGMENT
$unwind$??$construct_at@D$$V$0A@@std@@YAPEADQEAD@Z DD 025041001H
	DD	0e20b2310H
	DD	050067007H
xdata	ENDS
;	COMDAT xdata
xdata	SEGMENT
$unwind$??$min@_K@std@@YAAEB_KAEB_K0@Z DD 025031401H
	DD	0d20f2314H
	DD	0500bH
xdata	ENDS
;	COMDAT xdata
xdata	SEGMENT
$unwind$??$_Allocate@$0BA@U_Default_allocate_traits@std@@$0A@@std@@YAPEAX_K@Z DD 025030f01H
	DD	0b20a230fH
	DD	05006H
xdata	ENDS
;	COMDAT xdata
xdata	SEGMENT
$unwind$??$_Get_size_of_n@$0BA@@std@@YA_K_K@Z DD 025030f01H
	DD	0d20a230fH
	DD	05006H
xdata	ENDS
;	COMDAT xdata
xdata	SEGMENT
$unwind$??$construct_at@PEADAEAPEAD$0A@@std@@YAPEAPEADQEAPEADAEAPEAD@Z DD 025031401H
	DD	0d20f2314H
	DD	0500bH
xdata	ENDS
;	COMDAT xdata
xdata	SEGMENT
$unwind$??$addressof@PEAD@std@@YAPEAPEADAEAPEAD@Z DD 025030f01H
	DD	0b20a230fH
	DD	05006H
xdata	ENDS
;	COMDAT xdata
xdata	SEGMENT
$unwind$??$destroy@UFCMDParameter@@@?$_Default_allocator_traits@V?$allocator@UFCMDParameter@@@std@@@std@@SAXAEAV?$allocator@UFCMDParameter@@@1@QEAUFCMDParameter@@@Z DD 025031401H
	DD	0b20f2314H
	DD	0500bH
xdata	ENDS
;	COMDAT xdata
xdata	SEGMENT
$unwind$??$_Construct_in_place@PEADAEBQEAD@std@@YAXAEAPEADAEBQEAD@Z DD 025031401H
	DD	0d20f2314H
	DD	0500bH
xdata	ENDS
;	COMDAT xdata
xdata	SEGMENT
$unwind$??$_Allocate_at_least_helper@V?$allocator@D@std@@@std@@YAPEADAEAV?$allocator@D@0@AEA_K@Z DD 025031401H
	DD	0b20f2314H
	DD	0500bH
xdata	ENDS
;	COMDAT xdata
xdata	SEGMENT
$unwind$??1?$_Container_proxy_ptr12@V?$allocator@U_Container_proxy@std@@@std@@@std@@QEAA@XZ DD 025030f01H
	DD	0b20a230fH
	DD	05006H
xdata	ENDS
;	COMDAT xdata
xdata	SEGMENT
$unwind$??0?$_Container_proxy_ptr12@V?$allocator@U_Container_proxy@std@@@std@@@std@@QEAA@AEAV?$allocator@U_Container_proxy@std@@@1@AEAU_Container_base12@1@@Z DD 025031901H
	DD	0d2142319H
	DD	05010H
xdata	ENDS
;	COMDAT xdata
xdata	SEGMENT
$unwind$??$_Unfancy@U_Container_proxy@std@@@std@@YAPEAU_Container_proxy@0@PEAU10@@Z DD 025030f01H
	DD	0b20a230fH
	DD	05006H
xdata	ENDS
;	COMDAT xdata
xdata	SEGMENT
$ip2state$??$_Deallocate_plain@V?$allocator@U_Container_proxy@std@@@std@@@std@@YAXAEAV?$allocator@U_Container_proxy@std@@@0@QEAU_Container_proxy@0@@Z DB 02H
	DB	00H
	DB	00H
xdata	ENDS
;	COMDAT xdata
xdata	SEGMENT
$cppxdata$??$_Deallocate_plain@V?$allocator@U_Container_proxy@std@@@std@@@std@@YAXAEAV?$allocator@U_Container_proxy@std@@@0@QEAU_Container_proxy@0@@Z DB 060H
	DD	imagerel $ip2state$??$_Deallocate_plain@V?$allocator@U_Container_proxy@std@@@std@@@std@@YAXAEAV?$allocator@U_Container_proxy@std@@@0@QEAU_Container_proxy@0@@Z
xdata	ENDS
;	COMDAT xdata
xdata	SEGMENT
$unwind$??$_Deallocate_plain@V?$allocator@U_Container_proxy@std@@@std@@@std@@YAXAEAV?$allocator@U_Container_proxy@std@@@0@QEAU_Container_proxy@0@@Z DD 025031419H
	DD	0b20f2314H
	DD	0500bH
	DD	imagerel __CxxFrameHandler4
	DD	imagerel $cppxdata$??$_Deallocate_plain@V?$allocator@U_Container_proxy@std@@@std@@@std@@YAXAEAV?$allocator@U_Container_proxy@std@@@0@QEAU_Container_proxy@0@@Z
xdata	ENDS
;	COMDAT voltbl
voltbl	SEGMENT
_volmd	DB	00H
voltbl	ENDS
;	COMDAT xdata
xdata	SEGMENT
$unwind$?catch$0@?0???$_Emplace_reallocate@AEBUFCMDParameter@@@?$vector@UFCMDParameter@@V?$allocator@UFCMDParameter@@@std@@@std@@AEAAPEAUFCMDParameter@@QEAU2@AEBU2@@Z@4HA DD 020a01H
	DD	05006320aH
xdata	ENDS
;	COMDAT xdata
xdata	SEGMENT
$ip2state$??$_Emplace_reallocate@AEBUFCMDParameter@@@?$vector@UFCMDParameter@@V?$allocator@UFCMDParameter@@@std@@@std@@AEAAPEAUFCMDParameter@@QEAU2@AEBU2@@Z DB 06H
	DB	00H
	DB	00H
	DB	0f5H, 03H
	DB	02H
	DB	0d9H, 02H
	DB	00H
xdata	ENDS
;	COMDAT xdata
xdata	SEGMENT
$handlerMap$??$_Emplace_reallocate@AEBUFCMDParameter@@@?$vector@UFCMDParameter@@V?$allocator@UFCMDParameter@@@std@@@std@@AEAAPEAUFCMDParameter@@QEAU2@AEBU2@@Z DB 02H
	DB	01H
	DB	080H
	DD	imagerel ?catch$0@?0???$_Emplace_reallocate@AEBUFCMDParameter@@@?$vector@UFCMDParameter@@V?$allocator@UFCMDParameter@@@std@@@std@@AEAAPEAUFCMDParameter@@QEAU2@AEBU2@@Z@4HA
xdata	ENDS
;	COMDAT xdata
xdata	SEGMENT
$tryMap$??$_Emplace_reallocate@AEBUFCMDParameter@@@?$vector@UFCMDParameter@@V?$allocator@UFCMDParameter@@@std@@@std@@AEAAPEAUFCMDParameter@@QEAU2@AEBU2@@Z DB 02H
	DB	00H
	DB	00H
	DB	02H
	DD	imagerel $handlerMap$??$_Emplace_reallocate@AEBUFCMDParameter@@@?$vector@UFCMDParameter@@V?$allocator@UFCMDParameter@@@std@@@std@@AEAAPEAUFCMDParameter@@QEAU2@AEBU2@@Z
xdata	ENDS
;	COMDAT xdata
xdata	SEGMENT
$stateUnwindMap$??$_Emplace_reallocate@AEBUFCMDParameter@@@?$vector@UFCMDParameter@@V?$allocator@UFCMDParameter@@@std@@@std@@AEAAPEAUFCMDParameter@@QEAU2@AEBU2@@Z DB 04H
	DB	08H
	DB	010H
xdata	ENDS
;	COMDAT xdata
xdata	SEGMENT
$cppxdata$??$_Emplace_reallocate@AEBUFCMDParameter@@@?$vector@UFCMDParameter@@V?$allocator@UFCMDParameter@@@std@@@std@@AEAAPEAUFCMDParameter@@QEAU2@AEBU2@@Z DB 038H
	DD	imagerel $stateUnwindMap$??$_Emplace_reallocate@AEBUFCMDParameter@@@?$vector@UFCMDParameter@@V?$allocator@UFCMDParameter@@@std@@@std@@AEAAPEAUFCMDParameter@@QEAU2@AEBU2@@Z
	DD	imagerel $tryMap$??$_Emplace_reallocate@AEBUFCMDParameter@@@?$vector@UFCMDParameter@@V?$allocator@UFCMDParameter@@@std@@@std@@AEAAPEAUFCMDParameter@@QEAU2@AEBU2@@Z
	DD	imagerel $ip2state$??$_Emplace_reallocate@AEBUFCMDParameter@@@?$vector@UFCMDParameter@@V?$allocator@UFCMDParameter@@@std@@@std@@AEAAPEAUFCMDParameter@@QEAU2@AEBU2@@Z
xdata	ENDS
;	COMDAT xdata
xdata	SEGMENT
$unwind$??$_Emplace_reallocate@AEBUFCMDParameter@@@?$vector@UFCMDParameter@@V?$allocator@UFCMDParameter@@@std@@@std@@AEAAPEAUFCMDParameter@@QEAU2@AEBU2@@Z DD 025041c19H
	DD	0117231cH
	DD	050100018H
	DD	imagerel __CxxFrameHandler4
	DD	imagerel $cppxdata$??$_Emplace_reallocate@AEBUFCMDParameter@@@?$vector@UFCMDParameter@@V?$allocator@UFCMDParameter@@@std@@@std@@AEAAPEAUFCMDParameter@@QEAU2@AEBU2@@Z
xdata	ENDS
;	COMDAT xdata
xdata	SEGMENT
$unwind$??$_Emplace_back_with_unused_capacity@AEBUFCMDParameter@@@?$vector@UFCMDParameter@@V?$allocator@UFCMDParameter@@@std@@@std@@AEAAAEAUFCMDParameter@@AEBU2@@Z DD 025041701H
	DD	01122317H
	DD	0500b0012H
xdata	ENDS
;	COMDAT xdata
xdata	SEGMENT
$unwind$??$_Unfancy@UFCMDParameter@@@std@@YAPEAUFCMDParameter@@PEAU1@@Z DD 025030f01H
	DD	0b20a230fH
	DD	05006H
xdata	ENDS
;	COMDAT xdata
xdata	SEGMENT
$unwind$??$construct_at@U_Container_proxy@std@@PEAU_Container_base12@2@$0A@@std@@YAPEAU_Container_proxy@0@QEAU10@$$QEAPEAU_Container_base12@0@@Z DD 025031401H
	DD	0d20f2314H
	DD	0500bH
xdata	ENDS
;	COMDAT xdata
xdata	SEGMENT
$unwind$??$addressof@U_Container_proxy@std@@@std@@YAPEAU_Container_proxy@0@AEAU10@@Z DD 025030f01H
	DD	0b20a230fH
	DD	05006H
xdata	ENDS
;	COMDAT xdata
xdata	SEGMENT
$unwind$??$construct_at@DAEBD$0A@@std@@YAPEADQEADAEBD@Z DD 025031401H
	DD	0d20f2314H
	DD	0500bH
xdata	ENDS
;	COMDAT xdata
xdata	SEGMENT
$unwind$??$addressof@D@std@@YAPEADAEAD@Z DD 025030f01H
	DD	0b20a230fH
	DD	05006H
xdata	ENDS
;	COMDAT xdata
xdata	SEGMENT
$unwind$??$addressof@$$CBV?$_String_val@U?$_Simple_types@D@std@@@std@@@std@@YAPEBV?$_String_val@U?$_Simple_types@D@std@@@0@AEBV10@@Z DD 025030f01H
	DD	0b20a230fH
	DD	05006H
xdata	ENDS
;	COMDAT xdata
xdata	SEGMENT
$unwind$??$addressof@V?$_String_val@U?$_Simple_types@D@std@@@std@@@std@@YAPEAV?$_String_val@U?$_Simple_types@D@std@@@0@AEAV10@@Z DD 025030f01H
	DD	0b20a230fH
	DD	05006H
xdata	ENDS
;	COMDAT xdata
xdata	SEGMENT
$ip2state$??$_Deallocate@$0BA@$0A@@std@@YAXPEAX_K@Z DB 02H
	DB	00H
	DB	00H
xdata	ENDS
;	COMDAT xdata
xdata	SEGMENT
$cppxdata$??$_Deallocate@$0BA@$0A@@std@@YAXPEAX_K@Z DB 060H
	DD	imagerel $ip2state$??$_Deallocate@$0BA@$0A@@std@@YAXPEAX_K@Z
xdata	ENDS
;	COMDAT xdata
xdata	SEGMENT
$unwind$??$_Deallocate@$0BA@$0A@@std@@YAXPEAX_K@Z DD 025031419H
	DD	0b20f2314H
	DD	0500bH
	DD	imagerel __CxxFrameHandler4
	DD	imagerel $cppxdata$??$_Deallocate@$0BA@$0A@@std@@YAXPEAX_K@Z
xdata	ENDS
;	COMDAT xdata
xdata	SEGMENT
$unwind$??$max@_K@std@@YAAEB_KAEB_K0@Z DD 025031401H
	DD	0d20f2314H
	DD	0500bH
xdata	ENDS
;	COMDAT xdata
xdata	SEGMENT
$unwind$??$_Unfancy@D@std@@YAPEADPEAD@Z DD 025030f01H
	DD	0b20a230fH
	DD	05006H
xdata	ENDS
;	COMDAT xdata
xdata	SEGMENT
$unwind$??$_Construct_in_place@PEADAEAPEAD@std@@YAXAEAPEAD0@Z DD 025031401H
	DD	0d20f2314H
	DD	0500bH
xdata	ENDS
;	COMDAT xdata
xdata	SEGMENT
$unwind$??$_Reallocate_for@V<lambda_1>@?1??assign@?$basic_string@DU?$char_traits@D@std@@V?$allocator@D@2@@std@@QEAAAEAV34@QEBD_K@Z@PEBD@?$basic_string@DU?$char_traits@D@std@@V?$allocator@D@2@@std@@AEAAAEAV01@_KV<lambda_1>@?1??assign@01@QEAAAEAV01@QEBD0@Z@PEBD@Z DD 025042101H
	DD	011c2321H
	DD	050150012H
xdata	ENDS
;	COMDAT xdata
xdata	SEGMENT
$unwind$??R<lambda_1>@?1??assign@?$basic_string@DU?$char_traits@D@std@@V?$allocator@D@2@@std@@QEAAAEAV23@QEBD_K@Z@QEBA@QEAD10@Z DD 025031e01H
	DD	0d219231eH
	DD	05015H
xdata	ENDS
;	COMDAT xdata
xdata	SEGMENT
$unwind$??$_Convert_size@_K_K@std@@YA_K_K@Z DD 025030f01H
	DD	0b20a230fH
	DD	05006H
xdata	ENDS
;	COMDAT xdata
xdata	SEGMENT
$unwind$??$_Destroy_in_place@PEAD@std@@YAXAEAPEAD@Z DD 025030f01H
	DD	0b20a230fH
	DD	05006H
xdata	ENDS
;	COMDAT xdata
xdata	SEGMENT
$ip2state$??$_Destroy_range@V?$allocator@UFCMDParameter@@@std@@@std@@YAXPEAUFCMDParameter@@QEAU1@AEAV?$allocator@UFCMDParameter@@@0@@Z DB 02H
	DB	00H
	DB	00H
xdata	ENDS
;	COMDAT xdata
xdata	SEGMENT
$cppxdata$??$_Destroy_range@V?$allocator@UFCMDParameter@@@std@@@std@@YAXPEAUFCMDParameter@@QEAU1@AEAV?$allocator@UFCMDParameter@@@0@@Z DB 060H
	DD	imagerel $ip2state$??$_Destroy_range@V?$allocator@UFCMDParameter@@@std@@@std@@YAXPEAUFCMDParameter@@QEAU1@AEAV?$allocator@UFCMDParameter@@@0@@Z
xdata	ENDS
;	COMDAT xdata
xdata	SEGMENT
$unwind$??$_Destroy_range@V?$allocator@UFCMDParameter@@@std@@@std@@YAXPEAUFCMDParameter@@QEAU1@AEAV?$allocator@UFCMDParameter@@@0@@Z DD 025031919H
	DD	0b2142319H
	DD	05010H
	DD	imagerel __CxxFrameHandler4
	DD	imagerel $cppxdata$??$_Destroy_range@V?$allocator@UFCMDParameter@@@std@@@std@@YAXPEAUFCMDParameter@@QEAU1@AEAV?$allocator@UFCMDParameter@@@0@@Z
xdata	ENDS
;	COMDAT xdata
xdata	SEGMENT
$unwind$?dtor$0@?0???$_Construct@$01PEBD@?$basic_string@DU?$char_traits@D@std@@V?$allocator@D@2@@std@@AEAAXQEBD_K@Z@4HA DD 020601H
	DD	050023206H
xdata	ENDS
;	COMDAT xdata
xdata	SEGMENT
$ip2state$??$_Construct@$01PEBD@?$basic_string@DU?$char_traits@D@std@@V?$allocator@D@2@@std@@AEAAXQEBD_K@Z DB 0aH
	DB	00H
	DB	00H
	DB	011H, 02H
	DB	02H
	DB	098H
	DB	00H
	DB	01cH
	DB	02H
	DB	09dH, 03H
	DB	00H
xdata	ENDS
;	COMDAT xdata
xdata	SEGMENT
$stateUnwindMap$??$_Construct@$01PEBD@?$basic_string@DU?$char_traits@D@std@@V?$allocator@D@2@@std@@AEAAXQEBD_K@Z DB 02H
	DB	0eH
	DD	imagerel ?dtor$0@?0???$_Construct@$01PEBD@?$basic_string@DU?$char_traits@D@std@@V?$allocator@D@2@@std@@AEAAXQEBD_K@Z@4HA
xdata	ENDS
;	COMDAT xdata
xdata	SEGMENT
$cppxdata$??$_Construct@$01PEBD@?$basic_string@DU?$char_traits@D@std@@V?$allocator@D@2@@std@@AEAAXQEBD_K@Z DB 028H
	DD	imagerel $stateUnwindMap$??$_Construct@$01PEBD@?$basic_string@DU?$char_traits@D@std@@V?$allocator@D@2@@std@@AEAAXQEBD_K@Z
	DD	imagerel $ip2state$??$_Construct@$01PEBD@?$basic_string@DU?$char_traits@D@std@@V?$allocator@D@2@@std@@AEAAXQEBD_K@Z
xdata	ENDS
;	COMDAT xdata
xdata	SEGMENT
$unwind$??$_Construct@$01PEBD@?$basic_string@DU?$char_traits@D@std@@V?$allocator@D@2@@std@@AEAAXQEBD_K@Z DD 025041c11H
	DD	0117231cH
	DD	050100016H
	DD	imagerel __CxxFrameHandler4
	DD	imagerel $cppxdata$??$_Construct@$01PEBD@?$basic_string@DU?$char_traits@D@std@@V?$allocator@D@2@@std@@AEAAXQEBD_K@Z
xdata	ENDS
;	COMDAT xdata
xdata	SEGMENT
$unwind$??$?0$$V@?$_Compressed_pair@V?$allocator@D@std@@V?$_String_val@U?$_Simple_types@D@std@@@2@$00@std@@QEAA@U_Zero_then_variadic_args_t@1@@Z DD 025031301H
	DD	0b20e2313H
	DD	0500aH
xdata	ENDS
;	COMDAT xdata
xdata	SEGMENT
$unwind$??$?0V?$allocator@D@std@@$$V@?$_Compressed_pair@V?$allocator@D@std@@V?$_String_val@U?$_Simple_types@D@std@@@2@$00@std@@QEAA@U_One_then_variadic_args_t@1@$$QEAV?$allocator@D@1@@Z DD 025031801H
	DD	0b2132318H
	DD	0500fH
xdata	ENDS
;	COMDAT xdata
xdata	SEGMENT
$unwind$??$?0D@?$allocator@U_Container_proxy@std@@@std@@QEAA@AEBV?$allocator@D@1@@Z DD 025031401H
	DD	0b20f2314H
	DD	0500bH
xdata	ENDS
;	COMDAT xdata
xdata	SEGMENT
$unwind$??$_Pocca@V?$allocator@D@std@@@std@@YAXAEAV?$allocator@D@0@AEBV10@@Z DD 025031401H
	DD	0b20f2314H
	DD	0500bH
xdata	ENDS
;	COMDAT xdata
xdata	SEGMENT
$unwind$??$addressof@$$CBV?$basic_string@DU?$char_traits@D@std@@V?$allocator@D@2@@std@@@std@@YAPEBV?$basic_string@DU?$char_traits@D@std@@V?$allocator@D@2@@0@AEBV10@@Z DD 025030f01H
	DD	0b20a230fH
	DD	05006H
xdata	ENDS
;	COMDAT xdata
xdata	SEGMENT
$unwind$??$_Alloc_proxy@V?$allocator@U_Container_proxy@std@@@std@@@_Container_base12@std@@QEAAX$$QEAV?$allocator@U_Container_proxy@std@@@1@@Z DD 025031401H
	DD	0d20f2314H
	DD	0500bH
xdata	ENDS
;	COMDAT xdata
xdata	SEGMENT
$unwind$??$?0$$V@?$_Compressed_pair@V?$allocator@UFCMDParameter@@@std@@V?$_Vector_val@U?$_Simple_types@UFCMDParameter@@@std@@@2@$00@std@@QEAA@U_Zero_then_variadic_args_t@1@@Z DD 025031301H
	DD	0b20e2313H
	DD	0500aH
xdata	ENDS
;	COMDAT xdata
xdata	SEGMENT
$unwind$??$_Delete_plain_internal@V?$allocator@U_Container_proxy@std@@@std@@@std@@YAXAEAV?$allocator@U_Container_proxy@std@@@0@QEAU_Container_proxy@0@@Z DD 025031401H
	DD	0b20f2314H
	DD	0500bH
xdata	ENDS
;	COMDAT xdata
xdata	SEGMENT
$unwind$??$exchange@PEAU_Container_proxy@std@@$$T@std@@YAPEAU_Container_proxy@0@AEAPEAU10@$$QEA$$T@Z DD 025031401H
	DD	0d20f2314H
	DD	0500bH
xdata	ENDS
;	COMDAT xdata
xdata	SEGMENT
$unwind$??$?0UFCMDParameter@@@?$allocator@U_Container_proxy@std@@@std@@QEAA@AEBV?$allocator@UFCMDParameter@@@1@@Z DD 025031401H
	DD	0b20f2314H
	DD	0500bH
xdata	ENDS
;	COMDAT xdata
xdata	SEGMENT
$unwind$?allocate@?$allocator@U_Container_proxy@std@@@std@@QEAAPEAU_Container_proxy@2@_K@Z DD 025031401H
	DD	0b20f2314H
	DD	0500bH
xdata	ENDS
;	COMDAT xdata
xdata	SEGMENT
$unwind$?deallocate@?$allocator@U_Container_proxy@std@@@std@@QEAAXQEAU_Container_proxy@2@_K@Z DD 035031901H
	DD	0d2143319H
	DD	05010H
xdata	ENDS
;	COMDAT xdata
xdata	SEGMENT
$unwind$??$_Emplace_one_at_back@AEBUFCMDParameter@@@?$vector@UFCMDParameter@@V?$allocator@UFCMDParameter@@@std@@@std@@AEAAAEAUFCMDParameter@@AEBU2@@Z DD 025031401H
	DD	0d20f2314H
	DD	0500bH
xdata	ENDS
;	COMDAT xdata
xdata	SEGMENT
$unwind$??$strncat_s@$0EA@@@YAHAEAY0EA@DPEBD_K@Z DD 025031901H
	DD	0b2142319H
	DD	05010H
xdata	ENDS
;	COMDAT xdata
xdata	SEGMENT
$unwind$??__Fapp@@YAXXZ DD 025030b01H
	DD	0b206230bH
	DD	05002H
xdata	ENDS
;	COMDAT xdata
xdata	SEGMENT
$unwind$??__Eapp@@YAXXZ DD 025030b01H
	DD	0b206230bH
	DD	05002H
xdata	ENDS
;	COMDAT xdata
xdata	SEGMENT
$unwind$?_Get_first@?$_Compressed_pair@V?$allocator@UFCMDParameter@@@std@@V?$_Vector_val@U?$_Simple_types@UFCMDParameter@@@std@@@2@$00@std@@QEBAAEBV?$allocator@UFCMDParameter@@@2@XZ DD 025030f01H
	DD	0b20a230fH
	DD	05006H
xdata	ENDS
;	COMDAT xdata
xdata	SEGMENT
$unwind$?_Get_first@?$_Compressed_pair@V?$allocator@UFCMDParameter@@@std@@V?$_Vector_val@U?$_Simple_types@UFCMDParameter@@@std@@@2@$00@std@@QEAAAEAV?$allocator@UFCMDParameter@@@2@XZ DD 025030f01H
	DD	0b20a230fH
	DD	05006H
xdata	ENDS
;	COMDAT xdata
xdata	SEGMENT
$unwind$??0?$_Vector_val@U?$_Simple_types@UFCMDParameter@@@std@@@std@@QEAA@XZ DD 025030f01H
	DD	0b20a230fH
	DD	05006H
xdata	ENDS
;	COMDAT xdata
xdata	SEGMENT
$unwind$?_Getal@?$vector@UFCMDParameter@@V?$allocator@UFCMDParameter@@@std@@@std@@AEBAAEBV?$allocator@UFCMDParameter@@@2@XZ DD 025030f01H
	DD	0b20a230fH
	DD	05006H
xdata	ENDS
;	COMDAT xdata
xdata	SEGMENT
$unwind$?_Getal@?$vector@UFCMDParameter@@V?$allocator@UFCMDParameter@@@std@@@std@@AEAAAEAV?$allocator@UFCMDParameter@@@2@XZ DD 025030f01H
	DD	0b20a230fH
	DD	05006H
xdata	ENDS
;	COMDAT xdata
xdata	SEGMENT
$unwind$?_Orphan_range@?$vector@UFCMDParameter@@V?$allocator@UFCMDParameter@@@std@@@std@@AEBAXPEAUFCMDParameter@@0@Z DD 025031901H
	DD	0b2142319H
	DD	05010H
xdata	ENDS
;	COMDAT xdata
xdata	SEGMENT
$unwind$?dtor$0@?0??_Orphan_range_locked@?$vector@UFCMDParameter@@V?$allocator@UFCMDParameter@@@std@@@std@@AEBAXPEAUFCMDParameter@@0@Z@4HA DD 020601H
	DD	050023206H
xdata	ENDS
;	COMDAT xdata
xdata	SEGMENT
$ip2state$?_Orphan_range_locked@?$vector@UFCMDParameter@@V?$allocator@UFCMDParameter@@@std@@@std@@AEBAXPEAUFCMDParameter@@0@Z DB 06H
	DB	00H
	DB	00H
	DB	'j'
	DB	02H
	DB	'$'
	DB	00H
xdata	ENDS
;	COMDAT xdata
xdata	SEGMENT
$stateUnwindMap$?_Orphan_range_locked@?$vector@UFCMDParameter@@V?$allocator@UFCMDParameter@@@std@@@std@@AEBAXPEAUFCMDParameter@@0@Z DB 02H
	DB	0eH
	DD	imagerel ?dtor$0@?0??_Orphan_range_locked@?$vector@UFCMDParameter@@V?$allocator@UFCMDParameter@@@std@@@std@@AEBAXPEAUFCMDParameter@@0@Z@4HA
xdata	ENDS
;	COMDAT xdata
xdata	SEGMENT
$cppxdata$?_Orphan_range_locked@?$vector@UFCMDParameter@@V?$allocator@UFCMDParameter@@@std@@@std@@AEBAXPEAUFCMDParameter@@0@Z DB 028H
	DD	imagerel $stateUnwindMap$?_Orphan_range_locked@?$vector@UFCMDParameter@@V?$allocator@UFCMDParameter@@@std@@@std@@AEBAXPEAUFCMDParameter@@0@Z
	DD	imagerel $ip2state$?_Orphan_range_locked@?$vector@UFCMDParameter@@V?$allocator@UFCMDParameter@@@std@@@std@@AEBAXPEAUFCMDParameter@@0@Z
xdata	ENDS
;	COMDAT xdata
xdata	SEGMENT
$unwind$?_Orphan_range_locked@?$vector@UFCMDParameter@@V?$allocator@UFCMDParameter@@@std@@@std@@AEBAXPEAUFCMDParameter@@0@Z DD 025031911H
	DD	0d2142319H
	DD	05010H
	DD	imagerel __CxxFrameHandler4
	DD	imagerel $cppxdata$?_Orphan_range_locked@?$vector@UFCMDParameter@@V?$allocator@UFCMDParameter@@@std@@@std@@AEBAXPEAUFCMDParameter@@0@Z
xdata	ENDS
;	COMDAT xdata
xdata	SEGMENT
$unwind$?_Orphan_range_unlocked@?$vector@UFCMDParameter@@V?$allocator@UFCMDParameter@@@std@@@std@@AEBAXPEAUFCMDParameter@@0@Z DD 025031c01H
	DD	0f217231cH
	DD	05010H
xdata	ENDS
;	COMDAT xdata
xdata	SEGMENT
$unwind$?_Xlength@?$vector@UFCMDParameter@@V?$allocator@UFCMDParameter@@@std@@@std@@CAXXZ DD 025030b01H
	DD	0b206230bH
	DD	05002H
xdata	ENDS
;	COMDAT xdata
xdata	SEGMENT
$ip2state$?_Tidy@?$vector@UFCMDParameter@@V?$allocator@UFCMDParameter@@@std@@@std@@AEAAXXZ DB 02H
	DB	00H
	DB	00H
xdata	ENDS
;	COMDAT xdata
xdata	SEGMENT
$cppxdata$?_Tidy@?$vector@UFCMDParameter@@V?$allocator@UFCMDParameter@@@std@@@std@@AEAAXXZ DB 060H
	DD	imagerel $ip2state$?_Tidy@?$vector@UFCMDParameter@@V?$allocator@UFCMDParameter@@@std@@@std@@AEAAXXZ
xdata	ENDS
;	COMDAT xdata
xdata	SEGMENT
$unwind$?_Tidy@?$vector@UFCMDParameter@@V?$allocator@UFCMDParameter@@@std@@@std@@AEAAXXZ DD 025041219H
	DD	010d2312H
	DD	050060012H
	DD	imagerel __CxxFrameHandler4
	DD	imagerel $cppxdata$?_Tidy@?$vector@UFCMDParameter@@V?$allocator@UFCMDParameter@@@std@@@std@@AEAAXXZ
xdata	ENDS
;	COMDAT xdata
xdata	SEGMENT
$unwind$?_Change_array@?$vector@UFCMDParameter@@V?$allocator@UFCMDParameter@@@std@@@std@@AEAAXQEAUFCMDParameter@@_K1@Z DD 025042101H
	DD	011c2321H
	DD	050150012H
xdata	ENDS
;	COMDAT xdata
xdata	SEGMENT
$unwind$?_Calculate_growth@?$vector@UFCMDParameter@@V?$allocator@UFCMDParameter@@@std@@@std@@AEBA_K_K@Z DD 025031701H
	DD	0f2122317H
	DD	0500bH
xdata	ENDS
;	COMDAT xdata
xdata	SEGMENT
$unwind$?capacity@?$vector@UFCMDParameter@@V?$allocator@UFCMDParameter@@@std@@@std@@QEBA_KXZ DD 025030f01H
	DD	0d20a230fH
	DD	05006H
xdata	ENDS
;	COMDAT xdata
xdata	SEGMENT
$unwind$?max_size@?$vector@UFCMDParameter@@V?$allocator@UFCMDParameter@@@std@@@std@@QEBA_KXZ DD 025030f01H
	DD	0d20a230fH
	DD	05006H
xdata	ENDS
;	COMDAT xdata
xdata	SEGMENT
$unwind$?push_back@?$vector@UFCMDParameter@@V?$allocator@UFCMDParameter@@@std@@@std@@QEAAXAEBUFCMDParameter@@@Z DD 025031401H
	DD	0b20f2314H
	DD	0500bH
xdata	ENDS
;	COMDAT xdata
xdata	SEGMENT
$unwind$??1?$vector@UFCMDParameter@@V?$allocator@UFCMDParameter@@@std@@@std@@QEAA@XZ DD 025031201H
	DD	0f20d2312H
	DD	05006H
xdata	ENDS
;	COMDAT xdata
xdata	SEGMENT
$ip2state$??0?$vector@UFCMDParameter@@V?$allocator@UFCMDParameter@@@std@@@std@@QEAA@XZ DB 02H
	DB	00H
	DB	00H
xdata	ENDS
;	COMDAT xdata
xdata	SEGMENT
$cppxdata$??0?$vector@UFCMDParameter@@V?$allocator@UFCMDParameter@@@std@@@std@@QEAA@XZ DB 060H
	DD	imagerel $ip2state$??0?$vector@UFCMDParameter@@V?$allocator@UFCMDParameter@@@std@@@std@@QEAA@XZ
xdata	ENDS
;	COMDAT xdata
xdata	SEGMENT
$unwind$??0?$vector@UFCMDParameter@@V?$allocator@UFCMDParameter@@@std@@@std@@QEAA@XZ DD 025030f19H
	DD	0d20a230fH
	DD	05006H
	DD	imagerel __CxxFrameHandler4
	DD	imagerel $cppxdata$??0?$vector@UFCMDParameter@@V?$allocator@UFCMDParameter@@@std@@@std@@QEAA@XZ
xdata	ENDS
;	COMDAT xdata
xdata	SEGMENT
$unwind$?max_size@?$_Default_allocator_traits@V?$allocator@UFCMDParameter@@@std@@@std@@SA_KAEBV?$allocator@UFCMDParameter@@@2@@Z DD 025030f01H
	DD	0b20a230fH
	DD	05006H
xdata	ENDS
;	COMDAT xdata
xdata	SEGMENT
$unwind$?allocate@?$allocator@UFCMDParameter@@@std@@QEAAPEAUFCMDParameter@@_K@Z DD 025031401H
	DD	0b20f2314H
	DD	0500bH
xdata	ENDS
;	COMDAT xdata
xdata	SEGMENT
$unwind$?deallocate@?$allocator@UFCMDParameter@@@std@@QEAAXQEAUFCMDParameter@@_K@Z DD 035031901H
	DD	0d2143319H
	DD	05010H
xdata	ENDS
;	COMDAT xdata
xdata	SEGMENT
$unwind$??0?$allocator@UFCMDParameter@@@std@@QEAA@XZ DD 025030f01H
	DD	0b20a230fH
	DD	05006H
xdata	ENDS
;	COMDAT xdata
xdata	SEGMENT
$unwind$?CheckParameterCmdLine@Application@@QEAA_NV?$basic_string@DU?$char_traits@D@std@@V?$allocator@D@2@@std@@AEAV23@@Z DD 025031901H
	DD	0d2142319H
	DD	05010H
xdata	ENDS
;	COMDAT xdata
xdata	SEGMENT
$unwind$?dtor$0@?0??ParseCmdLine@Application@@QEAAXXZ@4HA DD 020601H
	DD	050023206H
xdata	ENDS
;	COMDAT xdata
xdata	SEGMENT
$ip2state$?ParseCmdLine@Application@@QEAAXXZ DB 012H
	DB	00H
	DB	00H
	DB	'Q', 02H
	DB	02H
	DB	095H, 04H
	DB	00H
	DB	01cH
	DB	02H
	DB	0b0H
	DB	00H
	DB	01cH
	DB	02H
	DB	0c6H
	DB	00H
	DB	01cH
	DB	02H
	DB	095H, 03H
	DB	00H
xdata	ENDS
;	COMDAT xdata
xdata	SEGMENT
$stateUnwindMap$?ParseCmdLine@Application@@QEAAXXZ DB 02H
	DB	0eH
	DD	imagerel ?dtor$0@?0??ParseCmdLine@Application@@QEAAXXZ@4HA
xdata	ENDS
;	COMDAT xdata
xdata	SEGMENT
$cppxdata$?ParseCmdLine@Application@@QEAAXXZ DB 028H
	DD	imagerel $stateUnwindMap$?ParseCmdLine@Application@@QEAAXXZ
	DD	imagerel $ip2state$?ParseCmdLine@Application@@QEAAXXZ
xdata	ENDS
;	COMDAT xdata
xdata	SEGMENT
$unwind$?ParseCmdLine@Application@@QEAAXXZ DD 025051311H
	DD	010e2313H
	DD	070070023H
	DD	05006H
	DD	imagerel __CxxFrameHandler4
	DD	imagerel $cppxdata$?ParseCmdLine@Application@@QEAAXXZ
xdata	ENDS
;	COMDAT xdata
xdata	SEGMENT
$unwind$?dtor$0@?0??Initialize@Application@@QEAAXPEAUHINSTANCE__@@0V?$basic_string@DU?$char_traits@D@std@@V?$allocator@D@2@@std@@H@Z@4HA DD 020601H
	DD	050023206H
xdata	ENDS
;	COMDAT xdata
xdata	SEGMENT
$ip2state$?Initialize@Application@@QEAAXPEAUHINSTANCE__@@0V?$basic_string@DU?$char_traits@D@std@@V?$allocator@D@2@@std@@H@Z DB 06H
	DB	00H
	DB	00H
	DB	'<'
	DB	02H
	DB	096H
	DB	00H
xdata	ENDS
;	COMDAT xdata
xdata	SEGMENT
$stateUnwindMap$?Initialize@Application@@QEAAXPEAUHINSTANCE__@@0V?$basic_string@DU?$char_traits@D@std@@V?$allocator@D@2@@std@@H@Z DB 02H
	DB	0eH
	DD	imagerel ?dtor$0@?0??Initialize@Application@@QEAAXPEAUHINSTANCE__@@0V?$basic_string@DU?$char_traits@D@std@@V?$allocator@D@2@@std@@H@Z@4HA
xdata	ENDS
;	COMDAT xdata
xdata	SEGMENT
$cppxdata$?Initialize@Application@@QEAAXPEAUHINSTANCE__@@0V?$basic_string@DU?$char_traits@D@std@@V?$allocator@D@2@@std@@H@Z DB 028H
	DD	imagerel $stateUnwindMap$?Initialize@Application@@QEAAXPEAUHINSTANCE__@@0V?$basic_string@DU?$char_traits@D@std@@V?$allocator@D@2@@std@@H@Z
	DD	imagerel $ip2state$?Initialize@Application@@QEAAXPEAUHINSTANCE__@@0V?$basic_string@DU?$char_traits@D@std@@V?$allocator@D@2@@std@@H@Z
xdata	ENDS
;	COMDAT xdata
xdata	SEGMENT
$unwind$?Initialize@Application@@QEAAXPEAUHINSTANCE__@@0V?$basic_string@DU?$char_traits@D@std@@V?$allocator@D@2@@std@@H@Z DD 025031e11H
	DD	0b219231eH
	DD	05015H
	DD	imagerel __CxxFrameHandler4
	DD	imagerel $cppxdata$?Initialize@Application@@QEAAXPEAUHINSTANCE__@@0V?$basic_string@DU?$char_traits@D@std@@V?$allocator@D@2@@std@@H@Z
xdata	ENDS
;	COMDAT xdata
xdata	SEGMENT
$unwind$??1Application@@QEAA@XZ DD 025030f01H
	DD	0b20a230fH
	DD	05006H
xdata	ENDS
;	COMDAT xdata
xdata	SEGMENT
$unwind$??0Application@@QEAA@XZ DD 025030f01H
	DD	0b20a230fH
	DD	05006H
xdata	ENDS
;	COMDAT xdata
xdata	SEGMENT
$unwind$??_GFCMDParameter@@QEAAPEAXI@Z DD 025031301H
	DD	0b20e2313H
	DD	0500aH
xdata	ENDS
;	COMDAT xdata
xdata	SEGMENT
$unwind$??0FCMDParameter@@QEAA@$$QEAU0@@Z DD 025031401H
	DD	0d20f2314H
	DD	0500bH
xdata	ENDS
;	COMDAT xdata
xdata	SEGMENT
$unwind$?dtor$0@?0???0FCMDParameter@@QEAA@AEBU0@@Z@4HA DD 020601H
	DD	050023206H
xdata	ENDS
;	COMDAT xdata
xdata	SEGMENT
$ip2state$??0FCMDParameter@@QEAA@AEBU0@@Z DB 06H
	DB	00H
	DB	00H
	DB	'Z'
	DB	02H
	DB	'B'
	DB	00H
xdata	ENDS
;	COMDAT xdata
xdata	SEGMENT
$stateUnwindMap$??0FCMDParameter@@QEAA@AEBU0@@Z DB 02H
	DB	0eH
	DD	imagerel ?dtor$0@?0???0FCMDParameter@@QEAA@AEBU0@@Z@4HA
xdata	ENDS
;	COMDAT xdata
xdata	SEGMENT
$cppxdata$??0FCMDParameter@@QEAA@AEBU0@@Z DB 028H
	DD	imagerel $stateUnwindMap$??0FCMDParameter@@QEAA@AEBU0@@Z
	DD	imagerel $ip2state$??0FCMDParameter@@QEAA@AEBU0@@Z
xdata	ENDS
;	COMDAT xdata
xdata	SEGMENT
$unwind$??0FCMDParameter@@QEAA@AEBU0@@Z DD 025031411H
	DD	0d20f2314H
	DD	0500bH
	DD	imagerel __CxxFrameHandler4
	DD	imagerel $cppxdata$??0FCMDParameter@@QEAA@AEBU0@@Z
xdata	ENDS
;	COMDAT xdata
xdata	SEGMENT
$unwind$??1FCMDParameter@@QEAA@XZ DD 025030f01H
	DD	0b20a230fH
	DD	05006H
xdata	ENDS
;	COMDAT xdata
xdata	SEGMENT
$unwind$??0FCMDParameter@@QEAA@XZ DD 025030f01H
	DD	0b20a230fH
	DD	05006H
xdata	ENDS
;	COMDAT xdata
xdata	SEGMENT
$unwind$??1?$_Compressed_pair@V?$allocator@D@std@@V?$_String_val@U?$_Simple_types@D@std@@@2@$00@std@@QEAA@XZ DD 025030f01H
	DD	0b20a230fH
	DD	05006H
xdata	ENDS
;	COMDAT xdata
xdata	SEGMENT
$unwind$?_Get_first@?$_Compressed_pair@V?$allocator@D@std@@V?$_String_val@U?$_Simple_types@D@std@@@2@$00@std@@QEBAAEBV?$allocator@D@2@XZ DD 025030f01H
	DD	0b20a230fH
	DD	05006H
xdata	ENDS
;	COMDAT xdata
xdata	SEGMENT
$unwind$?_Get_first@?$_Compressed_pair@V?$allocator@D@std@@V?$_String_val@U?$_Simple_types@D@std@@@2@$00@std@@QEAAAEAV?$allocator@D@2@XZ DD 025030f01H
	DD	0b20a230fH
	DD	05006H
xdata	ENDS
;	COMDAT xdata
xdata	SEGMENT
$unwind$?_Getal@?$basic_string@DU?$char_traits@D@std@@V?$allocator@D@2@@std@@AEBAAEBV?$allocator@D@2@XZ DD 025030f01H
	DD	0b20a230fH
	DD	05006H
xdata	ENDS
;	COMDAT xdata
xdata	SEGMENT
$unwind$?_Getal@?$basic_string@DU?$char_traits@D@std@@V?$allocator@D@2@@std@@AEAAAEAV?$allocator@D@2@XZ DD 025030f01H
	DD	0b20a230fH
	DD	05006H
xdata	ENDS
;	COMDAT xdata
xdata	SEGMENT
$unwind$?_Swap_proxy_and_iterators@?$basic_string@DU?$char_traits@D@std@@V?$allocator@D@2@@std@@AEAAXAEAV12@@Z DD 025031401H
	DD	0d20f2314H
	DD	0500bH
xdata	ENDS
;	COMDAT xdata
xdata	SEGMENT
$ip2state$?_Tidy_deallocate@?$basic_string@DU?$char_traits@D@std@@V?$allocator@D@2@@std@@AEAAXXZ DB 02H
	DB	00H
	DB	00H
xdata	ENDS
;	COMDAT xdata
xdata	SEGMENT
$cppxdata$?_Tidy_deallocate@?$basic_string@DU?$char_traits@D@std@@V?$allocator@D@2@@std@@AEAAXXZ DB 060H
	DD	imagerel $ip2state$?_Tidy_deallocate@?$basic_string@DU?$char_traits@D@std@@V?$allocator@D@2@@std@@AEAAXXZ
xdata	ENDS
;	COMDAT xdata
xdata	SEGMENT
$unwind$?_Tidy_deallocate@?$basic_string@DU?$char_traits@D@std@@V?$allocator@D@2@@std@@AEAAXXZ DD 025031219H
	DD	0f20d2312H
	DD	05006H
	DD	imagerel __CxxFrameHandler4
	DD	imagerel $cppxdata$?_Tidy_deallocate@?$basic_string@DU?$char_traits@D@std@@V?$allocator@D@2@@std@@AEAAXXZ
xdata	ENDS
;	COMDAT xdata
xdata	SEGMENT
$unwind$?_Tidy_init@?$basic_string@DU?$char_traits@D@std@@V?$allocator@D@2@@std@@AEAAXXZ DD 025030f01H
	DD	0d20a230fH
	DD	05006H
xdata	ENDS
;	COMDAT xdata
xdata	SEGMENT
$unwind$?_Calculate_growth@?$basic_string@DU?$char_traits@D@std@@V?$allocator@D@2@@std@@AEBA_K_K@Z DD 025031401H
	DD	0d20f2314H
	DD	0500bH
xdata	ENDS
;	COMDAT xdata
xdata	SEGMENT
$unwind$?_Calculate_growth@?$basic_string@DU?$char_traits@D@std@@V?$allocator@D@2@@std@@CA_K_K00@Z DD 025031901H
	DD	0d2142319H
	DD	05010H
xdata	ENDS
;	COMDAT xdata
xdata	SEGMENT
$unwind$?max_size@?$basic_string@DU?$char_traits@D@std@@V?$allocator@D@2@@std@@QEBA_KXZ DD 025041201H
	DD	010d2312H
	DD	050060012H
xdata	ENDS
;	COMDAT xdata
xdata	SEGMENT
$unwind$?size@?$basic_string@DU?$char_traits@D@std@@V?$allocator@D@2@@std@@QEBA_KXZ DD 025030f01H
	DD	0b20a230fH
	DD	05006H
xdata	ENDS
;	COMDAT xdata
xdata	SEGMENT
$unwind$??A?$basic_string@DU?$char_traits@D@std@@V?$allocator@D@2@@std@@QEAAAEAD_K@Z DD 035031401H
	DD	0d20f3314H
	DD	0500bH
xdata	ENDS
;	COMDAT xdata
xdata	SEGMENT
$unwind$?assign@?$basic_string@DU?$char_traits@D@std@@V?$allocator@D@2@@std@@QEAAAEAV12@QEBD@Z DD 025031401H
	DD	0b20f2314H
	DD	0500bH
xdata	ENDS
;	COMDAT xdata
xdata	SEGMENT
$unwind$?assign@?$basic_string@DU?$char_traits@D@std@@V?$allocator@D@2@@std@@QEAAAEAV12@QEBD_K@Z DD 025031901H
	DD	0d2142319H
	DD	05010H
xdata	ENDS
;	COMDAT xdata
xdata	SEGMENT
$unwind$??4?$basic_string@DU?$char_traits@D@std@@V?$allocator@D@2@@std@@QEAAAEAV01@QEBD@Z DD 025031401H
	DD	0b20f2314H
	DD	0500bH
xdata	ENDS
;	COMDAT xdata
xdata	SEGMENT
$unwind$??4?$basic_string@DU?$char_traits@D@std@@V?$allocator@D@2@@std@@QEAAAEAV01@AEBV01@@Z DD 025031701H
	DD	0f2122317H
	DD	0500bH
xdata	ENDS
;	COMDAT xdata
xdata	SEGMENT
$unwind$??1?$basic_string@DU?$char_traits@D@std@@V?$allocator@D@2@@std@@QEAA@XZ DD 025031201H
	DD	0f20d2312H
	DD	05006H
xdata	ENDS
;	COMDAT xdata
xdata	SEGMENT
$unwind$?_Take_contents@?$basic_string@DU?$char_traits@D@std@@V?$allocator@D@2@@std@@AEAAXAEAV12@@Z DD 025031701H
	DD	0f2122317H
	DD	0500bH
xdata	ENDS
;	COMDAT xdata
xdata	SEGMENT
$unwind$?_Memcpy_val_from@?$basic_string@DU?$char_traits@D@std@@V?$allocator@D@2@@std@@AEAAXAEBV12@@Z DD 025031401H
	DD	0d20f2314H
	DD	0500bH
xdata	ENDS
;	COMDAT xdata
xdata	SEGMENT
$ip2state$??0?$basic_string@DU?$char_traits@D@std@@V?$allocator@D@2@@std@@QEAA@$$QEAV01@@Z DB 02H
	DB	00H
	DB	00H
xdata	ENDS
;	COMDAT xdata
xdata	SEGMENT
$cppxdata$??0?$basic_string@DU?$char_traits@D@std@@V?$allocator@D@2@@std@@QEAA@$$QEAV01@@Z DB 060H
	DD	imagerel $ip2state$??0?$basic_string@DU?$char_traits@D@std@@V?$allocator@D@2@@std@@QEAA@$$QEAV01@@Z
xdata	ENDS
;	COMDAT xdata
xdata	SEGMENT
$unwind$??0?$basic_string@DU?$char_traits@D@std@@V?$allocator@D@2@@std@@QEAA@$$QEAV01@@Z DD 025031719H
	DD	0f2122317H
	DD	0500bH
	DD	imagerel __CxxFrameHandler4
	DD	imagerel $cppxdata$??0?$basic_string@DU?$char_traits@D@std@@V?$allocator@D@2@@std@@QEAA@$$QEAV01@@Z
xdata	ENDS
;	COMDAT xdata
xdata	SEGMENT
$unwind$?_Start_element_lifetimes@?$basic_string@DU?$char_traits@D@std@@V?$allocator@D@2@@std@@CAXQEAD_K@Z DD 025031401H
	DD	0d20f2314H
	DD	0500bH
xdata	ENDS
;	COMDAT xdata
xdata	SEGMENT
$unwind$?dtor$0@?0???0?$basic_string@DU?$char_traits@D@std@@V?$allocator@D@2@@std@@QEAA@AEBV01@@Z@4HA DD 020601H
	DD	050023206H
xdata	ENDS
;	COMDAT xdata
xdata	SEGMENT
$ip2state$??0?$basic_string@DU?$char_traits@D@std@@V?$allocator@D@2@@std@@QEAA@AEBV01@@Z DB 06H
	DB	00H
	DB	00H
	DB	0baH
	DB	02H
	DB	'\'
	DB	00H
xdata	ENDS
;	COMDAT xdata
xdata	SEGMENT
$stateUnwindMap$??0?$basic_string@DU?$char_traits@D@std@@V?$allocator@D@2@@std@@QEAA@AEBV01@@Z DB 02H
	DB	0eH
	DD	imagerel ?dtor$0@?0???0?$basic_string@DU?$char_traits@D@std@@V?$allocator@D@2@@std@@QEAA@AEBV01@@Z@4HA
xdata	ENDS
;	COMDAT xdata
xdata	SEGMENT
$cppxdata$??0?$basic_string@DU?$char_traits@D@std@@V?$allocator@D@2@@std@@QEAA@AEBV01@@Z DB 028H
	DD	imagerel $stateUnwindMap$??0?$basic_string@DU?$char_traits@D@std@@V?$allocator@D@2@@std@@QEAA@AEBV01@@Z
	DD	imagerel $ip2state$??0?$basic_string@DU?$char_traits@D@std@@V?$allocator@D@2@@std@@QEAA@AEBV01@@Z
xdata	ENDS
;	COMDAT xdata
xdata	SEGMENT
$unwind$??0?$basic_string@DU?$char_traits@D@std@@V?$allocator@D@2@@std@@QEAA@AEBV01@@Z DD 025031711H
	DD	0f2122317H
	DD	0500bH
	DD	imagerel __CxxFrameHandler4
	DD	imagerel $cppxdata$??0?$basic_string@DU?$char_traits@D@std@@V?$allocator@D@2@@std@@QEAA@AEBV01@@Z
xdata	ENDS
;	COMDAT xdata
xdata	SEGMENT
$ip2state$??0?$basic_string@DU?$char_traits@D@std@@V?$allocator@D@2@@std@@QEAA@XZ DB 02H
	DB	00H
	DB	00H
xdata	ENDS
;	COMDAT xdata
xdata	SEGMENT
$cppxdata$??0?$basic_string@DU?$char_traits@D@std@@V?$allocator@D@2@@std@@QEAA@XZ DB 060H
	DD	imagerel $ip2state$??0?$basic_string@DU?$char_traits@D@std@@V?$allocator@D@2@@std@@QEAA@XZ
xdata	ENDS
;	COMDAT xdata
xdata	SEGMENT
$unwind$??0?$basic_string@DU?$char_traits@D@std@@V?$allocator@D@2@@std@@QEAA@XZ DD 025030f19H
	DD	0d20a230fH
	DD	05006H
	DD	imagerel __CxxFrameHandler4
	DD	imagerel $cppxdata$??0?$basic_string@DU?$char_traits@D@std@@V?$allocator@D@2@@std@@QEAA@XZ
xdata	ENDS
;	COMDAT xdata
xdata	SEGMENT
$unwind$??1?$_String_val@U?$_Simple_types@D@std@@@std@@QEAA@XZ DD 025030f01H
	DD	0b20a230fH
	DD	05006H
xdata	ENDS
;	COMDAT xdata
xdata	SEGMENT
$unwind$??1_Bxty@?$_String_val@U?$_Simple_types@D@std@@@std@@QEAA@XZ DD 025030f01H
	DD	0b20a230fH
	DD	05006H
xdata	ENDS
;	COMDAT xdata
xdata	SEGMENT
$unwind$??0_Bxty@?$_String_val@U?$_Simple_types@D@std@@@std@@QEAA@XZ DD 025041001H
	DD	0c20b2310H
	DD	050067007H
xdata	ENDS
;	COMDAT xdata
xdata	SEGMENT
$unwind$?_Activate_SSO_buffer@?$_String_val@U?$_Simple_types@D@std@@@std@@QEAAXXZ DD 025030f01H
	DD	0d20a230fH
	DD	05006H
xdata	ENDS
;	COMDAT xdata
xdata	SEGMENT
$unwind$?_Large_string_engaged@?$_String_val@U?$_Simple_types@D@std@@@std@@QEBA_NXZ DD 025030f01H
	DD	0d20a230fH
	DD	05006H
xdata	ENDS
;	COMDAT xdata
xdata	SEGMENT
$unwind$?_Myptr@?$_String_val@U?$_Simple_types@D@std@@@std@@QEBAPEBDXZ DD 025030f01H
	DD	0d20a230fH
	DD	05006H
xdata	ENDS
;	COMDAT xdata
xdata	SEGMENT
$unwind$?_Myptr@?$_String_val@U?$_Simple_types@D@std@@@std@@QEAAPEADXZ DD 025030f01H
	DD	0d20a230fH
	DD	05006H
xdata	ENDS
;	COMDAT xdata
xdata	SEGMENT
$unwind$??0?$_String_val@U?$_Simple_types@D@std@@@std@@QEAA@XZ DD 025030f01H
	DD	0b20a230fH
	DD	05006H
xdata	ENDS
;	COMDAT xdata
xdata	SEGMENT
$unwind$?select_on_container_copy_construction@?$_Default_allocator_traits@V?$allocator@D@std@@@std@@SA?AV?$allocator@D@2@AEBV32@@Z DD 025031401H
	DD	0b20f2314H
	DD	0500bH
xdata	ENDS
;	COMDAT xdata
xdata	SEGMENT
$unwind$?max_size@?$_Default_allocator_traits@V?$allocator@D@std@@@std@@SA_KAEBV?$allocator@D@2@@Z DD 025030f01H
	DD	0b20a230fH
	DD	05006H
xdata	ENDS
;	COMDAT xdata
xdata	SEGMENT
$unwind$?allocate@?$allocator@D@std@@QEAAPEAD_K@Z DD 025031401H
	DD	0b20f2314H
	DD	0500bH
xdata	ENDS
;	COMDAT xdata
xdata	SEGMENT
$unwind$?deallocate@?$allocator@D@std@@QEAAXQEAD_K@Z DD 035031901H
	DD	0d2143319H
	DD	05010H
xdata	ENDS
;	COMDAT xdata
xdata	SEGMENT
$unwind$??0?$allocator@D@std@@QEAA@XZ DD 025030f01H
	DD	0b20a230fH
	DD	05006H
xdata	ENDS
;	COMDAT xdata
xdata	SEGMENT
$unwind$?_Xlen_string@std@@YAXXZ DD 025030b01H
	DD	0b206230bH
	DD	05002H
xdata	ENDS
;	COMDAT xdata
xdata	SEGMENT
$unwind$?assign@?$_Narrow_char_traits@DH@std@@SAXAEADAEBD@Z DD 025031401H
	DD	0b20f2314H
	DD	0500bH
xdata	ENDS
;	COMDAT xdata
xdata	SEGMENT
$unwind$?length@?$_Narrow_char_traits@DH@std@@SA_KQEBD@Z DD 025030f01H
	DD	0d20a230fH
	DD	05006H
xdata	ENDS
;	COMDAT xdata
xdata	SEGMENT
$unwind$?assign@?$_Char_traits@DH@std@@SAXAEADAEBD@Z DD 025031401H
	DD	0b20f2314H
	DD	0500bH
xdata	ENDS
;	COMDAT xdata
xdata	SEGMENT
$unwind$?move@?$_Char_traits@DH@std@@SAPEADQEADQEBD_K@Z DD 025031c01H
	DD	0f217231cH
	DD	05010H
xdata	ENDS
;	COMDAT xdata
xdata	SEGMENT
$unwind$?copy@?$_Char_traits@DH@std@@SAPEADQEADQEBD_K@Z DD 025031901H
	DD	0d2142319H
	DD	05010H
xdata	ENDS
;	COMDAT xdata
xdata	SEGMENT
$unwind$??$_Construct_in_place@U_Container_proxy@std@@PEAU_Container_base12@2@@std@@YAXAEAU_Container_proxy@0@$$QEAPEAU_Container_base12@0@@Z DD 025031401H
	DD	0d20f2314H
	DD	0500bH
xdata	ENDS
;	COMDAT xdata
xdata	SEGMENT
$unwind$??$addressof@U_Container_base12@std@@@std@@YAPEAU_Container_base12@0@AEAU10@@Z DD 025030f01H
	DD	0b20a230fH
	DD	05006H
xdata	ENDS
;	COMDAT xdata
xdata	SEGMENT
$unwind$??0_Basic_container_proxy_ptr12@std@@IEAA@XZ DD 025030f01H
	DD	0b20a230fH
	DD	05006H
xdata	ENDS
;	COMDAT xdata
xdata	SEGMENT
$unwind$?_Release@_Basic_container_proxy_ptr12@std@@QEAAXXZ DD 025030f01H
	DD	0b20a230fH
	DD	05006H
xdata	ENDS
;	COMDAT xdata
xdata	SEGMENT
$unwind$??$exchange@PEAU_Iterator_base12@std@@$$T@std@@YAPEAU_Iterator_base12@0@AEAPEAU10@$$QEA$$T@Z DD 025031401H
	DD	0d20f2314H
	DD	0500bH
xdata	ENDS
;	COMDAT xdata
xdata	SEGMENT
$unwind$?_Swap_proxy_and_iterators_locked@_Container_base12@std@@AEAAXAEAU12@@Z DD 025031401H
	DD	0d20f2314H
	DD	0500bH
xdata	ENDS
;	COMDAT xdata
xdata	SEGMENT
$unwind$?_Orphan_all_locked_v3@_Container_base12@std@@AEAAXXZ DD 025030f01H
	DD	0d20a230fH
	DD	05006H
xdata	ENDS
;	COMDAT xdata
xdata	SEGMENT
$unwind$?_Swap_proxy_and_iterators_unlocked@_Container_base12@std@@AEAAXAEAU12@@Z DD 025031401H
	DD	0d20f2314H
	DD	0500bH
xdata	ENDS
;	COMDAT xdata
xdata	SEGMENT
$unwind$?_Orphan_all_unlocked_v3@_Container_base12@std@@AEAAXXZ DD 025030f01H
	DD	0d20a230fH
	DD	05006H
xdata	ENDS
;	COMDAT xdata
xdata	SEGMENT
$unwind$?_Swap_proxy_and_iterators@_Container_base12@std@@QEAAXAEAU12@@Z DD 025031401H
	DD	0b20f2314H
	DD	0500bH
xdata	ENDS
;	COMDAT xdata
xdata	SEGMENT
$unwind$?_Orphan_all@_Container_base12@std@@QEAAXXZ DD 025030f01H
	DD	0b20a230fH
	DD	05006H
xdata	ENDS
;	COMDAT xdata
xdata	SEGMENT
$unwind$??0_Container_base12@std@@QEAA@XZ DD 025030f01H
	DD	0b20a230fH
	DD	05006H
xdata	ENDS
;	COMDAT xdata
xdata	SEGMENT
$unwind$??0_Container_proxy@std@@QEAA@PEAU_Container_base12@1@@Z DD 025031401H
	DD	0b20f2314H
	DD	0500bH
xdata	ENDS
;	COMDAT xdata
xdata	SEGMENT
$unwind$?_Adjust_manually_vector_aligned@std@@YAXAEAPEAXAEA_K@Z DD 035041701H
	DD	01123317H
	DD	0500b0012H
xdata	ENDS
;	COMDAT xdata
xdata	SEGMENT
$unwind$?_Allocate@_Default_allocate_traits@std@@SAPEAX_K@Z DD 025030f01H
	DD	0b20a230fH
	DD	05006H
xdata	ENDS
;	COMDAT xdata
xdata	SEGMENT
$unwind$?_Throw_bad_array_new_length@std@@YAXXZ DD 025030e01H
	DD	0f209230eH
	DD	05002H
xdata	ENDS
;	COMDAT xdata
xdata	SEGMENT
$unwind$??_Gbad_array_new_length@std@@UEAAPEAXI@Z DD 025031301H
	DD	0b20e2313H
	DD	0500aH
xdata	ENDS
;	COMDAT xdata
xdata	SEGMENT
$unwind$??0bad_array_new_length@std@@QEAA@AEBV01@@Z DD 025031401H
	DD	0b20f2314H
	DD	0500bH
xdata	ENDS
;	COMDAT xdata
xdata	SEGMENT
$unwind$??1bad_array_new_length@std@@UEAA@XZ DD 025030f01H
	DD	0b20a230fH
	DD	05006H
xdata	ENDS
;	COMDAT xdata
xdata	SEGMENT
$unwind$??0bad_array_new_length@std@@QEAA@XZ DD 025030f01H
	DD	0b20a230fH
	DD	05006H
xdata	ENDS
;	COMDAT xdata
xdata	SEGMENT
$unwind$??_Gbad_alloc@std@@UEAAPEAXI@Z DD 025031301H
	DD	0b20e2313H
	DD	0500aH
xdata	ENDS
;	COMDAT xdata
xdata	SEGMENT
$unwind$??0bad_alloc@std@@QEAA@AEBV01@@Z DD 025031401H
	DD	0b20f2314H
	DD	0500bH
xdata	ENDS
;	COMDAT xdata
xdata	SEGMENT
$unwind$??1bad_alloc@std@@UEAA@XZ DD 025030f01H
	DD	0b20a230fH
	DD	05006H
xdata	ENDS
;	COMDAT xdata
xdata	SEGMENT
$unwind$??0bad_alloc@std@@AEAA@QEBD@Z DD 025031401H
	DD	0b20f2314H
	DD	0500bH
xdata	ENDS
;	COMDAT xdata
xdata	SEGMENT
$unwind$??_Gexception@std@@UEAAPEAXI@Z DD 025031301H
	DD	0b20e2313H
	DD	0500aH
xdata	ENDS
;	COMDAT xdata
xdata	SEGMENT
$unwind$?what@exception@std@@UEBAPEBDXZ DD 025030f01H
	DD	0d20a230fH
	DD	05006H
xdata	ENDS
;	COMDAT xdata
xdata	SEGMENT
$unwind$??1exception@std@@UEAA@XZ DD 025030f01H
	DD	0b20a230fH
	DD	05006H
xdata	ENDS
;	COMDAT xdata
xdata	SEGMENT
$unwind$??0exception@std@@QEAA@AEBV01@@Z DD 025041501H
	DD	0c2102315H
	DD	0500b700cH
xdata	ENDS
;	COMDAT xdata
xdata	SEGMENT
$unwind$??0exception@std@@QEAA@QEBDH@Z DD 025041a01H
	DD	0c215231aH
	DD	050107011H
xdata	ENDS
;	COMDAT xdata
xdata	SEGMENT
$unwind$?max@?$numeric_limits@_J@std@@SA_JXZ DD 025030b01H
	DD	0b206230bH
	DD	05002H
xdata	ENDS
;	COMDAT xdata
xdata	SEGMENT
$unwind$?is_constant_evaluated@std@@YA_NXZ DD 025030b01H
	DD	0b206230bH
	DD	05002H
xdata	ENDS
;	COMDAT xdata
xdata	SEGMENT
$unwind$??2@YAPEAX_KPEAX@Z DD 025031401H
	DD	0b20f2314H
	DD	0500bH
xdata	ENDS
; Function compile flags: /Odt
;	COMDAT __JustMyCode_Default
_TEXT	SEGMENT
__JustMyCode_Default PROC				; COMDAT
  00000	c2 00 00	 ret	 0
__JustMyCode_Default ENDP
_TEXT	ENDS
; Function compile flags: /Odtp /ZI
; File C:\Program Files\Microsoft Visual Studio\2022\Preview\VC\Tools\MSVC\14.38.33030\include\xutility
;	COMDAT ??$construct_at@UFCMDParameter@@U1@$0A@@std@@YAPEAUFCMDParameter@@QEAU1@$$QEAU1@@Z
_TEXT	SEGMENT
$T1 = 64
_Location$ = 96
<_Args_0>$ = 104
??$construct_at@UFCMDParameter@@U1@$0A@@std@@YAPEAUFCMDParameter@@QEAU1@$$QEAU1@@Z PROC ; std::construct_at<FCMDParameter,FCMDParameter,0>, COMDAT

; 241  :     noexcept(::new(static_cast<void*>(_Location)) _Ty(_STD forward<_Types>(_Args)...))) /* strengthened */ {

$LN3:
  00000	48 89 54 24 10	 mov	 QWORD PTR [rsp+16], rdx
  00005	48 89 4c 24 08	 mov	 QWORD PTR [rsp+8], rcx
  0000a	55		 push	 rbp
  0000b	48 83 ec 70	 sub	 rsp, 112		; 00000070H
  0000f	48 8d 6c 24 20	 lea	 rbp, QWORD PTR [rsp+32]
  00014	48 8d 0d 00 00
	00 00		 lea	 rcx, OFFSET FLAT:__B7320FC0_xutility
  0001b	e8 00 00 00 00	 call	 __CheckForDebuggerJustMyCode

; 242  :     _MSVC_CONSTEXPR return ::new (static_cast<void*>(_Location)) _Ty(_STD forward<_Types>(_Args)...);

  00020	48 8b 55 60	 mov	 rdx, QWORD PTR _Location$[rbp]
  00024	b9 50 00 00 00	 mov	 ecx, 80			; 00000050H
  00029	e8 00 00 00 00	 call	 ??2@YAPEAX_KPEAX@Z	; operator new
  0002e	48 89 45 40	 mov	 QWORD PTR $T1[rbp], rax
  00032	48 8b 55 68	 mov	 rdx, QWORD PTR <_Args_0>$[rbp]
  00036	48 8b 4d 40	 mov	 rcx, QWORD PTR $T1[rbp]
  0003a	e8 00 00 00 00	 call	 ??0FCMDParameter@@QEAA@$$QEAU0@@Z

; 243  : }

  0003f	48 8d 65 50	 lea	 rsp, QWORD PTR [rbp+80]
  00043	5d		 pop	 rbp
  00044	c3		 ret	 0
??$construct_at@UFCMDParameter@@U1@$0A@@std@@YAPEAUFCMDParameter@@QEAU1@$$QEAU1@@Z ENDP ; std::construct_at<FCMDParameter,FCMDParameter,0>
_TEXT	ENDS
; Function compile flags: /Odtp /ZI
; File C:\Program Files\Microsoft Visual Studio\2022\Preview\VC\Tools\MSVC\14.38.33030\include\xmemory
;	COMDAT ??$construct@UFCMDParameter@@U1@@?$_Default_allocator_traits@V?$allocator@UFCMDParameter@@@std@@@std@@SAXAEAV?$allocator@UFCMDParameter@@@1@QEAUFCMDParameter@@$$QEAU3@@Z
_TEXT	SEGMENT
__formal$ = 80
_Ptr$ = 88
<_Args_0>$ = 96
??$construct@UFCMDParameter@@U1@@?$_Default_allocator_traits@V?$allocator@UFCMDParameter@@@std@@@std@@SAXAEAV?$allocator@UFCMDParameter@@@1@QEAUFCMDParameter@@$$QEAU3@@Z PROC ; std::_Default_allocator_traits<std::allocator<FCMDParameter> >::construct<FCMDParameter,FCMDParameter>, COMDAT

; 719  :     static _CONSTEXPR20 void construct(_Alloc&, _Objty* const _Ptr, _Types&&... _Args) {

$LN3:
  00000	4c 89 44 24 18	 mov	 QWORD PTR [rsp+24], r8
  00005	48 89 54 24 10	 mov	 QWORD PTR [rsp+16], rdx
  0000a	48 89 4c 24 08	 mov	 QWORD PTR [rsp+8], rcx
  0000f	55		 push	 rbp
  00010	48 83 ec 60	 sub	 rsp, 96			; 00000060H
  00014	48 8d 6c 24 20	 lea	 rbp, QWORD PTR [rsp+32]
  00019	48 8d 0d 00 00
	00 00		 lea	 rcx, OFFSET FLAT:__67F55BEA_xmemory
  00020	e8 00 00 00 00	 call	 __CheckForDebuggerJustMyCode

; 720  : #if _HAS_CXX20
; 721  :         _STD construct_at(_Ptr, _STD forward<_Types>(_Args)...);

  00025	48 8b 55 60	 mov	 rdx, QWORD PTR <_Args_0>$[rbp]
  00029	48 8b 4d 58	 mov	 rcx, QWORD PTR _Ptr$[rbp]
  0002d	e8 00 00 00 00	 call	 ??$construct_at@UFCMDParameter@@U1@$0A@@std@@YAPEAUFCMDParameter@@QEAU1@$$QEAU1@@Z ; std::construct_at<FCMDParameter,FCMDParameter,0>

; 722  : #else // ^^^ _HAS_CXX20 / !_HAS_CXX20 vvv
; 723  :         ::new (const_cast<void*>(static_cast<const volatile void*>(_Ptr))) _Objty(_STD forward<_Types>(_Args)...);
; 724  : #endif // ^^^ !_HAS_CXX20 ^^^
; 725  :     }

  00032	48 8d 65 40	 lea	 rsp, QWORD PTR [rbp+64]
  00036	5d		 pop	 rbp
  00037	c3		 ret	 0
??$construct@UFCMDParameter@@U1@@?$_Default_allocator_traits@V?$allocator@UFCMDParameter@@@std@@@std@@SAXAEAV?$allocator@UFCMDParameter@@@1@QEAUFCMDParameter@@$$QEAU3@@Z ENDP ; std::_Default_allocator_traits<std::allocator<FCMDParameter> >::construct<FCMDParameter,FCMDParameter>
_TEXT	ENDS
; Function compile flags: /Odtp /ZI
; File C:\Program Files\Microsoft Visual Studio\2022\Preview\VC\Tools\MSVC\14.38.33030\include\xmemory
;	COMDAT ??$_Get_size_of_n@$0FA@@std@@YA_K_K@Z
_TEXT	SEGMENT
_Overflow_is_possible$ = 0
_Max_possible$1 = 8
_Count$ = 96
??$_Get_size_of_n@$0FA@@std@@YA_K_K@Z PROC		; std::_Get_size_of_n<80>, COMDAT

; 64   : _NODISCARD constexpr size_t _Get_size_of_n(const size_t _Count) {

$LN4:
  00000	48 89 4c 24 08	 mov	 QWORD PTR [rsp+8], rcx
  00005	55		 push	 rbp
  00006	48 83 ec 70	 sub	 rsp, 112		; 00000070H
  0000a	48 8d 6c 24 20	 lea	 rbp, QWORD PTR [rsp+32]
  0000f	48 8d 0d 00 00
	00 00		 lea	 rcx, OFFSET FLAT:__67F55BEA_xmemory
  00016	e8 00 00 00 00	 call	 __CheckForDebuggerJustMyCode

; 65   :     constexpr bool _Overflow_is_possible = _Ty_size > 1;

  0001b	c6 45 00 01	 mov	 BYTE PTR _Overflow_is_possible$[rbp], 1

; 66   : 
; 67   :     if constexpr (_Overflow_is_possible) {
; 68   :         constexpr size_t _Max_possible = static_cast<size_t>(-1) / _Ty_size;

  0001f	48 b8 33 33 33
	33 33 33 33 03	 mov	 rax, 230584300921369395	; 0333333333333333H
  00029	48 89 45 08	 mov	 QWORD PTR _Max_possible$1[rbp], rax

; 69   :         if (_Count > _Max_possible) {

  0002d	48 b8 33 33 33
	33 33 33 33 03	 mov	 rax, 230584300921369395	; 0333333333333333H
  00037	48 39 45 60	 cmp	 QWORD PTR _Count$[rbp], rax
  0003b	76 05		 jbe	 SHORT $LN2@Get_size_o

; 70   :             _Throw_bad_array_new_length(); // multiply overflow

  0003d	e8 00 00 00 00	 call	 ?_Throw_bad_array_new_length@std@@YAXXZ ; std::_Throw_bad_array_new_length
$LN2@Get_size_o:

; 71   :         }
; 72   :     }
; 73   : 
; 74   :     return _Count * _Ty_size;

  00042	48 6b 45 60 50	 imul	 rax, QWORD PTR _Count$[rbp], 80 ; 00000050H
$LN3@Get_size_o:

; 75   : }

  00047	48 8d 65 50	 lea	 rsp, QWORD PTR [rbp+80]
  0004b	5d		 pop	 rbp
  0004c	c3		 ret	 0
??$_Get_size_of_n@$0FA@@std@@YA_K_K@Z ENDP		; std::_Get_size_of_n<80>
_TEXT	ENDS
; Function compile flags: /Odtp /ZI
; File C:\Program Files\Microsoft Visual Studio\2022\Preview\VC\Tools\MSVC\14.38.33030\include\xmemory
;	COMDAT ??$_Emplace_back@UFCMDParameter@@@?$_Uninitialized_backout_al@V?$allocator@UFCMDParameter@@@std@@@std@@QEAAX$$QEAUFCMDParameter@@@Z
_TEXT	SEGMENT
tv74 = 64
tv72 = 72
this$ = 96
<_Vals_0>$ = 104
??$_Emplace_back@UFCMDParameter@@@?$_Uninitialized_backout_al@V?$allocator@UFCMDParameter@@@std@@@std@@QEAAX$$QEAUFCMDParameter@@@Z PROC ; std::_Uninitialized_backout_al<std::allocator<FCMDParameter> >::_Emplace_back<FCMDParameter>, COMDAT

; 1800 :     _CONSTEXPR20 void _Emplace_back(_Types&&... _Vals) { // construct a new element at *_Last and increment

$LN3:
  00000	48 89 54 24 10	 mov	 QWORD PTR [rsp+16], rdx
  00005	48 89 4c 24 08	 mov	 QWORD PTR [rsp+8], rcx
  0000a	55		 push	 rbp
  0000b	48 83 ec 70	 sub	 rsp, 112		; 00000070H
  0000f	48 8d 6c 24 20	 lea	 rbp, QWORD PTR [rsp+32]
  00014	48 8d 0d 00 00
	00 00		 lea	 rcx, OFFSET FLAT:__67F55BEA_xmemory
  0001b	e8 00 00 00 00	 call	 __CheckForDebuggerJustMyCode

; 1801 :         allocator_traits<_Alloc>::construct(_Al, _Unfancy(_Last), _STD forward<_Types>(_Vals)...);

  00020	48 8b 45 60	 mov	 rax, QWORD PTR this$[rbp]
  00024	48 8b 48 08	 mov	 rcx, QWORD PTR [rax+8]
  00028	e8 00 00 00 00	 call	 ??$_Unfancy@UFCMDParameter@@@std@@YAPEAUFCMDParameter@@PEAU1@@Z ; std::_Unfancy<FCMDParameter>
  0002d	48 89 45 40	 mov	 QWORD PTR tv74[rbp], rax
  00031	48 8b 45 60	 mov	 rax, QWORD PTR this$[rbp]
  00035	48 8b 40 10	 mov	 rax, QWORD PTR [rax+16]
  00039	48 89 45 48	 mov	 QWORD PTR tv72[rbp], rax
  0003d	4c 8b 45 68	 mov	 r8, QWORD PTR <_Vals_0>$[rbp]
  00041	48 8b 55 40	 mov	 rdx, QWORD PTR tv74[rbp]
  00045	48 8b 4d 48	 mov	 rcx, QWORD PTR tv72[rbp]
  00049	e8 00 00 00 00	 call	 ??$construct@UFCMDParameter@@U1@@?$_Default_allocator_traits@V?$allocator@UFCMDParameter@@@std@@@std@@SAXAEAV?$allocator@UFCMDParameter@@@1@QEAUFCMDParameter@@$$QEAU3@@Z ; std::_Default_allocator_traits<std::allocator<FCMDParameter> >::construct<FCMDParameter,FCMDParameter>

; 1802 :         ++_Last;

  0004e	48 8b 45 60	 mov	 rax, QWORD PTR this$[rbp]
  00052	48 8b 40 08	 mov	 rax, QWORD PTR [rax+8]
  00056	48 83 c0 50	 add	 rax, 80			; 00000050H
  0005a	48 8b 4d 60	 mov	 rcx, QWORD PTR this$[rbp]
  0005e	48 89 41 08	 mov	 QWORD PTR [rcx+8], rax

; 1803 :     }

  00062	48 8d 65 50	 lea	 rsp, QWORD PTR [rbp+80]
  00066	5d		 pop	 rbp
  00067	c3		 ret	 0
??$_Emplace_back@UFCMDParameter@@@?$_Uninitialized_backout_al@V?$allocator@UFCMDParameter@@@std@@@std@@QEAAX$$QEAUFCMDParameter@@@Z ENDP ; std::_Uninitialized_backout_al<std::allocator<FCMDParameter> >::_Emplace_back<FCMDParameter>
_TEXT	ENDS
; Function compile flags: /Odtp /ZI
; File C:\Program Files\Microsoft Visual Studio\2022\Preview\VC\Tools\MSVC\14.38.33030\include\xmemory
;	COMDAT ?_Release@?$_Uninitialized_backout_al@V?$allocator@UFCMDParameter@@@std@@@std@@QEAAPEAUFCMDParameter@@XZ
_TEXT	SEGMENT
this$ = 80
?_Release@?$_Uninitialized_backout_al@V?$allocator@UFCMDParameter@@@std@@@std@@QEAAPEAUFCMDParameter@@XZ PROC ; std::_Uninitialized_backout_al<std::allocator<FCMDParameter> >::_Release, COMDAT

; 1805 :     constexpr pointer _Release() { // suppress any exception handling backout and return _Last

$LN3:
  00000	48 89 4c 24 08	 mov	 QWORD PTR [rsp+8], rcx
  00005	55		 push	 rbp
  00006	48 83 ec 60	 sub	 rsp, 96			; 00000060H
  0000a	48 8d 6c 24 20	 lea	 rbp, QWORD PTR [rsp+32]
  0000f	48 8d 0d 00 00
	00 00		 lea	 rcx, OFFSET FLAT:__67F55BEA_xmemory
  00016	e8 00 00 00 00	 call	 __CheckForDebuggerJustMyCode

; 1806 :         _First = _Last;

  0001b	48 8b 45 50	 mov	 rax, QWORD PTR this$[rbp]
  0001f	48 8b 4d 50	 mov	 rcx, QWORD PTR this$[rbp]
  00023	48 8b 49 08	 mov	 rcx, QWORD PTR [rcx+8]
  00027	48 89 08	 mov	 QWORD PTR [rax], rcx

; 1807 :         return _Last;

  0002a	48 8b 45 50	 mov	 rax, QWORD PTR this$[rbp]
  0002e	48 8b 40 08	 mov	 rax, QWORD PTR [rax+8]

; 1808 :     }

  00032	48 8d 65 40	 lea	 rsp, QWORD PTR [rbp+64]
  00036	5d		 pop	 rbp
  00037	c3		 ret	 0
?_Release@?$_Uninitialized_backout_al@V?$allocator@UFCMDParameter@@@std@@@std@@QEAAPEAUFCMDParameter@@XZ ENDP ; std::_Uninitialized_backout_al<std::allocator<FCMDParameter> >::_Release
_TEXT	ENDS
; Function compile flags: /Odtp /ZI
; File C:\Program Files\Microsoft Visual Studio\2022\Preview\VC\Tools\MSVC\14.38.33030\include\xmemory
;	COMDAT ??1?$_Uninitialized_backout_al@V?$allocator@UFCMDParameter@@@std@@@std@@QEAA@XZ
_TEXT	SEGMENT
this$ = 80
??1?$_Uninitialized_backout_al@V?$allocator@UFCMDParameter@@@std@@@std@@QEAA@XZ PROC ; std::_Uninitialized_backout_al<std::allocator<FCMDParameter> >::~_Uninitialized_backout_al<std::allocator<FCMDParameter> >, COMDAT

; 1795 :     _CONSTEXPR20 ~_Uninitialized_backout_al() {

$LN3:
  00000	48 89 4c 24 08	 mov	 QWORD PTR [rsp+8], rcx
  00005	55		 push	 rbp
  00006	48 83 ec 60	 sub	 rsp, 96			; 00000060H
  0000a	48 8d 6c 24 20	 lea	 rbp, QWORD PTR [rsp+32]
  0000f	48 8d 0d 00 00
	00 00		 lea	 rcx, OFFSET FLAT:__67F55BEA_xmemory
  00016	e8 00 00 00 00	 call	 __CheckForDebuggerJustMyCode

; 1796 :         _Destroy_range(_First, _Last, _Al);

  0001b	48 8b 45 50	 mov	 rax, QWORD PTR this$[rbp]
  0001f	4c 8b 40 10	 mov	 r8, QWORD PTR [rax+16]
  00023	48 8b 45 50	 mov	 rax, QWORD PTR this$[rbp]
  00027	48 8b 50 08	 mov	 rdx, QWORD PTR [rax+8]
  0002b	48 8b 45 50	 mov	 rax, QWORD PTR this$[rbp]
  0002f	48 8b 08	 mov	 rcx, QWORD PTR [rax]
  00032	e8 00 00 00 00	 call	 ??$_Destroy_range@V?$allocator@UFCMDParameter@@@std@@@std@@YAXPEAUFCMDParameter@@QEAU1@AEAV?$allocator@UFCMDParameter@@@0@@Z ; std::_Destroy_range<std::allocator<FCMDParameter> >

; 1797 :     }

  00037	48 8d 65 40	 lea	 rsp, QWORD PTR [rbp+64]
  0003b	5d		 pop	 rbp
  0003c	c3		 ret	 0
??1?$_Uninitialized_backout_al@V?$allocator@UFCMDParameter@@@std@@@std@@QEAA@XZ ENDP ; std::_Uninitialized_backout_al<std::allocator<FCMDParameter> >::~_Uninitialized_backout_al<std::allocator<FCMDParameter> >
_TEXT	ENDS
; Function compile flags: /Odtp /ZI
; File C:\Program Files\Microsoft Visual Studio\2022\Preview\VC\Tools\MSVC\14.38.33030\include\xmemory
;	COMDAT ??0?$_Uninitialized_backout_al@V?$allocator@UFCMDParameter@@@std@@@std@@QEAA@PEAUFCMDParameter@@AEAV?$allocator@UFCMDParameter@@@1@@Z
_TEXT	SEGMENT
this$ = 80
_Dest$ = 88
_Al_$ = 96
??0?$_Uninitialized_backout_al@V?$allocator@UFCMDParameter@@@std@@@std@@QEAA@PEAUFCMDParameter@@AEAV?$allocator@UFCMDParameter@@@1@@Z PROC ; std::_Uninitialized_backout_al<std::allocator<FCMDParameter> >::_Uninitialized_backout_al<std::allocator<FCMDParameter> >, COMDAT

; 1790 :     _CONSTEXPR20 _Uninitialized_backout_al(pointer _Dest, _Alloc& _Al_) : _First(_Dest), _Last(_Dest), _Al(_Al_) {}

$LN3:
  00000	4c 89 44 24 18	 mov	 QWORD PTR [rsp+24], r8
  00005	48 89 54 24 10	 mov	 QWORD PTR [rsp+16], rdx
  0000a	48 89 4c 24 08	 mov	 QWORD PTR [rsp+8], rcx
  0000f	55		 push	 rbp
  00010	48 83 ec 60	 sub	 rsp, 96			; 00000060H
  00014	48 8d 6c 24 20	 lea	 rbp, QWORD PTR [rsp+32]
  00019	48 8d 0d 00 00
	00 00		 lea	 rcx, OFFSET FLAT:__67F55BEA_xmemory
  00020	e8 00 00 00 00	 call	 __CheckForDebuggerJustMyCode
  00025	48 8b 45 50	 mov	 rax, QWORD PTR this$[rbp]
  00029	48 8b 4d 58	 mov	 rcx, QWORD PTR _Dest$[rbp]
  0002d	48 89 08	 mov	 QWORD PTR [rax], rcx
  00030	48 8b 45 50	 mov	 rax, QWORD PTR this$[rbp]
  00034	48 8b 4d 58	 mov	 rcx, QWORD PTR _Dest$[rbp]
  00038	48 89 48 08	 mov	 QWORD PTR [rax+8], rcx
  0003c	48 8b 45 50	 mov	 rax, QWORD PTR this$[rbp]
  00040	48 8b 4d 60	 mov	 rcx, QWORD PTR _Al_$[rbp]
  00044	48 89 48 10	 mov	 QWORD PTR [rax+16], rcx
  00048	48 8b 45 50	 mov	 rax, QWORD PTR this$[rbp]
  0004c	48 8d 65 40	 lea	 rsp, QWORD PTR [rbp+64]
  00050	5d		 pop	 rbp
  00051	c3		 ret	 0
??0?$_Uninitialized_backout_al@V?$allocator@UFCMDParameter@@@std@@@std@@QEAA@PEAUFCMDParameter@@AEAV?$allocator@UFCMDParameter@@@1@@Z ENDP ; std::_Uninitialized_backout_al<std::allocator<FCMDParameter> >::_Uninitialized_backout_al<std::allocator<FCMDParameter> >
_TEXT	ENDS
; Function compile flags: /Odtp /ZI
; File C:\Program Files\Microsoft Visual Studio\2022\Preview\VC\Tools\MSVC\14.38.33030\include\xutility
;	COMDAT ??$_Get_unwrapped@AEBQEAUFCMDParameter@@@std@@YA?A_TAEBQEAUFCMDParameter@@@Z
_TEXT	SEGMENT
_It$ = 80
??$_Get_unwrapped@AEBQEAUFCMDParameter@@@std@@YA?A_TAEBQEAUFCMDParameter@@@Z PROC ; std::_Get_unwrapped<FCMDParameter * const &>, COMDAT

; 1171 :     !_Unwrappable_v<_Iter> || _Has_nothrow_unwrapped<_Iter>) {

$LN3:
  00000	48 89 4c 24 08	 mov	 QWORD PTR [rsp+8], rcx
  00005	55		 push	 rbp
  00006	48 83 ec 60	 sub	 rsp, 96			; 00000060H
  0000a	48 8d 6c 24 20	 lea	 rbp, QWORD PTR [rsp+32]
  0000f	48 8d 0d 00 00
	00 00		 lea	 rcx, OFFSET FLAT:__B7320FC0_xutility
  00016	e8 00 00 00 00	 call	 __CheckForDebuggerJustMyCode

; 1172 :     // unwrap an iterator previously subjected to _Adl_verify_range or otherwise validated
; 1173 :     if constexpr (is_pointer_v<decay_t<_Iter>>) { // special-case pointers and arrays
; 1174 :         return _It + 0;

  0001b	48 8b 45 50	 mov	 rax, QWORD PTR _It$[rbp]
  0001f	48 8b 00	 mov	 rax, QWORD PTR [rax]

; 1175 :     } else if constexpr (_Unwrappable_v<_Iter>) {
; 1176 :         return static_cast<_Iter&&>(_It)._Unwrapped();
; 1177 :     } else {
; 1178 :         return static_cast<_Iter&&>(_It);
; 1179 :     }
; 1180 : }

  00022	48 8d 65 40	 lea	 rsp, QWORD PTR [rbp+64]
  00026	5d		 pop	 rbp
  00027	c3		 ret	 0
??$_Get_unwrapped@AEBQEAUFCMDParameter@@@std@@YA?A_TAEBQEAUFCMDParameter@@@Z ENDP ; std::_Get_unwrapped<FCMDParameter * const &>
_TEXT	ENDS
; Function compile flags: /Odtp /ZI
; File C:\Program Files\Microsoft Visual Studio\2022\Preview\VC\Tools\MSVC\14.38.33030\include\xutility
;	COMDAT ??$construct_at@UFCMDParameter@@AEBU1@$0A@@std@@YAPEAUFCMDParameter@@QEAU1@AEBU1@@Z
_TEXT	SEGMENT
$T1 = 64
_Location$ = 96
<_Args_0>$ = 104
??$construct_at@UFCMDParameter@@AEBU1@$0A@@std@@YAPEAUFCMDParameter@@QEAU1@AEBU1@@Z PROC ; std::construct_at<FCMDParameter,FCMDParameter const &,0>, COMDAT

; 241  :     noexcept(::new(static_cast<void*>(_Location)) _Ty(_STD forward<_Types>(_Args)...))) /* strengthened */ {

$LN3:
  00000	48 89 54 24 10	 mov	 QWORD PTR [rsp+16], rdx
  00005	48 89 4c 24 08	 mov	 QWORD PTR [rsp+8], rcx
  0000a	55		 push	 rbp
  0000b	48 83 ec 70	 sub	 rsp, 112		; 00000070H
  0000f	48 8d 6c 24 20	 lea	 rbp, QWORD PTR [rsp+32]
  00014	48 8d 0d 00 00
	00 00		 lea	 rcx, OFFSET FLAT:__B7320FC0_xutility
  0001b	e8 00 00 00 00	 call	 __CheckForDebuggerJustMyCode

; 242  :     _MSVC_CONSTEXPR return ::new (static_cast<void*>(_Location)) _Ty(_STD forward<_Types>(_Args)...);

  00020	48 8b 55 60	 mov	 rdx, QWORD PTR _Location$[rbp]
  00024	b9 50 00 00 00	 mov	 ecx, 80			; 00000050H
  00029	e8 00 00 00 00	 call	 ??2@YAPEAX_KPEAX@Z	; operator new
  0002e	48 89 45 40	 mov	 QWORD PTR $T1[rbp], rax
  00032	48 8b 55 68	 mov	 rdx, QWORD PTR <_Args_0>$[rbp]
  00036	48 8b 4d 40	 mov	 rcx, QWORD PTR $T1[rbp]
  0003a	e8 00 00 00 00	 call	 ??0FCMDParameter@@QEAA@AEBU0@@Z

; 243  : }

  0003f	48 8d 65 50	 lea	 rsp, QWORD PTR [rbp+80]
  00043	5d		 pop	 rbp
  00044	c3		 ret	 0
??$construct_at@UFCMDParameter@@AEBU1@$0A@@std@@YAPEAUFCMDParameter@@QEAU1@AEBU1@@Z ENDP ; std::construct_at<FCMDParameter,FCMDParameter const &,0>
_TEXT	ENDS
; Function compile flags: /Odtp /ZI
; File C:\Program Files\Microsoft Visual Studio\2022\Preview\VC\Tools\MSVC\14.38.33030\include\xmemory
;	COMDAT ??$_Get_size_of_n@$00@std@@YA_K_K@Z
_TEXT	SEGMENT
_Overflow_is_possible$ = 0
_Count$ = 96
??$_Get_size_of_n@$00@std@@YA_K_K@Z PROC		; std::_Get_size_of_n<1>, COMDAT

; 64   : _NODISCARD constexpr size_t _Get_size_of_n(const size_t _Count) {

$LN3:
  00000	48 89 4c 24 08	 mov	 QWORD PTR [rsp+8], rcx
  00005	55		 push	 rbp
  00006	48 83 ec 70	 sub	 rsp, 112		; 00000070H
  0000a	48 8d 6c 24 20	 lea	 rbp, QWORD PTR [rsp+32]
  0000f	48 8d 0d 00 00
	00 00		 lea	 rcx, OFFSET FLAT:__67F55BEA_xmemory
  00016	e8 00 00 00 00	 call	 __CheckForDebuggerJustMyCode

; 65   :     constexpr bool _Overflow_is_possible = _Ty_size > 1;

  0001b	c6 45 00 00	 mov	 BYTE PTR _Overflow_is_possible$[rbp], 0

; 66   : 
; 67   :     if constexpr (_Overflow_is_possible) {
; 68   :         constexpr size_t _Max_possible = static_cast<size_t>(-1) / _Ty_size;
; 69   :         if (_Count > _Max_possible) {
; 70   :             _Throw_bad_array_new_length(); // multiply overflow
; 71   :         }
; 72   :     }
; 73   : 
; 74   :     return _Count * _Ty_size;

  0001f	48 8b 45 60	 mov	 rax, QWORD PTR _Count$[rbp]

; 75   : }

  00023	48 8d 65 50	 lea	 rsp, QWORD PTR [rbp+80]
  00027	5d		 pop	 rbp
  00028	c3		 ret	 0
??$_Get_size_of_n@$00@std@@YA_K_K@Z ENDP		; std::_Get_size_of_n<1>
_TEXT	ENDS
; Function compile flags: /Odtp /ZI
; File C:\Program Files\Microsoft Visual Studio\2022\Preview\VC\Tools\MSVC\14.38.33030\include\xmemory
;	COMDAT ??$_Allocate_manually_vector_aligned@U_Default_allocate_traits@std@@@std@@YAPEAX_K@Z
_TEXT	SEGMENT
_Block_size$ = 0
_Ptr_container$ = 8
_Ptr$ = 16
_Bytes$ = 112
??$_Allocate_manually_vector_aligned@U_Default_allocate_traits@std@@@std@@YAPEAX_K@Z PROC ; std::_Allocate_manually_vector_aligned<std::_Default_allocate_traits>, COMDAT

; 136  : __declspec(allocator) void* _Allocate_manually_vector_aligned(const size_t _Bytes) {

$LN13:
  00000	48 89 4c 24 08	 mov	 QWORD PTR [rsp+8], rcx
  00005	55		 push	 rbp
  00006	48 81 ec 90 00
	00 00		 sub	 rsp, 144		; 00000090H
  0000d	48 8d 6c 24 30	 lea	 rbp, QWORD PTR [rsp+48]
  00012	48 8d 0d 00 00
	00 00		 lea	 rcx, OFFSET FLAT:__67F55BEA_xmemory
  00019	e8 00 00 00 00	 call	 __CheckForDebuggerJustMyCode

; 137  :     // allocate _Bytes manually aligned to at least _Big_allocation_alignment
; 138  :     const size_t _Block_size = _Non_user_size + _Bytes;

  0001e	48 8b 45 70	 mov	 rax, QWORD PTR _Bytes$[rbp]
  00022	48 83 c0 2f	 add	 rax, 47			; 0000002fH
  00026	48 89 45 00	 mov	 QWORD PTR _Block_size$[rbp], rax

; 139  :     if (_Block_size <= _Bytes) {

  0002a	48 8b 45 70	 mov	 rax, QWORD PTR _Bytes$[rbp]
  0002e	48 39 45 00	 cmp	 QWORD PTR _Block_size$[rbp], rax
  00032	77 05		 ja	 SHORT $LN8@Allocate_m

; 140  :         _Throw_bad_array_new_length(); // add overflow

  00034	e8 00 00 00 00	 call	 ?_Throw_bad_array_new_length@std@@YAXXZ ; std::_Throw_bad_array_new_length
$LN8@Allocate_m:

; 141  :     }
; 142  : 
; 143  :     const uintptr_t _Ptr_container = reinterpret_cast<uintptr_t>(_Traits::_Allocate(_Block_size));

  00039	48 8b 4d 00	 mov	 rcx, QWORD PTR _Block_size$[rbp]
  0003d	e8 00 00 00 00	 call	 ?_Allocate@_Default_allocate_traits@std@@SAPEAX_K@Z ; std::_Default_allocate_traits::_Allocate
  00042	48 89 45 08	 mov	 QWORD PTR _Ptr_container$[rbp], rax
$LN4@Allocate_m:

; 144  :     _STL_VERIFY(_Ptr_container != 0, "invalid argument"); // validate even in release since we're doing p[-1]

  00046	48 83 7d 08 00	 cmp	 QWORD PTR _Ptr_container$[rbp], 0
  0004b	74 02		 je	 SHORT $LN9@Allocate_m
  0004d	eb 6b		 jmp	 SHORT $LN10@Allocate_m
$LN9@Allocate_m:
$LN7@Allocate_m:
  0004f	48 8d 05 00 00
	00 00		 lea	 rax, OFFSET FLAT:??_C@_0BB@FCMFBGOM@invalid?5argument@
  00056	48 89 44 24 28	 mov	 QWORD PTR [rsp+40], rax
  0005b	48 8d 05 00 00
	00 00		 lea	 rax, OFFSET FLAT:??_C@_02DKCKIIND@?$CFs@
  00062	48 89 44 24 20	 mov	 QWORD PTR [rsp+32], rax
  00067	45 33 c9	 xor	 r9d, r9d
  0006a	41 b8 90 00 00
	00		 mov	 r8d, 144		; 00000090H
  00070	48 8d 15 00 00
	00 00		 lea	 rdx, OFFSET FLAT:??_C@_0GA@FLDGEGM@C?3?2Program?5Files?2Microsoft?5Visu@
  00077	b9 02 00 00 00	 mov	 ecx, 2
  0007c	ff 15 00 00 00
	00		 call	 QWORD PTR __imp__CrtDbgReport
  00082	83 f8 01	 cmp	 eax, 1
  00085	75 03		 jne	 SHORT $LN12@Allocate_m
  00087	cc		 int	 3
  00088	33 c0		 xor	 eax, eax
$LN12@Allocate_m:
  0008a	48 c7 44 24 20
	00 00 00 00	 mov	 QWORD PTR [rsp+32], 0
  00093	41 b9 90 00 00
	00		 mov	 r9d, 144		; 00000090H
  00099	4c 8d 05 00 00
	00 00		 lea	 r8, OFFSET FLAT:??_C@_1MA@IKJDCOIC@?$AAC?$AA?3?$AA?2?$AAP?$AAr?$AAo?$AAg?$AAr?$AAa?$AAm?$AA?5?$AAF?$AAi?$AAl?$AAe@
  000a0	48 8d 15 00 00
	00 00		 lea	 rdx, OFFSET FLAT:??_C@_11LOCGONAA@@
  000a7	48 8d 0d 00 00
	00 00		 lea	 rcx, OFFSET FLAT:??_C@_1CG@JNLFBNGN@?$AA?$CC?$AAi?$AAn?$AAv?$AAa?$AAl?$AAi?$AAd?$AA?5?$AAa?$AAr?$AAg?$AAu?$AAm?$AAe@
  000ae	ff 15 00 00 00
	00		 call	 QWORD PTR __imp__invalid_parameter
  000b4	33 c0		 xor	 eax, eax
  000b6	85 c0		 test	 eax, eax
  000b8	75 95		 jne	 SHORT $LN7@Allocate_m
$LN10@Allocate_m:
  000ba	33 c0		 xor	 eax, eax
  000bc	85 c0		 test	 eax, eax
  000be	75 86		 jne	 SHORT $LN4@Allocate_m

; 145  :     void* const _Ptr = reinterpret_cast<void*>((_Ptr_container + _Non_user_size) & ~(_Big_allocation_alignment - 1));

  000c0	48 8b 45 08	 mov	 rax, QWORD PTR _Ptr_container$[rbp]
  000c4	48 83 c0 2f	 add	 rax, 47			; 0000002fH
  000c8	48 83 e0 e0	 and	 rax, -32		; ffffffffffffffe0H
  000cc	48 89 45 10	 mov	 QWORD PTR _Ptr$[rbp], rax

; 146  :     static_cast<uintptr_t*>(_Ptr)[-1] = _Ptr_container;

  000d0	b8 08 00 00 00	 mov	 eax, 8
  000d5	48 6b c0 ff	 imul	 rax, rax, -1
  000d9	48 8b 4d 10	 mov	 rcx, QWORD PTR _Ptr$[rbp]
  000dd	48 8b 55 08	 mov	 rdx, QWORD PTR _Ptr_container$[rbp]
  000e1	48 89 14 01	 mov	 QWORD PTR [rcx+rax], rdx

; 147  : 
; 148  : #ifdef _DEBUG
; 149  :     static_cast<uintptr_t*>(_Ptr)[-2] = _Big_allocation_sentinel;

  000e5	b8 08 00 00 00	 mov	 eax, 8
  000ea	48 6b c0 fe	 imul	 rax, rax, -2
  000ee	48 8b 4d 10	 mov	 rcx, QWORD PTR _Ptr$[rbp]
  000f2	48 ba fa fa fa
	fa fa fa fa fa	 mov	 rdx, -361700864190383366 ; fafafafafafafafaH
  000fc	48 89 14 01	 mov	 QWORD PTR [rcx+rax], rdx

; 150  : #endif // _DEBUG
; 151  :     return _Ptr;

  00100	48 8b 45 10	 mov	 rax, QWORD PTR _Ptr$[rbp]
$LN11@Allocate_m:

; 152  : }

  00104	48 8d 65 60	 lea	 rsp, QWORD PTR [rbp+96]
  00108	5d		 pop	 rbp
  00109	c3		 ret	 0
??$_Allocate_manually_vector_aligned@U_Default_allocate_traits@std@@@std@@YAPEAX_K@Z ENDP ; std::_Allocate_manually_vector_aligned<std::_Default_allocate_traits>
_TEXT	ENDS
; Function compile flags: /Odtp /ZI
; File C:\Program Files\Microsoft Visual Studio\2022\Preview\VC\Tools\MSVC\14.38.33030\include\xmemory
;	COMDAT ??$destroy_at@UFCMDParameter@@@std@@YAXQEAUFCMDParameter@@@Z
_TEXT	SEGMENT
_Location$ = 80
??$destroy_at@UFCMDParameter@@@std@@YAXQEAUFCMDParameter@@@Z PROC ; std::destroy_at<FCMDParameter>, COMDAT

; 313  : _CONSTEXPR20 void destroy_at(_Ty* const _Location) noexcept /* strengthened */ {

$LN3:
  00000	48 89 4c 24 08	 mov	 QWORD PTR [rsp+8], rcx
  00005	55		 push	 rbp
  00006	48 83 ec 60	 sub	 rsp, 96			; 00000060H
  0000a	48 8d 6c 24 20	 lea	 rbp, QWORD PTR [rsp+32]
  0000f	48 8d 0d 00 00
	00 00		 lea	 rcx, OFFSET FLAT:__67F55BEA_xmemory
  00016	e8 00 00 00 00	 call	 __CheckForDebuggerJustMyCode

; 314  : #if _HAS_CXX20
; 315  :     if constexpr (is_array_v<_Ty>) {
; 316  :         _Destroy_range(_STD begin(*_Location), _STD end(*_Location));
; 317  :     } else
; 318  : #endif // _HAS_CXX20
; 319  :     {
; 320  :         _Location->~_Ty();

  0001b	33 d2		 xor	 edx, edx
  0001d	48 8b 4d 50	 mov	 rcx, QWORD PTR _Location$[rbp]
  00021	e8 00 00 00 00	 call	 ??_GFCMDParameter@@QEAAPEAXI@Z

; 321  :     }
; 322  : }

  00026	48 8d 65 40	 lea	 rsp, QWORD PTR [rbp+64]
  0002a	5d		 pop	 rbp
  0002b	c3		 ret	 0
??$destroy_at@UFCMDParameter@@@std@@YAXQEAUFCMDParameter@@@Z ENDP ; std::destroy_at<FCMDParameter>
_TEXT	ENDS
; Function compile flags: /Odtp /ZI
; File C:\Program Files\Microsoft Visual Studio\2022\Preview\VC\Tools\MSVC\14.38.33030\include\xutility
;	COMDAT ??$construct_at@PEADAEBQEAD$0A@@std@@YAPEAPEADQEAPEADAEBQEAD@Z
_TEXT	SEGMENT
$T1 = 64
_Location$ = 96
<_Args_0>$ = 104
??$construct_at@PEADAEBQEAD$0A@@std@@YAPEAPEADQEAPEADAEBQEAD@Z PROC ; std::construct_at<char *,char * const &,0>, COMDAT

; 241  :     noexcept(::new(static_cast<void*>(_Location)) _Ty(_STD forward<_Types>(_Args)...))) /* strengthened */ {

$LN3:
  00000	48 89 54 24 10	 mov	 QWORD PTR [rsp+16], rdx
  00005	48 89 4c 24 08	 mov	 QWORD PTR [rsp+8], rcx
  0000a	55		 push	 rbp
  0000b	48 83 ec 70	 sub	 rsp, 112		; 00000070H
  0000f	48 8d 6c 24 20	 lea	 rbp, QWORD PTR [rsp+32]
  00014	48 8d 0d 00 00
	00 00		 lea	 rcx, OFFSET FLAT:__B7320FC0_xutility
  0001b	e8 00 00 00 00	 call	 __CheckForDebuggerJustMyCode

; 242  :     _MSVC_CONSTEXPR return ::new (static_cast<void*>(_Location)) _Ty(_STD forward<_Types>(_Args)...);

  00020	48 8b 55 60	 mov	 rdx, QWORD PTR _Location$[rbp]
  00024	b9 08 00 00 00	 mov	 ecx, 8
  00029	e8 00 00 00 00	 call	 ??2@YAPEAX_KPEAX@Z	; operator new
  0002e	48 89 45 40	 mov	 QWORD PTR $T1[rbp], rax
  00032	48 8b 45 40	 mov	 rax, QWORD PTR $T1[rbp]
  00036	48 8b 4d 68	 mov	 rcx, QWORD PTR <_Args_0>$[rbp]
  0003a	48 8b 09	 mov	 rcx, QWORD PTR [rcx]
  0003d	48 89 08	 mov	 QWORD PTR [rax], rcx
  00040	48 8b 45 40	 mov	 rax, QWORD PTR $T1[rbp]

; 243  : }

  00044	48 8d 65 50	 lea	 rsp, QWORD PTR [rbp+80]
  00048	5d		 pop	 rbp
  00049	c3		 ret	 0
??$construct_at@PEADAEBQEAD$0A@@std@@YAPEAPEADQEAPEADAEBQEAD@Z ENDP ; std::construct_at<char *,char * const &,0>
_TEXT	ENDS
; Function compile flags: /Odtp /ZI
; File C:\Program Files\Microsoft Visual Studio\2022\Preview\VC\Tools\MSVC\14.38.33030\include\xmemory
;	COMDAT ?deallocate@?$_Default_allocator_traits@V?$allocator@U_Container_proxy@std@@@std@@@std@@SAXAEAV?$allocator@U_Container_proxy@std@@@2@QEAU_Container_proxy@2@_K@Z
_TEXT	SEGMENT
_Al$ = 80
_Ptr$ = 88
_Count$ = 96
?deallocate@?$_Default_allocator_traits@V?$allocator@U_Container_proxy@std@@@std@@@std@@SAXAEAV?$allocator@U_Container_proxy@std@@@2@QEAU_Container_proxy@2@_K@Z PROC ; std::_Default_allocator_traits<std::allocator<std::_Container_proxy> >::deallocate, COMDAT

; 705  :     static _CONSTEXPR20 void deallocate(_Alloc& _Al, const pointer _Ptr, const size_type _Count) {

$LN5:
  00000	4c 89 44 24 18	 mov	 QWORD PTR [rsp+24], r8
  00005	48 89 54 24 10	 mov	 QWORD PTR [rsp+16], rdx
  0000a	48 89 4c 24 08	 mov	 QWORD PTR [rsp+8], rcx
  0000f	55		 push	 rbp
  00010	48 83 ec 60	 sub	 rsp, 96			; 00000060H
  00014	48 8d 6c 24 20	 lea	 rbp, QWORD PTR [rsp+32]
  00019	48 8d 0d 00 00
	00 00		 lea	 rcx, OFFSET FLAT:__67F55BEA_xmemory
  00020	e8 00 00 00 00	 call	 __CheckForDebuggerJustMyCode

; 706  :         // no overflow check on the following multiply; we assume _Allocate did that check
; 707  : #if _HAS_CXX20 // TRANSITION, GH-1532
; 708  :         if (_STD is_constant_evaluated()) {

  00025	e8 00 00 00 00	 call	 ?is_constant_evaluated@std@@YA_NXZ ; std::is_constant_evaluated
  0002a	0f b6 c0	 movzx	 eax, al
  0002d	85 c0		 test	 eax, eax
  0002f	74 13		 je	 SHORT $LN2@deallocate

; 709  :             _Al.deallocate(_Ptr, _Count);

  00031	4c 8b 45 60	 mov	 r8, QWORD PTR _Count$[rbp]
  00035	48 8b 55 58	 mov	 rdx, QWORD PTR _Ptr$[rbp]
  00039	48 8b 4d 50	 mov	 rcx, QWORD PTR _Al$[rbp]
  0003d	e8 00 00 00 00	 call	 ?deallocate@?$allocator@U_Container_proxy@std@@@std@@QEAAXQEAU_Container_proxy@2@_K@Z ; std::allocator<std::_Container_proxy>::deallocate

; 710  :         } else

  00042	eb 11		 jmp	 SHORT $LN3@deallocate
$LN2@deallocate:

; 711  : #endif // _HAS_CXX20
; 712  :         {
; 713  :             (void) _Al;
; 714  :             _Deallocate<_New_alignof<value_type>>(_Ptr, sizeof(value_type) * _Count);

  00044	48 6b 45 60 10	 imul	 rax, QWORD PTR _Count$[rbp], 16
  00049	48 8b d0	 mov	 rdx, rax
  0004c	48 8b 4d 58	 mov	 rcx, QWORD PTR _Ptr$[rbp]
  00050	e8 00 00 00 00	 call	 ??$_Deallocate@$0BA@$0A@@std@@YAXPEAX_K@Z ; std::_Deallocate<16,0>
$LN3@deallocate:

; 715  :         }
; 716  :     }

  00055	48 8d 65 40	 lea	 rsp, QWORD PTR [rbp+64]
  00059	5d		 pop	 rbp
  0005a	c3		 ret	 0
?deallocate@?$_Default_allocator_traits@V?$allocator@U_Container_proxy@std@@@std@@@std@@SAXAEAV?$allocator@U_Container_proxy@std@@@2@QEAU_Container_proxy@2@_K@Z ENDP ; std::_Default_allocator_traits<std::allocator<std::_Container_proxy> >::deallocate
_TEXT	ENDS
; Function compile flags: /Odtp /ZI
; File C:\Program Files\Microsoft Visual Studio\2022\Preview\VC\Tools\MSVC\14.38.33030\include\xmemory
;	COMDAT ??$_Uninitialized_move@PEAUFCMDParameter@@V?$allocator@UFCMDParameter@@@std@@@std@@YAPEAUFCMDParameter@@QEAU1@0PEAU1@AEAV?$allocator@UFCMDParameter@@@0@@Z
_TEXT	SEGMENT
_UFirst$ = 0
_ULast$ = 8
_Backout$ = 16
$T1 = 104
_First$ = 128
_Last$ = 136
_Dest$ = 144
_Al$ = 152
??$_Uninitialized_move@PEAUFCMDParameter@@V?$allocator@UFCMDParameter@@@std@@@std@@YAPEAUFCMDParameter@@QEAU1@0PEAU1@AEAV?$allocator@UFCMDParameter@@@0@@Z PROC ; std::_Uninitialized_move<FCMDParameter *,std::allocator<FCMDParameter> >, COMDAT

; 1926 :     const _InIt _First, const _InIt _Last, _Alloc_ptr_t<_Alloc> _Dest, _Alloc& _Al) {

$LN7:
  00000	4c 89 4c 24 20	 mov	 QWORD PTR [rsp+32], r9
  00005	4c 89 44 24 18	 mov	 QWORD PTR [rsp+24], r8
  0000a	48 89 54 24 10	 mov	 QWORD PTR [rsp+16], rdx
  0000f	48 89 4c 24 08	 mov	 QWORD PTR [rsp+8], rcx
  00014	55		 push	 rbp
  00015	48 81 ec 90 00
	00 00		 sub	 rsp, 144		; 00000090H
  0001c	48 8d 6c 24 20	 lea	 rbp, QWORD PTR [rsp+32]
  00021	48 8d 0d 00 00
	00 00		 lea	 rcx, OFFSET FLAT:__67F55BEA_xmemory
  00028	e8 00 00 00 00	 call	 __CheckForDebuggerJustMyCode

; 1927 :     // move [_First, _Last) to raw _Dest, using _Al
; 1928 :     // note: only called internally from elsewhere in the STL
; 1929 :     using _Ptrval     = typename _Alloc::value_type*;
; 1930 :     auto _UFirst      = _Get_unwrapped(_First);

  0002d	48 8d 8d 80 00
	00 00		 lea	 rcx, QWORD PTR _First$[rbp]
  00034	e8 00 00 00 00	 call	 ??$_Get_unwrapped@AEBQEAUFCMDParameter@@@std@@YA?A_TAEBQEAUFCMDParameter@@@Z ; std::_Get_unwrapped<FCMDParameter * const &>
  00039	48 89 45 00	 mov	 QWORD PTR _UFirst$[rbp], rax

; 1931 :     const auto _ULast = _Get_unwrapped(_Last);

  0003d	48 8d 8d 88 00
	00 00		 lea	 rcx, QWORD PTR _Last$[rbp]
  00044	e8 00 00 00 00	 call	 ??$_Get_unwrapped@AEBQEAUFCMDParameter@@@std@@YA?A_TAEBQEAUFCMDParameter@@@Z ; std::_Get_unwrapped<FCMDParameter * const &>
  00049	48 89 45 08	 mov	 QWORD PTR _ULast$[rbp], rax

; 1932 :     if constexpr (conjunction_v<bool_constant<_Iter_move_cat<decltype(_UFirst), _Ptrval>::_Bitcopy_constructible>,
; 1933 :                       _Uses_default_construct<_Alloc, _Ptrval, decltype(_STD move(*_UFirst))>>) {
; 1934 : #if _HAS_CXX20
; 1935 :         if (!_STD is_constant_evaluated())
; 1936 : #endif // _HAS_CXX20
; 1937 :         {
; 1938 :             _Copy_memmove(_UFirst, _ULast, _Unfancy(_Dest));
; 1939 :             return _Dest + (_ULast - _UFirst);
; 1940 :         }
; 1941 :     }
; 1942 : 
; 1943 :     _Uninitialized_backout_al<_Alloc> _Backout{_Dest, _Al};

  0004d	4c 8b 85 98 00
	00 00		 mov	 r8, QWORD PTR _Al$[rbp]
  00054	48 8b 95 90 00
	00 00		 mov	 rdx, QWORD PTR _Dest$[rbp]
  0005b	48 8d 4d 10	 lea	 rcx, QWORD PTR _Backout$[rbp]
  0005f	e8 00 00 00 00	 call	 ??0?$_Uninitialized_backout_al@V?$allocator@UFCMDParameter@@@std@@@std@@QEAA@PEAUFCMDParameter@@AEAV?$allocator@UFCMDParameter@@@1@@Z ; std::_Uninitialized_backout_al<std::allocator<FCMDParameter> >::_Uninitialized_backout_al<std::allocator<FCMDParameter> >
  00064	90		 npad	 1

; 1944 :     for (; _UFirst != _ULast; ++_UFirst) {

  00065	eb 0c		 jmp	 SHORT $LN4@Uninitiali
$LN2@Uninitiali:
  00067	48 8b 45 00	 mov	 rax, QWORD PTR _UFirst$[rbp]
  0006b	48 83 c0 50	 add	 rax, 80			; 00000050H
  0006f	48 89 45 00	 mov	 QWORD PTR _UFirst$[rbp], rax
$LN4@Uninitiali:
  00073	48 8b 45 08	 mov	 rax, QWORD PTR _ULast$[rbp]
  00077	48 39 45 00	 cmp	 QWORD PTR _UFirst$[rbp], rax
  0007b	74 0f		 je	 SHORT $LN3@Uninitiali

; 1945 :         _Backout._Emplace_back(_STD move(*_UFirst));

  0007d	48 8b 55 00	 mov	 rdx, QWORD PTR _UFirst$[rbp]
  00081	48 8d 4d 10	 lea	 rcx, QWORD PTR _Backout$[rbp]
  00085	e8 00 00 00 00	 call	 ??$_Emplace_back@UFCMDParameter@@@?$_Uninitialized_backout_al@V?$allocator@UFCMDParameter@@@std@@@std@@QEAAX$$QEAUFCMDParameter@@@Z ; std::_Uninitialized_backout_al<std::allocator<FCMDParameter> >::_Emplace_back<FCMDParameter>

; 1946 :     }

  0008a	eb db		 jmp	 SHORT $LN2@Uninitiali
$LN3@Uninitiali:

; 1947 : 
; 1948 :     return _Backout._Release();

  0008c	48 8d 4d 10	 lea	 rcx, QWORD PTR _Backout$[rbp]
  00090	e8 00 00 00 00	 call	 ?_Release@?$_Uninitialized_backout_al@V?$allocator@UFCMDParameter@@@std@@@std@@QEAAPEAUFCMDParameter@@XZ ; std::_Uninitialized_backout_al<std::allocator<FCMDParameter> >::_Release
  00095	48 89 45 68	 mov	 QWORD PTR $T1[rbp], rax
  00099	48 8d 4d 10	 lea	 rcx, QWORD PTR _Backout$[rbp]
  0009d	e8 00 00 00 00	 call	 ??1?$_Uninitialized_backout_al@V?$allocator@UFCMDParameter@@@std@@@std@@QEAA@XZ ; std::_Uninitialized_backout_al<std::allocator<FCMDParameter> >::~_Uninitialized_backout_al<std::allocator<FCMDParameter> >
  000a2	48 8b 45 68	 mov	 rax, QWORD PTR $T1[rbp]

; 1949 : }

  000a6	48 8d 65 70	 lea	 rsp, QWORD PTR [rbp+112]
  000aa	5d		 pop	 rbp
  000ab	c3		 ret	 0
??$_Uninitialized_move@PEAUFCMDParameter@@V?$allocator@UFCMDParameter@@@std@@@std@@YAPEAUFCMDParameter@@QEAU1@0PEAU1@AEAV?$allocator@UFCMDParameter@@@0@@Z ENDP ; std::_Uninitialized_move<FCMDParameter *,std::allocator<FCMDParameter> >
_TEXT	ENDS
; Function compile flags: /Odtp /ZI
;	COMDAT text$x
text$x	SEGMENT
_UFirst$ = 0
_ULast$ = 8
_Backout$ = 16
$T1 = 104
_First$ = 128
_Last$ = 136
_Dest$ = 144
_Al$ = 152
?dtor$0@?0???$_Uninitialized_move@PEAUFCMDParameter@@V?$allocator@UFCMDParameter@@@std@@@std@@YAPEAUFCMDParameter@@QEAU1@0PEAU1@AEAV?$allocator@UFCMDParameter@@@0@@Z@4HA PROC ; `std::_Uninitialized_move<FCMDParameter *,std::allocator<FCMDParameter> >'::`1'::dtor$0
  00000	40 55		 push	 rbp
  00002	48 83 ec 20	 sub	 rsp, 32			; 00000020H
  00006	48 8d 6a 20	 lea	 rbp, QWORD PTR [rdx+32]
  0000a	48 8d 4d 10	 lea	 rcx, QWORD PTR _Backout$[rbp]
  0000e	e8 00 00 00 00	 call	 ??1?$_Uninitialized_backout_al@V?$allocator@UFCMDParameter@@@std@@@std@@QEAA@XZ ; std::_Uninitialized_backout_al<std::allocator<FCMDParameter> >::~_Uninitialized_backout_al<std::allocator<FCMDParameter> >
  00013	48 83 c4 20	 add	 rsp, 32			; 00000020H
  00017	5d		 pop	 rbp
  00018	c3		 ret	 0
?dtor$0@?0???$_Uninitialized_move@PEAUFCMDParameter@@V?$allocator@UFCMDParameter@@@std@@@std@@YAPEAUFCMDParameter@@QEAU1@0PEAU1@AEAV?$allocator@UFCMDParameter@@@0@@Z@4HA ENDP ; `std::_Uninitialized_move<FCMDParameter *,std::allocator<FCMDParameter> >'::`1'::dtor$0
text$x	ENDS
; Function compile flags: /Odtp /ZI
; File C:\Program Files\Microsoft Visual Studio\2022\Preview\VC\Tools\MSVC\14.38.33030\include\xmemory
;	COMDAT ??$_Allocate_at_least_helper@V?$allocator@UFCMDParameter@@@std@@@std@@YAPEAUFCMDParameter@@AEAV?$allocator@UFCMDParameter@@@0@AEA_K@Z
_TEXT	SEGMENT
_Al$ = 80
_Count$ = 88
??$_Allocate_at_least_helper@V?$allocator@UFCMDParameter@@@std@@@std@@YAPEAUFCMDParameter@@AEAV?$allocator@UFCMDParameter@@@0@AEA_K@Z PROC ; std::_Allocate_at_least_helper<std::allocator<FCMDParameter> >, COMDAT

; 2198 :     _Alloc& _Al, _CRT_GUARDOVERFLOW typename allocator_traits<_Alloc>::size_type& _Count) {

$LN3:
  00000	48 89 54 24 10	 mov	 QWORD PTR [rsp+16], rdx
  00005	48 89 4c 24 08	 mov	 QWORD PTR [rsp+8], rcx
  0000a	55		 push	 rbp
  0000b	48 83 ec 60	 sub	 rsp, 96			; 00000060H
  0000f	48 8d 6c 24 20	 lea	 rbp, QWORD PTR [rsp+32]
  00014	48 8d 0d 00 00
	00 00		 lea	 rcx, OFFSET FLAT:__67F55BEA_xmemory
  0001b	e8 00 00 00 00	 call	 __CheckForDebuggerJustMyCode

; 2199 : #if _HAS_CXX23
; 2200 :     if constexpr (_Should_allocate_at_least<_Alloc>) {
; 2201 :         auto [_Ptr, _Allocated] = _Al.allocate_at_least(_Count);
; 2202 :         _Count                  = _Allocated;
; 2203 :         return _Ptr;
; 2204 :     } else
; 2205 : #endif // _HAS_CXX23
; 2206 :     {
; 2207 :         return _Al.allocate(_Count);

  00020	48 8b 45 58	 mov	 rax, QWORD PTR _Count$[rbp]
  00024	48 8b 10	 mov	 rdx, QWORD PTR [rax]
  00027	48 8b 4d 50	 mov	 rcx, QWORD PTR _Al$[rbp]
  0002b	e8 00 00 00 00	 call	 ?allocate@?$allocator@UFCMDParameter@@@std@@QEAAPEAUFCMDParameter@@_K@Z ; std::allocator<FCMDParameter>::allocate

; 2208 :     }
; 2209 : }

  00030	48 8d 65 40	 lea	 rsp, QWORD PTR [rbp+64]
  00034	5d		 pop	 rbp
  00035	c3		 ret	 0
??$_Allocate_at_least_helper@V?$allocator@UFCMDParameter@@@std@@@std@@YAPEAUFCMDParameter@@AEAV?$allocator@UFCMDParameter@@@0@AEA_K@Z ENDP ; std::_Allocate_at_least_helper<std::allocator<FCMDParameter> >
_TEXT	ENDS
; Function compile flags: /Odtp /ZI
; File C:\Program Files\Microsoft Visual Studio\2022\Preview\VC\Tools\MSVC\14.38.33030\include\xmemory
;	COMDAT ??$construct@UFCMDParameter@@AEBU1@@?$_Default_allocator_traits@V?$allocator@UFCMDParameter@@@std@@@std@@SAXAEAV?$allocator@UFCMDParameter@@@1@QEAUFCMDParameter@@AEBU3@@Z
_TEXT	SEGMENT
__formal$ = 80
_Ptr$ = 88
<_Args_0>$ = 96
??$construct@UFCMDParameter@@AEBU1@@?$_Default_allocator_traits@V?$allocator@UFCMDParameter@@@std@@@std@@SAXAEAV?$allocator@UFCMDParameter@@@1@QEAUFCMDParameter@@AEBU3@@Z PROC ; std::_Default_allocator_traits<std::allocator<FCMDParameter> >::construct<FCMDParameter,FCMDParameter const &>, COMDAT

; 719  :     static _CONSTEXPR20 void construct(_Alloc&, _Objty* const _Ptr, _Types&&... _Args) {

$LN3:
  00000	4c 89 44 24 18	 mov	 QWORD PTR [rsp+24], r8
  00005	48 89 54 24 10	 mov	 QWORD PTR [rsp+16], rdx
  0000a	48 89 4c 24 08	 mov	 QWORD PTR [rsp+8], rcx
  0000f	55		 push	 rbp
  00010	48 83 ec 60	 sub	 rsp, 96			; 00000060H
  00014	48 8d 6c 24 20	 lea	 rbp, QWORD PTR [rsp+32]
  00019	48 8d 0d 00 00
	00 00		 lea	 rcx, OFFSET FLAT:__67F55BEA_xmemory
  00020	e8 00 00 00 00	 call	 __CheckForDebuggerJustMyCode

; 720  : #if _HAS_CXX20
; 721  :         _STD construct_at(_Ptr, _STD forward<_Types>(_Args)...);

  00025	48 8b 55 60	 mov	 rdx, QWORD PTR <_Args_0>$[rbp]
  00029	48 8b 4d 58	 mov	 rcx, QWORD PTR _Ptr$[rbp]
  0002d	e8 00 00 00 00	 call	 ??$construct_at@UFCMDParameter@@AEBU1@$0A@@std@@YAPEAUFCMDParameter@@QEAU1@AEBU1@@Z ; std::construct_at<FCMDParameter,FCMDParameter const &,0>

; 722  : #else // ^^^ _HAS_CXX20 / !_HAS_CXX20 vvv
; 723  :         ::new (const_cast<void*>(static_cast<const volatile void*>(_Ptr))) _Objty(_STD forward<_Types>(_Args)...);
; 724  : #endif // ^^^ !_HAS_CXX20 ^^^
; 725  :     }

  00032	48 8d 65 40	 lea	 rsp, QWORD PTR [rbp+64]
  00036	5d		 pop	 rbp
  00037	c3		 ret	 0
??$construct@UFCMDParameter@@AEBU1@@?$_Default_allocator_traits@V?$allocator@UFCMDParameter@@@std@@@std@@SAXAEAV?$allocator@UFCMDParameter@@@1@QEAUFCMDParameter@@AEBU3@@Z ENDP ; std::_Default_allocator_traits<std::allocator<FCMDParameter> >::construct<FCMDParameter,FCMDParameter const &>
_TEXT	ENDS
; Function compile flags: /Odtp /ZI
; File C:\Program Files\Microsoft Visual Studio\2022\Preview\VC\Tools\MSVC\14.38.33030\include\xutility
;	COMDAT ??$construct_at@D$$V$0A@@std@@YAPEADQEAD@Z
_TEXT	SEGMENT
$T1 = 64
$T2 = 72
_Location$ = 112
??$construct_at@D$$V$0A@@std@@YAPEADQEAD@Z PROC		; std::construct_at<char,0>, COMDAT

; 241  :     noexcept(::new(static_cast<void*>(_Location)) _Ty(_STD forward<_Types>(_Args)...))) /* strengthened */ {

$LN3:
  00000	48 89 4c 24 08	 mov	 QWORD PTR [rsp+8], rcx
  00005	55		 push	 rbp
  00006	57		 push	 rdi
  00007	48 83 ec 78	 sub	 rsp, 120		; 00000078H
  0000b	48 8d 6c 24 20	 lea	 rbp, QWORD PTR [rsp+32]
  00010	48 8d 0d 00 00
	00 00		 lea	 rcx, OFFSET FLAT:__B7320FC0_xutility
  00017	e8 00 00 00 00	 call	 __CheckForDebuggerJustMyCode

; 242  :     _MSVC_CONSTEXPR return ::new (static_cast<void*>(_Location)) _Ty(_STD forward<_Types>(_Args)...);

  0001c	48 c7 45 40 01
	00 00 00	 mov	 QWORD PTR $T1[rbp], 1
  00024	48 8b 55 70	 mov	 rdx, QWORD PTR _Location$[rbp]
  00028	48 8b 4d 40	 mov	 rcx, QWORD PTR $T1[rbp]
  0002c	e8 00 00 00 00	 call	 ??2@YAPEAX_KPEAX@Z	; operator new
  00031	48 89 45 48	 mov	 QWORD PTR $T2[rbp], rax
  00035	48 8b 7d 48	 mov	 rdi, QWORD PTR $T2[rbp]
  00039	33 c0		 xor	 eax, eax
  0003b	48 8b 4d 40	 mov	 rcx, QWORD PTR $T1[rbp]
  0003f	f3 aa		 rep stosb
  00041	48 8b 45 48	 mov	 rax, QWORD PTR $T2[rbp]

; 243  : }

  00045	48 8d 65 58	 lea	 rsp, QWORD PTR [rbp+88]
  00049	5f		 pop	 rdi
  0004a	5d		 pop	 rbp
  0004b	c3		 ret	 0
??$construct_at@D$$V$0A@@std@@YAPEADQEAD@Z ENDP		; std::construct_at<char,0>
_TEXT	ENDS
; Function compile flags: /Odtp /ZI
; File C:\Program Files\Microsoft Visual Studio\2022\Preview\VC\Tools\MSVC\14.38.33030\include\utility
;	COMDAT ??$min@_K@std@@YAAEB_KAEB_K0@Z
_TEXT	SEGMENT
$T1 = 64
tv65 = 72
_Left$ = 96
_Right$ = 104
??$min@_K@std@@YAAEB_KAEB_K0@Z PROC			; std::min<unsigned __int64>, COMDAT

; 98   :     (min) (const _Ty& _Left, const _Ty& _Right) noexcept(noexcept(_Right < _Left)) /* strengthened */ {

$LN5:
  00000	48 89 54 24 10	 mov	 QWORD PTR [rsp+16], rdx
  00005	48 89 4c 24 08	 mov	 QWORD PTR [rsp+8], rcx
  0000a	55		 push	 rbp
  0000b	48 83 ec 70	 sub	 rsp, 112		; 00000070H
  0000f	48 8d 6c 24 20	 lea	 rbp, QWORD PTR [rsp+32]
  00014	48 8d 0d 00 00
	00 00		 lea	 rcx, OFFSET FLAT:__0D603829_utility
  0001b	e8 00 00 00 00	 call	 __CheckForDebuggerJustMyCode

; 99   :     // return smaller of _Left and _Right
; 100  :     return _Right < _Left ? _Right : _Left;

  00020	48 8b 45 68	 mov	 rax, QWORD PTR _Right$[rbp]
  00024	48 8b 4d 60	 mov	 rcx, QWORD PTR _Left$[rbp]
  00028	48 8b 09	 mov	 rcx, QWORD PTR [rcx]
  0002b	48 39 08	 cmp	 QWORD PTR [rax], rcx
  0002e	73 0a		 jae	 SHORT $LN3@min
  00030	48 8b 45 68	 mov	 rax, QWORD PTR _Right$[rbp]
  00034	48 89 45 48	 mov	 QWORD PTR tv65[rbp], rax
  00038	eb 08		 jmp	 SHORT $LN4@min
$LN3@min:
  0003a	48 8b 45 60	 mov	 rax, QWORD PTR _Left$[rbp]
  0003e	48 89 45 48	 mov	 QWORD PTR tv65[rbp], rax
$LN4@min:
  00042	48 8b 45 48	 mov	 rax, QWORD PTR tv65[rbp]
  00046	48 89 45 40	 mov	 QWORD PTR $T1[rbp], rax
  0004a	48 8b 45 40	 mov	 rax, QWORD PTR $T1[rbp]

; 101  : }

  0004e	48 8d 65 50	 lea	 rsp, QWORD PTR [rbp+80]
  00052	5d		 pop	 rbp
  00053	c3		 ret	 0
??$min@_K@std@@YAAEB_KAEB_K0@Z ENDP			; std::min<unsigned __int64>
_TEXT	ENDS
; Function compile flags: /Odtp /ZI
; File C:\Program Files\Microsoft Visual Studio\2022\Preview\VC\Tools\MSVC\14.38.33030\include\xmemory
;	COMDAT ??$_Allocate@$0BA@U_Default_allocate_traits@std@@$0A@@std@@YAPEAX_K@Z
_TEXT	SEGMENT
_Bytes$ = 80
??$_Allocate@$0BA@U_Default_allocate_traits@std@@$0A@@std@@YAPEAX_K@Z PROC ; std::_Allocate<16,std::_Default_allocate_traits,0>, COMDAT

; 230  : __declspec(allocator) _CONSTEXPR20 void* _Allocate(const size_t _Bytes) {

$LN6:
  00000	48 89 4c 24 08	 mov	 QWORD PTR [rsp+8], rcx
  00005	55		 push	 rbp
  00006	48 83 ec 60	 sub	 rsp, 96			; 00000060H
  0000a	48 8d 6c 24 20	 lea	 rbp, QWORD PTR [rsp+32]
  0000f	48 8d 0d 00 00
	00 00		 lea	 rcx, OFFSET FLAT:__67F55BEA_xmemory
  00016	e8 00 00 00 00	 call	 __CheckForDebuggerJustMyCode

; 231  :     // allocate _Bytes when !_HAS_ALIGNED_NEW || _Align <= __STDCPP_DEFAULT_NEW_ALIGNMENT__
; 232  : #if defined(_M_IX86) || defined(_M_X64)
; 233  : #if _HAS_CXX20 // TRANSITION, GH-1532
; 234  :     if (!_STD is_constant_evaluated())

  0001b	e8 00 00 00 00	 call	 ?is_constant_evaluated@std@@YA_NXZ ; std::is_constant_evaluated
  00020	0f b6 c0	 movzx	 eax, al
  00023	85 c0		 test	 eax, eax
  00025	75 15		 jne	 SHORT $LN2@Allocate

; 235  : #endif // _HAS_CXX20
; 236  :     {
; 237  :         if (_Bytes >= _Big_allocation_threshold) { // boost the alignment of big allocations to help autovectorization

  00027	48 81 7d 50 00
	10 00 00	 cmp	 QWORD PTR _Bytes$[rbp], 4096 ; 00001000H
  0002f	72 0b		 jb	 SHORT $LN3@Allocate

; 238  :             return _Allocate_manually_vector_aligned<_Traits>(_Bytes);

  00031	48 8b 4d 50	 mov	 rcx, QWORD PTR _Bytes$[rbp]
  00035	e8 00 00 00 00	 call	 ??$_Allocate_manually_vector_aligned@U_Default_allocate_traits@std@@@std@@YAPEAX_K@Z ; std::_Allocate_manually_vector_aligned<std::_Default_allocate_traits>
  0003a	eb 14		 jmp	 SHORT $LN1@Allocate
$LN3@Allocate:
$LN2@Allocate:

; 239  :         }
; 240  :     }
; 241  : #endif // defined(_M_IX86) || defined(_M_X64)
; 242  : 
; 243  :     if (_Bytes != 0) {

  0003c	48 83 7d 50 00	 cmp	 QWORD PTR _Bytes$[rbp], 0
  00041	74 0b		 je	 SHORT $LN4@Allocate

; 244  :         return _Traits::_Allocate(_Bytes);

  00043	48 8b 4d 50	 mov	 rcx, QWORD PTR _Bytes$[rbp]
  00047	e8 00 00 00 00	 call	 ?_Allocate@_Default_allocate_traits@std@@SAPEAX_K@Z ; std::_Default_allocate_traits::_Allocate
  0004c	eb 02		 jmp	 SHORT $LN1@Allocate
$LN4@Allocate:

; 245  :     }
; 246  : 
; 247  :     return nullptr;

  0004e	33 c0		 xor	 eax, eax
$LN1@Allocate:

; 248  : }

  00050	48 8d 65 40	 lea	 rsp, QWORD PTR [rbp+64]
  00054	5d		 pop	 rbp
  00055	c3		 ret	 0
??$_Allocate@$0BA@U_Default_allocate_traits@std@@$0A@@std@@YAPEAX_K@Z ENDP ; std::_Allocate<16,std::_Default_allocate_traits,0>
_TEXT	ENDS
; Function compile flags: /Odtp /ZI
; File C:\Program Files\Microsoft Visual Studio\2022\Preview\VC\Tools\MSVC\14.38.33030\include\xmemory
;	COMDAT ??$_Get_size_of_n@$0BA@@std@@YA_K_K@Z
_TEXT	SEGMENT
_Overflow_is_possible$ = 0
_Max_possible$1 = 8
_Count$ = 96
??$_Get_size_of_n@$0BA@@std@@YA_K_K@Z PROC		; std::_Get_size_of_n<16>, COMDAT

; 64   : _NODISCARD constexpr size_t _Get_size_of_n(const size_t _Count) {

$LN4:
  00000	48 89 4c 24 08	 mov	 QWORD PTR [rsp+8], rcx
  00005	55		 push	 rbp
  00006	48 83 ec 70	 sub	 rsp, 112		; 00000070H
  0000a	48 8d 6c 24 20	 lea	 rbp, QWORD PTR [rsp+32]
  0000f	48 8d 0d 00 00
	00 00		 lea	 rcx, OFFSET FLAT:__67F55BEA_xmemory
  00016	e8 00 00 00 00	 call	 __CheckForDebuggerJustMyCode

; 65   :     constexpr bool _Overflow_is_possible = _Ty_size > 1;

  0001b	c6 45 00 01	 mov	 BYTE PTR _Overflow_is_possible$[rbp], 1

; 66   : 
; 67   :     if constexpr (_Overflow_is_possible) {
; 68   :         constexpr size_t _Max_possible = static_cast<size_t>(-1) / _Ty_size;

  0001f	48 b8 ff ff ff
	ff ff ff ff 0f	 mov	 rax, 1152921504606846975 ; 0fffffffffffffffH
  00029	48 89 45 08	 mov	 QWORD PTR _Max_possible$1[rbp], rax

; 69   :         if (_Count > _Max_possible) {

  0002d	48 b8 ff ff ff
	ff ff ff ff 0f	 mov	 rax, 1152921504606846975 ; 0fffffffffffffffH
  00037	48 39 45 60	 cmp	 QWORD PTR _Count$[rbp], rax
  0003b	76 05		 jbe	 SHORT $LN2@Get_size_o

; 70   :             _Throw_bad_array_new_length(); // multiply overflow

  0003d	e8 00 00 00 00	 call	 ?_Throw_bad_array_new_length@std@@YAXXZ ; std::_Throw_bad_array_new_length
$LN2@Get_size_o:

; 71   :         }
; 72   :     }
; 73   : 
; 74   :     return _Count * _Ty_size;

  00042	48 6b 45 60 10	 imul	 rax, QWORD PTR _Count$[rbp], 16
$LN3@Get_size_o:

; 75   : }

  00047	48 8d 65 50	 lea	 rsp, QWORD PTR [rbp+80]
  0004b	5d		 pop	 rbp
  0004c	c3		 ret	 0
??$_Get_size_of_n@$0BA@@std@@YA_K_K@Z ENDP		; std::_Get_size_of_n<16>
_TEXT	ENDS
; Function compile flags: /Odtp /ZI
; File C:\Program Files\Microsoft Visual Studio\2022\Preview\VC\Tools\MSVC\14.38.33030\include\xutility
;	COMDAT ??$construct_at@PEADAEAPEAD$0A@@std@@YAPEAPEADQEAPEADAEAPEAD@Z
_TEXT	SEGMENT
$T1 = 64
_Location$ = 96
<_Args_0>$ = 104
??$construct_at@PEADAEAPEAD$0A@@std@@YAPEAPEADQEAPEADAEAPEAD@Z PROC ; std::construct_at<char *,char * &,0>, COMDAT

; 241  :     noexcept(::new(static_cast<void*>(_Location)) _Ty(_STD forward<_Types>(_Args)...))) /* strengthened */ {

$LN3:
  00000	48 89 54 24 10	 mov	 QWORD PTR [rsp+16], rdx
  00005	48 89 4c 24 08	 mov	 QWORD PTR [rsp+8], rcx
  0000a	55		 push	 rbp
  0000b	48 83 ec 70	 sub	 rsp, 112		; 00000070H
  0000f	48 8d 6c 24 20	 lea	 rbp, QWORD PTR [rsp+32]
  00014	48 8d 0d 00 00
	00 00		 lea	 rcx, OFFSET FLAT:__B7320FC0_xutility
  0001b	e8 00 00 00 00	 call	 __CheckForDebuggerJustMyCode

; 242  :     _MSVC_CONSTEXPR return ::new (static_cast<void*>(_Location)) _Ty(_STD forward<_Types>(_Args)...);

  00020	48 8b 55 60	 mov	 rdx, QWORD PTR _Location$[rbp]
  00024	b9 08 00 00 00	 mov	 ecx, 8
  00029	e8 00 00 00 00	 call	 ??2@YAPEAX_KPEAX@Z	; operator new
  0002e	48 89 45 40	 mov	 QWORD PTR $T1[rbp], rax
  00032	48 8b 45 40	 mov	 rax, QWORD PTR $T1[rbp]
  00036	48 8b 4d 68	 mov	 rcx, QWORD PTR <_Args_0>$[rbp]
  0003a	48 8b 09	 mov	 rcx, QWORD PTR [rcx]
  0003d	48 89 08	 mov	 QWORD PTR [rax], rcx
  00040	48 8b 45 40	 mov	 rax, QWORD PTR $T1[rbp]

; 243  : }

  00044	48 8d 65 50	 lea	 rsp, QWORD PTR [rbp+80]
  00048	5d		 pop	 rbp
  00049	c3		 ret	 0
??$construct_at@PEADAEAPEAD$0A@@std@@YAPEAPEADQEAPEADAEAPEAD@Z ENDP ; std::construct_at<char *,char * &,0>
_TEXT	ENDS
; Function compile flags: /Odtp /ZI
; File C:\Program Files\Microsoft Visual Studio\2022\Preview\VC\Tools\MSVC\14.38.33030\include\type_traits
;	COMDAT ??$addressof@PEAD@std@@YAPEAPEADAEAPEAD@Z
_TEXT	SEGMENT
_Val$ = 80
??$addressof@PEAD@std@@YAPEAPEADAEAPEAD@Z PROC		; std::addressof<char *>, COMDAT

; 1589 : _NODISCARD constexpr _Ty* addressof(_Ty& _Val) noexcept {

$LN3:
  00000	48 89 4c 24 08	 mov	 QWORD PTR [rsp+8], rcx
  00005	55		 push	 rbp
  00006	48 83 ec 60	 sub	 rsp, 96			; 00000060H
  0000a	48 8d 6c 24 20	 lea	 rbp, QWORD PTR [rsp+32]
  0000f	48 8d 0d 00 00
	00 00		 lea	 rcx, OFFSET FLAT:__3DF2A533_type_traits
  00016	e8 00 00 00 00	 call	 __CheckForDebuggerJustMyCode

; 1590 :     return __builtin_addressof(_Val);

  0001b	48 8b 45 50	 mov	 rax, QWORD PTR _Val$[rbp]

; 1591 : }

  0001f	48 8d 65 40	 lea	 rsp, QWORD PTR [rbp+64]
  00023	5d		 pop	 rbp
  00024	c3		 ret	 0
??$addressof@PEAD@std@@YAPEAPEADAEAPEAD@Z ENDP		; std::addressof<char *>
_TEXT	ENDS
; Function compile flags: /Odtp /ZI
; File C:\Program Files\Microsoft Visual Studio\2022\Preview\VC\Tools\MSVC\14.38.33030\include\xmemory
;	COMDAT ??$destroy@UFCMDParameter@@@?$_Default_allocator_traits@V?$allocator@UFCMDParameter@@@std@@@std@@SAXAEAV?$allocator@UFCMDParameter@@@1@QEAUFCMDParameter@@@Z
_TEXT	SEGMENT
__formal$ = 80
_Ptr$ = 88
??$destroy@UFCMDParameter@@@?$_Default_allocator_traits@V?$allocator@UFCMDParameter@@@std@@@std@@SAXAEAV?$allocator@UFCMDParameter@@@1@QEAUFCMDParameter@@@Z PROC ; std::_Default_allocator_traits<std::allocator<FCMDParameter> >::destroy<FCMDParameter>, COMDAT

; 728  :     static _CONSTEXPR20 void destroy(_Alloc&, _Uty* const _Ptr) {

$LN3:
  00000	48 89 54 24 10	 mov	 QWORD PTR [rsp+16], rdx
  00005	48 89 4c 24 08	 mov	 QWORD PTR [rsp+8], rcx
  0000a	55		 push	 rbp
  0000b	48 83 ec 60	 sub	 rsp, 96			; 00000060H
  0000f	48 8d 6c 24 20	 lea	 rbp, QWORD PTR [rsp+32]
  00014	48 8d 0d 00 00
	00 00		 lea	 rcx, OFFSET FLAT:__67F55BEA_xmemory
  0001b	e8 00 00 00 00	 call	 __CheckForDebuggerJustMyCode

; 729  : #if _HAS_CXX20
; 730  :         _STD destroy_at(_Ptr);

  00020	48 8b 4d 58	 mov	 rcx, QWORD PTR _Ptr$[rbp]
  00024	e8 00 00 00 00	 call	 ??$destroy_at@UFCMDParameter@@@std@@YAXQEAUFCMDParameter@@@Z ; std::destroy_at<FCMDParameter>

; 731  : #else // _HAS_CXX20
; 732  :         _Ptr->~_Uty();
; 733  : #endif // _HAS_CXX20
; 734  :     }

  00029	48 8d 65 40	 lea	 rsp, QWORD PTR [rbp+64]
  0002d	5d		 pop	 rbp
  0002e	c3		 ret	 0
??$destroy@UFCMDParameter@@@?$_Default_allocator_traits@V?$allocator@UFCMDParameter@@@std@@@std@@SAXAEAV?$allocator@UFCMDParameter@@@1@QEAUFCMDParameter@@@Z ENDP ; std::_Default_allocator_traits<std::allocator<FCMDParameter> >::destroy<FCMDParameter>
_TEXT	ENDS
; Function compile flags: /Odtp /ZI
; File C:\Program Files\Microsoft Visual Studio\2022\Preview\VC\Tools\MSVC\14.38.33030\include\xutility
;	COMDAT ??$_Construct_in_place@PEADAEBQEAD@std@@YAXAEAPEADAEBQEAD@Z
_TEXT	SEGMENT
$T1 = 64
_Obj$ = 96
<_Args_0>$ = 104
??$_Construct_in_place@PEADAEBQEAD@std@@YAXAEAPEADAEBQEAD@Z PROC ; std::_Construct_in_place<char *,char * const &>, COMDAT

; 248  :     is_nothrow_constructible_v<_Ty, _Types...>) {

$LN5:
  00000	48 89 54 24 10	 mov	 QWORD PTR [rsp+16], rdx
  00005	48 89 4c 24 08	 mov	 QWORD PTR [rsp+8], rcx
  0000a	55		 push	 rbp
  0000b	48 83 ec 70	 sub	 rsp, 112		; 00000070H
  0000f	48 8d 6c 24 20	 lea	 rbp, QWORD PTR [rsp+32]
  00014	48 8d 0d 00 00
	00 00		 lea	 rcx, OFFSET FLAT:__B7320FC0_xutility
  0001b	e8 00 00 00 00	 call	 __CheckForDebuggerJustMyCode

; 249  : #if _HAS_CXX20
; 250  :     if (_STD is_constant_evaluated()) {

  00020	e8 00 00 00 00	 call	 ?is_constant_evaluated@std@@YA_NXZ ; std::is_constant_evaluated
  00025	0f b6 c0	 movzx	 eax, al
  00028	85 c0		 test	 eax, eax
  0002a	74 17		 je	 SHORT $LN2@Construct_

; 251  :         _STD construct_at(_STD addressof(_Obj), _STD forward<_Types>(_Args)...);

  0002c	48 8b 4d 60	 mov	 rcx, QWORD PTR _Obj$[rbp]
  00030	e8 00 00 00 00	 call	 ??$addressof@PEAD@std@@YAPEAPEADAEAPEAD@Z ; std::addressof<char *>
  00035	48 8b 55 68	 mov	 rdx, QWORD PTR <_Args_0>$[rbp]
  00039	48 8b c8	 mov	 rcx, rax
  0003c	e8 00 00 00 00	 call	 ??$construct_at@PEADAEBQEAD$0A@@std@@YAPEAPEADQEAPEADAEBQEAD@Z ; std::construct_at<char *,char * const &,0>

; 252  :     } else

  00041	eb 28		 jmp	 SHORT $LN3@Construct_
$LN2@Construct_:

; 253  : #endif // _HAS_CXX20
; 254  :     {
; 255  :         ::new (static_cast<void*>(_STD addressof(_Obj))) _Ty(_STD forward<_Types>(_Args)...);

  00043	48 8b 4d 60	 mov	 rcx, QWORD PTR _Obj$[rbp]
  00047	e8 00 00 00 00	 call	 ??$addressof@PEAD@std@@YAPEAPEADAEAPEAD@Z ; std::addressof<char *>
  0004c	48 8b d0	 mov	 rdx, rax
  0004f	b9 08 00 00 00	 mov	 ecx, 8
  00054	e8 00 00 00 00	 call	 ??2@YAPEAX_KPEAX@Z	; operator new
  00059	48 89 45 40	 mov	 QWORD PTR $T1[rbp], rax
  0005d	48 8b 45 40	 mov	 rax, QWORD PTR $T1[rbp]
  00061	48 8b 4d 68	 mov	 rcx, QWORD PTR <_Args_0>$[rbp]
  00065	48 8b 09	 mov	 rcx, QWORD PTR [rcx]
  00068	48 89 08	 mov	 QWORD PTR [rax], rcx
$LN3@Construct_:

; 256  :     }
; 257  : }

  0006b	48 8d 65 50	 lea	 rsp, QWORD PTR [rbp+80]
  0006f	5d		 pop	 rbp
  00070	c3		 ret	 0
??$_Construct_in_place@PEADAEBQEAD@std@@YAXAEAPEADAEBQEAD@Z ENDP ; std::_Construct_in_place<char *,char * const &>
_TEXT	ENDS
; Function compile flags: /Odtp /ZI
; File C:\Program Files\Microsoft Visual Studio\2022\Preview\VC\Tools\MSVC\14.38.33030\include\xmemory
;	COMDAT ??$_Allocate_at_least_helper@V?$allocator@D@std@@@std@@YAPEADAEAV?$allocator@D@0@AEA_K@Z
_TEXT	SEGMENT
_Al$ = 80
_Count$ = 88
??$_Allocate_at_least_helper@V?$allocator@D@std@@@std@@YAPEADAEAV?$allocator@D@0@AEA_K@Z PROC ; std::_Allocate_at_least_helper<std::allocator<char> >, COMDAT

; 2198 :     _Alloc& _Al, _CRT_GUARDOVERFLOW typename allocator_traits<_Alloc>::size_type& _Count) {

$LN3:
  00000	48 89 54 24 10	 mov	 QWORD PTR [rsp+16], rdx
  00005	48 89 4c 24 08	 mov	 QWORD PTR [rsp+8], rcx
  0000a	55		 push	 rbp
  0000b	48 83 ec 60	 sub	 rsp, 96			; 00000060H
  0000f	48 8d 6c 24 20	 lea	 rbp, QWORD PTR [rsp+32]
  00014	48 8d 0d 00 00
	00 00		 lea	 rcx, OFFSET FLAT:__67F55BEA_xmemory
  0001b	e8 00 00 00 00	 call	 __CheckForDebuggerJustMyCode

; 2199 : #if _HAS_CXX23
; 2200 :     if constexpr (_Should_allocate_at_least<_Alloc>) {
; 2201 :         auto [_Ptr, _Allocated] = _Al.allocate_at_least(_Count);
; 2202 :         _Count                  = _Allocated;
; 2203 :         return _Ptr;
; 2204 :     } else
; 2205 : #endif // _HAS_CXX23
; 2206 :     {
; 2207 :         return _Al.allocate(_Count);

  00020	48 8b 45 58	 mov	 rax, QWORD PTR _Count$[rbp]
  00024	48 8b 10	 mov	 rdx, QWORD PTR [rax]
  00027	48 8b 4d 50	 mov	 rcx, QWORD PTR _Al$[rbp]
  0002b	e8 00 00 00 00	 call	 ?allocate@?$allocator@D@std@@QEAAPEAD_K@Z ; std::allocator<char>::allocate

; 2208 :     }
; 2209 : }

  00030	48 8d 65 40	 lea	 rsp, QWORD PTR [rbp+64]
  00034	5d		 pop	 rbp
  00035	c3		 ret	 0
??$_Allocate_at_least_helper@V?$allocator@D@std@@@std@@YAPEADAEAV?$allocator@D@0@AEA_K@Z ENDP ; std::_Allocate_at_least_helper<std::allocator<char> >
_TEXT	ENDS
; Function compile flags: /Odtp /ZI
; File C:\Program Files\Microsoft Visual Studio\2022\Preview\VC\Tools\MSVC\14.38.33030\include\xmemory
;	COMDAT ??1?$_Container_proxy_ptr12@V?$allocator@U_Container_proxy@std@@@std@@@std@@QEAA@XZ
_TEXT	SEGMENT
this$ = 80
??1?$_Container_proxy_ptr12@V?$allocator@U_Container_proxy@std@@@std@@@std@@QEAA@XZ PROC ; std::_Container_proxy_ptr12<std::allocator<std::_Container_proxy> >::~_Container_proxy_ptr12<std::allocator<std::_Container_proxy> >, COMDAT

; 1483 :     _CONSTEXPR20 ~_Container_proxy_ptr12() {

$LN4:
  00000	48 89 4c 24 08	 mov	 QWORD PTR [rsp+8], rcx
  00005	55		 push	 rbp
  00006	48 83 ec 60	 sub	 rsp, 96			; 00000060H
  0000a	48 8d 6c 24 20	 lea	 rbp, QWORD PTR [rsp+32]
  0000f	48 8d 0d 00 00
	00 00		 lea	 rcx, OFFSET FLAT:__67F55BEA_xmemory
  00016	e8 00 00 00 00	 call	 __CheckForDebuggerJustMyCode

; 1484 :         if (_Ptr) {

  0001b	48 8b 45 50	 mov	 rax, QWORD PTR this$[rbp]
  0001f	48 83 38 00	 cmp	 QWORD PTR [rax], 0
  00023	74 14		 je	 SHORT $LN2@Container_

; 1485 :             _Delete_plain_internal(_Al, _Ptr);

  00025	48 8b 45 50	 mov	 rax, QWORD PTR this$[rbp]
  00029	48 8b 10	 mov	 rdx, QWORD PTR [rax]
  0002c	48 8b 45 50	 mov	 rax, QWORD PTR this$[rbp]
  00030	48 8b 48 08	 mov	 rcx, QWORD PTR [rax+8]
  00034	e8 00 00 00 00	 call	 ??$_Delete_plain_internal@V?$allocator@U_Container_proxy@std@@@std@@@std@@YAXAEAV?$allocator@U_Container_proxy@std@@@0@QEAU_Container_proxy@0@@Z ; std::_Delete_plain_internal<std::allocator<std::_Container_proxy> >
$LN2@Container_:

; 1486 :         }
; 1487 :     }

  00039	48 8d 65 40	 lea	 rsp, QWORD PTR [rbp+64]
  0003d	5d		 pop	 rbp
  0003e	c3		 ret	 0
??1?$_Container_proxy_ptr12@V?$allocator@U_Container_proxy@std@@@std@@@std@@QEAA@XZ ENDP ; std::_Container_proxy_ptr12<std::allocator<std::_Container_proxy> >::~_Container_proxy_ptr12<std::allocator<std::_Container_proxy> >
_TEXT	ENDS
; Function compile flags: /Odtp /ZI
; File C:\Program Files\Microsoft Visual Studio\2022\Preview\VC\Tools\MSVC\14.38.33030\include\xmemory
;	COMDAT ??0?$_Container_proxy_ptr12@V?$allocator@U_Container_proxy@std@@@std@@@std@@QEAA@AEAV?$allocator@U_Container_proxy@std@@@1@AEAU_Container_base12@1@@Z
_TEXT	SEGMENT
$T1 = 64
this$ = 96
_Al_$ = 104
_Mycont$ = 112
??0?$_Container_proxy_ptr12@V?$allocator@U_Container_proxy@std@@@std@@@std@@QEAA@AEAV?$allocator@U_Container_proxy@std@@@1@AEAU_Container_base12@1@@Z PROC ; std::_Container_proxy_ptr12<std::allocator<std::_Container_proxy> >::_Container_proxy_ptr12<std::allocator<std::_Container_proxy> >, COMDAT

; 1469 :     _CONSTEXPR20 _Container_proxy_ptr12(_Alloc& _Al_, _Container_base12& _Mycont) : _Al(_Al_) {

$LN3:
  00000	4c 89 44 24 18	 mov	 QWORD PTR [rsp+24], r8
  00005	48 89 54 24 10	 mov	 QWORD PTR [rsp+16], rdx
  0000a	48 89 4c 24 08	 mov	 QWORD PTR [rsp+8], rcx
  0000f	55		 push	 rbp
  00010	48 83 ec 70	 sub	 rsp, 112		; 00000070H
  00014	48 8d 6c 24 20	 lea	 rbp, QWORD PTR [rsp+32]
  00019	48 8d 0d 00 00
	00 00		 lea	 rcx, OFFSET FLAT:__67F55BEA_xmemory
  00020	e8 00 00 00 00	 call	 __CheckForDebuggerJustMyCode
  00025	48 8b 4d 60	 mov	 rcx, QWORD PTR this$[rbp]
  00029	e8 00 00 00 00	 call	 ??0_Basic_container_proxy_ptr12@std@@IEAA@XZ ; std::_Basic_container_proxy_ptr12::_Basic_container_proxy_ptr12
  0002e	48 8b 45 60	 mov	 rax, QWORD PTR this$[rbp]
  00032	48 8b 4d 68	 mov	 rcx, QWORD PTR _Al_$[rbp]
  00036	48 89 48 08	 mov	 QWORD PTR [rax+8], rcx

; 1470 :         // create a new _Container_proxy pointing at _Mycont
; 1471 :         _Ptr = _Unfancy(_Al_.allocate(1));

  0003a	ba 01 00 00 00	 mov	 edx, 1
  0003f	48 8b 4d 68	 mov	 rcx, QWORD PTR _Al_$[rbp]
  00043	e8 00 00 00 00	 call	 ?allocate@?$allocator@U_Container_proxy@std@@@std@@QEAAPEAU_Container_proxy@2@_K@Z ; std::allocator<std::_Container_proxy>::allocate
  00048	48 8b c8	 mov	 rcx, rax
  0004b	e8 00 00 00 00	 call	 ??$_Unfancy@U_Container_proxy@std@@@std@@YAPEAU_Container_proxy@0@PEAU10@@Z ; std::_Unfancy<std::_Container_proxy>
  00050	48 8b 4d 60	 mov	 rcx, QWORD PTR this$[rbp]
  00054	48 89 01	 mov	 QWORD PTR [rcx], rax

; 1472 :         _Construct_in_place(*_Ptr, _STD addressof(_Mycont));

  00057	48 8b 4d 70	 mov	 rcx, QWORD PTR _Mycont$[rbp]
  0005b	e8 00 00 00 00	 call	 ??$addressof@U_Container_base12@std@@@std@@YAPEAU_Container_base12@0@AEAU10@@Z ; std::addressof<std::_Container_base12>
  00060	48 89 45 40	 mov	 QWORD PTR $T1[rbp], rax
  00064	48 8d 55 40	 lea	 rdx, QWORD PTR $T1[rbp]
  00068	48 8b 45 60	 mov	 rax, QWORD PTR this$[rbp]
  0006c	48 8b 08	 mov	 rcx, QWORD PTR [rax]
  0006f	e8 00 00 00 00	 call	 ??$_Construct_in_place@U_Container_proxy@std@@PEAU_Container_base12@2@@std@@YAXAEAU_Container_proxy@0@$$QEAPEAU_Container_base12@0@@Z ; std::_Construct_in_place<std::_Container_proxy,std::_Container_base12 *>

; 1473 :         _Mycont._Myproxy = _Ptr;

  00074	48 8b 45 70	 mov	 rax, QWORD PTR _Mycont$[rbp]
  00078	48 8b 4d 60	 mov	 rcx, QWORD PTR this$[rbp]
  0007c	48 8b 09	 mov	 rcx, QWORD PTR [rcx]
  0007f	48 89 08	 mov	 QWORD PTR [rax], rcx

; 1474 :     }

  00082	48 8b 45 60	 mov	 rax, QWORD PTR this$[rbp]
  00086	48 8d 65 50	 lea	 rsp, QWORD PTR [rbp+80]
  0008a	5d		 pop	 rbp
  0008b	c3		 ret	 0
??0?$_Container_proxy_ptr12@V?$allocator@U_Container_proxy@std@@@std@@@std@@QEAA@AEAV?$allocator@U_Container_proxy@std@@@1@AEAU_Container_base12@1@@Z ENDP ; std::_Container_proxy_ptr12<std::allocator<std::_Container_proxy> >::_Container_proxy_ptr12<std::allocator<std::_Container_proxy> >
_TEXT	ENDS
; Function compile flags: /Odtp /ZI
; File C:\Program Files\Microsoft Visual Studio\2022\Preview\VC\Tools\MSVC\14.38.33030\include\xmemory
;	COMDAT ??$_Unfancy@U_Container_proxy@std@@@std@@YAPEAU_Container_proxy@0@PEAU10@@Z
_TEXT	SEGMENT
_Ptr$ = 80
??$_Unfancy@U_Container_proxy@std@@@std@@YAPEAU_Container_proxy@0@PEAU10@@Z PROC ; std::_Unfancy<std::_Container_proxy>, COMDAT

; 35   : _NODISCARD constexpr _Ty* _Unfancy(_Ty* _Ptr) noexcept { // do nothing for plain pointers

$LN3:
  00000	48 89 4c 24 08	 mov	 QWORD PTR [rsp+8], rcx
  00005	55		 push	 rbp
  00006	48 83 ec 60	 sub	 rsp, 96			; 00000060H
  0000a	48 8d 6c 24 20	 lea	 rbp, QWORD PTR [rsp+32]
  0000f	48 8d 0d 00 00
	00 00		 lea	 rcx, OFFSET FLAT:__67F55BEA_xmemory
  00016	e8 00 00 00 00	 call	 __CheckForDebuggerJustMyCode

; 36   :     return _Ptr;

  0001b	48 8b 45 50	 mov	 rax, QWORD PTR _Ptr$[rbp]

; 37   : }

  0001f	48 8d 65 40	 lea	 rsp, QWORD PTR [rbp+64]
  00023	5d		 pop	 rbp
  00024	c3		 ret	 0
??$_Unfancy@U_Container_proxy@std@@@std@@YAPEAU_Container_proxy@0@PEAU10@@Z ENDP ; std::_Unfancy<std::_Container_proxy>
_TEXT	ENDS
; Function compile flags: /Odtp /ZI
; File C:\Program Files\Microsoft Visual Studio\2022\Preview\VC\Tools\MSVC\14.38.33030\include\xmemory
;	COMDAT ??$_Deallocate_plain@V?$allocator@U_Container_proxy@std@@@std@@@std@@YAXAEAV?$allocator@U_Container_proxy@std@@@0@QEAU_Container_proxy@0@@Z
_TEXT	SEGMENT
_Al$ = 80
_Ptr$ = 88
??$_Deallocate_plain@V?$allocator@U_Container_proxy@std@@@std@@@std@@YAXAEAV?$allocator@U_Container_proxy@std@@@0@QEAU_Container_proxy@0@@Z PROC ; std::_Deallocate_plain<std::allocator<std::_Container_proxy> >, COMDAT

; 1123 : _CONSTEXPR20 void _Deallocate_plain(_Alloc& _Al, typename _Alloc::value_type* const _Ptr) noexcept {

$LN3:
  00000	48 89 54 24 10	 mov	 QWORD PTR [rsp+16], rdx
  00005	48 89 4c 24 08	 mov	 QWORD PTR [rsp+8], rcx
  0000a	55		 push	 rbp
  0000b	48 83 ec 60	 sub	 rsp, 96			; 00000060H
  0000f	48 8d 6c 24 20	 lea	 rbp, QWORD PTR [rsp+32]
  00014	48 8d 0d 00 00
	00 00		 lea	 rcx, OFFSET FLAT:__67F55BEA_xmemory
  0001b	e8 00 00 00 00	 call	 __CheckForDebuggerJustMyCode

; 1124 :     // deallocate a plain pointer using an allocator
; 1125 :     using _Alloc_traits = allocator_traits<_Alloc>;
; 1126 :     if constexpr (is_same_v<_Alloc_ptr_t<_Alloc>, typename _Alloc::value_type*>) {
; 1127 :         _Alloc_traits::deallocate(_Al, _Ptr, 1);

  00020	41 b8 01 00 00
	00		 mov	 r8d, 1
  00026	48 8b 55 58	 mov	 rdx, QWORD PTR _Ptr$[rbp]
  0002a	48 8b 4d 50	 mov	 rcx, QWORD PTR _Al$[rbp]
  0002e	e8 00 00 00 00	 call	 ?deallocate@?$_Default_allocator_traits@V?$allocator@U_Container_proxy@std@@@std@@@std@@SAXAEAV?$allocator@U_Container_proxy@std@@@2@QEAU_Container_proxy@2@_K@Z ; std::_Default_allocator_traits<std::allocator<std::_Container_proxy> >::deallocate
  00033	90		 npad	 1

; 1128 :     } else {
; 1129 :         using _Ptr_traits = pointer_traits<_Alloc_ptr_t<_Alloc>>;
; 1130 :         _Alloc_traits::deallocate(_Al, _Ptr_traits::pointer_to(*_Ptr), 1);
; 1131 :     }
; 1132 : }

  00034	48 8d 65 40	 lea	 rsp, QWORD PTR [rbp+64]
  00038	5d		 pop	 rbp
  00039	c3		 ret	 0
??$_Deallocate_plain@V?$allocator@U_Container_proxy@std@@@std@@@std@@YAXAEAV?$allocator@U_Container_proxy@std@@@0@QEAU_Container_proxy@0@@Z ENDP ; std::_Deallocate_plain<std::allocator<std::_Container_proxy> >
_TEXT	ENDS
; Function compile flags: /Odtp /ZI
; File C:\Program Files\Microsoft Visual Studio\2022\Preview\VC\Tools\MSVC\14.38.33030\include\vector
;	COMDAT ??$_Emplace_reallocate@AEBUFCMDParameter@@@?$vector@UFCMDParameter@@V?$allocator@UFCMDParameter@@@std@@@std@@AEAAPEAUFCMDParameter@@QEAU2@AEBU2@@Z
_TEXT	SEGMENT
_Al$ = 0
_My_data$ = 8
_Myfirst$ = 16
_Mylast$ = 24
_Whereoff$ = 32
_Oldsize$ = 40
_Newsize$ = 48
_Newcapacity$ = 56
_Newvec$ = 64
_Constructed_last$ = 72
_Constructed_first$ = 80
this$ = 176
_Whereptr$ = 184
<_Val_0>$ = 192
??$_Emplace_reallocate@AEBUFCMDParameter@@@?$vector@UFCMDParameter@@V?$allocator@UFCMDParameter@@@std@@@std@@AEAAPEAUFCMDParameter@@QEAU2@AEBU2@@Z PROC ; std::vector<FCMDParameter,std::allocator<FCMDParameter> >::_Emplace_reallocate<FCMDParameter const &>, COMDAT

; 811  :     _CONSTEXPR20 pointer _Emplace_reallocate(const pointer _Whereptr, _Valty&&... _Val) {

$LN13:
  00000	4c 89 44 24 18	 mov	 QWORD PTR [rsp+24], r8
  00005	48 89 54 24 10	 mov	 QWORD PTR [rsp+16], rdx
  0000a	48 89 4c 24 08	 mov	 QWORD PTR [rsp+8], rcx
  0000f	55		 push	 rbp
  00010	48 81 ec c0 00
	00 00		 sub	 rsp, 192		; 000000c0H
  00017	48 8d 6c 24 20	 lea	 rbp, QWORD PTR [rsp+32]
  0001c	48 8d 0d 00 00
	00 00		 lea	 rcx, OFFSET FLAT:__14F7CB70_vector
  00023	e8 00 00 00 00	 call	 __CheckForDebuggerJustMyCode

; 812  :         // reallocate and insert by perfectly forwarding _Val at _Whereptr
; 813  :         _Alty& _Al        = _Getal();

  00028	48 8b 8d b0 00
	00 00		 mov	 rcx, QWORD PTR this$[rbp]
  0002f	e8 00 00 00 00	 call	 ?_Getal@?$vector@UFCMDParameter@@V?$allocator@UFCMDParameter@@@std@@@std@@AEAAAEAV?$allocator@UFCMDParameter@@@2@XZ ; std::vector<FCMDParameter,std::allocator<FCMDParameter> >::_Getal
  00034	48 89 45 00	 mov	 QWORD PTR _Al$[rbp], rax

; 814  :         auto& _My_data    = _Mypair._Myval2;

  00038	48 8b 85 b0 00
	00 00		 mov	 rax, QWORD PTR this$[rbp]
  0003f	48 89 45 08	 mov	 QWORD PTR _My_data$[rbp], rax

; 815  :         pointer& _Myfirst = _My_data._Myfirst;

  00043	48 8b 45 08	 mov	 rax, QWORD PTR _My_data$[rbp]
  00047	48 83 c0 08	 add	 rax, 8
  0004b	48 89 45 10	 mov	 QWORD PTR _Myfirst$[rbp], rax

; 816  :         pointer& _Mylast  = _My_data._Mylast;

  0004f	48 8b 45 08	 mov	 rax, QWORD PTR _My_data$[rbp]
  00053	48 83 c0 10	 add	 rax, 16
  00057	48 89 45 18	 mov	 QWORD PTR _Mylast$[rbp], rax

; 817  : 
; 818  :         _STL_INTERNAL_CHECK(_Mylast == _My_data._Myend); // check that we have no unused capacity
; 819  : 
; 820  :         const auto _Whereoff = static_cast<size_type>(_Whereptr - _Myfirst);

  0005b	48 8b 45 10	 mov	 rax, QWORD PTR _Myfirst$[rbp]
  0005f	48 8b 00	 mov	 rax, QWORD PTR [rax]
  00062	48 8b 8d b8 00
	00 00		 mov	 rcx, QWORD PTR _Whereptr$[rbp]
  00069	48 2b c8	 sub	 rcx, rax
  0006c	48 8b c1	 mov	 rax, rcx
  0006f	48 99		 cdq
  00071	b9 50 00 00 00	 mov	 ecx, 80			; 00000050H
  00076	48 f7 f9	 idiv	 rcx
  00079	48 89 45 20	 mov	 QWORD PTR _Whereoff$[rbp], rax

; 821  :         const auto _Oldsize  = static_cast<size_type>(_Mylast - _Myfirst);

  0007d	48 8b 45 18	 mov	 rax, QWORD PTR _Mylast$[rbp]
  00081	48 8b 4d 10	 mov	 rcx, QWORD PTR _Myfirst$[rbp]
  00085	48 8b 09	 mov	 rcx, QWORD PTR [rcx]
  00088	48 8b 00	 mov	 rax, QWORD PTR [rax]
  0008b	48 2b c1	 sub	 rax, rcx
  0008e	48 99		 cdq
  00090	b9 50 00 00 00	 mov	 ecx, 80			; 00000050H
  00095	48 f7 f9	 idiv	 rcx
  00098	48 89 45 28	 mov	 QWORD PTR _Oldsize$[rbp], rax

; 822  : 
; 823  :         if (_Oldsize == max_size()) {

  0009c	48 8b 8d b0 00
	00 00		 mov	 rcx, QWORD PTR this$[rbp]
  000a3	e8 00 00 00 00	 call	 ?max_size@?$vector@UFCMDParameter@@V?$allocator@UFCMDParameter@@@std@@@std@@QEBA_KXZ ; std::vector<FCMDParameter,std::allocator<FCMDParameter> >::max_size
  000a8	48 39 45 28	 cmp	 QWORD PTR _Oldsize$[rbp], rax
  000ac	75 05		 jne	 SHORT $LN2@Emplace_re

; 824  :             _Xlength();

  000ae	e8 00 00 00 00	 call	 ?_Xlength@?$vector@UFCMDParameter@@V?$allocator@UFCMDParameter@@@std@@@std@@CAXXZ ; std::vector<FCMDParameter,std::allocator<FCMDParameter> >::_Xlength
$LN2@Emplace_re:

; 825  :         }
; 826  : 
; 827  :         const size_type _Newsize = _Oldsize + 1;

  000b3	48 8b 45 28	 mov	 rax, QWORD PTR _Oldsize$[rbp]
  000b7	48 ff c0	 inc	 rax
  000ba	48 89 45 30	 mov	 QWORD PTR _Newsize$[rbp], rax

; 828  :         size_type _Newcapacity   = _Calculate_growth(_Newsize);

  000be	48 8b 55 30	 mov	 rdx, QWORD PTR _Newsize$[rbp]
  000c2	48 8b 8d b0 00
	00 00		 mov	 rcx, QWORD PTR this$[rbp]
  000c9	e8 00 00 00 00	 call	 ?_Calculate_growth@?$vector@UFCMDParameter@@V?$allocator@UFCMDParameter@@@std@@@std@@AEBA_K_K@Z ; std::vector<FCMDParameter,std::allocator<FCMDParameter> >::_Calculate_growth
  000ce	48 89 45 38	 mov	 QWORD PTR _Newcapacity$[rbp], rax

; 829  : 
; 830  :         const pointer _Newvec           = _Allocate_at_least_helper(_Al, _Newcapacity);

  000d2	48 8d 55 38	 lea	 rdx, QWORD PTR _Newcapacity$[rbp]
  000d6	48 8b 4d 00	 mov	 rcx, QWORD PTR _Al$[rbp]
  000da	e8 00 00 00 00	 call	 ??$_Allocate_at_least_helper@V?$allocator@UFCMDParameter@@@std@@@std@@YAPEAUFCMDParameter@@AEAV?$allocator@UFCMDParameter@@@0@AEA_K@Z ; std::_Allocate_at_least_helper<std::allocator<FCMDParameter> >
  000df	48 89 45 40	 mov	 QWORD PTR _Newvec$[rbp], rax

; 831  :         const pointer _Constructed_last = _Newvec + _Whereoff + 1;

  000e3	48 6b 45 20 50	 imul	 rax, QWORD PTR _Whereoff$[rbp], 80 ; 00000050H
  000e8	48 8b 4d 40	 mov	 rcx, QWORD PTR _Newvec$[rbp]
  000ec	48 8d 44 01 50	 lea	 rax, QWORD PTR [rcx+rax+80]
  000f1	48 89 45 48	 mov	 QWORD PTR _Constructed_last$[rbp], rax

; 832  :         pointer _Constructed_first      = _Constructed_last;

  000f5	48 8b 45 48	 mov	 rax, QWORD PTR _Constructed_last$[rbp]
  000f9	48 89 45 50	 mov	 QWORD PTR _Constructed_first$[rbp], rax

; 833  : 
; 834  :         _TRY_BEGIN
; 835  :         _Alty_traits::construct(_Al, _Unfancy(_Newvec + _Whereoff), _STD forward<_Valty>(_Val)...);

  000fd	48 6b 45 20 50	 imul	 rax, QWORD PTR _Whereoff$[rbp], 80 ; 00000050H
  00102	48 8b 4d 40	 mov	 rcx, QWORD PTR _Newvec$[rbp]
  00106	48 03 c8	 add	 rcx, rax
  00109	48 8b c1	 mov	 rax, rcx
  0010c	48 8b c8	 mov	 rcx, rax
  0010f	e8 00 00 00 00	 call	 ??$_Unfancy@UFCMDParameter@@@std@@YAPEAUFCMDParameter@@PEAU1@@Z ; std::_Unfancy<FCMDParameter>
  00114	4c 8b 85 c0 00
	00 00		 mov	 r8, QWORD PTR <_Val_0>$[rbp]
  0011b	48 8b d0	 mov	 rdx, rax
  0011e	48 8b 4d 00	 mov	 rcx, QWORD PTR _Al$[rbp]
  00122	e8 00 00 00 00	 call	 ??$construct@UFCMDParameter@@AEBU1@@?$_Default_allocator_traits@V?$allocator@UFCMDParameter@@@std@@@std@@SAXAEAV?$allocator@UFCMDParameter@@@1@QEAUFCMDParameter@@AEBU3@@Z ; std::_Default_allocator_traits<std::allocator<FCMDParameter> >::construct<FCMDParameter,FCMDParameter const &>

; 836  :         _Constructed_first = _Newvec + _Whereoff;

  00127	48 6b 45 20 50	 imul	 rax, QWORD PTR _Whereoff$[rbp], 80 ; 00000050H
  0012c	48 8b 4d 40	 mov	 rcx, QWORD PTR _Newvec$[rbp]
  00130	48 03 c8	 add	 rcx, rax
  00133	48 8b c1	 mov	 rax, rcx
  00136	48 89 45 50	 mov	 QWORD PTR _Constructed_first$[rbp], rax

; 837  : 
; 838  :         if (_Whereptr == _Mylast) { // at back, provide strong guarantee

  0013a	48 8b 45 18	 mov	 rax, QWORD PTR _Mylast$[rbp]
  0013e	48 8b 00	 mov	 rax, QWORD PTR [rax]
  00141	48 39 85 b8 00
	00 00		 cmp	 QWORD PTR _Whereptr$[rbp], rax
  00148	75 1d		 jne	 SHORT $LN4@Emplace_re

; 839  :             if constexpr (is_nothrow_move_constructible_v<_Ty> || !is_copy_constructible_v<_Ty>) {
; 840  :                 _Uninitialized_move(_Myfirst, _Mylast, _Newvec, _Al);

  0014a	4c 8b 4d 00	 mov	 r9, QWORD PTR _Al$[rbp]
  0014e	4c 8b 45 40	 mov	 r8, QWORD PTR _Newvec$[rbp]
  00152	48 8b 45 18	 mov	 rax, QWORD PTR _Mylast$[rbp]
  00156	48 8b 10	 mov	 rdx, QWORD PTR [rax]
  00159	48 8b 45 10	 mov	 rax, QWORD PTR _Myfirst$[rbp]
  0015d	48 8b 08	 mov	 rcx, QWORD PTR [rax]
  00160	e8 00 00 00 00	 call	 ??$_Uninitialized_move@PEAUFCMDParameter@@V?$allocator@UFCMDParameter@@@std@@@std@@YAPEAUFCMDParameter@@QEAU1@0PEAU1@AEAV?$allocator@UFCMDParameter@@@0@@Z ; std::_Uninitialized_move<FCMDParameter *,std::allocator<FCMDParameter> >

; 841  :             } else {
; 842  :                 _Uninitialized_copy(_Myfirst, _Mylast, _Newvec, _Al);
; 843  :             }
; 844  :         } else { // provide basic guarantee

  00165	eb 4c		 jmp	 SHORT $LN5@Emplace_re
$LN4@Emplace_re:

; 845  :             _Uninitialized_move(_Myfirst, _Whereptr, _Newvec, _Al);

  00167	4c 8b 4d 00	 mov	 r9, QWORD PTR _Al$[rbp]
  0016b	4c 8b 45 40	 mov	 r8, QWORD PTR _Newvec$[rbp]
  0016f	48 8b 95 b8 00
	00 00		 mov	 rdx, QWORD PTR _Whereptr$[rbp]
  00176	48 8b 45 10	 mov	 rax, QWORD PTR _Myfirst$[rbp]
  0017a	48 8b 08	 mov	 rcx, QWORD PTR [rax]
  0017d	e8 00 00 00 00	 call	 ??$_Uninitialized_move@PEAUFCMDParameter@@V?$allocator@UFCMDParameter@@@std@@@std@@YAPEAUFCMDParameter@@QEAU1@0PEAU1@AEAV?$allocator@UFCMDParameter@@@0@@Z ; std::_Uninitialized_move<FCMDParameter *,std::allocator<FCMDParameter> >

; 846  :             _Constructed_first = _Newvec;

  00182	48 8b 45 40	 mov	 rax, QWORD PTR _Newvec$[rbp]
  00186	48 89 45 50	 mov	 QWORD PTR _Constructed_first$[rbp], rax

; 847  :             _Uninitialized_move(_Whereptr, _Mylast, _Newvec + _Whereoff + 1, _Al);

  0018a	48 6b 45 20 50	 imul	 rax, QWORD PTR _Whereoff$[rbp], 80 ; 00000050H
  0018f	48 8b 4d 40	 mov	 rcx, QWORD PTR _Newvec$[rbp]
  00193	48 8d 44 01 50	 lea	 rax, QWORD PTR [rcx+rax+80]
  00198	4c 8b 4d 00	 mov	 r9, QWORD PTR _Al$[rbp]
  0019c	4c 8b c0	 mov	 r8, rax
  0019f	48 8b 45 18	 mov	 rax, QWORD PTR _Mylast$[rbp]
  001a3	48 8b 10	 mov	 rdx, QWORD PTR [rax]
  001a6	48 8b 8d b8 00
	00 00		 mov	 rcx, QWORD PTR _Whereptr$[rbp]
  001ad	e8 00 00 00 00	 call	 ??$_Uninitialized_move@PEAUFCMDParameter@@V?$allocator@UFCMDParameter@@@std@@@std@@YAPEAUFCMDParameter@@QEAU1@0PEAU1@AEAV?$allocator@UFCMDParameter@@@0@@Z ; std::_Uninitialized_move<FCMDParameter *,std::allocator<FCMDParameter> >
  001b2	90		 npad	 1
$LN5@Emplace_re:
  001b3	eb 00		 jmp	 SHORT $LN9@Emplace_re
$LN10@Emplace_re:
$LN9@Emplace_re:

; 848  :         }
; 849  :         _CATCH_ALL
; 850  :         _Destroy_range(_Constructed_first, _Constructed_last, _Al);
; 851  :         _Al.deallocate(_Newvec, _Newcapacity);
; 852  :         _RERAISE;
; 853  :         _CATCH_END
; 854  : 
; 855  :         _Change_array(_Newvec, _Newsize, _Newcapacity);

  001b5	4c 8b 4d 38	 mov	 r9, QWORD PTR _Newcapacity$[rbp]
  001b9	4c 8b 45 30	 mov	 r8, QWORD PTR _Newsize$[rbp]
  001bd	48 8b 55 40	 mov	 rdx, QWORD PTR _Newvec$[rbp]
  001c1	48 8b 8d b0 00
	00 00		 mov	 rcx, QWORD PTR this$[rbp]
  001c8	e8 00 00 00 00	 call	 ?_Change_array@?$vector@UFCMDParameter@@V?$allocator@UFCMDParameter@@@std@@@std@@AEAAXQEAUFCMDParameter@@_K1@Z ; std::vector<FCMDParameter,std::allocator<FCMDParameter> >::_Change_array

; 856  :         return _Newvec + _Whereoff;

  001cd	48 6b 45 20 50	 imul	 rax, QWORD PTR _Whereoff$[rbp], 80 ; 00000050H
  001d2	48 8b 4d 40	 mov	 rcx, QWORD PTR _Newvec$[rbp]
  001d6	48 03 c8	 add	 rcx, rax
  001d9	48 8b c1	 mov	 rax, rcx

; 857  :     }

  001dc	48 8d a5 a0 00
	00 00		 lea	 rsp, QWORD PTR [rbp+160]
  001e3	5d		 pop	 rbp
  001e4	c3		 ret	 0
$LN11@Emplace_re:
??$_Emplace_reallocate@AEBUFCMDParameter@@@?$vector@UFCMDParameter@@V?$allocator@UFCMDParameter@@@std@@@std@@AEAAPEAUFCMDParameter@@QEAU2@AEBU2@@Z ENDP ; std::vector<FCMDParameter,std::allocator<FCMDParameter> >::_Emplace_reallocate<FCMDParameter const &>
_TEXT	ENDS
; Function compile flags: /Odtp /ZI
;	COMDAT text$x
text$x	SEGMENT
_Al$ = 0
_My_data$ = 8
_Myfirst$ = 16
_Mylast$ = 24
_Whereoff$ = 32
_Oldsize$ = 40
_Newsize$ = 48
_Newcapacity$ = 56
_Newvec$ = 64
_Constructed_last$ = 72
_Constructed_first$ = 80
this$ = 176
_Whereptr$ = 184
<_Val_0>$ = 192
?catch$0@?0???$_Emplace_reallocate@AEBUFCMDParameter@@@?$vector@UFCMDParameter@@V?$allocator@UFCMDParameter@@@std@@@std@@AEAAPEAUFCMDParameter@@QEAU2@AEBU2@@Z@4HA PROC ; `std::vector<FCMDParameter,std::allocator<FCMDParameter> >::_Emplace_reallocate<FCMDParameter const &>'::`1'::catch$0

; 849  :         _CATCH_ALL

  00000	48 89 54 24 10	 mov	 QWORD PTR [rsp+16], rdx
  00005	55		 push	 rbp
  00006	48 83 ec 20	 sub	 rsp, 32			; 00000020H
  0000a	48 8d 6a 20	 lea	 rbp, QWORD PTR [rdx+32]
__catch$??$_Emplace_reallocate@AEBUFCMDParameter@@@?$vector@UFCMDParameter@@V?$allocator@UFCMDParameter@@@std@@@std@@AEAAPEAUFCMDParameter@@QEAU2@AEBU2@@Z$0:

; 850  :         _Destroy_range(_Constructed_first, _Constructed_last, _Al);

  0000e	4c 8b 45 00	 mov	 r8, QWORD PTR _Al$[rbp]
  00012	48 8b 55 48	 mov	 rdx, QWORD PTR _Constructed_last$[rbp]
  00016	48 8b 4d 50	 mov	 rcx, QWORD PTR _Constructed_first$[rbp]
  0001a	e8 00 00 00 00	 call	 ??$_Destroy_range@V?$allocator@UFCMDParameter@@@std@@@std@@YAXPEAUFCMDParameter@@QEAU1@AEAV?$allocator@UFCMDParameter@@@0@@Z ; std::_Destroy_range<std::allocator<FCMDParameter> >

; 851  :         _Al.deallocate(_Newvec, _Newcapacity);

  0001f	4c 8b 45 38	 mov	 r8, QWORD PTR _Newcapacity$[rbp]
  00023	48 8b 55 40	 mov	 rdx, QWORD PTR _Newvec$[rbp]
  00027	48 8b 4d 00	 mov	 rcx, QWORD PTR _Al$[rbp]
  0002b	e8 00 00 00 00	 call	 ?deallocate@?$allocator@UFCMDParameter@@@std@@QEAAXQEAUFCMDParameter@@_K@Z ; std::allocator<FCMDParameter>::deallocate

; 852  :         _RERAISE;

  00030	33 d2		 xor	 edx, edx
  00032	33 c9		 xor	 ecx, ecx
  00034	e8 00 00 00 00	 call	 _CxxThrowException
  00039	90		 npad	 1

; 853  :         _CATCH_END

  0003a	48 8d 05 00 00
	00 00		 lea	 rax, $LN10@catch$0
  00041	48 83 c4 20	 add	 rsp, 32			; 00000020H
  00045	5d		 pop	 rbp
  00046	c3		 ret	 0
  00047	cc		 int	 3
?catch$0@?0???$_Emplace_reallocate@AEBUFCMDParameter@@@?$vector@UFCMDParameter@@V?$allocator@UFCMDParameter@@@std@@@std@@AEAAPEAUFCMDParameter@@QEAU2@AEBU2@@Z@4HA ENDP ; `std::vector<FCMDParameter,std::allocator<FCMDParameter> >::_Emplace_reallocate<FCMDParameter const &>'::`1'::catch$0
text$x	ENDS
; Function compile flags: /Odtp /ZI
; File C:\Program Files\Microsoft Visual Studio\2022\Preview\VC\Tools\MSVC\14.38.33030\include\vector
;	COMDAT ??$_Emplace_back_with_unused_capacity@AEBUFCMDParameter@@@?$vector@UFCMDParameter@@V?$allocator@UFCMDParameter@@@std@@@std@@AEAAAEAUFCMDParameter@@AEBU2@@Z
_TEXT	SEGMENT
_My_data$ = 0
_Mylast$ = 8
_Result$ = 16
tv77 = 88
tv75 = 96
this$ = 128
<_Val_0>$ = 136
??$_Emplace_back_with_unused_capacity@AEBUFCMDParameter@@@?$vector@UFCMDParameter@@V?$allocator@UFCMDParameter@@@std@@@std@@AEAAAEAUFCMDParameter@@AEBU2@@Z PROC ; std::vector<FCMDParameter,std::allocator<FCMDParameter> >::_Emplace_back_with_unused_capacity<FCMDParameter const &>, COMDAT

; 788  :     _CONSTEXPR20 _Ty& _Emplace_back_with_unused_capacity(_Valty&&... _Val) {

$LN3:
  00000	48 89 54 24 10	 mov	 QWORD PTR [rsp+16], rdx
  00005	48 89 4c 24 08	 mov	 QWORD PTR [rsp+8], rcx
  0000a	55		 push	 rbp
  0000b	48 81 ec 90 00
	00 00		 sub	 rsp, 144		; 00000090H
  00012	48 8d 6c 24 20	 lea	 rbp, QWORD PTR [rsp+32]
  00017	48 8d 0d 00 00
	00 00		 lea	 rcx, OFFSET FLAT:__14F7CB70_vector
  0001e	e8 00 00 00 00	 call	 __CheckForDebuggerJustMyCode

; 789  :         // insert by perfectly forwarding into element at end, provide strong guarantee
; 790  :         auto& _My_data   = _Mypair._Myval2;

  00023	48 8b 85 80 00
	00 00		 mov	 rax, QWORD PTR this$[rbp]
  0002a	48 89 45 00	 mov	 QWORD PTR _My_data$[rbp], rax

; 791  :         pointer& _Mylast = _My_data._Mylast;

  0002e	48 8b 45 00	 mov	 rax, QWORD PTR _My_data$[rbp]
  00032	48 83 c0 10	 add	 rax, 16
  00036	48 89 45 08	 mov	 QWORD PTR _Mylast$[rbp], rax

; 792  :         _STL_INTERNAL_CHECK(_Mylast != _My_data._Myend); // check that we have unused capacity
; 793  :         if constexpr (conjunction_v<is_nothrow_constructible<_Ty, _Valty...>,
; 794  :                           _Uses_default_construct<_Alloc, _Ty*, _Valty...>>) {
; 795  :             _ASAN_VECTOR_MODIFY(1);
; 796  :             _Construct_in_place(*_Mylast, _STD forward<_Valty>(_Val)...);
; 797  :         } else {
; 798  :             _ASAN_VECTOR_EXTEND_GUARD(static_cast<size_type>(_Mylast - _My_data._Myfirst) + 1);
; 799  :             _Alty_traits::construct(_Getal(), _Unfancy(_Mylast), _STD forward<_Valty>(_Val)...);

  0003a	48 8b 45 08	 mov	 rax, QWORD PTR _Mylast$[rbp]
  0003e	48 8b 08	 mov	 rcx, QWORD PTR [rax]
  00041	e8 00 00 00 00	 call	 ??$_Unfancy@UFCMDParameter@@@std@@YAPEAUFCMDParameter@@PEAU1@@Z ; std::_Unfancy<FCMDParameter>
  00046	48 89 45 58	 mov	 QWORD PTR tv77[rbp], rax
  0004a	48 8b 8d 80 00
	00 00		 mov	 rcx, QWORD PTR this$[rbp]
  00051	e8 00 00 00 00	 call	 ?_Getal@?$vector@UFCMDParameter@@V?$allocator@UFCMDParameter@@@std@@@std@@AEAAAEAV?$allocator@UFCMDParameter@@@2@XZ ; std::vector<FCMDParameter,std::allocator<FCMDParameter> >::_Getal
  00056	48 89 45 60	 mov	 QWORD PTR tv75[rbp], rax
  0005a	4c 8b 85 88 00
	00 00		 mov	 r8, QWORD PTR <_Val_0>$[rbp]
  00061	48 8b 55 58	 mov	 rdx, QWORD PTR tv77[rbp]
  00065	48 8b 4d 60	 mov	 rcx, QWORD PTR tv75[rbp]
  00069	e8 00 00 00 00	 call	 ??$construct@UFCMDParameter@@AEBU1@@?$_Default_allocator_traits@V?$allocator@UFCMDParameter@@@std@@@std@@SAXAEAV?$allocator@UFCMDParameter@@@1@QEAUFCMDParameter@@AEBU3@@Z ; std::_Default_allocator_traits<std::allocator<FCMDParameter> >::construct<FCMDParameter,FCMDParameter const &>

; 800  :             _ASAN_VECTOR_RELEASE_GUARD;
; 801  :         }
; 802  : 
; 803  :         _Orphan_range(_Mylast, _Mylast);

  0006e	48 8b 45 08	 mov	 rax, QWORD PTR _Mylast$[rbp]
  00072	4c 8b 00	 mov	 r8, QWORD PTR [rax]
  00075	48 8b 45 08	 mov	 rax, QWORD PTR _Mylast$[rbp]
  00079	48 8b 10	 mov	 rdx, QWORD PTR [rax]
  0007c	48 8b 8d 80 00
	00 00		 mov	 rcx, QWORD PTR this$[rbp]
  00083	e8 00 00 00 00	 call	 ?_Orphan_range@?$vector@UFCMDParameter@@V?$allocator@UFCMDParameter@@@std@@@std@@AEBAXPEAUFCMDParameter@@0@Z ; std::vector<FCMDParameter,std::allocator<FCMDParameter> >::_Orphan_range

; 804  :         _Ty& _Result = *_Mylast;

  00088	48 8b 45 08	 mov	 rax, QWORD PTR _Mylast$[rbp]
  0008c	48 8b 00	 mov	 rax, QWORD PTR [rax]
  0008f	48 89 45 10	 mov	 QWORD PTR _Result$[rbp], rax

; 805  :         ++_Mylast;

  00093	48 8b 45 08	 mov	 rax, QWORD PTR _Mylast$[rbp]
  00097	48 8b 00	 mov	 rax, QWORD PTR [rax]
  0009a	48 83 c0 50	 add	 rax, 80			; 00000050H
  0009e	48 8b 4d 08	 mov	 rcx, QWORD PTR _Mylast$[rbp]
  000a2	48 89 01	 mov	 QWORD PTR [rcx], rax

; 806  : 
; 807  :         return _Result;

  000a5	48 8b 45 10	 mov	 rax, QWORD PTR _Result$[rbp]

; 808  :     }

  000a9	48 8d 65 70	 lea	 rsp, QWORD PTR [rbp+112]
  000ad	5d		 pop	 rbp
  000ae	c3		 ret	 0
??$_Emplace_back_with_unused_capacity@AEBUFCMDParameter@@@?$vector@UFCMDParameter@@V?$allocator@UFCMDParameter@@@std@@@std@@AEAAAEAUFCMDParameter@@AEBU2@@Z ENDP ; std::vector<FCMDParameter,std::allocator<FCMDParameter> >::_Emplace_back_with_unused_capacity<FCMDParameter const &>
_TEXT	ENDS
; Function compile flags: /Odtp /ZI
; File C:\Program Files\Microsoft Visual Studio\2022\Preview\VC\Tools\MSVC\14.38.33030\include\xmemory
;	COMDAT ??$_Unfancy@UFCMDParameter@@@std@@YAPEAUFCMDParameter@@PEAU1@@Z
_TEXT	SEGMENT
_Ptr$ = 80
??$_Unfancy@UFCMDParameter@@@std@@YAPEAUFCMDParameter@@PEAU1@@Z PROC ; std::_Unfancy<FCMDParameter>, COMDAT

; 35   : _NODISCARD constexpr _Ty* _Unfancy(_Ty* _Ptr) noexcept { // do nothing for plain pointers

$LN3:
  00000	48 89 4c 24 08	 mov	 QWORD PTR [rsp+8], rcx
  00005	55		 push	 rbp
  00006	48 83 ec 60	 sub	 rsp, 96			; 00000060H
  0000a	48 8d 6c 24 20	 lea	 rbp, QWORD PTR [rsp+32]
  0000f	48 8d 0d 00 00
	00 00		 lea	 rcx, OFFSET FLAT:__67F55BEA_xmemory
  00016	e8 00 00 00 00	 call	 __CheckForDebuggerJustMyCode

; 36   :     return _Ptr;

  0001b	48 8b 45 50	 mov	 rax, QWORD PTR _Ptr$[rbp]

; 37   : }

  0001f	48 8d 65 40	 lea	 rsp, QWORD PTR [rbp+64]
  00023	5d		 pop	 rbp
  00024	c3		 ret	 0
??$_Unfancy@UFCMDParameter@@@std@@YAPEAUFCMDParameter@@PEAU1@@Z ENDP ; std::_Unfancy<FCMDParameter>
_TEXT	ENDS
; Function compile flags: /Odtp /ZI
; File C:\Program Files\Microsoft Visual Studio\2022\Preview\VC\Tools\MSVC\14.38.33030\include\xutility
;	COMDAT ??$construct_at@U_Container_proxy@std@@PEAU_Container_base12@2@$0A@@std@@YAPEAU_Container_proxy@0@QEAU10@$$QEAPEAU_Container_base12@0@@Z
_TEXT	SEGMENT
$T1 = 64
_Location$ = 96
<_Args_0>$ = 104
??$construct_at@U_Container_proxy@std@@PEAU_Container_base12@2@$0A@@std@@YAPEAU_Container_proxy@0@QEAU10@$$QEAPEAU_Container_base12@0@@Z PROC ; std::construct_at<std::_Container_proxy,std::_Container_base12 *,0>, COMDAT

; 241  :     noexcept(::new(static_cast<void*>(_Location)) _Ty(_STD forward<_Types>(_Args)...))) /* strengthened */ {

$LN3:
  00000	48 89 54 24 10	 mov	 QWORD PTR [rsp+16], rdx
  00005	48 89 4c 24 08	 mov	 QWORD PTR [rsp+8], rcx
  0000a	55		 push	 rbp
  0000b	48 83 ec 70	 sub	 rsp, 112		; 00000070H
  0000f	48 8d 6c 24 20	 lea	 rbp, QWORD PTR [rsp+32]
  00014	48 8d 0d 00 00
	00 00		 lea	 rcx, OFFSET FLAT:__B7320FC0_xutility
  0001b	e8 00 00 00 00	 call	 __CheckForDebuggerJustMyCode

; 242  :     _MSVC_CONSTEXPR return ::new (static_cast<void*>(_Location)) _Ty(_STD forward<_Types>(_Args)...);

  00020	48 8b 55 60	 mov	 rdx, QWORD PTR _Location$[rbp]
  00024	b9 10 00 00 00	 mov	 ecx, 16
  00029	e8 00 00 00 00	 call	 ??2@YAPEAX_KPEAX@Z	; operator new
  0002e	48 89 45 40	 mov	 QWORD PTR $T1[rbp], rax
  00032	48 8b 45 68	 mov	 rax, QWORD PTR <_Args_0>$[rbp]
  00036	48 8b 10	 mov	 rdx, QWORD PTR [rax]
  00039	48 8b 4d 40	 mov	 rcx, QWORD PTR $T1[rbp]
  0003d	e8 00 00 00 00	 call	 ??0_Container_proxy@std@@QEAA@PEAU_Container_base12@1@@Z ; std::_Container_proxy::_Container_proxy

; 243  : }

  00042	48 8d 65 50	 lea	 rsp, QWORD PTR [rbp+80]
  00046	5d		 pop	 rbp
  00047	c3		 ret	 0
??$construct_at@U_Container_proxy@std@@PEAU_Container_base12@2@$0A@@std@@YAPEAU_Container_proxy@0@QEAU10@$$QEAPEAU_Container_base12@0@@Z ENDP ; std::construct_at<std::_Container_proxy,std::_Container_base12 *,0>
_TEXT	ENDS
; Function compile flags: /Odtp /ZI
; File C:\Program Files\Microsoft Visual Studio\2022\Preview\VC\Tools\MSVC\14.38.33030\include\type_traits
;	COMDAT ??$addressof@U_Container_proxy@std@@@std@@YAPEAU_Container_proxy@0@AEAU10@@Z
_TEXT	SEGMENT
_Val$ = 80
??$addressof@U_Container_proxy@std@@@std@@YAPEAU_Container_proxy@0@AEAU10@@Z PROC ; std::addressof<std::_Container_proxy>, COMDAT

; 1589 : _NODISCARD constexpr _Ty* addressof(_Ty& _Val) noexcept {

$LN3:
  00000	48 89 4c 24 08	 mov	 QWORD PTR [rsp+8], rcx
  00005	55		 push	 rbp
  00006	48 83 ec 60	 sub	 rsp, 96			; 00000060H
  0000a	48 8d 6c 24 20	 lea	 rbp, QWORD PTR [rsp+32]
  0000f	48 8d 0d 00 00
	00 00		 lea	 rcx, OFFSET FLAT:__3DF2A533_type_traits
  00016	e8 00 00 00 00	 call	 __CheckForDebuggerJustMyCode

; 1590 :     return __builtin_addressof(_Val);

  0001b	48 8b 45 50	 mov	 rax, QWORD PTR _Val$[rbp]

; 1591 : }

  0001f	48 8d 65 40	 lea	 rsp, QWORD PTR [rbp+64]
  00023	5d		 pop	 rbp
  00024	c3		 ret	 0
??$addressof@U_Container_proxy@std@@@std@@YAPEAU_Container_proxy@0@AEAU10@@Z ENDP ; std::addressof<std::_Container_proxy>
_TEXT	ENDS
; Function compile flags: /Odtp /ZI
; File C:\Program Files\Microsoft Visual Studio\2022\Preview\VC\Tools\MSVC\14.38.33030\include\xutility
;	COMDAT ??$construct_at@DAEBD$0A@@std@@YAPEADQEADAEBD@Z
_TEXT	SEGMENT
$T1 = 64
_Location$ = 96
<_Args_0>$ = 104
??$construct_at@DAEBD$0A@@std@@YAPEADQEADAEBD@Z PROC	; std::construct_at<char,char const &,0>, COMDAT

; 241  :     noexcept(::new(static_cast<void*>(_Location)) _Ty(_STD forward<_Types>(_Args)...))) /* strengthened */ {

$LN3:
  00000	48 89 54 24 10	 mov	 QWORD PTR [rsp+16], rdx
  00005	48 89 4c 24 08	 mov	 QWORD PTR [rsp+8], rcx
  0000a	55		 push	 rbp
  0000b	48 83 ec 70	 sub	 rsp, 112		; 00000070H
  0000f	48 8d 6c 24 20	 lea	 rbp, QWORD PTR [rsp+32]
  00014	48 8d 0d 00 00
	00 00		 lea	 rcx, OFFSET FLAT:__B7320FC0_xutility
  0001b	e8 00 00 00 00	 call	 __CheckForDebuggerJustMyCode

; 242  :     _MSVC_CONSTEXPR return ::new (static_cast<void*>(_Location)) _Ty(_STD forward<_Types>(_Args)...);

  00020	48 8b 55 60	 mov	 rdx, QWORD PTR _Location$[rbp]
  00024	b9 01 00 00 00	 mov	 ecx, 1
  00029	e8 00 00 00 00	 call	 ??2@YAPEAX_KPEAX@Z	; operator new
  0002e	48 89 45 40	 mov	 QWORD PTR $T1[rbp], rax
  00032	48 8b 45 40	 mov	 rax, QWORD PTR $T1[rbp]
  00036	48 8b 4d 68	 mov	 rcx, QWORD PTR <_Args_0>$[rbp]
  0003a	0f b6 09	 movzx	 ecx, BYTE PTR [rcx]
  0003d	88 08		 mov	 BYTE PTR [rax], cl
  0003f	48 8b 45 40	 mov	 rax, QWORD PTR $T1[rbp]

; 243  : }

  00043	48 8d 65 50	 lea	 rsp, QWORD PTR [rbp+80]
  00047	5d		 pop	 rbp
  00048	c3		 ret	 0
??$construct_at@DAEBD$0A@@std@@YAPEADQEADAEBD@Z ENDP	; std::construct_at<char,char const &,0>
_TEXT	ENDS
; Function compile flags: /Odtp /ZI
; File C:\Program Files\Microsoft Visual Studio\2022\Preview\VC\Tools\MSVC\14.38.33030\include\type_traits
;	COMDAT ??$addressof@D@std@@YAPEADAEAD@Z
_TEXT	SEGMENT
_Val$ = 80
??$addressof@D@std@@YAPEADAEAD@Z PROC			; std::addressof<char>, COMDAT

; 1589 : _NODISCARD constexpr _Ty* addressof(_Ty& _Val) noexcept {

$LN3:
  00000	48 89 4c 24 08	 mov	 QWORD PTR [rsp+8], rcx
  00005	55		 push	 rbp
  00006	48 83 ec 60	 sub	 rsp, 96			; 00000060H
  0000a	48 8d 6c 24 20	 lea	 rbp, QWORD PTR [rsp+32]
  0000f	48 8d 0d 00 00
	00 00		 lea	 rcx, OFFSET FLAT:__3DF2A533_type_traits
  00016	e8 00 00 00 00	 call	 __CheckForDebuggerJustMyCode

; 1590 :     return __builtin_addressof(_Val);

  0001b	48 8b 45 50	 mov	 rax, QWORD PTR _Val$[rbp]

; 1591 : }

  0001f	48 8d 65 40	 lea	 rsp, QWORD PTR [rbp+64]
  00023	5d		 pop	 rbp
  00024	c3		 ret	 0
??$addressof@D@std@@YAPEADAEAD@Z ENDP			; std::addressof<char>
_TEXT	ENDS
; Function compile flags: /Odtp /ZI
; File C:\Program Files\Microsoft Visual Studio\2022\Preview\VC\Tools\MSVC\14.38.33030\include\type_traits
;	COMDAT ??$addressof@$$CBV?$_String_val@U?$_Simple_types@D@std@@@std@@@std@@YAPEBV?$_String_val@U?$_Simple_types@D@std@@@0@AEBV10@@Z
_TEXT	SEGMENT
_Val$ = 80
??$addressof@$$CBV?$_String_val@U?$_Simple_types@D@std@@@std@@@std@@YAPEBV?$_String_val@U?$_Simple_types@D@std@@@0@AEBV10@@Z PROC ; std::addressof<std::_String_val<std::_Simple_types<char> > const >, COMDAT

; 1589 : _NODISCARD constexpr _Ty* addressof(_Ty& _Val) noexcept {

$LN3:
  00000	48 89 4c 24 08	 mov	 QWORD PTR [rsp+8], rcx
  00005	55		 push	 rbp
  00006	48 83 ec 60	 sub	 rsp, 96			; 00000060H
  0000a	48 8d 6c 24 20	 lea	 rbp, QWORD PTR [rsp+32]
  0000f	48 8d 0d 00 00
	00 00		 lea	 rcx, OFFSET FLAT:__3DF2A533_type_traits
  00016	e8 00 00 00 00	 call	 __CheckForDebuggerJustMyCode

; 1590 :     return __builtin_addressof(_Val);

  0001b	48 8b 45 50	 mov	 rax, QWORD PTR _Val$[rbp]

; 1591 : }

  0001f	48 8d 65 40	 lea	 rsp, QWORD PTR [rbp+64]
  00023	5d		 pop	 rbp
  00024	c3		 ret	 0
??$addressof@$$CBV?$_String_val@U?$_Simple_types@D@std@@@std@@@std@@YAPEBV?$_String_val@U?$_Simple_types@D@std@@@0@AEBV10@@Z ENDP ; std::addressof<std::_String_val<std::_Simple_types<char> > const >
_TEXT	ENDS
; Function compile flags: /Odtp /ZI
; File C:\Program Files\Microsoft Visual Studio\2022\Preview\VC\Tools\MSVC\14.38.33030\include\type_traits
;	COMDAT ??$addressof@V?$_String_val@U?$_Simple_types@D@std@@@std@@@std@@YAPEAV?$_String_val@U?$_Simple_types@D@std@@@0@AEAV10@@Z
_TEXT	SEGMENT
_Val$ = 80
??$addressof@V?$_String_val@U?$_Simple_types@D@std@@@std@@@std@@YAPEAV?$_String_val@U?$_Simple_types@D@std@@@0@AEAV10@@Z PROC ; std::addressof<std::_String_val<std::_Simple_types<char> > >, COMDAT

; 1589 : _NODISCARD constexpr _Ty* addressof(_Ty& _Val) noexcept {

$LN3:
  00000	48 89 4c 24 08	 mov	 QWORD PTR [rsp+8], rcx
  00005	55		 push	 rbp
  00006	48 83 ec 60	 sub	 rsp, 96			; 00000060H
  0000a	48 8d 6c 24 20	 lea	 rbp, QWORD PTR [rsp+32]
  0000f	48 8d 0d 00 00
	00 00		 lea	 rcx, OFFSET FLAT:__3DF2A533_type_traits
  00016	e8 00 00 00 00	 call	 __CheckForDebuggerJustMyCode

; 1590 :     return __builtin_addressof(_Val);

  0001b	48 8b 45 50	 mov	 rax, QWORD PTR _Val$[rbp]

; 1591 : }

  0001f	48 8d 65 40	 lea	 rsp, QWORD PTR [rbp+64]
  00023	5d		 pop	 rbp
  00024	c3		 ret	 0
??$addressof@V?$_String_val@U?$_Simple_types@D@std@@@std@@@std@@YAPEAV?$_String_val@U?$_Simple_types@D@std@@@0@AEAV10@@Z ENDP ; std::addressof<std::_String_val<std::_Simple_types<char> > >
_TEXT	ENDS
; Function compile flags: /Odtp /ZI
; File C:\Program Files\Microsoft Visual Studio\2022\Preview\VC\Tools\MSVC\14.38.33030\include\xmemory
;	COMDAT ??$_Deallocate@$0BA@$0A@@std@@YAXPEAX_K@Z
_TEXT	SEGMENT
_Ptr$ = 80
_Bytes$ = 88
??$_Deallocate@$0BA@$0A@@std@@YAXPEAX_K@Z PROC		; std::_Deallocate<16,0>, COMDAT

; 251  : _CONSTEXPR20 void _Deallocate(void* _Ptr, size_t _Bytes) noexcept {

$LN6:
  00000	48 89 54 24 10	 mov	 QWORD PTR [rsp+16], rdx
  00005	48 89 4c 24 08	 mov	 QWORD PTR [rsp+8], rcx
  0000a	55		 push	 rbp
  0000b	48 83 ec 60	 sub	 rsp, 96			; 00000060H
  0000f	48 8d 6c 24 20	 lea	 rbp, QWORD PTR [rsp+32]
  00014	48 8d 0d 00 00
	00 00		 lea	 rcx, OFFSET FLAT:__67F55BEA_xmemory
  0001b	e8 00 00 00 00	 call	 __CheckForDebuggerJustMyCode

; 252  :     // deallocate storage allocated by _Allocate when !_HAS_ALIGNED_NEW || _Align <= __STDCPP_DEFAULT_NEW_ALIGNMENT__
; 253  : #if _HAS_CXX20 // TRANSITION, GH-1532
; 254  :     if (_STD is_constant_evaluated()) {

  00020	e8 00 00 00 00	 call	 ?is_constant_evaluated@std@@YA_NXZ ; std::is_constant_evaluated
  00025	0f b6 c0	 movzx	 eax, al
  00028	85 c0		 test	 eax, eax
  0002a	74 0b		 je	 SHORT $LN2@Deallocate

; 255  :         ::operator delete(_Ptr);

  0002c	48 8b 4d 50	 mov	 rcx, QWORD PTR _Ptr$[rbp]
  00030	e8 00 00 00 00	 call	 ??3@YAXPEAX@Z		; operator delete

; 256  :     } else

  00035	eb 25		 jmp	 SHORT $LN3@Deallocate
$LN2@Deallocate:

; 257  : #endif // _HAS_CXX20
; 258  :     {
; 259  : #if defined(_M_IX86) || defined(_M_X64)
; 260  :         if (_Bytes >= _Big_allocation_threshold) { // boost the alignment of big allocations to help autovectorization

  00037	48 81 7d 58 00
	10 00 00	 cmp	 QWORD PTR _Bytes$[rbp], 4096 ; 00001000H
  0003f	72 0d		 jb	 SHORT $LN4@Deallocate

; 261  :             _Adjust_manually_vector_aligned(_Ptr, _Bytes);

  00041	48 8d 55 58	 lea	 rdx, QWORD PTR _Bytes$[rbp]
  00045	48 8d 4d 50	 lea	 rcx, QWORD PTR _Ptr$[rbp]
  00049	e8 00 00 00 00	 call	 ?_Adjust_manually_vector_aligned@std@@YAXAEAPEAXAEA_K@Z ; std::_Adjust_manually_vector_aligned
$LN4@Deallocate:

; 262  :         }
; 263  : #endif // defined(_M_IX86) || defined(_M_X64)
; 264  :         ::operator delete(_Ptr, _Bytes);

  0004e	48 8b 55 58	 mov	 rdx, QWORD PTR _Bytes$[rbp]
  00052	48 8b 4d 50	 mov	 rcx, QWORD PTR _Ptr$[rbp]
  00056	e8 00 00 00 00	 call	 ??3@YAXPEAX_K@Z		; operator delete
  0005b	90		 npad	 1
$LN3@Deallocate:

; 265  :     }
; 266  : }

  0005c	48 8d 65 40	 lea	 rsp, QWORD PTR [rbp+64]
  00060	5d		 pop	 rbp
  00061	c3		 ret	 0
??$_Deallocate@$0BA@$0A@@std@@YAXPEAX_K@Z ENDP		; std::_Deallocate<16,0>
_TEXT	ENDS
; Function compile flags: /Odtp /ZI
; File C:\Program Files\Microsoft Visual Studio\2022\Preview\VC\Tools\MSVC\14.38.33030\include\utility
;	COMDAT ??$max@_K@std@@YAAEB_KAEB_K0@Z
_TEXT	SEGMENT
$T1 = 64
tv65 = 72
_Left$ = 96
_Right$ = 104
??$max@_K@std@@YAAEB_KAEB_K0@Z PROC			; std::max<unsigned __int64>, COMDAT

; 75   :     (max) (const _Ty& _Left, const _Ty& _Right) noexcept(noexcept(_Left < _Right)) /* strengthened */ {

$LN5:
  00000	48 89 54 24 10	 mov	 QWORD PTR [rsp+16], rdx
  00005	48 89 4c 24 08	 mov	 QWORD PTR [rsp+8], rcx
  0000a	55		 push	 rbp
  0000b	48 83 ec 70	 sub	 rsp, 112		; 00000070H
  0000f	48 8d 6c 24 20	 lea	 rbp, QWORD PTR [rsp+32]
  00014	48 8d 0d 00 00
	00 00		 lea	 rcx, OFFSET FLAT:__0D603829_utility
  0001b	e8 00 00 00 00	 call	 __CheckForDebuggerJustMyCode

; 76   :     // return larger of _Left and _Right
; 77   :     return _Left < _Right ? _Right : _Left;

  00020	48 8b 45 60	 mov	 rax, QWORD PTR _Left$[rbp]
  00024	48 8b 4d 68	 mov	 rcx, QWORD PTR _Right$[rbp]
  00028	48 8b 09	 mov	 rcx, QWORD PTR [rcx]
  0002b	48 39 08	 cmp	 QWORD PTR [rax], rcx
  0002e	73 0a		 jae	 SHORT $LN3@max
  00030	48 8b 45 68	 mov	 rax, QWORD PTR _Right$[rbp]
  00034	48 89 45 48	 mov	 QWORD PTR tv65[rbp], rax
  00038	eb 08		 jmp	 SHORT $LN4@max
$LN3@max:
  0003a	48 8b 45 60	 mov	 rax, QWORD PTR _Left$[rbp]
  0003e	48 89 45 48	 mov	 QWORD PTR tv65[rbp], rax
$LN4@max:
  00042	48 8b 45 48	 mov	 rax, QWORD PTR tv65[rbp]
  00046	48 89 45 40	 mov	 QWORD PTR $T1[rbp], rax
  0004a	48 8b 45 40	 mov	 rax, QWORD PTR $T1[rbp]

; 78   : }

  0004e	48 8d 65 50	 lea	 rsp, QWORD PTR [rbp+80]
  00052	5d		 pop	 rbp
  00053	c3		 ret	 0
??$max@_K@std@@YAAEB_KAEB_K0@Z ENDP			; std::max<unsigned __int64>
_TEXT	ENDS
; Function compile flags: /Odtp /ZI
; File C:\Program Files\Microsoft Visual Studio\2022\Preview\VC\Tools\MSVC\14.38.33030\include\xmemory
;	COMDAT ??$_Unfancy@D@std@@YAPEADPEAD@Z
_TEXT	SEGMENT
_Ptr$ = 80
??$_Unfancy@D@std@@YAPEADPEAD@Z PROC			; std::_Unfancy<char>, COMDAT

; 35   : _NODISCARD constexpr _Ty* _Unfancy(_Ty* _Ptr) noexcept { // do nothing for plain pointers

$LN3:
  00000	48 89 4c 24 08	 mov	 QWORD PTR [rsp+8], rcx
  00005	55		 push	 rbp
  00006	48 83 ec 60	 sub	 rsp, 96			; 00000060H
  0000a	48 8d 6c 24 20	 lea	 rbp, QWORD PTR [rsp+32]
  0000f	48 8d 0d 00 00
	00 00		 lea	 rcx, OFFSET FLAT:__67F55BEA_xmemory
  00016	e8 00 00 00 00	 call	 __CheckForDebuggerJustMyCode

; 36   :     return _Ptr;

  0001b	48 8b 45 50	 mov	 rax, QWORD PTR _Ptr$[rbp]

; 37   : }

  0001f	48 8d 65 40	 lea	 rsp, QWORD PTR [rbp+64]
  00023	5d		 pop	 rbp
  00024	c3		 ret	 0
??$_Unfancy@D@std@@YAPEADPEAD@Z ENDP			; std::_Unfancy<char>
_TEXT	ENDS
; Function compile flags: /Odtp /ZI
; File C:\Program Files\Microsoft Visual Studio\2022\Preview\VC\Tools\MSVC\14.38.33030\include\xutility
;	COMDAT ??$_Construct_in_place@PEADAEAPEAD@std@@YAXAEAPEAD0@Z
_TEXT	SEGMENT
$T1 = 64
_Obj$ = 96
<_Args_0>$ = 104
??$_Construct_in_place@PEADAEAPEAD@std@@YAXAEAPEAD0@Z PROC ; std::_Construct_in_place<char *,char * &>, COMDAT

; 248  :     is_nothrow_constructible_v<_Ty, _Types...>) {

$LN5:
  00000	48 89 54 24 10	 mov	 QWORD PTR [rsp+16], rdx
  00005	48 89 4c 24 08	 mov	 QWORD PTR [rsp+8], rcx
  0000a	55		 push	 rbp
  0000b	48 83 ec 70	 sub	 rsp, 112		; 00000070H
  0000f	48 8d 6c 24 20	 lea	 rbp, QWORD PTR [rsp+32]
  00014	48 8d 0d 00 00
	00 00		 lea	 rcx, OFFSET FLAT:__B7320FC0_xutility
  0001b	e8 00 00 00 00	 call	 __CheckForDebuggerJustMyCode

; 249  : #if _HAS_CXX20
; 250  :     if (_STD is_constant_evaluated()) {

  00020	e8 00 00 00 00	 call	 ?is_constant_evaluated@std@@YA_NXZ ; std::is_constant_evaluated
  00025	0f b6 c0	 movzx	 eax, al
  00028	85 c0		 test	 eax, eax
  0002a	74 17		 je	 SHORT $LN2@Construct_

; 251  :         _STD construct_at(_STD addressof(_Obj), _STD forward<_Types>(_Args)...);

  0002c	48 8b 4d 60	 mov	 rcx, QWORD PTR _Obj$[rbp]
  00030	e8 00 00 00 00	 call	 ??$addressof@PEAD@std@@YAPEAPEADAEAPEAD@Z ; std::addressof<char *>
  00035	48 8b 55 68	 mov	 rdx, QWORD PTR <_Args_0>$[rbp]
  00039	48 8b c8	 mov	 rcx, rax
  0003c	e8 00 00 00 00	 call	 ??$construct_at@PEADAEAPEAD$0A@@std@@YAPEAPEADQEAPEADAEAPEAD@Z ; std::construct_at<char *,char * &,0>

; 252  :     } else

  00041	eb 28		 jmp	 SHORT $LN3@Construct_
$LN2@Construct_:

; 253  : #endif // _HAS_CXX20
; 254  :     {
; 255  :         ::new (static_cast<void*>(_STD addressof(_Obj))) _Ty(_STD forward<_Types>(_Args)...);

  00043	48 8b 4d 60	 mov	 rcx, QWORD PTR _Obj$[rbp]
  00047	e8 00 00 00 00	 call	 ??$addressof@PEAD@std@@YAPEAPEADAEAPEAD@Z ; std::addressof<char *>
  0004c	48 8b d0	 mov	 rdx, rax
  0004f	b9 08 00 00 00	 mov	 ecx, 8
  00054	e8 00 00 00 00	 call	 ??2@YAPEAX_KPEAX@Z	; operator new
  00059	48 89 45 40	 mov	 QWORD PTR $T1[rbp], rax
  0005d	48 8b 45 40	 mov	 rax, QWORD PTR $T1[rbp]
  00061	48 8b 4d 68	 mov	 rcx, QWORD PTR <_Args_0>$[rbp]
  00065	48 8b 09	 mov	 rcx, QWORD PTR [rcx]
  00068	48 89 08	 mov	 QWORD PTR [rax], rcx
$LN3@Construct_:

; 256  :     }
; 257  : }

  0006b	48 8d 65 50	 lea	 rsp, QWORD PTR [rbp+80]
  0006f	5d		 pop	 rbp
  00070	c3		 ret	 0
??$_Construct_in_place@PEADAEAPEAD@std@@YAXAEAPEAD0@Z ENDP ; std::_Construct_in_place<char *,char * &>
_TEXT	ENDS
; Function compile flags: /Odtp /ZI
; File C:\Program Files\Microsoft Visual Studio\2022\Preview\VC\Tools\MSVC\14.38.33030\include\xstring
;	COMDAT ??$_Reallocate_for@V<lambda_1>@?1??assign@?$basic_string@DU?$char_traits@D@std@@V?$allocator@D@2@@std@@QEAAAEAV34@QEBD_K@Z@PEBD@?$basic_string@DU?$char_traits@D@std@@V?$allocator@D@2@@std@@AEAAAEAV01@_KV<lambda_1>@?1??assign@01@QEAAAEAV01@QEBD0@Z@PEBD@Z
_TEXT	SEGMENT
_Old_capacity$ = 0
_New_capacity$ = 8
_Al$ = 16
_New_ptr$ = 24
tv88 = 96
tv86 = 104
this$ = 128
_New_size$ = 136
_Fn$ = 144
<_Args_0>$ = 152
??$_Reallocate_for@V<lambda_1>@?1??assign@?$basic_string@DU?$char_traits@D@std@@V?$allocator@D@2@@std@@QEAAAEAV34@QEBD_K@Z@PEBD@?$basic_string@DU?$char_traits@D@std@@V?$allocator@D@2@@std@@AEAAAEAV01@_KV<lambda_1>@?1??assign@01@QEAAAEAV01@QEBD0@Z@PEBD@Z PROC ; std::basic_string<char,std::char_traits<char>,std::allocator<char> >::_Reallocate_for<`std::basic_string<char,std::char_traits<char>,std::allocator<char> >::assign'::`2'::<lambda_1>,char const *>, COMDAT

; 4744 :     _CONSTEXPR20 basic_string& _Reallocate_for(const size_type _New_size, _Fty _Fn, _ArgTys... _Args) {

$LN6:
  00000	4c 89 4c 24 20	 mov	 QWORD PTR [rsp+32], r9
  00005	44 88 44 24 18	 mov	 BYTE PTR [rsp+24], r8b
  0000a	48 89 54 24 10	 mov	 QWORD PTR [rsp+16], rdx
  0000f	48 89 4c 24 08	 mov	 QWORD PTR [rsp+8], rcx
  00014	55		 push	 rbp
  00015	48 81 ec 90 00
	00 00		 sub	 rsp, 144		; 00000090H
  0001c	48 8d 6c 24 20	 lea	 rbp, QWORD PTR [rsp+32]
  00021	48 8d 0d 00 00
	00 00		 lea	 rcx, OFFSET FLAT:__1326DD76_xstring
  00028	e8 00 00 00 00	 call	 __CheckForDebuggerJustMyCode

; 4745 :         // reallocate to store exactly _New_size elements, new buffer prepared by
; 4746 :         // _Fn(_New_ptr, _New_size, _Args...)
; 4747 :         if (_New_size > max_size()) {

  0002d	48 8b 8d 80 00
	00 00		 mov	 rcx, QWORD PTR this$[rbp]
  00034	e8 00 00 00 00	 call	 ?max_size@?$basic_string@DU?$char_traits@D@std@@V?$allocator@D@2@@std@@QEBA_KXZ ; std::basic_string<char,std::char_traits<char>,std::allocator<char> >::max_size
  00039	48 39 85 88 00
	00 00		 cmp	 QWORD PTR _New_size$[rbp], rax
  00040	76 05		 jbe	 SHORT $LN2@Reallocate

; 4748 :             _Xlen_string(); // result too long

  00042	e8 00 00 00 00	 call	 ?_Xlen_string@std@@YAXXZ ; std::_Xlen_string
$LN2@Reallocate:

; 4749 :         }
; 4750 : 
; 4751 :         const size_type _Old_capacity = _Mypair._Myval2._Myres;

  00047	48 8b 85 80 00
	00 00		 mov	 rax, QWORD PTR this$[rbp]
  0004e	48 8b 40 20	 mov	 rax, QWORD PTR [rax+32]
  00052	48 89 45 00	 mov	 QWORD PTR _Old_capacity$[rbp], rax

; 4752 :         size_type _New_capacity       = _Calculate_growth(_New_size);

  00056	48 8b 95 88 00
	00 00		 mov	 rdx, QWORD PTR _New_size$[rbp]
  0005d	48 8b 8d 80 00
	00 00		 mov	 rcx, QWORD PTR this$[rbp]
  00064	e8 00 00 00 00	 call	 ?_Calculate_growth@?$basic_string@DU?$char_traits@D@std@@V?$allocator@D@2@@std@@AEBA_K_K@Z ; std::basic_string<char,std::char_traits<char>,std::allocator<char> >::_Calculate_growth
  00069	48 89 45 08	 mov	 QWORD PTR _New_capacity$[rbp], rax

; 4753 :         auto& _Al                     = _Getal();

  0006d	48 8b 8d 80 00
	00 00		 mov	 rcx, QWORD PTR this$[rbp]
  00074	e8 00 00 00 00	 call	 ?_Getal@?$basic_string@DU?$char_traits@D@std@@V?$allocator@D@2@@std@@AEAAAEAV?$allocator@D@2@XZ ; std::basic_string<char,std::char_traits<char>,std::allocator<char> >::_Getal
  00079	48 89 45 10	 mov	 QWORD PTR _Al$[rbp], rax

; 4754 :         ++_New_capacity;

  0007d	48 8b 45 08	 mov	 rax, QWORD PTR _New_capacity$[rbp]
  00081	48 ff c0	 inc	 rax
  00084	48 89 45 08	 mov	 QWORD PTR _New_capacity$[rbp], rax

; 4755 :         const pointer _New_ptr = _Allocate_at_least_helper(_Al, _New_capacity); // throws

