; Listing generated by Microsoft (R) Optimizing Compiler Version 19.38.33030.0 

include listing.inc

INCLUDELIB MSVCRTD
INCLUDELIB OLDNAMES

PUBLIC	?g_XMSinCoefficients0@DirectX@@3UXMVECTORF32@1@B ; DirectX::g_XMSinCoefficients0
PUBLIC	?g_XMSinCoefficients1@DirectX@@3UXMVECTORF32@1@B ; DirectX::g_XMSinCoefficients1
PUBLIC	?g_XMCosCoefficients0@DirectX@@3UXMVECTORF32@1@B ; DirectX::g_XMCosCoefficients0
PUBLIC	?g_XMCosCoefficients1@DirectX@@3UXMVECTORF32@1@B ; DirectX::g_XMCosCoefficients1
PUBLIC	?g_XMTanCoefficients0@DirectX@@3UXMVECTORF32@1@B ; DirectX::g_XMTanCoefficients0
PUBLIC	?g_XMTanCoefficients1@DirectX@@3UXMVECTORF32@1@B ; DirectX::g_XMTanCoefficients1
PUBLIC	?g_XMTanCoefficients2@DirectX@@3UXMVECTORF32@1@B ; DirectX::g_XMTanCoefficients2
PUBLIC	?g_XMArcCoefficients0@DirectX@@3UXMVECTORF32@1@B ; DirectX::g_XMArcCoefficients0
PUBLIC	?g_XMArcCoefficients1@DirectX@@3UXMVECTORF32@1@B ; DirectX::g_XMArcCoefficients1
PUBLIC	?g_XMATanCoefficients0@DirectX@@3UXMVECTORF32@1@B ; DirectX::g_XMATanCoefficients0
PUBLIC	?g_XMATanCoefficients1@DirectX@@3UXMVECTORF32@1@B ; DirectX::g_XMATanCoefficients1
PUBLIC	?g_XMATanEstCoefficients0@DirectX@@3UXMVECTORF32@1@B ; DirectX::g_XMATanEstCoefficients0
PUBLIC	?g_XMATanEstCoefficients1@DirectX@@3UXMVECTORF32@1@B ; DirectX::g_XMATanEstCoefficients1
PUBLIC	?g_XMTanEstCoefficients@DirectX@@3UXMVECTORF32@1@B ; DirectX::g_XMTanEstCoefficients
PUBLIC	?g_XMArcEstCoefficients@DirectX@@3UXMVECTORF32@1@B ; DirectX::g_XMArcEstCoefficients
PUBLIC	?g_XMPiConstants0@DirectX@@3UXMVECTORF32@1@B	; DirectX::g_XMPiConstants0
PUBLIC	?g_XMIdentityR0@DirectX@@3UXMVECTORF32@1@B	; DirectX::g_XMIdentityR0
PUBLIC	?g_XMIdentityR1@DirectX@@3UXMVECTORF32@1@B	; DirectX::g_XMIdentityR1
PUBLIC	?g_XMIdentityR2@DirectX@@3UXMVECTORF32@1@B	; DirectX::g_XMIdentityR2
PUBLIC	?g_XMIdentityR3@DirectX@@3UXMVECTORF32@1@B	; DirectX::g_XMIdentityR3
PUBLIC	?g_XMNegIdentityR0@DirectX@@3UXMVECTORF32@1@B	; DirectX::g_XMNegIdentityR0
PUBLIC	?g_XMNegIdentityR1@DirectX@@3UXMVECTORF32@1@B	; DirectX::g_XMNegIdentityR1
PUBLIC	?g_XMNegIdentityR2@DirectX@@3UXMVECTORF32@1@B	; DirectX::g_XMNegIdentityR2
PUBLIC	?g_XMNegIdentityR3@DirectX@@3UXMVECTORF32@1@B	; DirectX::g_XMNegIdentityR3
PUBLIC	?g_XMNegativeZero@DirectX@@3UXMVECTORU32@1@B	; DirectX::g_XMNegativeZero
PUBLIC	?g_XMNegate3@DirectX@@3UXMVECTORU32@1@B		; DirectX::g_XMNegate3
PUBLIC	?g_XMMaskXY@DirectX@@3UXMVECTORU32@1@B		; DirectX::g_XMMaskXY
PUBLIC	?g_XMMask3@DirectX@@3UXMVECTORU32@1@B		; DirectX::g_XMMask3
PUBLIC	?g_XMMaskX@DirectX@@3UXMVECTORU32@1@B		; DirectX::g_XMMaskX
PUBLIC	?g_XMMaskY@DirectX@@3UXMVECTORU32@1@B		; DirectX::g_XMMaskY
PUBLIC	?g_XMMaskZ@DirectX@@3UXMVECTORU32@1@B		; DirectX::g_XMMaskZ
PUBLIC	?g_XMMaskW@DirectX@@3UXMVECTORU32@1@B		; DirectX::g_XMMaskW
PUBLIC	?g_XMOne@DirectX@@3UXMVECTORF32@1@B		; DirectX::g_XMOne
PUBLIC	?g_XMOne3@DirectX@@3UXMVECTORF32@1@B		; DirectX::g_XMOne3
PUBLIC	?g_XMZero@DirectX@@3UXMVECTORF32@1@B		; DirectX::g_XMZero
PUBLIC	?g_XMTwo@DirectX@@3UXMVECTORF32@1@B		; DirectX::g_XMTwo
PUBLIC	?g_XMFour@DirectX@@3UXMVECTORF32@1@B		; DirectX::g_XMFour
PUBLIC	?g_XMSix@DirectX@@3UXMVECTORF32@1@B		; DirectX::g_XMSix
PUBLIC	?g_XMNegativeOne@DirectX@@3UXMVECTORF32@1@B	; DirectX::g_XMNegativeOne
PUBLIC	?g_XMOneHalf@DirectX@@3UXMVECTORF32@1@B		; DirectX::g_XMOneHalf
PUBLIC	?g_XMNegativeOneHalf@DirectX@@3UXMVECTORF32@1@B	; DirectX::g_XMNegativeOneHalf
PUBLIC	?g_XMNegativeTwoPi@DirectX@@3UXMVECTORF32@1@B	; DirectX::g_XMNegativeTwoPi
PUBLIC	?g_XMNegativePi@DirectX@@3UXMVECTORF32@1@B	; DirectX::g_XMNegativePi
PUBLIC	?g_XMHalfPi@DirectX@@3UXMVECTORF32@1@B		; DirectX::g_XMHalfPi
PUBLIC	?g_XMPi@DirectX@@3UXMVECTORF32@1@B		; DirectX::g_XMPi
PUBLIC	?g_XMReciprocalPi@DirectX@@3UXMVECTORF32@1@B	; DirectX::g_XMReciprocalPi
PUBLIC	?g_XMTwoPi@DirectX@@3UXMVECTORF32@1@B		; DirectX::g_XMTwoPi
PUBLIC	?g_XMReciprocalTwoPi@DirectX@@3UXMVECTORF32@1@B	; DirectX::g_XMReciprocalTwoPi
PUBLIC	?g_XMEpsilon@DirectX@@3UXMVECTORF32@1@B		; DirectX::g_XMEpsilon
PUBLIC	?g_XMInfinity@DirectX@@3UXMVECTORI32@1@B	; DirectX::g_XMInfinity
PUBLIC	?g_XMQNaN@DirectX@@3UXMVECTORI32@1@B		; DirectX::g_XMQNaN
PUBLIC	?g_XMQNaNTest@DirectX@@3UXMVECTORI32@1@B	; DirectX::g_XMQNaNTest
PUBLIC	?g_XMAbsMask@DirectX@@3UXMVECTORI32@1@B		; DirectX::g_XMAbsMask
PUBLIC	?g_XMFltMin@DirectX@@3UXMVECTORI32@1@B		; DirectX::g_XMFltMin
PUBLIC	?g_XMFltMax@DirectX@@3UXMVECTORI32@1@B		; DirectX::g_XMFltMax
PUBLIC	?g_XMNegOneMask@DirectX@@3UXMVECTORU32@1@B	; DirectX::g_XMNegOneMask
PUBLIC	?g_XMMaskA8R8G8B8@DirectX@@3UXMVECTORU32@1@B	; DirectX::g_XMMaskA8R8G8B8
PUBLIC	?g_XMFlipA8R8G8B8@DirectX@@3UXMVECTORU32@1@B	; DirectX::g_XMFlipA8R8G8B8
PUBLIC	?g_XMFixAA8R8G8B8@DirectX@@3UXMVECTORF32@1@B	; DirectX::g_XMFixAA8R8G8B8
PUBLIC	?g_XMNormalizeA8R8G8B8@DirectX@@3UXMVECTORF32@1@B ; DirectX::g_XMNormalizeA8R8G8B8
PUBLIC	?g_XMMaskA2B10G10R10@DirectX@@3UXMVECTORU32@1@B	; DirectX::g_XMMaskA2B10G10R10
PUBLIC	?g_XMFlipA2B10G10R10@DirectX@@3UXMVECTORU32@1@B	; DirectX::g_XMFlipA2B10G10R10
PUBLIC	?g_XMFixAA2B10G10R10@DirectX@@3UXMVECTORF32@1@B	; DirectX::g_XMFixAA2B10G10R10
PUBLIC	?g_XMNormalizeA2B10G10R10@DirectX@@3UXMVECTORF32@1@B ; DirectX::g_XMNormalizeA2B10G10R10
PUBLIC	?g_XMMaskX16Y16@DirectX@@3UXMVECTORU32@1@B	; DirectX::g_XMMaskX16Y16
PUBLIC	?g_XMFlipX16Y16@DirectX@@3UXMVECTORI32@1@B	; DirectX::g_XMFlipX16Y16
PUBLIC	?g_XMFixX16Y16@DirectX@@3UXMVECTORF32@1@B	; DirectX::g_XMFixX16Y16
PUBLIC	?g_XMNormalizeX16Y16@DirectX@@3UXMVECTORF32@1@B	; DirectX::g_XMNormalizeX16Y16
PUBLIC	?g_XMMaskX16Y16Z16W16@DirectX@@3UXMVECTORU32@1@B ; DirectX::g_XMMaskX16Y16Z16W16
PUBLIC	?g_XMFlipX16Y16Z16W16@DirectX@@3UXMVECTORI32@1@B ; DirectX::g_XMFlipX16Y16Z16W16
PUBLIC	?g_XMFixX16Y16Z16W16@DirectX@@3UXMVECTORF32@1@B	; DirectX::g_XMFixX16Y16Z16W16
PUBLIC	?g_XMNormalizeX16Y16Z16W16@DirectX@@3UXMVECTORF32@1@B ; DirectX::g_XMNormalizeX16Y16Z16W16
PUBLIC	?g_XMNoFraction@DirectX@@3UXMVECTORF32@1@B	; DirectX::g_XMNoFraction
PUBLIC	?g_XMMaskByte@DirectX@@3UXMVECTORI32@1@B	; DirectX::g_XMMaskByte
PUBLIC	?g_XMNegateX@DirectX@@3UXMVECTORF32@1@B		; DirectX::g_XMNegateX
PUBLIC	?g_XMNegateY@DirectX@@3UXMVECTORF32@1@B		; DirectX::g_XMNegateY
PUBLIC	?g_XMNegateZ@DirectX@@3UXMVECTORF32@1@B		; DirectX::g_XMNegateZ
PUBLIC	?g_XMNegateW@DirectX@@3UXMVECTORF32@1@B		; DirectX::g_XMNegateW
PUBLIC	?g_XMSelect0101@DirectX@@3UXMVECTORU32@1@B	; DirectX::g_XMSelect0101
PUBLIC	?g_XMSelect1010@DirectX@@3UXMVECTORU32@1@B	; DirectX::g_XMSelect1010
PUBLIC	?g_XMOneHalfMinusEpsilon@DirectX@@3UXMVECTORI32@1@B ; DirectX::g_XMOneHalfMinusEpsilon
PUBLIC	?g_XMSelect1000@DirectX@@3UXMVECTORU32@1@B	; DirectX::g_XMSelect1000
PUBLIC	?g_XMSelect1100@DirectX@@3UXMVECTORU32@1@B	; DirectX::g_XMSelect1100
PUBLIC	?g_XMSelect1110@DirectX@@3UXMVECTORU32@1@B	; DirectX::g_XMSelect1110
PUBLIC	?g_XMSelect1011@DirectX@@3UXMVECTORU32@1@B	; DirectX::g_XMSelect1011
PUBLIC	?g_XMFixupY16@DirectX@@3UXMVECTORF32@1@B	; DirectX::g_XMFixupY16
PUBLIC	?g_XMFixupY16W16@DirectX@@3UXMVECTORF32@1@B	; DirectX::g_XMFixupY16W16
PUBLIC	?g_XMFlipY@DirectX@@3UXMVECTORU32@1@B		; DirectX::g_XMFlipY
PUBLIC	?g_XMFlipZ@DirectX@@3UXMVECTORU32@1@B		; DirectX::g_XMFlipZ
PUBLIC	?g_XMFlipW@DirectX@@3UXMVECTORU32@1@B		; DirectX::g_XMFlipW
PUBLIC	?g_XMFlipYZ@DirectX@@3UXMVECTORU32@1@B		; DirectX::g_XMFlipYZ
PUBLIC	?g_XMFlipZW@DirectX@@3UXMVECTORU32@1@B		; DirectX::g_XMFlipZW
PUBLIC	?g_XMFlipYW@DirectX@@3UXMVECTORU32@1@B		; DirectX::g_XMFlipYW
PUBLIC	?g_XMMaskDec4@DirectX@@3UXMVECTORI32@1@B	; DirectX::g_XMMaskDec4
PUBLIC	?g_XMXorDec4@DirectX@@3UXMVECTORI32@1@B		; DirectX::g_XMXorDec4
PUBLIC	?g_XMAddUDec4@DirectX@@3UXMVECTORF32@1@B	; DirectX::g_XMAddUDec4
PUBLIC	?g_XMAddDec4@DirectX@@3UXMVECTORF32@1@B		; DirectX::g_XMAddDec4
PUBLIC	?g_XMMulDec4@DirectX@@3UXMVECTORF32@1@B		; DirectX::g_XMMulDec4
PUBLIC	?g_XMMaskByte4@DirectX@@3UXMVECTORU32@1@B	; DirectX::g_XMMaskByte4
PUBLIC	?g_XMXorByte4@DirectX@@3UXMVECTORI32@1@B	; DirectX::g_XMXorByte4
PUBLIC	?g_XMAddByte4@DirectX@@3UXMVECTORF32@1@B	; DirectX::g_XMAddByte4
PUBLIC	?g_XMFixUnsigned@DirectX@@3UXMVECTORF32@1@B	; DirectX::g_XMFixUnsigned
PUBLIC	?g_XMMaxInt@DirectX@@3UXMVECTORF32@1@B		; DirectX::g_XMMaxInt
PUBLIC	?g_XMMaxUInt@DirectX@@3UXMVECTORF32@1@B		; DirectX::g_XMMaxUInt
PUBLIC	?g_XMUnsignedFix@DirectX@@3UXMVECTORF32@1@B	; DirectX::g_XMUnsignedFix
PUBLIC	?g_XMsrgbScale@DirectX@@3UXMVECTORF32@1@B	; DirectX::g_XMsrgbScale
PUBLIC	?g_XMsrgbA@DirectX@@3UXMVECTORF32@1@B		; DirectX::g_XMsrgbA
PUBLIC	?g_XMsrgbA1@DirectX@@3UXMVECTORF32@1@B		; DirectX::g_XMsrgbA1
PUBLIC	?g_XMExponentBias@DirectX@@3UXMVECTORI32@1@B	; DirectX::g_XMExponentBias
PUBLIC	?g_XMSubnormalExponent@DirectX@@3UXMVECTORI32@1@B ; DirectX::g_XMSubnormalExponent
PUBLIC	?g_XMNumTrailing@DirectX@@3UXMVECTORI32@1@B	; DirectX::g_XMNumTrailing
PUBLIC	?g_XMMinNormal@DirectX@@3UXMVECTORI32@1@B	; DirectX::g_XMMinNormal
PUBLIC	?g_XMNegInfinity@DirectX@@3UXMVECTORU32@1@B	; DirectX::g_XMNegInfinity
PUBLIC	?g_XMNegQNaN@DirectX@@3UXMVECTORU32@1@B		; DirectX::g_XMNegQNaN
PUBLIC	?g_XMBin128@DirectX@@3UXMVECTORI32@1@B		; DirectX::g_XMBin128
PUBLIC	?g_XMBinNeg150@DirectX@@3UXMVECTORU32@1@B	; DirectX::g_XMBinNeg150
PUBLIC	?g_XM253@DirectX@@3UXMVECTORI32@1@B		; DirectX::g_XM253
PUBLIC	?g_XMExpEst1@DirectX@@3UXMVECTORF32@1@B		; DirectX::g_XMExpEst1
PUBLIC	?g_XMExpEst2@DirectX@@3UXMVECTORF32@1@B		; DirectX::g_XMExpEst2
PUBLIC	?g_XMExpEst3@DirectX@@3UXMVECTORF32@1@B		; DirectX::g_XMExpEst3
PUBLIC	?g_XMExpEst4@DirectX@@3UXMVECTORF32@1@B		; DirectX::g_XMExpEst4
PUBLIC	?g_XMExpEst5@DirectX@@3UXMVECTORF32@1@B		; DirectX::g_XMExpEst5
PUBLIC	?g_XMExpEst6@DirectX@@3UXMVECTORF32@1@B		; DirectX::g_XMExpEst6
PUBLIC	?g_XMExpEst7@DirectX@@3UXMVECTORF32@1@B		; DirectX::g_XMExpEst7
PUBLIC	?g_XMLogEst0@DirectX@@3UXMVECTORF32@1@B		; DirectX::g_XMLogEst0
PUBLIC	?g_XMLogEst1@DirectX@@3UXMVECTORF32@1@B		; DirectX::g_XMLogEst1
PUBLIC	?g_XMLogEst2@DirectX@@3UXMVECTORF32@1@B		; DirectX::g_XMLogEst2
PUBLIC	?g_XMLogEst3@DirectX@@3UXMVECTORF32@1@B		; DirectX::g_XMLogEst3
PUBLIC	?g_XMLogEst4@DirectX@@3UXMVECTORF32@1@B		; DirectX::g_XMLogEst4
PUBLIC	?g_XMLogEst5@DirectX@@3UXMVECTORF32@1@B		; DirectX::g_XMLogEst5
PUBLIC	?g_XMLogEst6@DirectX@@3UXMVECTORF32@1@B		; DirectX::g_XMLogEst6
PUBLIC	?g_XMLogEst7@DirectX@@3UXMVECTORF32@1@B		; DirectX::g_XMLogEst7
PUBLIC	?g_XMLgE@DirectX@@3UXMVECTORF32@1@B		; DirectX::g_XMLgE
PUBLIC	?g_XMInvLgE@DirectX@@3UXMVECTORF32@1@B		; DirectX::g_XMInvLgE
PUBLIC	?g_XMLg10@DirectX@@3UXMVECTORF32@1@B		; DirectX::g_XMLg10
PUBLIC	?g_XMInvLg10@DirectX@@3UXMVECTORF32@1@B		; DirectX::g_XMInvLg10
PUBLIC	?g_UByteMax@DirectX@@3UXMVECTORF32@1@B		; DirectX::g_UByteMax
PUBLIC	?g_ByteMin@DirectX@@3UXMVECTORF32@1@B		; DirectX::g_ByteMin
PUBLIC	?g_ByteMax@DirectX@@3UXMVECTORF32@1@B		; DirectX::g_ByteMax
PUBLIC	?g_ShortMin@DirectX@@3UXMVECTORF32@1@B		; DirectX::g_ShortMin
PUBLIC	?g_ShortMax@DirectX@@3UXMVECTORF32@1@B		; DirectX::g_ShortMax
PUBLIC	?g_UShortMax@DirectX@@3UXMVECTORF32@1@B		; DirectX::g_UShortMax
PUBLIC	__pobjectentryfirst
PUBLIC	__pobjectentrymid
PUBLIC	__pobjectentrylast
PUBLIC	?DefaultDelegateCheckMode@WRL@Microsoft@@3W4DelegateCheckMode@12@B ; Microsoft::WRL::DefaultDelegateCheckMode
PUBLIC	?D3D12_DEFAULT@@3UCD3DX12_DEFAULT@@B		; D3D12_DEFAULT
PUBLIC	IID_IXAudio2Extension
PUBLIC	IID_IXAudio2
msvcjmc	SEGMENT
__0ED14FEE_winpackagefamily@h DB 01H
__F92EF742_winapifamily@h DB 01H
__22E515EB_sdkddkver@h DB 01H
__4A250794_concurrencysal@h DB 01H
__64794009_sal@h DB 01H
__A3E7195B_vadefs@h DB 01H
__978626E5_vcruntime@h DB 01H
__73193115_excpt@h DB 01H
__EF35C9F2_stdarg@h DB 01H
__29F49F40_specstrings_undef@h DB 01H
__D0F42932_specstrings_strict@h DB 01H
__F00405FD_sdv_driverspecs@h DB 01H
__173E09CA_driverspecs@h DB 01H
__9A452361_specstrings@h DB 01H
__1B0272D9_corecrt@h DB 01H
__74484FB3_corecrt_wctype@h DB 01H
__1EC467ED_ctype@h DB 01H
__98517906_kernelspecs@h DB 01H
__D3497022_basetsd@h DB 01H
__61CC25A1_errno@h DB 01H
__4CB5F942_vcruntime_string@h DB 01H
__E4C945B4_corecrt_memcpy_s@h DB 01H
__8EAFF484_corecrt_memory@h DB 01H
__6490AEC5_corecrt_wstring@h DB 01H
__E8295E1E_string@h DB 01H
__7FCB5136_guiddef@h DB 01H
__FF8A9E11_pshpack4@h DB 01H
__D5438902_poppack@h DB 01H
__FB07E2A3_pshpack2@h DB 01H
__F6906775_pshpack8@h DB 01H
__F9415CFA_pshpack1@h DB 01H
__E58C6F1C_apiset@h DB 01H
__A5C52262_ktmtypes@h DB 01H
__FBBA8F9D_winnt@h DB 01H
__A32D3D2C_minwindef@h DB 01H
__7D798299_windef@h DB 01H
__9AE108E9_apisetcconv@h DB 01H
__9CE53D2C_minwinbase@h DB 01H
__5D0AA210_apiquery2@h DB 01H
__4DD4E726_processenv@h DB 01H
__3575CC96_fileapi@h DB 01H
__8EA220E6_fileapifromapp@h DB 01H
__BF9B31FE_debugapi@h DB 01H
__C3AFE134_utilapiset@h DB 01H
__76F69E51_handleapi@h DB 01H
__7E63D784_errhandlingapi@h DB 01H
__FFA7003C_fibersapi@h DB 01H
__8971CECF_namedpipeapi@h DB 01H
__46C9D8A6_profileapi@h DB 01H
__98D4F0A3_heapapi@h DB 01H
__50EF2A88_ioapiset@h DB 01H
__92EA1464_synchapi@h DB 01H
__A53D8AED_interlockedapi@h DB 01H
__B506CAAF_processthreadsapi@h DB 01H
__FF735694_sysinfoapi@h DB 01H
__29589789_memoryapi@h DB 01H
__E9C7A663_enclaveapi@h DB 01H
__D035F9F7_threadpoollegacyapiset@h DB 01H
__C899130C_threadpoolapiset@h DB 01H
__E0441EE7_jobapi@h DB 01H
__CEF86838_jobapi2@h DB 01H
__35AC6B9A_wow64apiset@h DB 01H
__C8AE41A5_libloaderapi@h DB 01H
__CC9E232D_securitybaseapi@h DB 01H
__C9D0C9B8_namespaceapi@h DB 01H
__30FF9CAD_systemtopologyapi@h DB 01H
__4D358795_processtopologyapi@h DB 01H
__40446D10_securityappcontainer@h DB 01H
__3A952EDF_realtimeapiset@h DB 01H
__F4865F4B_winerror@h DB 01H
__53C1BD93_timezoneapi@h DB 01H
__1FFBEDBF_winbase@h DB 01H
__43D3FA34_wingdi@h DB 01H
__D24A7391_tvout@h DB 01H
__7713A6C8_winuser@h DB 01H
__0B345F71_datetimeapi@h DB 01H
__9AC6960C_winnls@h DB 01H
__973A40A8_stringapiset@h DB 01H
__CC46FEE2_wincontypes@h DB 01H
__97D70BE1_consoleapi@h DB 01H
__27EC5E18_consoleapi2@h DB 01H
__262E342F_consoleapi3@h DB 01H
__641DCD70_wincon@h DB 01H
__5A96C7A7_verrsrc@h DB 01H
__B69C6FF2_winver@h DB 01H
__7AEB8C37_reason@h DB 01H
__59F1A8A9_winreg@h DB 01H
__EE0E2B7F_wnnc@h DB 01H
__DCDB7054_winnetwk@h DB 01H
__EDC72EEB_cderr@h DB 01H
__95F9199D_dde@h DB 01H
__66427627_ddeml@h DB 01H
__957C29A0_dlgs@h DB 01H
__12EA15AF_lzexpand@h DB 01H
__62131F15_mmsyscom@h DB 01H
__47E68D49_mciapi@h DB 01H
__5D7DD356_mmiscapi@h DB 01H
__7223D2EF_mmiscapi2@h DB 01H
__A330DBB3_playsoundapi@h DB 01H
__601B366F_mmeapi@h DB 01H
__1134ADD5_timeapi@h DB 01H
__93F2265A_joystickapi@h DB 01H
__DF6EB4E3_mmsystem@h DB 01H
__BD641FCB_nb30@h DB 01H
__DF8704F0_rpcdcep@h DB 01H
__5C6CA7BB_rpcdce@h DB 01H
__853533C4_rpcnsi@h DB 01H
__2D2406C3_rpcnterr@h DB 01H
__64521D71_rpcasync@h DB 01H
__AADCBA08_rpc@h DB 01H
__19E26CFF_shellapi@h DB 01H
__1E9F31D3_winperf@h DB 01H
__832A4112_inaddr@h DB 01H
__32C6F875_winsock@h DB 01H
__7953A3F8_bcrypt@h DB 01H
__E4169492_ncrypt@h DB 01H
__AF3DDDC3_dpapi@h DB 01H
__D1E23BF2_wincrypt@h DB 01H
__82AB4779_winefs@h DB 01H
__1FE431C9_rpcnsip@h DB 01H
__2B741F2D_rpcsal@h DB 01H
__92623256_rpcndr@h DB 01H
__9C18532E_wtypesbase@h DB 01H
__EA2E1D6D_wtypes@h DB 01H
__7DDD9F45_winioctl@h DB 01H
__E550A843_winsmcrd@h DB 01H
__9809C1BA_winscard@h DB 01H
__EA174FA4_prsht@h DB 01H
__0E1BD114_winspool@h DB 01H
__45DED006_corecrt_malloc@h DB 01H
__13F5961F_stddef@h DB 01H
__FD6DBD68_corecrt_search@h DB 01H
__E2E33A61_corecrt_wstdlib@h DB 01H
__659C5902_limits@h DB 01H
__6E5ACABA_stdlib@h DB 01H
__30B1AFDA_unknwnbase@h DB 01H
__328C1996_objidlbase@h DB 01H
__C4E06B6A_cguid@h DB 01H
__434718C5_combaseapi@h DB 01H
__DE6FDEF1_unknwn@h DB 01H
__CCE0BACC_objidl@h DB 01H
__8C7011E5_oaidl@h DB 01H
__2E0B7863_propidlbase@h DB 01H
__BF4CF2EC_coml2api@h DB 01H
__6D897344_oleidl@h DB 01H
__1129FC2C_servprov@h DB 01H
__757952E4_msxml@h DB 01H
__B1191D53_urlmon@h DB 01H
__404D1A47_propidl@h DB 01H
__A1C63593_objbase@h DB 01H
__C1B0A9CB_oleauto@h DB 01H
__24EAF61F_ole2@h DB 01H
__2B1843DA_commdlg@h DB 01H
__81DDEDE3_stralign@h DB 01H
__2134D1B4_winsvc@h DB 01H
__11C07376_mcx@h DB 01H
__577CE3E7_ime_cmodes@h DB 01H
__1E72C31E_imm@h DB 01H
__E15BF856_windows@h DB 01H
__C868A340_OCIdl@h DB 01H
__90AD1CBB_dxgicommon@h DB 01H
__DBA3F304_dxgiformat@h DB 01H
__4B98FDD9_d3dcommon@h DB 01H
__30CE95B1_d3d12sdklayers@h DB 01H
__AD50D478_d3d12@h DB 01H
__EBD162FD_dxgitype@h DB 01H
__F473F334_dxgi@h DB 01H
__3532CEB3_dxgi1_2@h DB 01H
__34F0A484_dxgi1_3@h DB 01H
__31BFB201_dxgi1_4@h DB 01H
__307DD836_dxgi1_5@h DB 01H
__323B666F_dxgi1_6@h DB 01H
__BB16330F_corecrt_math@h DB 01H
__3BF2A406_math@h DB 01H
__B9985323_float@h DB 01H
__51ADDFC3_intrin0@inl@h DB 01H
__4B899F3E_setjmp@h DB 01H
__A40231C8_mmintrin@h DB 01H
__FA77ED4C_malloc@h DB 01H
__17534AB1_xmmintrin@h DB 01H
__7231C37D_emmintrin@h DB 01H
__AD90ABF4_pmmintrin@h DB 01H
__1D49D876_tmmintrin@h DB 01H
__3472CDF5_smmintrin@h DB 01H
__51104439_nmmintrin@h DB 01H
__84ABBE77_wmmintrin@h DB 01H
__4F3FF370_zmmintrin@h DB 01H
__782B51BA_immintrin@h DB 01H
__C2E8B0FF_ammintrin@h DB 01H
__6DBF2349_intrin@h DB 01H
__19139D6C_assert@h DB 01H
__DBEA773D_stdint@h DB 01H
__85ADA900_DirectXMathConvert@inl DB 01H
__411BBCFA_DirectXMathVector@inl DB 01H
__4AFE615D_DirectXMathMatrix@inl DB 01H
__98B66FFE_DirectXMathMisc@inl DB 01H
__E6E853B5_DirectXMath@h DB 01H
__CAFE1B4D_d3d11shader@h DB 01H
__F3732788_d3d12shader@h DB 01H
__2CACEFC0_d3dcompiler@h DB 01H
__F2FF8333_hstring@h DB 01H
__4BAE0D45_inspectable@h DB 01H
__2E21A007_weakreference@h DB 01H
__ADF9C41F_activation@h DB 01H
__847F1726_roapi@h DB 01H
__0AE89165_def@h DB 01H
__84C50014_vcruntime_new@h DB 01H
__7A6EC116_vcruntime_new_debug@h DB 01H
__935DC21B_crtdbg@h DB 01H
__087FBF63_internal@h DB 01H
__F7423081_client@h DB 01H
__12FD3F40_WinString@h DB 01H
__E5B2708F_crtdefs@h DB 01H
__6F9C91B0_new@h DB 01H
__247BB969_restrictedErrorInfo@h DB 01H
__05F5D399_roerrorapi@h DB 01H
__73CE9EEE_implements@h DB 01H
__94D81D1E_ftm@h DB 01H
__5611F633_intsafe@h DB 01H
__5DD10A16_corewrappers@h DB 01H
__B8B3BDBE_module@h DB 01H
__D6FCE5BE_eventtoken@h DB 01H
__3D51D5E6_event@h DB 01H
__0691033D_wrl@h DB 01H
__B629FA8A_d3dx12@h DB 01H
__DC39B1D9_D3D12@h DB 01H
__B51A3A23_Core@h DB 01H
__B9040E87_Renderer@h DB 01H
__ED560F7A_VertexTypes@h DB 01H
__735B63F8_xkeycheck@h DB 01H
__142C9C9C_yvals_core@h DB 01H
__BE829F50_climits DB 01H
__9A2CA802_xtr1common DB 01H
__FC9FC984_intrin0@h DB 01H
__F3EA4CCC___msvc_bit_utils@hpp DB 01H
__87335CDF_cstdint DB 01H
__3A6DBDA2_cstdlib DB 01H
__3FBCF6F4_cfloat DB 01H
__44420885_corecrt_stdio_config@h DB 01H
__AB601D8D_corecrt_wstdio@h DB 01H
__C1EC35D3_stdio@h DB 01H
__4CF83D73_cstdio DB 01H
__EF1F6BBA_corecrt_wconio@h DB 01H
__3D1D430C_corecrt_wdirect@h DB 01H
__8ECB7138_corecrt_share@h DB 01H
__DB7FEBA6_corecrt_wio@h DB 01H
__9A9F0068_corecrt_wprocess@h DB 01H
__369A9BC3_corecrt_wtime@h DB 01H
__CE789B9D_types@h DB 01H
__9901C817_stat@h DB 01H
__3FCAD62E_wchar@h DB 01H
__D673EB20_cwchar DB 01H
__595ABB90_limits DB 01H
__61229A4B_use_ansi@h DB 01H
__8C2D0B1D_yvals@h DB 01H
__9FA6670F_cstddef DB 01H
__3DF2A533_type_traits DB 01H
__89766DA4_corecrt_terminate@h DB 01H
__35BB339F_eh@h DB 01H
__7280C444_vcruntime_exception@h DB 01H
__2DED1E19_exception DB 01H
__A5D71DBC_new DB 01H
__27E192CF_xatomic@h DB 01H
__50E371A7_initializer_list DB 01H
__339AE60A_concepts DB 01H
__C3788713_compare DB 01H
__0D603829_utility DB 01H
__874288EA___msvc_iter_core@hpp DB 01H
__76FF1542_cstring DB 01H
__B7320FC0_xutility DB 01H
__A0E057FF_tuple DB 01H
__67F55BEA_xmemory DB 01H
__A0A2F5C0_xpolymorphic_allocator@h DB 01H
__C671E263___msvc_sanitizer_annotate_container@hpp DB 01H
__14F7CB70_vector DB 01H
__FBEF5BAE_Array@h DB 01H
__59AEE840_cassert DB 01H
__95B36E16_iosfwd DB 01H
__1326DD76_xstring DB 01H
__A4A32444_stdexcept DB 01H
__EEE0DC84_DescriptorHeap@h DB 01H
__93AC6E75_vcruntime_typeinfo@h DB 01H
__C7EDFCD9_typeinfo DB 01H
__4F9CF3B8_xatomic_wait@h DB 01H
__0A9237D2_time@h DB 01H
__C070D2B6_ctime DB 01H
__01F6EC81_xtimec@h DB 01H
__006CADF8_xthreads@h DB 01H
__326FE752_atomic DB 01H
__E5F4B71E_memory DB 01H
__4333DAD4_cctype DB 01H
__91273182_string DB 01H
__9024636E_DarkString@h DB 01H
__92B9F28F_CommandLine@h DB 01H
__FCC6D126_Delegate@h DB 01H
__7671EFE0_WindowsWindow@h DB 01H
__4C7DEF31_D3D12Types@h DB 01H
__06C34EBE_cmath DB 01H
__52656974_list DB 01H
__B566F9C5_xbit_ops@h DB 01H
__1B8E3698_xnode_handle@h DB 01H
__696C8ED8_xhash DB 01H
__3DA11C4D_unordered_map DB 01H
__98E9BF8D_TUniquePtr@h DB 01H
__EAA52A7A_D3D12Camera@h DB 01H
__68B439B4_D3D12Texture@h DB 01H
__466C4D22_D3D12Utils@h DB 01H
__45275B9D_D3D12Resource@h DB 01H
__C6A116CD_D3D12Render@h DB 01H
__B9FFAD7A_UObject@h DB 01H
__349F89FE_ActorComponent@h DB 01H
__C0395B86_TList@h DB 01H
__1FF1BD98_D3D12Mesh@h DB 01H
__CF36E38C_D3D12Material@h DB 01H
__E9AE02A5_D3D12Model@h DB 01H
__6AE9EDAC_DarkMathUtility@h DB 01H
__7E164BFB_USceneComponent@h DB 01H
__4CA7DCC5_Mouse@h DB 01H
__BF4148EC_Keyboard@h DB 01H
__1B2D56BD_InputCore@h DB 01H
__1A51089F_Actor@h DB 01H
__C9CFF5D2_RotateComponent@h DB 01H
__59F10418_CameraActor@h DB 01H
__4C3DB073_D3D12Scene@h DB 01H
__46118574_World@h DB 01H
__4818932A_unordered_set DB 01H
__014E33A8_TMemory@h DB 01H
__C1566CF7_basetyps@h DB 01H
__9F144151_mmreg@h DB 01H
__25E01902_audiosessiontypes@h DB 01H
__E36B8921_xaudio2@h DB 01H
__F7972D0B_share@h DB 01H
__E9739B8C___msvc_system_error_abi@hpp DB 01H
__D1D94988_cerrno DB 01H
__57B442CC_xcall_once@h DB 01H
__24B81E12_xerrc@h DB 01H
__E8E950EC_system_error DB 01H
__C9B1E011_xfacet DB 01H
__24FAA3FC___msvc_xlocinfo_types@hpp DB 01H
__791C33B7_locale@h DB 01H
__A9C16173_clocale DB 01H
__D8641F11_xlocinfo DB 01H
__CC18A947_xlocale DB 01H
__E1816802_xiosbase DB 01H
__A6039CF8_streambuf DB 01H
__C0945C43___msvc_filebuf@hpp DB 01H
__A69EB880_iterator DB 01H
__529FCF50_xlocnum DB 01H
__5D1A27AA_ios DB 01H
__DF087383_ostream DB 01H
__BCD846B9_istream DB 01H
__4A903650_fstream DB 01H
__6A70D710_ratio DB 01H
__E71D1BFE___msvc_chrono@hpp DB 01H
__F491F32A_vcruntime_startup@h DB 01H
__005E73E1_corecrt_startup@h DB 01H
__8B12B2C4_process@h DB 01H
__57ED3434_stop_token DB 01H
__3EB9CFA8_thread DB 01H
__78DDDD40_mutex DB 01H
__CE362511_Logger@hpp DB 01H
__E48B5707_Audio@h DB 01H
__7FDD34FA_DEditor@h DB 01H
__0F108736_xfilesystem_abi@h DB 01H
__3E632381___msvc_tzdb@hpp DB 01H
__D30FB2B2_forward_list DB 01H
__4722581B_xsmf_control@h DB 01H
__DEE6A3C1_optional DB 01H
__7F768539_sstream DB 01H
__7C79B603_xloctime DB 01H
__B5ECD415___msvc_format_ucd_tables@hpp DB 01H
__8C7168E8___msvc_print@hpp DB 01H
__9971FA6E_bit DB 01H
__39D77923_xcharconv@h DB 01H
__486BF2EB_xcharconv_ryu_tables@h DB 01H
__9E967C73_xcharconv_ryu@h DB 01H
__8E5CDAAA_xcharconv_tables@h DB 01H
__A8BD61A6_charconv DB 01H
__CC57EFBC_xlocbuf DB 01H
__E0145E3B_xlocmes DB 01H
__79FDDA68_xlocmon DB 01H
__4E1945B3_locale DB 01H
__D123F1F4_format DB 01H
__401A80EB_iomanip DB 01H
__3DB7BD1A_chrono DB 01H
__D22613FB_DEngine@h DB 01H
__FABEF7B5_CoreDefines@h DB 01H
__72E31227_D3D12PSO@h DB 01H
__49A16877_GameTimer@h DB 01H
__F9EF3DD8_D3D12Render@cpp DB 01H
__7BF4187B_predefined C++ types (compiler internal) DB 01H
msvcjmc	ENDS
;	COMDAT IID_IXAudio2
CONST	SEGMENT
IID_IXAudio2 DD	02b02e3cfH
	DW	02e0bH
	DW	04ec3H
	DB	0beH
	DB	045H
	DB	01bH
	DB	02aH
	DB	03fH
	DB	0e7H
	DB	021H
	DB	0dH
CONST	ENDS
;	COMDAT IID_IXAudio2Extension
CONST	SEGMENT
IID_IXAudio2Extension DD 084ac29bbH
	DW	0d619H
	DW	044d2H
	DB	0b1H
	DB	097H
	DB	0e4H
	DB	0acH
	DB	0f7H
	DB	0dfH
	DB	03eH
	DB	0d6H
CONST	ENDS
;	COMDAT ?DefaultDelegateCheckMode@WRL@Microsoft@@3W4DelegateCheckMode@12@B
CONST	SEGMENT
?DefaultDelegateCheckMode@WRL@Microsoft@@3W4DelegateCheckMode@12@B DD 01H ; Microsoft::WRL::DefaultDelegateCheckMode
CONST	ENDS
;	COMDAT __pobjectentrylast
minATL$__z	SEGMENT
__pobjectentrylast DQ 0000000000000000H
minATL$__z	ENDS
;	COMDAT __pobjectentrymid
minATL$__m	SEGMENT
__pobjectentrymid DQ 0000000000000000H
minATL$__m	ENDS
;	COMDAT __pobjectentryfirst
minATL$__a	SEGMENT
__pobjectentryfirst DQ 0000000000000000H
minATL$__a	ENDS
;	COMDAT ?g_UShortMax@DirectX@@3UXMVECTORF32@1@B
CONST	SEGMENT
?g_UShortMax@DirectX@@3UXMVECTORF32@1@B DD 0477fff00r ; 65535 ; DirectX::g_UShortMax
	DD	0477fff00r			; 65535
	DD	0477fff00r			; 65535
	DD	0477fff00r			; 65535
CONST	ENDS
;	COMDAT ?g_ShortMax@DirectX@@3UXMVECTORF32@1@B
CONST	SEGMENT
?g_ShortMax@DirectX@@3UXMVECTORF32@1@B DD 046fffe00r ; 32767 ; DirectX::g_ShortMax
	DD	046fffe00r			; 32767
	DD	046fffe00r			; 32767
	DD	046fffe00r			; 32767
CONST	ENDS
;	COMDAT ?g_ShortMin@DirectX@@3UXMVECTORF32@1@B
CONST	SEGMENT
?g_ShortMin@DirectX@@3UXMVECTORF32@1@B DD 0c6fffe00r ; -32767 ; DirectX::g_ShortMin
	DD	0c6fffe00r			; -32767
	DD	0c6fffe00r			; -32767
	DD	0c6fffe00r			; -32767
CONST	ENDS
;	COMDAT ?g_ByteMax@DirectX@@3UXMVECTORF32@1@B
CONST	SEGMENT
?g_ByteMax@DirectX@@3UXMVECTORF32@1@B DD 042fe0000r ; 127 ; DirectX::g_ByteMax
	DD	042fe0000r			; 127
	DD	042fe0000r			; 127
	DD	042fe0000r			; 127
CONST	ENDS
;	COMDAT ?g_ByteMin@DirectX@@3UXMVECTORF32@1@B
CONST	SEGMENT
?g_ByteMin@DirectX@@3UXMVECTORF32@1@B DD 0c2fe0000r ; -127 ; DirectX::g_ByteMin
	DD	0c2fe0000r			; -127
	DD	0c2fe0000r			; -127
	DD	0c2fe0000r			; -127
CONST	ENDS
;	COMDAT ?g_UByteMax@DirectX@@3UXMVECTORF32@1@B
CONST	SEGMENT
?g_UByteMax@DirectX@@3UXMVECTORF32@1@B DD 0437f0000r ; 255 ; DirectX::g_UByteMax
	DD	0437f0000r			; 255
	DD	0437f0000r			; 255
	DD	0437f0000r			; 255
CONST	ENDS
;	COMDAT ?g_XMInvLg10@DirectX@@3UXMVECTORF32@1@B
CONST	SEGMENT
?g_XMInvLg10@DirectX@@3UXMVECTORF32@1@B DD 03e9a209br ; 0.30103 ; DirectX::g_XMInvLg10
	DD	03e9a209br			; 0.30103
	DD	03e9a209br			; 0.30103
	DD	03e9a209br			; 0.30103
CONST	ENDS
;	COMDAT ?g_XMLg10@DirectX@@3UXMVECTORF32@1@B
CONST	SEGMENT
?g_XMLg10@DirectX@@3UXMVECTORF32@1@B DD 040549a78r ; 3.32193 ; DirectX::g_XMLg10
	DD	040549a78r			; 3.32193
	DD	040549a78r			; 3.32193
	DD	040549a78r			; 3.32193
CONST	ENDS
;	COMDAT ?g_XMInvLgE@DirectX@@3UXMVECTORF32@1@B
CONST	SEGMENT
?g_XMInvLgE@DirectX@@3UXMVECTORF32@1@B DD 03f317218r ; 0.693147 ; DirectX::g_XMInvLgE
	DD	03f317218r			; 0.693147
	DD	03f317218r			; 0.693147
	DD	03f317218r			; 0.693147
CONST	ENDS
;	COMDAT ?g_XMLgE@DirectX@@3UXMVECTORF32@1@B
CONST	SEGMENT
?g_XMLgE@DirectX@@3UXMVECTORF32@1@B DD 03fb8aa3br ; 1.4427 ; DirectX::g_XMLgE
	DD	03fb8aa3br			; 1.4427
	DD	03fb8aa3br			; 1.4427
	DD	03fb8aa3br			; 1.4427
CONST	ENDS
;	COMDAT ?g_XMLogEst7@DirectX@@3UXMVECTORF32@1@B
CONST	SEGMENT
?g_XMLogEst7@DirectX@@3UXMVECTORF32@1@B DD 0bc2d4f59r ; -0.010578 ; DirectX::g_XMLogEst7
	DD	0bc2d4f59r			; -0.010578
	DD	0bc2d4f59r			; -0.010578
	DD	0bc2d4f59r			; -0.010578
CONST	ENDS
;	COMDAT ?g_XMLogEst6@DirectX@@3UXMVECTORF32@1@B
CONST	SEGMENT
?g_XMLogEst6@DirectX@@3UXMVECTORF32@1@B DD 03d6a1405r ; 0.057148 ; DirectX::g_XMLogEst6
	DD	03d6a1405r			; 0.057148
	DD	03d6a1405r			; 0.057148
	DD	03d6a1405r			; 0.057148
CONST	ENDS
;	COMDAT ?g_XMLogEst5@DirectX@@3UXMVECTORF32@1@B
CONST	SEGMENT
?g_XMLogEst5@DirectX@@3UXMVECTORF32@1@B DD 0be153261r ; -0.1457 ; DirectX::g_XMLogEst5
	DD	0be153261r			; -0.1457
	DD	0be153261r			; -0.1457
	DD	0be153261r			; -0.1457
CONST	ENDS
;	COMDAT ?g_XMLogEst4@DirectX@@3UXMVECTORF32@1@B
CONST	SEGMENT
?g_XMLogEst4@DirectX@@3UXMVECTORF32@1@B DD 03e7e8e61r ; 0.24859 ; DirectX::g_XMLogEst4
	DD	03e7e8e61r			; 0.24859
	DD	03e7e8e61r			; 0.24859
	DD	03e7e8e61r			; 0.24859
CONST	ENDS
;	COMDAT ?g_XMLogEst3@DirectX@@3UXMVECTORF32@1@B
CONST	SEGMENT
?g_XMLogEst3@DirectX@@3UXMVECTORF32@1@B DD 0beb359der ; -0.350295 ; DirectX::g_XMLogEst3
	DD	0beb359der			; -0.350295
	DD	0beb359der			; -0.350295
	DD	0beb359der			; -0.350295
CONST	ENDS
;	COMDAT ?g_XMLogEst2@DirectX@@3UXMVECTORF32@1@B
CONST	SEGMENT
?g_XMLogEst2@DirectX@@3UXMVECTORF32@1@B DD 03ef571d2r ; 0.479384 ; DirectX::g_XMLogEst2
	DD	03ef571d2r			; 0.479384
	DD	03ef571d2r			; 0.479384
	DD	03ef571d2r			; 0.479384
CONST	ENDS
;	COMDAT ?g_XMLogEst1@DirectX@@3UXMVECTORF32@1@B
CONST	SEGMENT
?g_XMLogEst1@DirectX@@3UXMVECTORF32@1@B DD 0bf38a351r ; -0.721242 ; DirectX::g_XMLogEst1
	DD	0bf38a351r			; -0.721242
	DD	0bf38a351r			; -0.721242
	DD	0bf38a351r			; -0.721242
CONST	ENDS
;	COMDAT ?g_XMLogEst0@DirectX@@3UXMVECTORF32@1@B
CONST	SEGMENT
?g_XMLogEst0@DirectX@@3UXMVECTORF32@1@B DD 03fb8aa2ar ; 1.44269 ; DirectX::g_XMLogEst0
	DD	03fb8aa2ar			; 1.44269
	DD	03fb8aa2ar			; 1.44269
	DD	03fb8aa2ar			; 1.44269
CONST	ENDS
;	COMDAT ?g_XMExpEst7@DirectX@@3UXMVECTORF32@1@B
CONST	SEGMENT
?g_XMExpEst7@DirectX@@3UXMVECTORF32@1@B DD 0b7364261r ; -1.08635e-05 ; DirectX::g_XMExpEst7
	DD	0b7364261r			; -1.08635e-05
	DD	0b7364261r			; -1.08635e-05
	DD	0b7364261r			; -1.08635e-05
CONST	ENDS
;	COMDAT ?g_XMExpEst6@DirectX@@3UXMVECTORF32@1@B
CONST	SEGMENT
?g_XMExpEst6@DirectX@@3UXMVECTORF32@1@B DD 0391aa7d7r ; 0.000147491 ; DirectX::g_XMExpEst6
	DD	0391aa7d7r			; 0.000147491
	DD	0391aa7d7r			; 0.000147491
	DD	0391aa7d7r			; 0.000147491
CONST	ENDS
;	COMDAT ?g_XMExpEst5@DirectX@@3UXMVECTORF32@1@B
CONST	SEGMENT
?g_XMExpEst5@DirectX@@3UXMVECTORF32@1@B DD 0baae1854r ; -0.00132824 ; DirectX::g_XMExpEst5
	DD	0baae1854r			; -0.00132824
	DD	0baae1854r			; -0.00132824
	DD	0baae1854r			; -0.00132824
CONST	ENDS
;	COMDAT ?g_XMExpEst4@DirectX@@3UXMVECTORF32@1@B
CONST	SEGMENT
?g_XMExpEst4@DirectX@@3UXMVECTORF32@1@B DD 03c1d8c54r ; 0.00961598 ; DirectX::g_XMExpEst4
	DD	03c1d8c54r			; 0.00961598
	DD	03c1d8c54r			; 0.00961598
	DD	03c1d8c54r			; 0.00961598
CONST	ENDS
;	COMDAT ?g_XMExpEst3@DirectX@@3UXMVECTORF32@1@B
CONST	SEGMENT
?g_XMExpEst3@DirectX@@3UXMVECTORF32@1@B DD 0bd6357car ; -0.0555036 ; DirectX::g_XMExpEst3
	DD	0bd6357car			; -0.0555036
	DD	0bd6357car			; -0.0555036
	DD	0bd6357car			; -0.0555036
CONST	ENDS
;	COMDAT ?g_XMExpEst2@DirectX@@3UXMVECTORF32@1@B
CONST	SEGMENT
?g_XMExpEst2@DirectX@@3UXMVECTORF32@1@B DD 03e75fdedr ; 0.240226 ; DirectX::g_XMExpEst2
	DD	03e75fdedr			; 0.240226
	DD	03e75fdedr			; 0.240226
	DD	03e75fdedr			; 0.240226
CONST	ENDS
;	COMDAT ?g_XMExpEst1@DirectX@@3UXMVECTORF32@1@B
CONST	SEGMENT
?g_XMExpEst1@DirectX@@3UXMVECTORF32@1@B DD 0bf317218r ; -0.693147 ; DirectX::g_XMExpEst1
	DD	0bf317218r			; -0.693147
	DD	0bf317218r			; -0.693147
	DD	0bf317218r			; -0.693147
CONST	ENDS
;	COMDAT ?g_XM253@DirectX@@3UXMVECTORI32@1@B
CONST	SEGMENT
?g_XM253@DirectX@@3UXMVECTORI32@1@B DD 0fdH		; DirectX::g_XM253
	DD	0fdH
	DD	0fdH
	DD	0fdH
CONST	ENDS
;	COMDAT ?g_XMBinNeg150@DirectX@@3UXMVECTORU32@1@B
CONST	SEGMENT
?g_XMBinNeg150@DirectX@@3UXMVECTORU32@1@B DD 0c3160000H	; DirectX::g_XMBinNeg150
	DD	0c3160000H
	DD	0c3160000H
	DD	0c3160000H
CONST	ENDS
;	COMDAT ?g_XMBin128@DirectX@@3UXMVECTORI32@1@B
CONST	SEGMENT
?g_XMBin128@DirectX@@3UXMVECTORI32@1@B DD 043000000H	; DirectX::g_XMBin128
	DD	043000000H
	DD	043000000H
	DD	043000000H
CONST	ENDS
;	COMDAT ?g_XMNegQNaN@DirectX@@3UXMVECTORU32@1@B
CONST	SEGMENT
?g_XMNegQNaN@DirectX@@3UXMVECTORU32@1@B DD 0ffc00000H	; DirectX::g_XMNegQNaN
	DD	0ffc00000H
	DD	0ffc00000H
	DD	0ffc00000H
CONST	ENDS
;	COMDAT ?g_XMNegInfinity@DirectX@@3UXMVECTORU32@1@B
CONST	SEGMENT
?g_XMNegInfinity@DirectX@@3UXMVECTORU32@1@B DD 0ff800000H ; DirectX::g_XMNegInfinity
	DD	0ff800000H
	DD	0ff800000H
	DD	0ff800000H
CONST	ENDS
;	COMDAT ?g_XMMinNormal@DirectX@@3UXMVECTORI32@1@B
CONST	SEGMENT
?g_XMMinNormal@DirectX@@3UXMVECTORI32@1@B DD 0800000H	; DirectX::g_XMMinNormal
	DD	0800000H
	DD	0800000H
	DD	0800000H
CONST	ENDS
;	COMDAT ?g_XMNumTrailing@DirectX@@3UXMVECTORI32@1@B
CONST	SEGMENT
?g_XMNumTrailing@DirectX@@3UXMVECTORI32@1@B DD 017H	; DirectX::g_XMNumTrailing
	DD	017H
	DD	017H
	DD	017H
CONST	ENDS
;	COMDAT ?g_XMSubnormalExponent@DirectX@@3UXMVECTORI32@1@B
CONST	SEGMENT
?g_XMSubnormalExponent@DirectX@@3UXMVECTORI32@1@B DD 0ffffff82H ; DirectX::g_XMSubnormalExponent
	DD	0ffffff82H
	DD	0ffffff82H
	DD	0ffffff82H
CONST	ENDS
;	COMDAT ?g_XMExponentBias@DirectX@@3UXMVECTORI32@1@B
CONST	SEGMENT
?g_XMExponentBias@DirectX@@3UXMVECTORI32@1@B DD 07fH	; DirectX::g_XMExponentBias
	DD	07fH
	DD	07fH
	DD	07fH
CONST	ENDS
;	COMDAT ?g_XMsrgbA1@DirectX@@3UXMVECTORF32@1@B
CONST	SEGMENT
?g_XMsrgbA1@DirectX@@3UXMVECTORF32@1@B DD 03f870a3dr ; 1.055 ; DirectX::g_XMsrgbA1
	DD	03f870a3dr			; 1.055
	DD	03f870a3dr			; 1.055
	DD	03f800000r			; 1
CONST	ENDS
;	COMDAT ?g_XMsrgbA@DirectX@@3UXMVECTORF32@1@B
CONST	SEGMENT
?g_XMsrgbA@DirectX@@3UXMVECTORF32@1@B DD 03d6147aer ; 0.055 ; DirectX::g_XMsrgbA
	DD	03d6147aer			; 0.055
	DD	03d6147aer			; 0.055
	DD	000000000r			; 0
CONST	ENDS
;	COMDAT ?g_XMsrgbScale@DirectX@@3UXMVECTORF32@1@B
CONST	SEGMENT
?g_XMsrgbScale@DirectX@@3UXMVECTORF32@1@B DD 0414eb852r ; 12.92 ; DirectX::g_XMsrgbScale
	DD	0414eb852r			; 12.92
	DD	0414eb852r			; 12.92
	DD	03f800000r			; 1
CONST	ENDS
;	COMDAT ?g_XMUnsignedFix@DirectX@@3UXMVECTORF32@1@B
CONST	SEGMENT
?g_XMUnsignedFix@DirectX@@3UXMVECTORF32@1@B DD 04f000000r ; 2.14748e+09 ; DirectX::g_XMUnsignedFix
	DD	04f000000r			; 2.14748e+09
	DD	04f000000r			; 2.14748e+09
	DD	04f000000r			; 2.14748e+09
CONST	ENDS
;	COMDAT ?g_XMMaxUInt@DirectX@@3UXMVECTORF32@1@B
CONST	SEGMENT
?g_XMMaxUInt@DirectX@@3UXMVECTORF32@1@B DD 04f7fffffr ; 4.29497e+09 ; DirectX::g_XMMaxUInt
	DD	04f7fffffr			; 4.29497e+09
	DD	04f7fffffr			; 4.29497e+09
	DD	04f7fffffr			; 4.29497e+09
CONST	ENDS
;	COMDAT ?g_XMMaxInt@DirectX@@3UXMVECTORF32@1@B
CONST	SEGMENT
?g_XMMaxInt@DirectX@@3UXMVECTORF32@1@B DD 04effffffr ; 2.14748e+09 ; DirectX::g_XMMaxInt
	DD	04effffffr			; 2.14748e+09
	DD	04effffffr			; 2.14748e+09
	DD	04effffffr			; 2.14748e+09
CONST	ENDS
;	COMDAT ?g_XMFixUnsigned@DirectX@@3UXMVECTORF32@1@B
CONST	SEGMENT
?g_XMFixUnsigned@DirectX@@3UXMVECTORF32@1@B DD 04f000000r ; 2.14748e+09 ; DirectX::g_XMFixUnsigned
	DD	04f000000r			; 2.14748e+09
	DD	04f000000r			; 2.14748e+09
	DD	04f000000r			; 2.14748e+09
CONST	ENDS
;	COMDAT ?g_XMAddByte4@DirectX@@3UXMVECTORF32@1@B
CONST	SEGMENT
?g_XMAddByte4@DirectX@@3UXMVECTORF32@1@B DD 0c3000000r ; -128 ; DirectX::g_XMAddByte4
	DD	0c7000000r			; -32768
	DD	0cb000000r			; -8.38861e+06
	DD	000000000r			; 0
CONST	ENDS
;	COMDAT ?g_XMXorByte4@DirectX@@3UXMVECTORI32@1@B
CONST	SEGMENT
?g_XMXorByte4@DirectX@@3UXMVECTORI32@1@B DD 080H	; DirectX::g_XMXorByte4
	DD	08000H
	DD	0800000H
	DD	00H
CONST	ENDS
;	COMDAT ?g_XMMaskByte4@DirectX@@3UXMVECTORU32@1@B
CONST	SEGMENT
?g_XMMaskByte4@DirectX@@3UXMVECTORU32@1@B DD 0ffH	; DirectX::g_XMMaskByte4
	DD	0ff00H
	DD	0ff0000H
	DD	0ff000000H
CONST	ENDS
;	COMDAT ?g_XMMulDec4@DirectX@@3UXMVECTORF32@1@B
CONST	SEGMENT
?g_XMMulDec4@DirectX@@3UXMVECTORF32@1@B DD 03f800000r ; 1 ; DirectX::g_XMMulDec4
	DD	03a800000r			; 0.000976562
	DD	035800000r			; 9.53674e-07
	DD	030800000r			; 9.31323e-10
CONST	ENDS
;	COMDAT ?g_XMAddDec4@DirectX@@3UXMVECTORF32@1@B
CONST	SEGMENT
?g_XMAddDec4@DirectX@@3UXMVECTORF32@1@B DD 0c4000000r ; -512 ; DirectX::g_XMAddDec4
	DD	0c9000000r			; -524288
	DD	0ce000000r			; -5.36871e+08
	DD	000000000r			; 0
CONST	ENDS
;	COMDAT ?g_XMAddUDec4@DirectX@@3UXMVECTORF32@1@B
CONST	SEGMENT
?g_XMAddUDec4@DirectX@@3UXMVECTORF32@1@B DD 000000000r ; 0 ; DirectX::g_XMAddUDec4
	DD	000000000r			; 0
	DD	000000000r			; 0
	DD	04f000000r			; 2.14748e+09
CONST	ENDS
;	COMDAT ?g_XMXorDec4@DirectX@@3UXMVECTORI32@1@B
CONST	SEGMENT
?g_XMXorDec4@DirectX@@3UXMVECTORI32@1@B DD 0200H	; DirectX::g_XMXorDec4
	DD	080000H
	DD	020000000H
	DD	00H
CONST	ENDS
;	COMDAT ?g_XMMaskDec4@DirectX@@3UXMVECTORI32@1@B
CONST	SEGMENT
?g_XMMaskDec4@DirectX@@3UXMVECTORI32@1@B DD 03ffH	; DirectX::g_XMMaskDec4
	DD	0ffc00H
	DD	03ff00000H
	DD	0c0000000H
CONST	ENDS
;	COMDAT ?g_XMFlipYW@DirectX@@3UXMVECTORU32@1@B
CONST	SEGMENT
?g_XMFlipYW@DirectX@@3UXMVECTORU32@1@B DD 00H		; DirectX::g_XMFlipYW
	DD	080000000H
	DD	00H
	DD	080000000H
CONST	ENDS
;	COMDAT ?g_XMFlipZW@DirectX@@3UXMVECTORU32@1@B
CONST	SEGMENT
?g_XMFlipZW@DirectX@@3UXMVECTORU32@1@B DD 00H		; DirectX::g_XMFlipZW
	DD	00H
	DD	080000000H
	DD	080000000H
CONST	ENDS
;	COMDAT ?g_XMFlipYZ@DirectX@@3UXMVECTORU32@1@B
CONST	SEGMENT
?g_XMFlipYZ@DirectX@@3UXMVECTORU32@1@B DD 00H		; DirectX::g_XMFlipYZ
	DD	080000000H
	DD	080000000H
	DD	00H
CONST	ENDS
;	COMDAT ?g_XMFlipW@DirectX@@3UXMVECTORU32@1@B
CONST	SEGMENT
?g_XMFlipW@DirectX@@3UXMVECTORU32@1@B DD 00H		; DirectX::g_XMFlipW
	DD	00H
	DD	00H
	DD	080000000H
CONST	ENDS
;	COMDAT ?g_XMFlipZ@DirectX@@3UXMVECTORU32@1@B
CONST	SEGMENT
?g_XMFlipZ@DirectX@@3UXMVECTORU32@1@B DD 00H		; DirectX::g_XMFlipZ
	DD	00H
	DD	080000000H
	DD	00H
CONST	ENDS
;	COMDAT ?g_XMFlipY@DirectX@@3UXMVECTORU32@1@B
CONST	SEGMENT
?g_XMFlipY@DirectX@@3UXMVECTORU32@1@B DD 00H		; DirectX::g_XMFlipY
	DD	080000000H
	DD	00H
	DD	00H
CONST	ENDS
;	COMDAT ?g_XMFixupY16W16@DirectX@@3UXMVECTORF32@1@B
CONST	SEGMENT
?g_XMFixupY16W16@DirectX@@3UXMVECTORF32@1@B DD 03f800000r ; 1 ; DirectX::g_XMFixupY16W16
	DD	03f800000r			; 1
	DD	037800000r			; 1.52588e-05
	DD	037800000r			; 1.52588e-05
CONST	ENDS
;	COMDAT ?g_XMFixupY16@DirectX@@3UXMVECTORF32@1@B
CONST	SEGMENT
?g_XMFixupY16@DirectX@@3UXMVECTORF32@1@B DD 03f800000r ; 1 ; DirectX::g_XMFixupY16
	DD	037800000r			; 1.52588e-05
	DD	000000000r			; 0
	DD	000000000r			; 0
CONST	ENDS
;	COMDAT ?g_XMSelect1011@DirectX@@3UXMVECTORU32@1@B
CONST	SEGMENT
?g_XMSelect1011@DirectX@@3UXMVECTORU32@1@B DD 0ffffffffH ; DirectX::g_XMSelect1011
	DD	00H
	DD	0ffffffffH
	DD	0ffffffffH
CONST	ENDS
;	COMDAT ?g_XMSelect1110@DirectX@@3UXMVECTORU32@1@B
CONST	SEGMENT
?g_XMSelect1110@DirectX@@3UXMVECTORU32@1@B DD 0ffffffffH ; DirectX::g_XMSelect1110
	DD	0ffffffffH
	DD	0ffffffffH
	DD	00H
CONST	ENDS
;	COMDAT ?g_XMSelect1100@DirectX@@3UXMVECTORU32@1@B
CONST	SEGMENT
?g_XMSelect1100@DirectX@@3UXMVECTORU32@1@B DD 0ffffffffH ; DirectX::g_XMSelect1100
	DD	0ffffffffH
	DD	00H
	DD	00H
CONST	ENDS
;	COMDAT ?g_XMSelect1000@DirectX@@3UXMVECTORU32@1@B
CONST	SEGMENT
?g_XMSelect1000@DirectX@@3UXMVECTORU32@1@B DD 0ffffffffH ; DirectX::g_XMSelect1000
	DD	00H
	DD	00H
	DD	00H
CONST	ENDS
;	COMDAT ?g_XMOneHalfMinusEpsilon@DirectX@@3UXMVECTORI32@1@B
CONST	SEGMENT
?g_XMOneHalfMinusEpsilon@DirectX@@3UXMVECTORI32@1@B DD 03efffffdH ; DirectX::g_XMOneHalfMinusEpsilon
	DD	03efffffdH
	DD	03efffffdH
	DD	03efffffdH
CONST	ENDS
;	COMDAT ?g_XMSelect1010@DirectX@@3UXMVECTORU32@1@B
CONST	SEGMENT
?g_XMSelect1010@DirectX@@3UXMVECTORU32@1@B DD 0ffffffffH ; DirectX::g_XMSelect1010
	DD	00H
	DD	0ffffffffH
	DD	00H
CONST	ENDS
;	COMDAT ?g_XMSelect0101@DirectX@@3UXMVECTORU32@1@B
CONST	SEGMENT
?g_XMSelect0101@DirectX@@3UXMVECTORU32@1@B DD 00H	; DirectX::g_XMSelect0101
	DD	0ffffffffH
	DD	00H
	DD	0ffffffffH
CONST	ENDS
;	COMDAT ?g_XMNegateW@DirectX@@3UXMVECTORF32@1@B
CONST	SEGMENT
?g_XMNegateW@DirectX@@3UXMVECTORF32@1@B DD 03f800000r ; 1 ; DirectX::g_XMNegateW
	DD	03f800000r			; 1
	DD	03f800000r			; 1
	DD	0bf800000r			; -1
CONST	ENDS
;	COMDAT ?g_XMNegateZ@DirectX@@3UXMVECTORF32@1@B
CONST	SEGMENT
?g_XMNegateZ@DirectX@@3UXMVECTORF32@1@B DD 03f800000r ; 1 ; DirectX::g_XMNegateZ
	DD	03f800000r			; 1
	DD	0bf800000r			; -1
	DD	03f800000r			; 1
CONST	ENDS
;	COMDAT ?g_XMNegateY@DirectX@@3UXMVECTORF32@1@B
CONST	SEGMENT
?g_XMNegateY@DirectX@@3UXMVECTORF32@1@B DD 03f800000r ; 1 ; DirectX::g_XMNegateY
	DD	0bf800000r			; -1
	DD	03f800000r			; 1
	DD	03f800000r			; 1
CONST	ENDS
;	COMDAT ?g_XMNegateX@DirectX@@3UXMVECTORF32@1@B
CONST	SEGMENT
?g_XMNegateX@DirectX@@3UXMVECTORF32@1@B DD 0bf800000r ; -1 ; DirectX::g_XMNegateX
	DD	03f800000r			; 1
	DD	03f800000r			; 1
	DD	03f800000r			; 1
CONST	ENDS
;	COMDAT ?g_XMMaskByte@DirectX@@3UXMVECTORI32@1@B
CONST	SEGMENT
?g_XMMaskByte@DirectX@@3UXMVECTORI32@1@B DD 0ffH	; DirectX::g_XMMaskByte
	DD	0ffH
	DD	0ffH
	DD	0ffH
CONST	ENDS
;	COMDAT ?g_XMNoFraction@DirectX@@3UXMVECTORF32@1@B
CONST	SEGMENT
?g_XMNoFraction@DirectX@@3UXMVECTORF32@1@B DD 04b000000r ; 8.38861e+06 ; DirectX::g_XMNoFraction
	DD	04b000000r			; 8.38861e+06
	DD	04b000000r			; 8.38861e+06
	DD	04b000000r			; 8.38861e+06
CONST	ENDS
;	COMDAT ?g_XMNormalizeX16Y16Z16W16@DirectX@@3UXMVECTORF32@1@B
CONST	SEGMENT
?g_XMNormalizeX16Y16Z16W16@DirectX@@3UXMVECTORF32@1@B DD 038000100r ; 3.05185e-05 ; DirectX::g_XMNormalizeX16Y16Z16W16
	DD	038000100r			; 3.05185e-05
	DD	030000100r			; 4.65675e-10
	DD	030000100r			; 4.65675e-10
CONST	ENDS
;	COMDAT ?g_XMFixX16Y16Z16W16@DirectX@@3UXMVECTORF32@1@B
CONST	SEGMENT
?g_XMFixX16Y16Z16W16@DirectX@@3UXMVECTORF32@1@B DD 0c7000000r ; -32768 ; DirectX::g_XMFixX16Y16Z16W16
	DD	0c7000000r			; -32768
	DD	000000000r			; 0
	DD	000000000r			; 0
CONST	ENDS
;	COMDAT ?g_XMFlipX16Y16Z16W16@DirectX@@3UXMVECTORI32@1@B
CONST	SEGMENT
?g_XMFlipX16Y16Z16W16@DirectX@@3UXMVECTORI32@1@B DD 08000H ; DirectX::g_XMFlipX16Y16Z16W16
	DD	08000H
	DD	00H
	DD	00H
CONST	ENDS
;	COMDAT ?g_XMMaskX16Y16Z16W16@DirectX@@3UXMVECTORU32@1@B
CONST	SEGMENT
?g_XMMaskX16Y16Z16W16@DirectX@@3UXMVECTORU32@1@B DD 0ffffH ; DirectX::g_XMMaskX16Y16Z16W16
	DD	0ffffH
	DD	0ffff0000H
	DD	0ffff0000H
CONST	ENDS
;	COMDAT ?g_XMNormalizeX16Y16@DirectX@@3UXMVECTORF32@1@B
CONST	SEGMENT
?g_XMNormalizeX16Y16@DirectX@@3UXMVECTORF32@1@B DD 038000100r ; 3.05185e-05 ; DirectX::g_XMNormalizeX16Y16
	DD	030000100r			; 4.65675e-10
	DD	000000000r			; 0
	DD	000000000r			; 0
CONST	ENDS
;	COMDAT ?g_XMFixX16Y16@DirectX@@3UXMVECTORF32@1@B
CONST	SEGMENT
?g_XMFixX16Y16@DirectX@@3UXMVECTORF32@1@B DD 0c7000000r ; -32768 ; DirectX::g_XMFixX16Y16
	DD	000000000r			; 0
	DD	000000000r			; 0
	DD	000000000r			; 0
CONST	ENDS
;	COMDAT ?g_XMFlipX16Y16@DirectX@@3UXMVECTORI32@1@B
CONST	SEGMENT
?g_XMFlipX16Y16@DirectX@@3UXMVECTORI32@1@B DD 08000H	; DirectX::g_XMFlipX16Y16
	DD	00H
	DD	00H
	DD	00H
CONST	ENDS
;	COMDAT ?g_XMMaskX16Y16@DirectX@@3UXMVECTORU32@1@B
CONST	SEGMENT
?g_XMMaskX16Y16@DirectX@@3UXMVECTORU32@1@B DD 0ffffH	; DirectX::g_XMMaskX16Y16
	DD	0ffff0000H
	DD	00H
	DD	00H
CONST	ENDS
;	COMDAT ?g_XMNormalizeA2B10G10R10@DirectX@@3UXMVECTORF32@1@B
CONST	SEGMENT
?g_XMNormalizeA2B10G10R10@DirectX@@3UXMVECTORF32@1@B DD 03b004020r ; 0.00195695 ; DirectX::g_XMNormalizeA2B10G10R10
	DD	036004020r			; 1.91108e-06
	DD	031004020r			; 1.86629e-09
	DD	02faaaaabr			; 3.10441e-10
CONST	ENDS
;	COMDAT ?g_XMFixAA2B10G10R10@DirectX@@3UXMVECTORF32@1@B
CONST	SEGMENT
?g_XMFixAA2B10G10R10@DirectX@@3UXMVECTORF32@1@B DD 0c4000000r ; -512 ; DirectX::g_XMFixAA2B10G10R10
	DD	0c9000000r			; -524288
	DD	0ce000000r			; -5.36871e+08
	DD	04f000000r			; 2.14748e+09
CONST	ENDS
;	COMDAT ?g_XMFlipA2B10G10R10@DirectX@@3UXMVECTORU32@1@B
CONST	SEGMENT
?g_XMFlipA2B10G10R10@DirectX@@3UXMVECTORU32@1@B DD 0200H ; DirectX::g_XMFlipA2B10G10R10
	DD	080000H
	DD	020000000H
	DD	080000000H
CONST	ENDS
;	COMDAT ?g_XMMaskA2B10G10R10@DirectX@@3UXMVECTORU32@1@B
CONST	SEGMENT
?g_XMMaskA2B10G10R10@DirectX@@3UXMVECTORU32@1@B DD 03ffH ; DirectX::g_XMMaskA2B10G10R10
	DD	0ffc00H
	DD	03ff00000H
	DD	0c0000000H
CONST	ENDS
;	COMDAT ?g_XMNormalizeA8R8G8B8@DirectX@@3UXMVECTORF32@1@B
CONST	SEGMENT
?g_XMNormalizeA8R8G8B8@DirectX@@3UXMVECTORF32@1@B DD 033808081r ; 5.98384e-08 ; DirectX::g_XMNormalizeA8R8G8B8
	DD	037808081r			; 1.53186e-05
	DD	03b808081r			; 0.00392157
	DD	02f808081r			; 2.33744e-10
CONST	ENDS
;	COMDAT ?g_XMFixAA8R8G8B8@DirectX@@3UXMVECTORF32@1@B
CONST	SEGMENT
?g_XMFixAA8R8G8B8@DirectX@@3UXMVECTORF32@1@B DD 000000000r ; 0 ; DirectX::g_XMFixAA8R8G8B8
	DD	000000000r			; 0
	DD	000000000r			; 0
	DD	04f000000r			; 2.14748e+09
CONST	ENDS
;	COMDAT ?g_XMFlipA8R8G8B8@DirectX@@3UXMVECTORU32@1@B
CONST	SEGMENT
?g_XMFlipA8R8G8B8@DirectX@@3UXMVECTORU32@1@B DD 00H	; DirectX::g_XMFlipA8R8G8B8
	DD	00H
	DD	00H
	DD	080000000H
CONST	ENDS
;	COMDAT ?g_XMMaskA8R8G8B8@DirectX@@3UXMVECTORU32@1@B
CONST	SEGMENT
?g_XMMaskA8R8G8B8@DirectX@@3UXMVECTORU32@1@B DD 0ff0000H ; DirectX::g_XMMaskA8R8G8B8
	DD	0ff00H
	DD	0ffH
	DD	0ff000000H
CONST	ENDS
;	COMDAT ?g_XMNegOneMask@DirectX@@3UXMVECTORU32@1@B
CONST	SEGMENT
?g_XMNegOneMask@DirectX@@3UXMVECTORU32@1@B DD 0ffffffffH ; DirectX::g_XMNegOneMask
	DD	0ffffffffH
	DD	0ffffffffH
	DD	0ffffffffH
CONST	ENDS
;	COMDAT ?g_XMFltMax@DirectX@@3UXMVECTORI32@1@B
CONST	SEGMENT
?g_XMFltMax@DirectX@@3UXMVECTORI32@1@B DD 07f7fffffH	; DirectX::g_XMFltMax
	DD	07f7fffffH
	DD	07f7fffffH
	DD	07f7fffffH
CONST	ENDS
;	COMDAT ?g_XMFltMin@DirectX@@3UXMVECTORI32@1@B
CONST	SEGMENT
?g_XMFltMin@DirectX@@3UXMVECTORI32@1@B DD 0800000H	; DirectX::g_XMFltMin
	DD	0800000H
	DD	0800000H
	DD	0800000H
CONST	ENDS
;	COMDAT ?g_XMAbsMask@DirectX@@3UXMVECTORI32@1@B
CONST	SEGMENT
?g_XMAbsMask@DirectX@@3UXMVECTORI32@1@B DD 07fffffffH	; DirectX::g_XMAbsMask
	DD	07fffffffH
	DD	07fffffffH
	DD	07fffffffH
CONST	ENDS
;	COMDAT ?g_XMQNaNTest@DirectX@@3UXMVECTORI32@1@B
CONST	SEGMENT
?g_XMQNaNTest@DirectX@@3UXMVECTORI32@1@B DD 07fffffH	; DirectX::g_XMQNaNTest
	DD	07fffffH
	DD	07fffffH
	DD	07fffffH
CONST	ENDS
;	COMDAT ?g_XMQNaN@DirectX@@3UXMVECTORI32@1@B
CONST	SEGMENT
?g_XMQNaN@DirectX@@3UXMVECTORI32@1@B DD 07fc00000H	; DirectX::g_XMQNaN
	DD	07fc00000H
	DD	07fc00000H
	DD	07fc00000H
CONST	ENDS
;	COMDAT ?g_XMInfinity@DirectX@@3UXMVECTORI32@1@B
CONST	SEGMENT
?g_XMInfinity@DirectX@@3UXMVECTORI32@1@B DD 07f800000H	; DirectX::g_XMInfinity
	DD	07f800000H
	DD	07f800000H
	DD	07f800000H
CONST	ENDS
;	COMDAT ?g_XMEpsilon@DirectX@@3UXMVECTORF32@1@B
CONST	SEGMENT
?g_XMEpsilon@DirectX@@3UXMVECTORF32@1@B DD 034000000r ; 1.19209e-07 ; DirectX::g_XMEpsilon
	DD	034000000r			; 1.19209e-07
	DD	034000000r			; 1.19209e-07
	DD	034000000r			; 1.19209e-07
CONST	ENDS
;	COMDAT ?g_XMReciprocalTwoPi@DirectX@@3UXMVECTORF32@1@B
CONST	SEGMENT
?g_XMReciprocalTwoPi@DirectX@@3UXMVECTORF32@1@B DD 03e22f983r ; 0.159155 ; DirectX::g_XMReciprocalTwoPi
	DD	03e22f983r			; 0.159155
	DD	03e22f983r			; 0.159155
	DD	03e22f983r			; 0.159155
CONST	ENDS
;	COMDAT ?g_XMTwoPi@DirectX@@3UXMVECTORF32@1@B
CONST	SEGMENT
?g_XMTwoPi@DirectX@@3UXMVECTORF32@1@B DD 040c90fdbr ; 6.28319 ; DirectX::g_XMTwoPi
	DD	040c90fdbr			; 6.28319
	DD	040c90fdbr			; 6.28319
	DD	040c90fdbr			; 6.28319
CONST	ENDS
;	COMDAT ?g_XMReciprocalPi@DirectX@@3UXMVECTORF32@1@B
CONST	SEGMENT
?g_XMReciprocalPi@DirectX@@3UXMVECTORF32@1@B DD 03ea2f983r ; 0.31831 ; DirectX::g_XMReciprocalPi
	DD	03ea2f983r			; 0.31831
	DD	03ea2f983r			; 0.31831
	DD	03ea2f983r			; 0.31831
CONST	ENDS
;	COMDAT ?g_XMPi@DirectX@@3UXMVECTORF32@1@B
CONST	SEGMENT
?g_XMPi@DirectX@@3UXMVECTORF32@1@B DD 040490fdbr ; 3.14159 ; DirectX::g_XMPi
	DD	040490fdbr			; 3.14159
	DD	040490fdbr			; 3.14159
	DD	040490fdbr			; 3.14159
CONST	ENDS
;	COMDAT ?g_XMHalfPi@DirectX@@3UXMVECTORF32@1@B
CONST	SEGMENT
?g_XMHalfPi@DirectX@@3UXMVECTORF32@1@B DD 03fc90fdbr ; 1.5708 ; DirectX::g_XMHalfPi
	DD	03fc90fdbr			; 1.5708
	DD	03fc90fdbr			; 1.5708
	DD	03fc90fdbr			; 1.5708
CONST	ENDS
;	COMDAT ?g_XMNegativePi@DirectX@@3UXMVECTORF32@1@B
CONST	SEGMENT
?g_XMNegativePi@DirectX@@3UXMVECTORF32@1@B DD 0c0490fdbr ; -3.14159 ; DirectX::g_XMNegativePi
	DD	0c0490fdbr			; -3.14159
	DD	0c0490fdbr			; -3.14159
	DD	0c0490fdbr			; -3.14159
CONST	ENDS
;	COMDAT ?g_XMNegativeTwoPi@DirectX@@3UXMVECTORF32@1@B
CONST	SEGMENT
?g_XMNegativeTwoPi@DirectX@@3UXMVECTORF32@1@B DD 0c0c90fdbr ; -6.28319 ; DirectX::g_XMNegativeTwoPi
	DD	0c0c90fdbr			; -6.28319
	DD	0c0c90fdbr			; -6.28319
	DD	0c0c90fdbr			; -6.28319
CONST	ENDS
;	COMDAT ?g_XMNegativeOneHalf@DirectX@@3UXMVECTORF32@1@B
CONST	SEGMENT
?g_XMNegativeOneHalf@DirectX@@3UXMVECTORF32@1@B DD 0bf000000r ; -0.5 ; DirectX::g_XMNegativeOneHalf
	DD	0bf000000r			; -0.5
	DD	0bf000000r			; -0.5
	DD	0bf000000r			; -0.5
CONST	ENDS
;	COMDAT ?g_XMOneHalf@DirectX@@3UXMVECTORF32@1@B
CONST	SEGMENT
?g_XMOneHalf@DirectX@@3UXMVECTORF32@1@B DD 03f000000r ; 0.5 ; DirectX::g_XMOneHalf
	DD	03f000000r			; 0.5
	DD	03f000000r			; 0.5
	DD	03f000000r			; 0.5
CONST	ENDS
;	COMDAT ?g_XMNegativeOne@DirectX@@3UXMVECTORF32@1@B
CONST	SEGMENT
?g_XMNegativeOne@DirectX@@3UXMVECTORF32@1@B DD 0bf800000r ; -1 ; DirectX::g_XMNegativeOne
	DD	0bf800000r			; -1
	DD	0bf800000r			; -1
	DD	0bf800000r			; -1
CONST	ENDS
;	COMDAT ?g_XMSix@DirectX@@3UXMVECTORF32@1@B
CONST	SEGMENT
?g_XMSix@DirectX@@3UXMVECTORF32@1@B DD 040c00000r ; 6	; DirectX::g_XMSix
	DD	040c00000r			; 6
	DD	040c00000r			; 6
	DD	040c00000r			; 6
CONST	ENDS
;	COMDAT ?g_XMFour@DirectX@@3UXMVECTORF32@1@B
CONST	SEGMENT
?g_XMFour@DirectX@@3UXMVECTORF32@1@B DD 040800000r ; 4	; DirectX::g_XMFour
	DD	040800000r			; 4
	DD	040800000r			; 4
	DD	040800000r			; 4
CONST	ENDS
;	COMDAT ?g_XMTwo@DirectX@@3UXMVECTORF32@1@B
CONST	SEGMENT
?g_XMTwo@DirectX@@3UXMVECTORF32@1@B DD 040000000r ; 2	; DirectX::g_XMTwo
	DD	040000000r			; 2
	DD	040000000r			; 2
	DD	040000000r			; 2
CONST	ENDS
;	COMDAT ?g_XMZero@DirectX@@3UXMVECTORF32@1@B
CONST	SEGMENT
?g_XMZero@DirectX@@3UXMVECTORF32@1@B DD 000000000r ; 0	; DirectX::g_XMZero
	DD	000000000r			; 0
	DD	000000000r			; 0
	DD	000000000r			; 0
CONST	ENDS
;	COMDAT ?g_XMOne3@DirectX@@3UXMVECTORF32@1@B
CONST	SEGMENT
?g_XMOne3@DirectX@@3UXMVECTORF32@1@B DD 03f800000r ; 1	; DirectX::g_XMOne3
	DD	03f800000r			; 1
	DD	03f800000r			; 1
	DD	000000000r			; 0
CONST	ENDS
;	COMDAT ?g_XMOne@DirectX@@3UXMVECTORF32@1@B
CONST	SEGMENT
?g_XMOne@DirectX@@3UXMVECTORF32@1@B DD 03f800000r ; 1	; DirectX::g_XMOne
	DD	03f800000r			; 1
	DD	03f800000r			; 1
	DD	03f800000r			; 1
CONST	ENDS
;	COMDAT ?g_XMMaskW@DirectX@@3UXMVECTORU32@1@B
CONST	SEGMENT
?g_XMMaskW@DirectX@@3UXMVECTORU32@1@B DD 00H		; DirectX::g_XMMaskW
	DD	00H
	DD	00H
	DD	0ffffffffH
CONST	ENDS
;	COMDAT ?g_XMMaskZ@DirectX@@3UXMVECTORU32@1@B
CONST	SEGMENT
?g_XMMaskZ@DirectX@@3UXMVECTORU32@1@B DD 00H		; DirectX::g_XMMaskZ
	DD	00H
	DD	0ffffffffH
	DD	00H
CONST	ENDS
;	COMDAT ?g_XMMaskY@DirectX@@3UXMVECTORU32@1@B
CONST	SEGMENT
?g_XMMaskY@DirectX@@3UXMVECTORU32@1@B DD 00H		; DirectX::g_XMMaskY
	DD	0ffffffffH
	DD	00H
	DD	00H
CONST	ENDS
;	COMDAT ?g_XMMaskX@DirectX@@3UXMVECTORU32@1@B
CONST	SEGMENT
?g_XMMaskX@DirectX@@3UXMVECTORU32@1@B DD 0ffffffffH	; DirectX::g_XMMaskX
	DD	00H
	DD	00H
	DD	00H
CONST	ENDS
;	COMDAT ?g_XMMask3@DirectX@@3UXMVECTORU32@1@B
CONST	SEGMENT
?g_XMMask3@DirectX@@3UXMVECTORU32@1@B DD 0ffffffffH	; DirectX::g_XMMask3
	DD	0ffffffffH
	DD	0ffffffffH
	DD	00H
CONST	ENDS
;	COMDAT ?g_XMMaskXY@DirectX@@3UXMVECTORU32@1@B
CONST	SEGMENT
?g_XMMaskXY@DirectX@@3UXMVECTORU32@1@B DD 0ffffffffH	; DirectX::g_XMMaskXY
	DD	0ffffffffH
	DD	00H
	DD	00H
CONST	ENDS
;	COMDAT ?g_XMNegate3@DirectX@@3UXMVECTORU32@1@B
CONST	SEGMENT
?g_XMNegate3@DirectX@@3UXMVECTORU32@1@B DD 080000000H	; DirectX::g_XMNegate3
	DD	080000000H
	DD	080000000H
	DD	00H
CONST	ENDS
;	COMDAT ?g_XMNegativeZero@DirectX@@3UXMVECTORU32@1@B
CONST	SEGMENT
?g_XMNegativeZero@DirectX@@3UXMVECTORU32@1@B DD 080000000H ; DirectX::g_XMNegativeZero
	DD	080000000H
	DD	080000000H
	DD	080000000H
CONST	ENDS
;	COMDAT ?g_XMNegIdentityR3@DirectX@@3UXMVECTORF32@1@B
CONST	SEGMENT
?g_XMNegIdentityR3@DirectX@@3UXMVECTORF32@1@B DD 000000000r ; 0 ; DirectX::g_XMNegIdentityR3
	DD	000000000r			; 0
	DD	000000000r			; 0
	DD	0bf800000r			; -1
CONST	ENDS
;	COMDAT ?g_XMNegIdentityR2@DirectX@@3UXMVECTORF32@1@B
CONST	SEGMENT
?g_XMNegIdentityR2@DirectX@@3UXMVECTORF32@1@B DD 000000000r ; 0 ; DirectX::g_XMNegIdentityR2
	DD	000000000r			; 0
	DD	0bf800000r			; -1
	DD	000000000r			; 0
CONST	ENDS
;	COMDAT ?g_XMNegIdentityR1@DirectX@@3UXMVECTORF32@1@B
CONST	SEGMENT
?g_XMNegIdentityR1@DirectX@@3UXMVECTORF32@1@B DD 000000000r ; 0 ; DirectX::g_XMNegIdentityR1
	DD	0bf800000r			; -1
	DD	000000000r			; 0
	DD	000000000r			; 0
CONST	ENDS
;	COMDAT ?g_XMNegIdentityR0@DirectX@@3UXMVECTORF32@1@B
CONST	SEGMENT
?g_XMNegIdentityR0@DirectX@@3UXMVECTORF32@1@B DD 0bf800000r ; -1 ; DirectX::g_XMNegIdentityR0
	DD	000000000r			; 0
	DD	000000000r			; 0
	DD	000000000r			; 0
CONST	ENDS
;	COMDAT ?g_XMIdentityR3@DirectX@@3UXMVECTORF32@1@B
CONST	SEGMENT
?g_XMIdentityR3@DirectX@@3UXMVECTORF32@1@B DD 000000000r ; 0 ; DirectX::g_XMIdentityR3
	DD	000000000r			; 0
	DD	000000000r			; 0
	DD	03f800000r			; 1
CONST	ENDS
;	COMDAT ?g_XMIdentityR2@DirectX@@3UXMVECTORF32@1@B
CONST	SEGMENT
?g_XMIdentityR2@DirectX@@3UXMVECTORF32@1@B DD 000000000r ; 0 ; DirectX::g_XMIdentityR2
	DD	000000000r			; 0
	DD	03f800000r			; 1
	DD	000000000r			; 0
CONST	ENDS
;	COMDAT ?g_XMIdentityR1@DirectX@@3UXMVECTORF32@1@B
CONST	SEGMENT
?g_XMIdentityR1@DirectX@@3UXMVECTORF32@1@B DD 000000000r ; 0 ; DirectX::g_XMIdentityR1
	DD	03f800000r			; 1
	DD	000000000r			; 0
	DD	000000000r			; 0
CONST	ENDS
;	COMDAT ?g_XMIdentityR0@DirectX@@3UXMVECTORF32@1@B
CONST	SEGMENT
?g_XMIdentityR0@DirectX@@3UXMVECTORF32@1@B DD 03f800000r ; 1 ; DirectX::g_XMIdentityR0
	DD	000000000r			; 0
	DD	000000000r			; 0
	DD	000000000r			; 0
CONST	ENDS
;	COMDAT ?g_XMPiConstants0@DirectX@@3UXMVECTORF32@1@B
CONST	SEGMENT
?g_XMPiConstants0@DirectX@@3UXMVECTORF32@1@B DD 040490fdbr ; 3.14159 ; DirectX::g_XMPiConstants0
	DD	040c90fdbr			; 6.28319
	DD	03ea2f983r			; 0.31831
	DD	03e22f983r			; 0.159155
CONST	ENDS
;	COMDAT ?g_XMArcEstCoefficients@DirectX@@3UXMVECTORF32@1@B
CONST	SEGMENT
?g_XMArcEstCoefficients@DirectX@@3UXMVECTORF32@1@B DD 03fc90da4r ; 1.57073 ; DirectX::g_XMArcEstCoefficients
	DD	0be593484r			; -0.212114
	DD	03d981627r			; 0.074261
	DD	0bc996e30r			; -0.0187293
CONST	ENDS
;	COMDAT ?g_XMTanEstCoefficients@DirectX@@3UXMVECTORF32@1@B
CONST	SEGMENT
?g_XMTanEstCoefficients@DirectX@@3UXMVECTORF32@1@B DD 0401ef9dbr ; 2.484 ; DirectX::g_XMTanEstCoefficients
	DD	0be482f23r			; -0.195492
	DD	0401de9e6r			; 2.4674
	DD	03ea2f983r			; 0.31831
CONST	ENDS
;	COMDAT ?g_XMATanEstCoefficients1@DirectX@@3UXMVECTORF32@1@B
CONST	SEGMENT
?g_XMATanEstCoefficients1@DirectX@@3UXMVECTORF32@1@B DD 0bea91d04r ; -0.330299 ; DirectX::g_XMATanEstCoefficients1
	DD	03e3876e2r			; 0.180141
	DD	0bdae5a36r			; -0.085133
	DD	03caaae5fr			; 0.0208351
CONST	ENDS
;	COMDAT ?g_XMATanEstCoefficients0@DirectX@@3UXMVECTORF32@1@B
CONST	SEGMENT
?g_XMATanEstCoefficients0@DirectX@@3UXMVECTORF32@1@B DD 03f7ff738r ; 0.999866 ; DirectX::g_XMATanEstCoefficients0
	DD	03f7ff738r			; 0.999866
	DD	03f7ff738r			; 0.999866
	DD	03f7ff738r			; 0.999866
CONST	ENDS
;	COMDAT ?g_XMATanCoefficients1@DirectX@@3UXMVECTORF32@1@B
CONST	SEGMENT
?g_XMATanCoefficients1@DirectX@@3UXMVECTORF32@1@B DD 0bd9a3174r ; -0.0752896 ; DirectX::g_XMATanCoefficients1
	DD	03d2fc1fer			; 0.0429096
	DD	0bc846e02r			; -0.0161657
	DD	03b3bd74ar			; 0.00286623
CONST	ENDS
;	COMDAT ?g_XMATanCoefficients0@DirectX@@3UXMVECTORF32@1@B
CONST	SEGMENT
?g_XMATanCoefficients0@DirectX@@3UXMVECTORF32@1@B DD 0beaaaa6cr ; -0.333331 ; DirectX::g_XMATanCoefficients0
	DD	03e4cbbe5r			; 0.199936
	DD	0be117fc7r			; -0.142089
	DD	03dda3d83r			; 0.106563
CONST	ENDS
;	COMDAT ?g_XMArcCoefficients1@DirectX@@3UXMVECTORF32@1@B
CONST	SEGMENT
?g_XMArcCoefficients1@DirectX@@3UXMVECTORF32@1@B DD 03cfd10f8r ; 0.0308919 ; DirectX::g_XMArcCoefficients1
	DD	0bc8bfc66r			; -0.0170881
	DD	03bda90c5r			; 0.00667009
	DD	0baa57a2cr			; -0.00126249
CONST	ENDS
;	COMDAT ?g_XMArcCoefficients0@DirectX@@3UXMVECTORF32@1@B
CONST	SEGMENT
?g_XMArcCoefficients0@DirectX@@3UXMVECTORF32@1@B DD 03fc90fdar ; 1.5708 ; DirectX::g_XMArcCoefficients0
	DD	0be5bbfcar			; -0.214599
	DD	03db63a9er			; 0.088979
	DD	0bd4d8392r			; -0.0501743
CONST	ENDS
;	COMDAT ?g_XMTanCoefficients2@DirectX@@3UXMVECTORF32@1@B
CONST	SEGMENT
?g_XMTanCoefficients2@DirectX@@3UXMVECTORF32@1@B DD 03a1aac12r ; 0.000590027 ; DirectX::g_XMTanCoefficients2
	DD	0397abeb9r			; 0.000239129
	DD	038cb3f0cr			; 9.69154e-05
	DD	03824bec9r			; 3.92783e-05
CONST	ENDS
;	COMDAT ?g_XMTanCoefficients1@DirectX@@3UXMVECTORF32@1@B
CONST	SEGMENT
?g_XMTanCoefficients1@DirectX@@3UXMVECTORF32@1@B DD 03cb327a4r ; 0.0218695 ; DirectX::g_XMTanCoefficients1
	DD	03c11371br			; 0.00886324
	DD	03b6b69e9r			; 0.00359213
	DD	03abed1b3r			; 0.00145583
CONST	ENDS
;	COMDAT ?g_XMTanCoefficients0@DirectX@@3UXMVECTORF32@1@B
CONST	SEGMENT
?g_XMTanCoefficients0@DirectX@@3UXMVECTORF32@1@B DD 03f800000r ; 1 ; DirectX::g_XMTanCoefficients0
	DD	03eaaaaabr			; 0.333333
	DD	03e088889r			; 0.133333
	DD	03d5d0dd1r			; 0.0539683
CONST	ENDS
;	COMDAT ?g_XMCosCoefficients1@DirectX@@3UXMVECTORF32@1@B
CONST	SEGMENT
?g_XMCosCoefficients1@DirectX@@3UXMVECTORF32@1@B DD 0b48bdd11r ; -2.60516e-07 ; DirectX::g_XMCosCoefficients1
	DD	0befff67er			; -0.499927
	DD	03d29f587r			; 0.0414939
	DD	0baa69fdbr			; -0.00127124
CONST	ENDS
;	COMDAT ?g_XMCosCoefficients0@DirectX@@3UXMVECTORF32@1@B
CONST	SEGMENT
?g_XMCosCoefficients0@DirectX@@3UXMVECTORF32@1@B DD 0bf000000r ; -0.5 ; DirectX::g_XMCosCoefficients0
	DD	03d2aaaa3r			; 0.0416666
	DD	0bab609aar			; -0.00138884
	DD	037cfb4c2r			; 2.47605e-05
CONST	ENDS
;	COMDAT ?g_XMSinCoefficients1@DirectX@@3UXMVECTORF32@1@B
CONST	SEGMENT
?g_XMSinCoefficients1@DirectX@@3UXMVECTORF32@1@B DD 0b2cd365br ; -2.38899e-08 ; DirectX::g_XMSinCoefficients1
	DD	0be2aa888r			; -0.166659
	DD	03c08373cr			; 0.00831395
	DD	0b9423ec8r			; -0.000185247
CONST	ENDS
;	COMDAT ?g_XMSinCoefficients0@DirectX@@3UXMVECTORF32@1@B
CONST	SEGMENT
?g_XMSinCoefficients0@DirectX@@3UXMVECTORF32@1@B DD 0be2aaaabr ; -0.166667 ; DirectX::g_XMSinCoefficients0
	DD	03c088886r			; 0.00833333
	DD	0b9500bf1r			; -0.000198409
	DD	03638b88er			; 2.75256e-06
CONST	ENDS
PUBLIC	?__empty_global_delete@@YAXPEAX@Z		; __empty_global_delete
PUBLIC	?__empty_global_delete@@YAXPEAX_K@Z		; __empty_global_delete
PUBLIC	?__empty_global_delete@@YAXPEAXW4align_val_t@std@@@Z ; __empty_global_delete
PUBLIC	?__empty_global_delete@@YAXPEAX_KW4align_val_t@std@@@Z ; __empty_global_delete
PUBLIC	??I@YA?AW4D3D12_DESCRIPTOR_HEAP_FLAGS@@W40@0@Z	; operator&
PUBLIC	fabsf
PUBLIC	?XMConvertToRadians@DirectX@@YAMM@Z		; DirectX::XMConvertToRadians
PUBLIC	??BXMVECTORF32@DirectX@@QEBA?AT__m128@@XZ	; DirectX::XMVECTORF32::operator __m128
PUBLIC	??BXMVECTORI32@DirectX@@QEBA?AT__m128@@XZ	; DirectX::XMVECTORI32::operator __m128
PUBLIC	??BXMVECTORU32@DirectX@@QEBA?AT__m128@@XZ	; DirectX::XMVECTORU32::operator __m128
PUBLIC	??0XMFLOAT2@DirectX@@QEAA@MM@Z			; DirectX::XMFLOAT2::XMFLOAT2
PUBLIC	??0XMFLOAT3@DirectX@@QEAA@MMM@Z			; DirectX::XMFLOAT3::XMFLOAT3
PUBLIC	??0XMFLOAT4@DirectX@@QEAA@MMMM@Z		; DirectX::XMFLOAT4::XMFLOAT4
PUBLIC	?XMLoadFloat3@DirectX@@YQ?AT__m128@@PEBUXMFLOAT3@1@@Z ; DirectX::XMLoadFloat3
PUBLIC	?XMStoreFloat4x4@DirectX@@YQXPEAUXMFLOAT4X4@1@UXMMATRIX@1@@Z ; DirectX::XMStoreFloat4x4
PUBLIC	?XMVectorZero@DirectX@@YQ?AT__m128@@XZ		; DirectX::XMVectorZero
PUBLIC	?XMVectorSet@DirectX@@YQ?AT__m128@@MMMM@Z	; DirectX::XMVectorSet
PUBLIC	?XMVectorSelect@DirectX@@YQ?AT__m128@@T2@00@Z	; DirectX::XMVectorSelect
PUBLIC	?XMVectorNegate@DirectX@@YQ?AT__m128@@T2@@Z	; DirectX::XMVectorNegate
PUBLIC	?XMVector3Equal@DirectX@@YQ_NT__m128@@0@Z	; DirectX::XMVector3Equal
PUBLIC	?XMVector3IsInfinite@DirectX@@YQ_NT__m128@@@Z	; DirectX::XMVector3IsInfinite
PUBLIC	?XMVector3Dot@DirectX@@YQ?AT__m128@@T2@0@Z	; DirectX::XMVector3Dot
PUBLIC	?XMVector3Cross@DirectX@@YQ?AT__m128@@T2@0@Z	; DirectX::XMVector3Cross
PUBLIC	?XMVector3Normalize@DirectX@@YQ?AT__m128@@T2@@Z	; DirectX::XMVector3Normalize
PUBLIC	?XMMatrixMultiply@DirectX@@YQ?AUXMMATRIX@1@U21@AEBU21@@Z ; DirectX::XMMatrixMultiply
PUBLIC	?XMMatrixTranspose@DirectX@@YQ?AUXMMATRIX@1@U21@@Z ; DirectX::XMMatrixTranspose
PUBLIC	?XMMatrixLookToLH@DirectX@@YQ?AUXMMATRIX@1@T__m128@@00@Z ; DirectX::XMMatrixLookToLH
PUBLIC	?XMMatrixPerspectiveFovLH@DirectX@@YQ?AUXMMATRIX@1@MMMM@Z ; DirectX::XMMatrixPerspectiveFovLH
PUBLIC	?XMScalarNearEqual@DirectX@@YA_NMMM@Z		; DirectX::XMScalarNearEqual
PUBLIC	?XMScalarSinCos@DirectX@@YAXPEAM0M@Z		; DirectX::XMScalarSinCos
PUBLIC	??2@YAPEAX_KPEAX@Z				; operator new
PUBLIC	?InternalRelease@?$ComPtr@UIUnknown@@@WRL@Microsoft@@IEAAKXZ ; Microsoft::WRL::ComPtr<IUnknown>::InternalRelease
PUBLIC	??1?$ComPtr@UIUnknown@@@WRL@Microsoft@@QEAA@XZ	; Microsoft::WRL::ComPtr<IUnknown>::~ComPtr<IUnknown>
PUBLIC	??_E?$ComPtr@UIUnknown@@@WRL@Microsoft@@QEAAPEAXI@Z ; Microsoft::WRL::ComPtr<IUnknown>::`vector deleting destructor'
PUBLIC	??0CD3DX12_HEAP_PROPERTIES@@QEAA@W4D3D12_HEAP_TYPE@@II@Z ; CD3DX12_HEAP_PROPERTIES::CD3DX12_HEAP_PROPERTIES
PUBLIC	?Transition@CD3DX12_RESOURCE_BARRIER@@SA?AU1@PEAUID3D12Resource@@W4D3D12_RESOURCE_STATES@@1IW4D3D12_RESOURCE_BARRIER_FLAGS@@@Z ; CD3DX12_RESOURCE_BARRIER::Transition
PUBLIC	??0CD3DX12_CPU_DESCRIPTOR_HANDLE@@QEAA@AEBUD3D12_CPU_DESCRIPTOR_HANDLE@@@Z ; CD3DX12_CPU_DESCRIPTOR_HANDLE::CD3DX12_CPU_DESCRIPTOR_HANDLE
PUBLIC	??0CD3DX12_RESOURCE_DESC@@QEAA@W4D3D12_RESOURCE_DIMENSION@@_K1IGGW4DXGI_FORMAT@@IIW4D3D12_TEXTURE_LAYOUT@@W4D3D12_RESOURCE_FLAGS@@@Z ; CD3DX12_RESOURCE_DESC::CD3DX12_RESOURCE_DESC
PUBLIC	?Buffer@CD3DX12_RESOURCE_DESC@@SA?AU1@_KW4D3D12_RESOURCE_FLAGS@@0@Z ; CD3DX12_RESOURCE_DESC::Buffer
PUBLIC	?Tex2D@CD3DX12_RESOURCE_DESC@@SA?AU1@W4DXGI_FORMAT@@_KIGGIIW4D3D12_RESOURCE_FLAGS@@W4D3D12_TEXTURE_LAYOUT@@1@Z ; CD3DX12_RESOURCE_DESC::Tex2D
PUBLIC	??0Renderer@@QEAA@XZ				; Renderer::Renderer
PUBLIC	?is_constant_evaluated@std@@YA_NXZ		; std::is_constant_evaluated
PUBLIC	wmemcpy
PUBLIC	?max@?$numeric_limits@_J@std@@SA_JXZ		; std::numeric_limits<__int64>::max
PUBLIC	?_Fnv1a_append_bytes@std@@YA_K_KQEBE_K@Z	; std::_Fnv1a_append_bytes
PUBLIC	??0exception@std@@QEAA@QEBD@Z			; std::exception::exception
PUBLIC	??0exception@std@@QEAA@QEBDH@Z			; std::exception::exception
PUBLIC	??0exception@std@@QEAA@AEBV01@@Z		; std::exception::exception
PUBLIC	??1exception@std@@UEAA@XZ			; std::exception::~exception
PUBLIC	?what@exception@std@@UEBAPEBDXZ			; std::exception::what
PUBLIC	??_Gexception@std@@UEAAPEAXI@Z			; std::exception::`scalar deleting destructor'
PUBLIC	??0bad_alloc@std@@AEAA@QEBD@Z			; std::bad_alloc::bad_alloc
PUBLIC	??1bad_alloc@std@@UEAA@XZ			; std::bad_alloc::~bad_alloc
PUBLIC	??0bad_alloc@std@@QEAA@AEBV01@@Z		; std::bad_alloc::bad_alloc
PUBLIC	??_Gbad_alloc@std@@UEAAPEAXI@Z			; std::bad_alloc::`scalar deleting destructor'
PUBLIC	??0bad_array_new_length@std@@QEAA@XZ		; std::bad_array_new_length::bad_array_new_length
PUBLIC	??1bad_array_new_length@std@@UEAA@XZ		; std::bad_array_new_length::~bad_array_new_length
PUBLIC	??0bad_array_new_length@std@@QEAA@AEBV01@@Z	; std::bad_array_new_length::bad_array_new_length
PUBLIC	??_Gbad_array_new_length@std@@UEAAPEAXI@Z	; std::bad_array_new_length::`scalar deleting destructor'
PUBLIC	?_Throw_bad_array_new_length@std@@YAXXZ		; std::_Throw_bad_array_new_length
PUBLIC	?_Allocate@_Default_allocate_traits@std@@SAPEAX_K@Z ; std::_Default_allocate_traits::_Allocate
PUBLIC	?_Adjust_manually_vector_aligned@std@@YAXAEAPEAXAEA_K@Z ; std::_Adjust_manually_vector_aligned
PUBLIC	??0_Container_proxy@std@@QEAA@PEAU_Container_base12@1@@Z ; std::_Container_proxy::_Container_proxy
PUBLIC	??0_Container_base12@std@@QEAA@XZ		; std::_Container_base12::_Container_base12
PUBLIC	?_Orphan_all@_Container_base12@std@@QEAAXXZ	; std::_Container_base12::_Orphan_all
PUBLIC	?_Orphan_all_unlocked_v3@_Container_base12@std@@AEAAXXZ ; std::_Container_base12::_Orphan_all_unlocked_v3
PUBLIC	?_Orphan_all_locked_v3@_Container_base12@std@@AEAAXXZ ; std::_Container_base12::_Orphan_all_locked_v3
PUBLIC	??0_Iterator_base12@std@@QEAA@XZ		; std::_Iterator_base12::_Iterator_base12
PUBLIC	??1_Iterator_base12@std@@QEAA@XZ		; std::_Iterator_base12::~_Iterator_base12
PUBLIC	?_Adopt@_Iterator_base12@std@@QEAAXPEBU_Container_base12@2@@Z ; std::_Iterator_base12::_Adopt
PUBLIC	?_Getcont@_Iterator_base12@std@@QEBAPEBU_Container_base12@2@XZ ; std::_Iterator_base12::_Getcont
PUBLIC	?_Adopt_unlocked@_Iterator_base12@std@@AEAAXPEBU_Container_base12@2@@Z ; std::_Iterator_base12::_Adopt_unlocked
PUBLIC	?_Adopt_locked@_Iterator_base12@std@@AEAAXPEBU_Container_base12@2@@Z ; std::_Iterator_base12::_Adopt_locked
PUBLIC	?_Orphan_me_unlocked_v3@_Iterator_base12@std@@AEAAXXZ ; std::_Iterator_base12::_Orphan_me_unlocked_v3
PUBLIC	?_Orphan_me_locked_v3@_Iterator_base12@std@@AEAAXXZ ; std::_Iterator_base12::_Orphan_me_locked_v3
PUBLIC	??$exchange@PEAU_Iterator_base12@std@@$$T@std@@YAPEAU_Iterator_base12@0@AEAPEAU10@$$QEA$$T@Z ; std::exchange<std::_Iterator_base12 *,std::nullptr_t>
PUBLIC	?_Release@_Basic_container_proxy_ptr12@std@@QEAAXXZ ; std::_Basic_container_proxy_ptr12::_Release
PUBLIC	??0_Basic_container_proxy_ptr12@std@@IEAA@XZ	; std::_Basic_container_proxy_ptr12::_Basic_container_proxy_ptr12
PUBLIC	??$addressof@U_Container_base12@std@@@std@@YAPEAU_Container_base12@0@AEAU10@@Z ; std::addressof<std::_Container_base12>
PUBLIC	??$_Construct_in_place@U_Container_proxy@std@@PEAU_Container_base12@2@@std@@YAXAEAU_Container_proxy@0@$$QEAPEAU_Container_base12@0@@Z ; std::_Construct_in_place<std::_Container_proxy,std::_Container_base12 *>
PUBLIC	?copy@?$_Char_traits@DH@std@@SAPEADQEADQEBD_K@Z	; std::_Char_traits<char,int>::copy
PUBLIC	?assign@?$_Char_traits@DH@std@@SAXAEADAEBD@Z	; std::_Char_traits<char,int>::assign
PUBLIC	?length@?$_Narrow_char_traits@DH@std@@SA_KQEBD@Z ; std::_Narrow_char_traits<char,int>::length
PUBLIC	?assign@?$_Narrow_char_traits@DH@std@@SAXAEADAEBD@Z ; std::_Narrow_char_traits<char,int>::assign
PUBLIC	?_Xlen_string@std@@YAXXZ			; std::_Xlen_string
PUBLIC	??0?$allocator@D@std@@QEAA@XZ			; std::allocator<char>::allocator<char>
PUBLIC	?allocate@?$allocator@D@std@@QEAAPEAD_K@Z	; std::allocator<char>::allocate
PUBLIC	?max_size@?$_Default_allocator_traits@V?$allocator@D@std@@@std@@SA_KAEBV?$allocator@D@2@@Z ; std::_Default_allocator_traits<std::allocator<char> >::max_size
PUBLIC	??0?$_String_val@U?$_Simple_types@D@std@@@std@@QEAA@XZ ; std::_String_val<std::_Simple_types<char> >::_String_val<std::_Simple_types<char> >
PUBLIC	??0_Bxty@?$_String_val@U?$_Simple_types@D@std@@@std@@QEAA@XZ ; std::_String_val<std::_Simple_types<char> >::_Bxty::_Bxty
PUBLIC	??1_Bxty@?$_String_val@U?$_Simple_types@D@std@@@std@@QEAA@XZ ; std::_String_val<std::_Simple_types<char> >::_Bxty::~_Bxty
PUBLIC	??1?$_String_val@U?$_Simple_types@D@std@@@std@@QEAA@XZ ; std::_String_val<std::_Simple_types<char> >::~_String_val<std::_Simple_types<char> >
PUBLIC	??0?$basic_string@DU?$char_traits@D@std@@V?$allocator@D@2@@std@@QEAA@QEBD@Z ; std::basic_string<char,std::char_traits<char>,std::allocator<char> >::basic_string<char,std::char_traits<char>,std::allocator<char> >
PUBLIC	?_Start_element_lifetimes@?$basic_string@DU?$char_traits@D@std@@V?$allocator@D@2@@std@@CAXQEAD_K@Z ; std::basic_string<char,std::char_traits<char>,std::allocator<char> >::_Start_element_lifetimes
PUBLIC	?max_size@?$basic_string@DU?$char_traits@D@std@@V?$allocator@D@2@@std@@QEBA_KXZ ; std::basic_string<char,std::char_traits<char>,std::allocator<char> >::max_size
PUBLIC	?_Calculate_growth@?$basic_string@DU?$char_traits@D@std@@V?$allocator@D@2@@std@@CA_K_K00@Z ; std::basic_string<char,std::char_traits<char>,std::allocator<char> >::_Calculate_growth
PUBLIC	?_Calculate_growth@?$basic_string@DU?$char_traits@D@std@@V?$allocator@D@2@@std@@AEBA_K_K@Z ; std::basic_string<char,std::char_traits<char>,std::allocator<char> >::_Calculate_growth
PUBLIC	?_Getal@?$basic_string@DU?$char_traits@D@std@@V?$allocator@D@2@@std@@AEAAAEAV?$allocator@D@2@XZ ; std::basic_string<char,std::char_traits<char>,std::allocator<char> >::_Getal
PUBLIC	?_Getal@?$basic_string@DU?$char_traits@D@std@@V?$allocator@D@2@@std@@AEBAAEBV?$allocator@D@2@XZ ; std::basic_string<char,std::char_traits<char>,std::allocator<char> >::_Getal
PUBLIC	?_Get_first@?$_Compressed_pair@V?$allocator@D@std@@V?$_String_val@U?$_Simple_types@D@std@@@2@$00@std@@QEAAAEAV?$allocator@D@2@XZ ; std::_Compressed_pair<std::allocator<char>,std::_String_val<std::_Simple_types<char> >,1>::_Get_first
PUBLIC	?_Get_first@?$_Compressed_pair@V?$allocator@D@std@@V?$_String_val@U?$_Simple_types@D@std@@@2@$00@std@@QEBAAEBV?$allocator@D@2@XZ ; std::_Compressed_pair<std::allocator<char>,std::_String_val<std::_Simple_types<char> >,1>::_Get_first
PUBLIC	??1?$_Compressed_pair@V?$allocator@D@std@@V?$_String_val@U?$_Simple_types@D@std@@@2@$00@std@@QEAA@XZ ; std::_Compressed_pair<std::allocator<char>,std::_String_val<std::_Simple_types<char> >,1>::~_Compressed_pair<std::allocator<char>,std::_String_val<std::_Simple_types<char> >,1>
PUBLIC	??0logic_error@std@@QEAA@PEBD@Z			; std::logic_error::logic_error
PUBLIC	??1logic_error@std@@UEAA@XZ			; std::logic_error::~logic_error
PUBLIC	??0logic_error@std@@QEAA@AEBV01@@Z		; std::logic_error::logic_error
PUBLIC	??_Glogic_error@std@@UEAAPEAXI@Z		; std::logic_error::`scalar deleting destructor'
PUBLIC	??0out_of_range@std@@QEAA@PEBD@Z		; std::out_of_range::out_of_range
PUBLIC	??1out_of_range@std@@UEAA@XZ			; std::out_of_range::~out_of_range
PUBLIC	??0out_of_range@std@@QEAA@AEBV01@@Z		; std::out_of_range::out_of_range
PUBLIC	??_Gout_of_range@std@@UEAAPEAXI@Z		; std::out_of_range::`scalar deleting destructor'
PUBLIC	?GetFirstCpuHandle@DescriptorHeap@DirectX@@QEBA?AUD3D12_CPU_DESCRIPTOR_HANDLE@@XZ ; DirectX::DescriptorHeap::GetFirstCpuHandle
PUBLIC	?GetGpuHandle@DescriptorHeap@DirectX@@QEBA?AUD3D12_GPU_DESCRIPTOR_HANDLE@@_K@Z ; DirectX::DescriptorHeap::GetGpuHandle
PUBLIC	?GetCpuHandle@DescriptorHeap@DirectX@@QEBA?AUD3D12_CPU_DESCRIPTOR_HANDLE@@_K@Z ; DirectX::DescriptorHeap::GetCpuHandle
PUBLIC	?Heap@DescriptorHeap@DirectX@@QEBAPEAUID3D12DescriptorHeap@@XZ ; DirectX::DescriptorHeap::Heap
PUBLIC	?InternalRelease@?$ComPtr@UID3D12DescriptorHeap@@@WRL@Microsoft@@IEAAKXZ ; Microsoft::WRL::ComPtr<ID3D12DescriptorHeap>::InternalRelease
PUBLIC	??1?$ComPtr@UID3D12DescriptorHeap@@@WRL@Microsoft@@QEAA@XZ ; Microsoft::WRL::ComPtr<ID3D12DescriptorHeap>::~ComPtr<ID3D12DescriptorHeap>
PUBLIC	?Get@?$ComPtr@UID3D12DescriptorHeap@@@WRL@Microsoft@@QEBAPEAUID3D12DescriptorHeap@@XZ ; Microsoft::WRL::ComPtr<ID3D12DescriptorHeap>::Get
PUBLIC	??1DescriptorHeap@DirectX@@QEAA@XZ		; DirectX::DescriptorHeap::~DescriptorHeap
PUBLIC	??_GDescriptorHeap@DirectX@@QEAAPEAXI@Z		; DirectX::DescriptorHeap::`scalar deleting destructor'
PUBLIC	??$?9UID3D12DescriptorHeap@@@WRL@Microsoft@@YA_NAEBV?$ComPtr@UID3D12DescriptorHeap@@@01@$$T@Z ; Microsoft::WRL::operator!=<ID3D12DescriptorHeap>
PUBLIC	?GetWitdh@FWindowsWindow@@QEAAIXZ		; FWindowsWindow::GetWitdh
PUBLIC	?GetHeight@FWindowsWindow@@QEAAIXZ		; FWindowsWindow::GetHeight
PUBLIC	?GetHandle@FWindowsWindow@@QEAAPEAUHWND__@@XZ	; FWindowsWindow::GetHandle
PUBLIC	?GetRefreshRate@FWindowsWindow@@QEAAIXZ		; FWindowsWindow::GetRefreshRate
PUBLIC	?GetWindow@FWindowsWindowManager@@QEAAPEAVFWindowsWindow@@I@Z ; FWindowsWindowManager::GetWindow
PUBLIC	?size@?$vector@PEAVFWindowsWindow@@V?$allocator@PEAVFWindowsWindow@@@std@@@std@@QEBA_KXZ ; std::vector<FWindowsWindow *,std::allocator<FWindowsWindow *> >::size
PUBLIC	??A?$vector@PEAVFWindowsWindow@@V?$allocator@PEAVFWindowsWindow@@@std@@@std@@QEAAAEAPEAVFWindowsWindow@@_K@Z ; std::vector<FWindowsWindow *,std::allocator<FWindowsWindow *> >::operator[]
PUBLIC	?cos@@YAMM@Z					; cos
PUBLIC	?sin@@YAMM@Z					; sin
PUBLIC	?CalcConstantBufferByteSize@D3DUtil@@SAII@Z	; D3DUtil::CalcConstantBufferByteSize
PUBLIC	?InitPipelines@D3DUtil@@SAXXZ			; D3DUtil::InitPipelines
PUBLIC	?GetPipeline@D3DUtil@@SAPEAVD3D12PipelineShaderRootSignature@@I@Z ; D3DUtil::GetPipeline
PUBLIC	?GetViewProjMatrix@D3DUtil@@SA?AUXMFLOAT4X4@DirectX@@PEAUD3D12Camera@@@Z ; D3DUtil::GetViewProjMatrix
PUBLIC	??R?$_Conditionally_enabled_hash@I$00@std@@QEBA_KAEBI@Z ; std::_Conditionally_enabled_hash<unsigned int,1>::operator()
PUBLIC	?_Do_hash@?$hash@I@std@@SA_KAEBI@Z		; std::hash<unsigned int>::_Do_hash
PUBLIC	??R?$equal_to@I@std@@QEBA_NAEBI0@Z		; std::equal_to<unsigned int>::operator()
PUBLIC	?_Get_first@?$_Compressed_pair@U?$equal_to@I@std@@M$00@std@@QEBAAEBU?$equal_to@I@2@XZ ; std::_Compressed_pair<std::equal_to<unsigned int>,float,1>::_Get_first
PUBLIC	?_Get_first@?$_Compressed_pair@U?$hash@I@std@@V?$_Compressed_pair@U?$equal_to@I@std@@M$00@2@$00@std@@QEBAAEBU?$hash@I@2@XZ ; std::_Compressed_pair<std::hash<unsigned int>,std::_Compressed_pair<std::equal_to<unsigned int>,float,1>,1>::_Get_first
PUBLIC	?_Make_iter@?$list@U?$pair@$$CBIV?$unique_ptr@VD3D12PipelineShaderRootSignature@@U?$default_delete@VD3D12PipelineShaderRootSignature@@@std@@@std@@@std@@V?$allocator@U?$pair@$$CBIV?$unique_ptr@VD3D12PipelineShaderRootSignature@@U?$default_delete@VD3D12PipelineShaderRootSignature@@@std@@@std@@@std@@@2@@std@@QEBA?AV?$_List_iterator@V?$_List_val@U?$_List_simple_types@U?$pair@$$CBIV?$unique_ptr@VD3D12PipelineShaderRootSignature@@U?$default_delete@VD3D12PipelineShaderRootSignature@@@std@@@std@@@std@@@std@@@std@@@2@PEAU?$_List_node@U?$pair@$$CBIV?$unique_ptr@VD3D12PipelineShaderRootSignature@@U?$default_delete@VD3D12PipelineShaderRootSignature@@@std@@@std@@@std@@PEAX@2@@Z ; std::list<std::pair<unsigned int const ,std::unique_ptr<D3D12PipelineShaderRootSignature,std::default_delete<D3D12PipelineShaderRootSignature> > >,std::allocator<std::pair<unsigned int const ,std::unique_ptr<D3D12PipelineShaderRootSignature,std::default_delete<D3D12PipelineShaderRootSignature> > > > >::_Make_iter
PUBLIC	??$find@X@?$_Hash@V?$_Umap_traits@IV?$unique_ptr@VD3D12PipelineShaderRootSignature@@U?$default_delete@VD3D12PipelineShaderRootSignature@@@std@@@std@@V?$_Uhash_compare@IU?$hash@I@std@@U?$equal_to@I@2@@2@V?$allocator@U?$pair@$$CBIV?$unique_ptr@VD3D12PipelineShaderRootSignature@@U?$default_delete@VD3D12PipelineShaderRootSignature@@@std@@@std@@@std@@@2@$0A@@std@@@std@@QEAA?AV?$_List_iterator@V?$_List_val@U?$_List_simple_types@U?$pair@$$CBIV?$unique_ptr@VD3D12PipelineShaderRootSignature@@U?$default_delete@VD3D12PipelineShaderRootSignature@@@std@@@std@@@std@@@std@@@std@@@1@AEBI@Z ; std::_Hash<std::_Umap_traits<unsigned int,std::unique_ptr<D3D12PipelineShaderRootSignature,std::default_delete<D3D12PipelineShaderRootSignature> >,std::_Uhash_compare<unsigned int,std::hash<unsigned int>,std::equal_to<unsigned int> >,std::allocator<std::pair<unsigned int const ,std::unique_ptr<D3D12PipelineShaderRootSignature,std::default_delete<D3D12PipelineShaderRootSignature> > > >,0> >::find<void>
PUBLIC	??0?$_List_unchecked_const_iterator@V?$_List_val@U?$_List_simple_types@U?$pair@$$CBIV?$unique_ptr@VD3D12PipelineShaderRootSignature@@U?$default_delete@VD3D12PipelineShaderRootSignature@@@std@@@std@@@std@@@std@@@std@@U_Iterator_base12@2@@std@@QEAA@PEAU?$_List_node@U?$pair@$$CBIV?$unique_ptr@VD3D12PipelineShaderRootSignature@@U?$default_delete@VD3D12PipelineShaderRootSignature@@@std@@@std@@@std@@PEAX@1@PEBV?$_List_val@U?$_List_simple_types@U?$pair@$$CBIV?$unique_ptr@VD3D12PipelineShaderRootSignature@@U?$default_delete@VD3D12PipelineShaderRootSignature@@@std@@@std@@@std@@@std@@@1@@Z ; std::_List_unchecked_const_iterator<std::_List_val<std::_List_simple_types<std::pair<unsigned int const ,std::unique_ptr<D3D12PipelineShaderRootSignature,std::default_delete<D3D12PipelineShaderRootSignature> > > > >,std::_Iterator_base12>::_List_unchecked_const_iterator<std::_List_val<std::_List_simple_types<std::pair<unsigned int const ,std::unique_ptr<D3D12PipelineShaderRootSignature,std::default_delete<D3D12PipelineShaderRootSignature> > > > >,std::_Iterator_base12>
PUBLIC	??1?$_List_unchecked_const_iterator@V?$_List_val@U?$_List_simple_types@U?$pair@$$CBIV?$unique_ptr@VD3D12PipelineShaderRootSignature@@U?$default_delete@VD3D12PipelineShaderRootSignature@@@std@@@std@@@std@@@std@@@std@@U_Iterator_base12@2@@std@@QEAA@XZ ; std::_List_unchecked_const_iterator<std::_List_val<std::_List_simple_types<std::pair<unsigned int const ,std::unique_ptr<D3D12PipelineShaderRootSignature,std::default_delete<D3D12PipelineShaderRootSignature> > > > >,std::_Iterator_base12>::~_List_unchecked_const_iterator<std::_List_val<std::_List_simple_types<std::pair<unsigned int const ,std::unique_ptr<D3D12PipelineShaderRootSignature,std::default_delete<D3D12PipelineShaderRootSignature> > > > >,std::_Iterator_base12>
PUBLIC	??D?$_List_const_iterator@V?$_List_val@U?$_List_simple_types@U?$pair@$$CBIV?$unique_ptr@VD3D12PipelineShaderRootSignature@@U?$default_delete@VD3D12PipelineShaderRootSignature@@@std@@@std@@@std@@@std@@@std@@@std@@QEBAAEBU?$pair@$$CBIV?$unique_ptr@VD3D12PipelineShaderRootSignature@@U?$default_delete@VD3D12PipelineShaderRootSignature@@@std@@@std@@@1@XZ ; std::_List_const_iterator<std::_List_val<std::_List_simple_types<std::pair<unsigned int const ,std::unique_ptr<D3D12PipelineShaderRootSignature,std::default_delete<D3D12PipelineShaderRootSignature> > > > > >::operator*
PUBLIC	??1?$_List_const_iterator@V?$_List_val@U?$_List_simple_types@U?$pair@$$CBIV?$unique_ptr@VD3D12PipelineShaderRootSignature@@U?$default_delete@VD3D12PipelineShaderRootSignature@@@std@@@std@@@std@@@std@@@std@@@std@@QEAA@XZ ; std::_List_const_iterator<std::_List_val<std::_List_simple_types<std::pair<unsigned int const ,std::unique_ptr<D3D12PipelineShaderRootSignature,std::default_delete<D3D12PipelineShaderRootSignature> > > > > >::~_List_const_iterator<std::_List_val<std::_List_simple_types<std::pair<unsigned int const ,std::unique_ptr<D3D12PipelineShaderRootSignature,std::default_delete<D3D12PipelineShaderRootSignature> > > > > >
PUBLIC	??0?$_List_const_iterator@V?$_List_val@U?$_List_simple_types@U?$pair@$$CBIV?$unique_ptr@VD3D12PipelineShaderRootSignature@@U?$default_delete@VD3D12PipelineShaderRootSignature@@@std@@@std@@@std@@@std@@@std@@@std@@QEAA@PEAU?$_List_node@U?$pair@$$CBIV?$unique_ptr@VD3D12PipelineShaderRootSignature@@U?$default_delete@VD3D12PipelineShaderRootSignature@@@std@@@std@@@std@@PEAX@1@PEBV?$_List_val@U?$_List_simple_types@U?$pair@$$CBIV?$unique_ptr@VD3D12PipelineShaderRootSignature@@U?$default_delete@VD3D12PipelineShaderRootSignature@@@std@@@std@@@std@@@std@@@1@@Z ; std::_List_const_iterator<std::_List_val<std::_List_simple_types<std::pair<unsigned int const ,std::unique_ptr<D3D12PipelineShaderRootSignature,std::default_delete<D3D12PipelineShaderRootSignature> > > > > >::_List_const_iterator<std::_List_val<std::_List_simple_types<std::pair<unsigned int const ,std::unique_ptr<D3D12PipelineShaderRootSignature,std::default_delete<D3D12PipelineShaderRootSignature> > > > > >
PUBLIC	??D?$_List_iterator@V?$_List_val@U?$_List_simple_types@U?$pair@$$CBIV?$unique_ptr@VD3D12PipelineShaderRootSignature@@U?$default_delete@VD3D12PipelineShaderRootSignature@@@std@@@std@@@std@@@std@@@std@@@std@@QEBAAEAU?$pair@$$CBIV?$unique_ptr@VD3D12PipelineShaderRootSignature@@U?$default_delete@VD3D12PipelineShaderRootSignature@@@std@@@std@@@1@XZ ; std::_List_iterator<std::_List_val<std::_List_simple_types<std::pair<unsigned int const ,std::unique_ptr<D3D12PipelineShaderRootSignature,std::default_delete<D3D12PipelineShaderRootSignature> > > > > >::operator*
PUBLIC	??C?$_List_iterator@V?$_List_val@U?$_List_simple_types@U?$pair@$$CBIV?$unique_ptr@VD3D12PipelineShaderRootSignature@@U?$default_delete@VD3D12PipelineShaderRootSignature@@@std@@@std@@@std@@@std@@@std@@@std@@QEBAPEAU?$pair@$$CBIV?$unique_ptr@VD3D12PipelineShaderRootSignature@@U?$default_delete@VD3D12PipelineShaderRootSignature@@@std@@@std@@@1@XZ ; std::_List_iterator<std::_List_val<std::_List_simple_types<std::pair<unsigned int const ,std::unique_ptr<D3D12PipelineShaderRootSignature,std::default_delete<D3D12PipelineShaderRootSignature> > > > > >::operator->
PUBLIC	??1?$_List_iterator@V?$_List_val@U?$_List_simple_types@U?$pair@$$CBIV?$unique_ptr@VD3D12PipelineShaderRootSignature@@U?$default_delete@VD3D12PipelineShaderRootSignature@@@std@@@std@@@std@@@std@@@std@@@std@@QEAA@XZ ; std::_List_iterator<std::_List_val<std::_List_simple_types<std::pair<unsigned int const ,std::unique_ptr<D3D12PipelineShaderRootSignature,std::default_delete<D3D12PipelineShaderRootSignature> > > > > >::~_List_iterator<std::_List_val<std::_List_simple_types<std::pair<unsigned int const ,std::unique_ptr<D3D12PipelineShaderRootSignature,std::default_delete<D3D12PipelineShaderRootSignature> > > > > >
PUBLIC	??0?$_List_iterator@V?$_List_val@U?$_List_simple_types@U?$pair@$$CBIV?$unique_ptr@VD3D12PipelineShaderRootSignature@@U?$default_delete@VD3D12PipelineShaderRootSignature@@@std@@@std@@@std@@@std@@@std@@@std@@QEAA@PEAU?$_List_node@U?$pair@$$CBIV?$unique_ptr@VD3D12PipelineShaderRootSignature@@U?$default_delete@VD3D12PipelineShaderRootSignature@@@std@@@std@@@std@@PEAX@1@PEBV?$_List_val@U?$_List_simple_types@U?$pair@$$CBIV?$unique_ptr@VD3D12PipelineShaderRootSignature@@U?$default_delete@VD3D12PipelineShaderRootSignature@@@std@@@std@@@std@@@std@@@1@@Z ; std::_List_iterator<std::_List_val<std::_List_simple_types<std::pair<unsigned int const ,std::unique_ptr<D3D12PipelineShaderRootSignature,std::default_delete<D3D12PipelineShaderRootSignature> > > > > >::_List_iterator<std::_List_val<std::_List_simple_types<std::pair<unsigned int const ,std::unique_ptr<D3D12PipelineShaderRootSignature,std::default_delete<D3D12PipelineShaderRootSignature> > > > > >
PUBLIC	?get@?$unique_ptr@VD3D12PipelineShaderRootSignature@@U?$default_delete@VD3D12PipelineShaderRootSignature@@@std@@@std@@QEBAPEAVD3D12PipelineShaderRootSignature@@XZ ; std::unique_ptr<D3D12PipelineShaderRootSignature,std::default_delete<D3D12PipelineShaderRootSignature> >::get
PUBLIC	?InternalAddRef@?$ComPtr@UID3D12Resource@@@WRL@Microsoft@@IEBAXXZ ; Microsoft::WRL::ComPtr<ID3D12Resource>::InternalAddRef
PUBLIC	?InternalRelease@?$ComPtr@UID3D12Resource@@@WRL@Microsoft@@IEAAKXZ ; Microsoft::WRL::ComPtr<ID3D12Resource>::InternalRelease
PUBLIC	??0?$ComPtr@UID3D12Resource@@@WRL@Microsoft@@QEAA@XZ ; Microsoft::WRL::ComPtr<ID3D12Resource>::ComPtr<ID3D12Resource>
PUBLIC	??0?$ComPtr@UID3D12Resource@@@WRL@Microsoft@@QEAA@AEBV012@@Z ; Microsoft::WRL::ComPtr<ID3D12Resource>::ComPtr<ID3D12Resource>
PUBLIC	??1?$ComPtr@UID3D12Resource@@@WRL@Microsoft@@QEAA@XZ ; Microsoft::WRL::ComPtr<ID3D12Resource>::~ComPtr<ID3D12Resource>
PUBLIC	?Get@?$ComPtr@UID3D12Resource@@@WRL@Microsoft@@QEBAPEAUID3D12Resource@@XZ ; Microsoft::WRL::ComPtr<ID3D12Resource>::Get
PUBLIC	??C?$ComPtr@UID3D12Resource@@@WRL@Microsoft@@QEBAPEAUID3D12Resource@@XZ ; Microsoft::WRL::ComPtr<ID3D12Resource>::operator->
PUBLIC	??I?$ComPtr@UID3D12Resource@@@WRL@Microsoft@@QEAA?AV?$ComPtrRef@V?$ComPtr@UID3D12Resource@@@WRL@Microsoft@@@Details@12@XZ ; Microsoft::WRL::ComPtr<ID3D12Resource>::operator&
PUBLIC	?ReleaseAndGetAddressOf@?$ComPtr@UID3D12Resource@@@WRL@Microsoft@@QEAAPEAPEAUID3D12Resource@@XZ ; Microsoft::WRL::ComPtr<ID3D12Resource>::ReleaseAndGetAddressOf
PUBLIC	??0?$ComPtrRef@V?$ComPtr@UID3D12Resource@@@WRL@Microsoft@@@Details@WRL@Microsoft@@QEAA@PEAV?$ComPtr@UID3D12Resource@@@23@@Z ; Microsoft::WRL::Details::ComPtrRef<Microsoft::WRL::ComPtr<ID3D12Resource> >::ComPtrRef<Microsoft::WRL::ComPtr<ID3D12Resource> >
PUBLIC	??B?$ComPtrRef@V?$ComPtr@UID3D12Resource@@@WRL@Microsoft@@@Details@WRL@Microsoft@@QEBAPEAPEAXXZ ; Microsoft::WRL::Details::ComPtrRef<Microsoft::WRL::ComPtr<ID3D12Resource> >::operator void * *
PUBLIC	??$IID_PPV_ARGS_Helper@V?$ComPtr@UID3D12Resource@@@WRL@Microsoft@@@@YAPEAPEAXV?$ComPtrRef@V?$ComPtr@UID3D12Resource@@@WRL@Microsoft@@@Details@WRL@Microsoft@@@Z ; IID_PPV_ARGS_Helper<Microsoft::WRL::ComPtr<ID3D12Resource> >
PUBLIC	??0D3D12Renderer@@QEAA@XZ			; D3D12Renderer::D3D12Renderer
PUBLIC	?Init@D3D12Renderer@@UEAAHXZ			; D3D12Renderer::Init
PUBLIC	?Shutdown@D3D12Renderer@@UEAAXXZ		; D3D12Renderer::Shutdown
PUBLIC	?BeginFrame@D3D12Renderer@@QEAAXPEAVD3D12Scene@@@Z ; D3D12Renderer::BeginFrame
PUBLIC	?Render@D3D12Renderer@@UEAAXPEAVD3D12Scene@@@Z	; D3D12Renderer::Render
PUBLIC	?RenderObj@D3D12Renderer@@QEAAXXZ		; D3D12Renderer::RenderObj
PUBLIC	?RenderScene@D3D12Renderer@@QEAAXXZ		; D3D12Renderer::RenderScene
PUBLIC	?EndFrame@D3D12Renderer@@UEAAXXZ		; D3D12Renderer::EndFrame
PUBLIC	?OnResize@D3D12Renderer@@QEAAXJJ@Z		; D3D12Renderer::OnResize
PUBLIC	?Update@D3D12Renderer@@QEAAXXZ			; D3D12Renderer::Update
PUBLIC	?Signal@D3D12Renderer@@AEAA_KAEA_K@Z		; D3D12Renderer::Signal
PUBLIC	?WaitForFenceValue@D3D12Renderer@@AEAAX_K@Z	; D3D12Renderer::WaitForFenceValue
PUBLIC	?WaitFrame@D3D12Renderer@@AEAAXXZ		; D3D12Renderer::WaitFrame
PUBLIC	?InternalRelease@?$ComPtr@UIDXGIFactory7@@@WRL@Microsoft@@IEAAKXZ ; Microsoft::WRL::ComPtr<IDXGIFactory7>::InternalRelease
PUBLIC	??0?$ComPtr@UIDXGIFactory7@@@WRL@Microsoft@@QEAA@XZ ; Microsoft::WRL::ComPtr<IDXGIFactory7>::ComPtr<IDXGIFactory7>
PUBLIC	??1?$ComPtr@UIDXGIFactory7@@@WRL@Microsoft@@QEAA@XZ ; Microsoft::WRL::ComPtr<IDXGIFactory7>::~ComPtr<IDXGIFactory7>
PUBLIC	??C?$ComPtr@UIDXGIFactory7@@@WRL@Microsoft@@QEBAPEAUIDXGIFactory7@@XZ ; Microsoft::WRL::ComPtr<IDXGIFactory7>::operator->
PUBLIC	??I?$ComPtr@UIDXGIFactory7@@@WRL@Microsoft@@QEAA?AV?$ComPtrRef@V?$ComPtr@UIDXGIFactory7@@@WRL@Microsoft@@@Details@12@XZ ; Microsoft::WRL::ComPtr<IDXGIFactory7>::operator&
PUBLIC	?ReleaseAndGetAddressOf@?$ComPtr@UIDXGIFactory7@@@WRL@Microsoft@@QEAAPEAPEAUIDXGIFactory7@@XZ ; Microsoft::WRL::ComPtr<IDXGIFactory7>::ReleaseAndGetAddressOf
PUBLIC	?InternalRelease@?$ComPtr@UID3D12Device8@@@WRL@Microsoft@@IEAAKXZ ; Microsoft::WRL::ComPtr<ID3D12Device8>::InternalRelease
PUBLIC	??0?$ComPtr@UID3D12Device8@@@WRL@Microsoft@@QEAA@XZ ; Microsoft::WRL::ComPtr<ID3D12Device8>::ComPtr<ID3D12Device8>
PUBLIC	??1?$ComPtr@UID3D12Device8@@@WRL@Microsoft@@QEAA@XZ ; Microsoft::WRL::ComPtr<ID3D12Device8>::~ComPtr<ID3D12Device8>
PUBLIC	?Get@?$ComPtr@UID3D12Device8@@@WRL@Microsoft@@QEBAPEAUID3D12Device8@@XZ ; Microsoft::WRL::ComPtr<ID3D12Device8>::Get
PUBLIC	??C?$ComPtr@UID3D12Device8@@@WRL@Microsoft@@QEBAPEAUID3D12Device8@@XZ ; Microsoft::WRL::ComPtr<ID3D12Device8>::operator->
PUBLIC	??I?$ComPtr@UID3D12Device8@@@WRL@Microsoft@@QEAA?AV?$ComPtrRef@V?$ComPtr@UID3D12Device8@@@WRL@Microsoft@@@Details@12@XZ ; Microsoft::WRL::ComPtr<ID3D12Device8>::operator&
PUBLIC	?ReleaseAndGetAddressOf@?$ComPtr@UID3D12Device8@@@WRL@Microsoft@@QEAAPEAPEAUID3D12Device8@@XZ ; Microsoft::WRL::ComPtr<ID3D12Device8>::ReleaseAndGetAddressOf
PUBLIC	?InternalRelease@?$ComPtr@UIDXGIAdapter1@@@WRL@Microsoft@@IEAAKXZ ; Microsoft::WRL::ComPtr<IDXGIAdapter1>::InternalRelease
PUBLIC	??0?$ComPtr@UIDXGIAdapter1@@@WRL@Microsoft@@QEAA@XZ ; Microsoft::WRL::ComPtr<IDXGIAdapter1>::ComPtr<IDXGIAdapter1>
PUBLIC	??1?$ComPtr@UIDXGIAdapter1@@@WRL@Microsoft@@QEAA@XZ ; Microsoft::WRL::ComPtr<IDXGIAdapter1>::~ComPtr<IDXGIAdapter1>
PUBLIC	??I?$ComPtr@UIDXGIAdapter1@@@WRL@Microsoft@@QEAA?AV?$ComPtrRef@V?$ComPtr@UIDXGIAdapter1@@@WRL@Microsoft@@@Details@12@XZ ; Microsoft::WRL::ComPtr<IDXGIAdapter1>::operator&
PUBLIC	?ReleaseAndGetAddressOf@?$ComPtr@UIDXGIAdapter1@@@WRL@Microsoft@@QEAAPEAPEAUIDXGIAdapter1@@XZ ; Microsoft::WRL::ComPtr<IDXGIAdapter1>::ReleaseAndGetAddressOf
PUBLIC	?InternalRelease@?$ComPtr@UID3D12CommandAllocator@@@WRL@Microsoft@@IEAAKXZ ; Microsoft::WRL::ComPtr<ID3D12CommandAllocator>::InternalRelease
PUBLIC	??0?$ComPtr@UID3D12CommandAllocator@@@WRL@Microsoft@@QEAA@XZ ; Microsoft::WRL::ComPtr<ID3D12CommandAllocator>::ComPtr<ID3D12CommandAllocator>
PUBLIC	??1?$ComPtr@UID3D12CommandAllocator@@@WRL@Microsoft@@QEAA@XZ ; Microsoft::WRL::ComPtr<ID3D12CommandAllocator>::~ComPtr<ID3D12CommandAllocator>
PUBLIC	?Get@?$ComPtr@UID3D12CommandAllocator@@@WRL@Microsoft@@QEBAPEAUID3D12CommandAllocator@@XZ ; Microsoft::WRL::ComPtr<ID3D12CommandAllocator>::Get
PUBLIC	??C?$ComPtr@UID3D12CommandAllocator@@@WRL@Microsoft@@QEBAPEAUID3D12CommandAllocator@@XZ ; Microsoft::WRL::ComPtr<ID3D12CommandAllocator>::operator->
PUBLIC	??I?$ComPtr@UID3D12CommandAllocator@@@WRL@Microsoft@@QEAA?AV?$ComPtrRef@V?$ComPtr@UID3D12CommandAllocator@@@WRL@Microsoft@@@Details@12@XZ ; Microsoft::WRL::ComPtr<ID3D12CommandAllocator>::operator&
PUBLIC	?ReleaseAndGetAddressOf@?$ComPtr@UID3D12CommandAllocator@@@WRL@Microsoft@@QEAAPEAPEAUID3D12CommandAllocator@@XZ ; Microsoft::WRL::ComPtr<ID3D12CommandAllocator>::ReleaseAndGetAddressOf
PUBLIC	?InternalAddRef@?$ComPtr@UID3D12GraphicsCommandList6@@@WRL@Microsoft@@IEBAXXZ ; Microsoft::WRL::ComPtr<ID3D12GraphicsCommandList6>::InternalAddRef
PUBLIC	?InternalRelease@?$ComPtr@UID3D12GraphicsCommandList6@@@WRL@Microsoft@@IEAAKXZ ; Microsoft::WRL::ComPtr<ID3D12GraphicsCommandList6>::InternalRelease
PUBLIC	??0?$ComPtr@UID3D12GraphicsCommandList6@@@WRL@Microsoft@@QEAA@XZ ; Microsoft::WRL::ComPtr<ID3D12GraphicsCommandList6>::ComPtr<ID3D12GraphicsCommandList6>
PUBLIC	??0?$ComPtr@UID3D12GraphicsCommandList6@@@WRL@Microsoft@@QEAA@AEBV012@@Z ; Microsoft::WRL::ComPtr<ID3D12GraphicsCommandList6>::ComPtr<ID3D12GraphicsCommandList6>
PUBLIC	??1?$ComPtr@UID3D12GraphicsCommandList6@@@WRL@Microsoft@@QEAA@XZ ; Microsoft::WRL::ComPtr<ID3D12GraphicsCommandList6>::~ComPtr<ID3D12GraphicsCommandList6>
PUBLIC	?Get@?$ComPtr@UID3D12GraphicsCommandList6@@@WRL@Microsoft@@QEBAPEAUID3D12GraphicsCommandList6@@XZ ; Microsoft::WRL::ComPtr<ID3D12GraphicsCommandList6>::Get
PUBLIC	??C?$ComPtr@UID3D12GraphicsCommandList6@@@WRL@Microsoft@@QEBAPEAUID3D12GraphicsCommandList6@@XZ ; Microsoft::WRL::ComPtr<ID3D12GraphicsCommandList6>::operator->
PUBLIC	??I?$ComPtr@UID3D12GraphicsCommandList6@@@WRL@Microsoft@@QEAA?AV?$ComPtrRef@V?$ComPtr@UID3D12GraphicsCommandList6@@@WRL@Microsoft@@@Details@12@XZ ; Microsoft::WRL::ComPtr<ID3D12GraphicsCommandList6>::operator&
PUBLIC	?ReleaseAndGetAddressOf@?$ComPtr@UID3D12GraphicsCommandList6@@@WRL@Microsoft@@QEAAPEAPEAUID3D12GraphicsCommandList6@@XZ ; Microsoft::WRL::ComPtr<ID3D12GraphicsCommandList6>::ReleaseAndGetAddressOf
PUBLIC	?InternalRelease@?$ComPtr@UID3D12CommandQueue@@@WRL@Microsoft@@IEAAKXZ ; Microsoft::WRL::ComPtr<ID3D12CommandQueue>::InternalRelease
PUBLIC	??0?$ComPtr@UID3D12CommandQueue@@@WRL@Microsoft@@QEAA@XZ ; Microsoft::WRL::ComPtr<ID3D12CommandQueue>::ComPtr<ID3D12CommandQueue>
PUBLIC	??1?$ComPtr@UID3D12CommandQueue@@@WRL@Microsoft@@QEAA@XZ ; Microsoft::WRL::ComPtr<ID3D12CommandQueue>::~ComPtr<ID3D12CommandQueue>
PUBLIC	?Get@?$ComPtr@UID3D12CommandQueue@@@WRL@Microsoft@@QEBAPEAUID3D12CommandQueue@@XZ ; Microsoft::WRL::ComPtr<ID3D12CommandQueue>::Get
PUBLIC	??C?$ComPtr@UID3D12CommandQueue@@@WRL@Microsoft@@QEBAPEAUID3D12CommandQueue@@XZ ; Microsoft::WRL::ComPtr<ID3D12CommandQueue>::operator->
PUBLIC	??I?$ComPtr@UID3D12CommandQueue@@@WRL@Microsoft@@QEAA?AV?$ComPtrRef@V?$ComPtr@UID3D12CommandQueue@@@WRL@Microsoft@@@Details@12@XZ ; Microsoft::WRL::ComPtr<ID3D12CommandQueue>::operator&
PUBLIC	?ReleaseAndGetAddressOf@?$ComPtr@UID3D12CommandQueue@@@WRL@Microsoft@@QEAAPEAPEAUID3D12CommandQueue@@XZ ; Microsoft::WRL::ComPtr<ID3D12CommandQueue>::ReleaseAndGetAddressOf
PUBLIC	??R?$default_delete@VDescriptorHeap@DirectX@@@std@@QEBAXPEAVDescriptorHeap@DirectX@@@Z ; std::default_delete<DirectX::DescriptorHeap>::operator()
PUBLIC	??1?$unique_ptr@VDescriptorHeap@DirectX@@U?$default_delete@VDescriptorHeap@DirectX@@@std@@@std@@QEAA@XZ ; std::unique_ptr<DirectX::DescriptorHeap,std::default_delete<DirectX::DescriptorHeap> >::~unique_ptr<DirectX::DescriptorHeap,std::default_delete<DirectX::DescriptorHeap> >
PUBLIC	??C?$unique_ptr@VDescriptorHeap@DirectX@@U?$default_delete@VDescriptorHeap@DirectX@@@std@@@std@@QEBAPEAVDescriptorHeap@DirectX@@XZ ; std::unique_ptr<DirectX::DescriptorHeap,std::default_delete<DirectX::DescriptorHeap> >::operator->
PUBLIC	?release@?$unique_ptr@VDescriptorHeap@DirectX@@U?$default_delete@VDescriptorHeap@DirectX@@@std@@@std@@QEAAPEAVDescriptorHeap@DirectX@@XZ ; std::unique_ptr<DirectX::DescriptorHeap,std::default_delete<DirectX::DescriptorHeap> >::release
PUBLIC	?reset@?$unique_ptr@VDescriptorHeap@DirectX@@U?$default_delete@VDescriptorHeap@DirectX@@@std@@@std@@QEAAXPEAVDescriptorHeap@DirectX@@@Z ; std::unique_ptr<DirectX::DescriptorHeap,std::default_delete<DirectX::DescriptorHeap> >::reset
PUBLIC	?_Get_first@?$_Compressed_pair@U?$default_delete@VDescriptorHeap@DirectX@@@std@@PEAVDescriptorHeap@DirectX@@$00@std@@QEAAAEAU?$default_delete@VDescriptorHeap@DirectX@@@2@XZ ; std::_Compressed_pair<std::default_delete<DirectX::DescriptorHeap>,DirectX::DescriptorHeap *,1>::_Get_first
PUBLIC	?InternalRelease@?$ComPtr@UIDXGISwapChain4@@@WRL@Microsoft@@IEAAKXZ ; Microsoft::WRL::ComPtr<IDXGISwapChain4>::InternalRelease
PUBLIC	??0?$ComPtr@UIDXGISwapChain4@@@WRL@Microsoft@@QEAA@XZ ; Microsoft::WRL::ComPtr<IDXGISwapChain4>::ComPtr<IDXGISwapChain4>
PUBLIC	??1?$ComPtr@UIDXGISwapChain4@@@WRL@Microsoft@@QEAA@XZ ; Microsoft::WRL::ComPtr<IDXGISwapChain4>::~ComPtr<IDXGISwapChain4>
PUBLIC	??C?$ComPtr@UIDXGISwapChain4@@@WRL@Microsoft@@QEBAPEAUIDXGISwapChain4@@XZ ; Microsoft::WRL::ComPtr<IDXGISwapChain4>::operator->
PUBLIC	??I?$ComPtr@UIDXGISwapChain4@@@WRL@Microsoft@@QEAA?AV?$ComPtrRef@V?$ComPtr@UIDXGISwapChain4@@@WRL@Microsoft@@@Details@12@XZ ; Microsoft::WRL::ComPtr<IDXGISwapChain4>::operator&
PUBLIC	?ReleaseAndGetAddressOf@?$ComPtr@UIDXGISwapChain4@@@WRL@Microsoft@@QEAAPEAPEAUIDXGISwapChain4@@XZ ; Microsoft::WRL::ComPtr<IDXGISwapChain4>::ReleaseAndGetAddressOf
PUBLIC	?InternalRelease@?$ComPtr@UIDXGISwapChain@@@WRL@Microsoft@@IEAAKXZ ; Microsoft::WRL::ComPtr<IDXGISwapChain>::InternalRelease
PUBLIC	??0?$ComPtr@UIDXGISwapChain@@@WRL@Microsoft@@QEAA@XZ ; Microsoft::WRL::ComPtr<IDXGISwapChain>::ComPtr<IDXGISwapChain>
PUBLIC	??1?$ComPtr@UIDXGISwapChain@@@WRL@Microsoft@@QEAA@XZ ; Microsoft::WRL::ComPtr<IDXGISwapChain>::~ComPtr<IDXGISwapChain>
PUBLIC	??I?$ComPtr@UIDXGISwapChain@@@WRL@Microsoft@@QEAA?AV?$ComPtrRef@V?$ComPtr@UIDXGISwapChain@@@WRL@Microsoft@@@Details@12@XZ ; Microsoft::WRL::ComPtr<IDXGISwapChain>::operator&
PUBLIC	?ReleaseAndGetAddressOf@?$ComPtr@UIDXGISwapChain@@@WRL@Microsoft@@QEAAPEAPEAUIDXGISwapChain@@XZ ; Microsoft::WRL::ComPtr<IDXGISwapChain>::ReleaseAndGetAddressOf
PUBLIC	?InternalRelease@?$ComPtr@UID3D12Fence@@@WRL@Microsoft@@IEAAKXZ ; Microsoft::WRL::ComPtr<ID3D12Fence>::InternalRelease
PUBLIC	??0?$ComPtr@UID3D12Fence@@@WRL@Microsoft@@QEAA@XZ ; Microsoft::WRL::ComPtr<ID3D12Fence>::ComPtr<ID3D12Fence>
PUBLIC	?Get@?$ComPtr@UID3D12Fence@@@WRL@Microsoft@@QEBAPEAUID3D12Fence@@XZ ; Microsoft::WRL::ComPtr<ID3D12Fence>::Get
PUBLIC	??C?$ComPtr@UID3D12Fence@@@WRL@Microsoft@@QEBAPEAUID3D12Fence@@XZ ; Microsoft::WRL::ComPtr<ID3D12Fence>::operator->
PUBLIC	??I?$ComPtr@UID3D12Fence@@@WRL@Microsoft@@QEAA?AV?$ComPtrRef@V?$ComPtr@UID3D12Fence@@@WRL@Microsoft@@@Details@12@XZ ; Microsoft::WRL::ComPtr<ID3D12Fence>::operator&
PUBLIC	?ReleaseAndGetAddressOf@?$ComPtr@UID3D12Fence@@@WRL@Microsoft@@QEAAPEAPEAUID3D12Fence@@XZ ; Microsoft::WRL::ComPtr<ID3D12Fence>::ReleaseAndGetAddressOf
PUBLIC	??R?$default_delete@V?$D3D12UploadBufferResource@UD3D12PassConstants@@@@@std@@QEBAXPEAV?$D3D12UploadBufferResource@UD3D12PassConstants@@@@@Z ; std::default_delete<D3D12UploadBufferResource<D3D12PassConstants> >::operator()
PUBLIC	??1?$unique_ptr@V?$D3D12UploadBufferResource@UD3D12PassConstants@@@@U?$default_delete@V?$D3D12UploadBufferResource@UD3D12PassConstants@@@@@std@@@std@@QEAA@XZ ; std::unique_ptr<D3D12UploadBufferResource<D3D12PassConstants>,std::default_delete<D3D12UploadBufferResource<D3D12PassConstants> > >::~unique_ptr<D3D12UploadBufferResource<D3D12PassConstants>,std::default_delete<D3D12UploadBufferResource<D3D12PassConstants> > >
PUBLIC	??C?$unique_ptr@V?$D3D12UploadBufferResource@UD3D12PassConstants@@@@U?$default_delete@V?$D3D12UploadBufferResource@UD3D12PassConstants@@@@@std@@@std@@QEBAPEAV?$D3D12UploadBufferResource@UD3D12PassConstants@@@@XZ ; std::unique_ptr<D3D12UploadBufferResource<D3D12PassConstants>,std::default_delete<D3D12UploadBufferResource<D3D12PassConstants> > >::operator->
PUBLIC	?release@?$unique_ptr@V?$D3D12UploadBufferResource@UD3D12PassConstants@@@@U?$default_delete@V?$D3D12UploadBufferResource@UD3D12PassConstants@@@@@std@@@std@@QEAAPEAV?$D3D12UploadBufferResource@UD3D12PassConstants@@@@XZ ; std::unique_ptr<D3D12UploadBufferResource<D3D12PassConstants>,std::default_delete<D3D12UploadBufferResource<D3D12PassConstants> > >::release
PUBLIC	?reset@?$unique_ptr@V?$D3D12UploadBufferResource@UD3D12PassConstants@@@@U?$default_delete@V?$D3D12UploadBufferResource@UD3D12PassConstants@@@@@std@@@std@@QEAAXPEAV?$D3D12UploadBufferResource@UD3D12PassConstants@@@@@Z ; std::unique_ptr<D3D12UploadBufferResource<D3D12PassConstants>,std::default_delete<D3D12UploadBufferResource<D3D12PassConstants> > >::reset
PUBLIC	?_Get_first@?$_Compressed_pair@U?$default_delete@V?$D3D12UploadBufferResource@UD3D12PassConstants@@@@@std@@PEAV?$D3D12UploadBufferResource@UD3D12PassConstants@@@@$00@std@@QEAAAEAU?$default_delete@V?$D3D12UploadBufferResource@UD3D12PassConstants@@@@@2@XZ ; std::_Compressed_pair<std::default_delete<D3D12UploadBufferResource<D3D12PassConstants> >,D3D12UploadBufferResource<D3D12PassConstants> *,1>::_Get_first
PUBLIC	??$?4U?$default_delete@VDescriptorHeap@DirectX@@@std@@$0A@@?$unique_ptr@VDescriptorHeap@DirectX@@U?$default_delete@VDescriptorHeap@DirectX@@@std@@@std@@QEAAAEAV01@$$QEAV01@@Z ; std::unique_ptr<DirectX::DescriptorHeap,std::default_delete<DirectX::DescriptorHeap> >::operator=<std::default_delete<DirectX::DescriptorHeap>,0>
PUBLIC	??$?4U?$default_delete@V?$D3D12UploadBufferResource@UD3D12PassConstants@@@@@std@@$0A@@?$unique_ptr@V?$D3D12UploadBufferResource@UD3D12PassConstants@@@@U?$default_delete@V?$D3D12UploadBufferResource@UD3D12PassConstants@@@@@std@@@std@@QEAAAEAV01@$$QEAV01@@Z ; std::unique_ptr<D3D12UploadBufferResource<D3D12PassConstants>,std::default_delete<D3D12UploadBufferResource<D3D12PassConstants> > >::operator=<std::default_delete<D3D12UploadBufferResource<D3D12PassConstants> >,0>
PUBLIC	?GetResource@?$D3D12UploadBufferResource@UXMMATRIX@DirectX@@@@QEAAPEAUID3D12Resource@@XZ ; D3D12UploadBufferResource<DirectX::XMMATRIX>::GetResource
PUBLIC	?GetResource@?$D3D12UploadBufferResource@UD3D12MaterialConstants@@@@QEAAPEAUID3D12Resource@@XZ ; D3D12UploadBufferResource<D3D12MaterialConstants>::GetResource
PUBLIC	?deallocate@?$allocator@PEAVD3D12Model@@@std@@QEAAXQEAPEAVD3D12Model@@_K@Z ; std::allocator<D3D12Model *>::deallocate
PUBLIC	?allocate@?$allocator@PEAVD3D12Model@@@std@@QEAAPEAPEAVD3D12Model@@_K@Z ; std::allocator<D3D12Model *>::allocate
PUBLIC	?max_size@?$_Default_allocator_traits@V?$allocator@PEAVD3D12Model@@@std@@@std@@SA_KAEBV?$allocator@PEAVD3D12Model@@@2@@Z ; std::_Default_allocator_traits<std::allocator<D3D12Model *> >::max_size
PUBLIC	?select_on_container_copy_construction@?$_Default_allocator_traits@V?$allocator@PEAVD3D12Model@@@std@@@std@@SA?AV?$allocator@PEAVD3D12Model@@@2@AEBV32@@Z ; std::_Default_allocator_traits<std::allocator<D3D12Model *> >::select_on_container_copy_construction
PUBLIC	??0?$vector@PEAVD3D12Model@@V?$allocator@PEAVD3D12Model@@@std@@@std@@QEAA@AEBV01@@Z ; std::vector<D3D12Model *,std::allocator<D3D12Model *> >::vector<D3D12Model *,std::allocator<D3D12Model *> >
PUBLIC	??1?$vector@PEAVD3D12Model@@V?$allocator@PEAVD3D12Model@@@std@@@std@@QEAA@XZ ; std::vector<D3D12Model *,std::allocator<D3D12Model *> >::~vector<D3D12Model *,std::allocator<D3D12Model *> >
PUBLIC	?_Unchecked_begin@?$vector@PEAVD3D12Model@@V?$allocator@PEAVD3D12Model@@@std@@@std@@QEAAPEAPEAVD3D12Model@@XZ ; std::vector<D3D12Model *,std::allocator<D3D12Model *> >::_Unchecked_begin
PUBLIC	?_Unchecked_end@?$vector@PEAVD3D12Model@@V?$allocator@PEAVD3D12Model@@@std@@@std@@QEAAPEAPEAVD3D12Model@@XZ ; std::vector<D3D12Model *,std::allocator<D3D12Model *> >::_Unchecked_end
PUBLIC	?max_size@?$vector@PEAVD3D12Model@@V?$allocator@PEAVD3D12Model@@@std@@@std@@QEBA_KXZ ; std::vector<D3D12Model *,std::allocator<D3D12Model *> >::max_size
PUBLIC	?_Buy_raw@?$vector@PEAVD3D12Model@@V?$allocator@PEAVD3D12Model@@@std@@@std@@AEAAX_K@Z ; std::vector<D3D12Model *,std::allocator<D3D12Model *> >::_Buy_raw
PUBLIC	?_Buy_nonzero@?$vector@PEAVD3D12Model@@V?$allocator@PEAVD3D12Model@@@std@@@std@@AEAAX_K@Z ; std::vector<D3D12Model *,std::allocator<D3D12Model *> >::_Buy_nonzero
PUBLIC	?_Tidy@?$vector@PEAVD3D12Model@@V?$allocator@PEAVD3D12Model@@@std@@@std@@AEAAXXZ ; std::vector<D3D12Model *,std::allocator<D3D12Model *> >::_Tidy
PUBLIC	?_Xlength@?$vector@PEAVD3D12Model@@V?$allocator@PEAVD3D12Model@@@std@@@std@@CAXXZ ; std::vector<D3D12Model *,std::allocator<D3D12Model *> >::_Xlength
PUBLIC	?_Getal@?$vector@PEAVD3D12Model@@V?$allocator@PEAVD3D12Model@@@std@@@std@@AEAAAEAV?$allocator@PEAVD3D12Model@@@2@XZ ; std::vector<D3D12Model *,std::allocator<D3D12Model *> >::_Getal
PUBLIC	?_Getal@?$vector@PEAVD3D12Model@@V?$allocator@PEAVD3D12Model@@@std@@@std@@AEBAAEBV?$allocator@PEAVD3D12Model@@@2@XZ ; std::vector<D3D12Model *,std::allocator<D3D12Model *> >::_Getal
PUBLIC	??0?$_Vector_val@U?$_Simple_types@PEAVD3D12Model@@@std@@@std@@QEAA@XZ ; std::_Vector_val<std::_Simple_types<D3D12Model *> >::_Vector_val<std::_Simple_types<D3D12Model *> >
PUBLIC	?_Get_first@?$_Compressed_pair@V?$allocator@PEAVD3D12Model@@@std@@V?$_Vector_val@U?$_Simple_types@PEAVD3D12Model@@@std@@@2@$00@std@@QEAAAEAV?$allocator@PEAVD3D12Model@@@2@XZ ; std::_Compressed_pair<std::allocator<D3D12Model *>,std::_Vector_val<std::_Simple_types<D3D12Model *> >,1>::_Get_first
PUBLIC	?_Get_first@?$_Compressed_pair@V?$allocator@PEAVD3D12Model@@@std@@V?$_Vector_val@U?$_Simple_types@PEAVD3D12Model@@@std@@@2@$00@std@@QEBAAEBV?$allocator@PEAVD3D12Model@@@2@XZ ; std::_Compressed_pair<std::allocator<D3D12Model *>,std::_Vector_val<std::_Simple_types<D3D12Model *> >,1>::_Get_first
PUBLIC	?GetModels@D3D12Scene@@QEBA?AV?$vector@PEAVD3D12Model@@V?$allocator@PEAVD3D12Model@@@std@@@std@@XZ ; D3D12Scene::GetModels
PUBLIC	?GetCamera@D3D12Scene@@QEAAAEAUD3D12Camera@@XZ	; D3D12Scene::GetCamera
PUBLIC	??$_Maklocstr@_W@std@@YAPEA_WPEBDPEA_WAEBU_Cvtvec@@@Z ; std::_Maklocstr<wchar_t>
PUBLIC	?_Maklocwcs@std@@YAPEA_WPEB_W@Z			; std::_Maklocwcs
PUBLIC	??$_Maklocstr@D@std@@YAPEADPEBDPEADAEBU_Cvtvec@@@Z ; std::_Maklocstr<char>
PUBLIC	?count@?$duration@_JU?$ratio@$00$0DOI@@std@@@chrono@std@@QEBA_JXZ ; std::chrono::duration<__int64,std::ratio<1,1000> >::count
PUBLIC	?max@?$duration@_JU?$ratio@$00$0DOI@@std@@@chrono@std@@SA?AV123@XZ ; std::chrono::duration<__int64,std::ratio<1,1000> >::max
PUBLIC	?max@?$duration_values@_J@chrono@std@@SA_JXZ	; std::chrono::duration_values<__int64>::max
PUBLIC	??$_Hash_representation@I@std@@YA_KAEBI@Z	; std::_Hash_representation<unsigned int>
PUBLIC	??$_Getvals@_W@?$time_get@DV?$istreambuf_iterator@DU?$char_traits@D@std@@@std@@@std@@IEAAX_WAEBV_Locinfo@1@@Z ; std::time_get<char,std::istreambuf_iterator<char,std::char_traits<char> > >::_Getvals<wchar_t>
PUBLIC	??$_Getvals@_W@?$time_get@_WV?$istreambuf_iterator@_WU?$char_traits@_W@std@@@std@@@std@@IEAAX_WAEBV_Locinfo@1@@Z ; std::time_get<wchar_t,std::istreambuf_iterator<wchar_t,std::char_traits<wchar_t> > >::_Getvals<wchar_t>
PUBLIC	??$max@_K@std@@YAAEB_KAEB_K0@Z			; std::max<unsigned __int64>
PUBLIC	?GetWindowManager@DEngine@@QEAAPEAVFWindowsWindowManager@@XZ ; DEngine::GetWindowManager
PUBLIC	?Get@?$ComPtr@UID3D12PipelineState@@@WRL@Microsoft@@QEBAPEAUID3D12PipelineState@@XZ ; Microsoft::WRL::ComPtr<ID3D12PipelineState>::Get
PUBLIC	?Get@?$ComPtr@UID3D12RootSignature@@@WRL@Microsoft@@QEBAPEAUID3D12RootSignature@@XZ ; Microsoft::WRL::ComPtr<ID3D12RootSignature>::Get
PUBLIC	?TransitionResource@@YAXV?$ComPtr@UID3D12GraphicsCommandList6@@@WRL@Microsoft@@V?$ComPtr@UID3D12Resource@@@23@W4D3D12_RESOURCE_STATES@@2@Z ; TransitionResource
PUBLIC	??$?0U?$default_delete@VDescriptorHeap@DirectX@@@std@@$0A@@?$unique_ptr@VDescriptorHeap@DirectX@@U?$default_delete@VDescriptorHeap@DirectX@@@std@@@std@@QEAA@XZ ; std::unique_ptr<DirectX::DescriptorHeap,std::default_delete<DirectX::DescriptorHeap> >::unique_ptr<DirectX::DescriptorHeap,std::default_delete<DirectX::DescriptorHeap> ><std::default_delete<DirectX::DescriptorHeap>,0>
PUBLIC	??$?0U?$default_delete@V?$D3D12UploadBufferResource@UD3D12PassConstants@@@@@std@@$0A@@?$unique_ptr@V?$D3D12UploadBufferResource@UD3D12PassConstants@@@@U?$default_delete@V?$D3D12UploadBufferResource@UD3D12PassConstants@@@@@std@@@std@@QEAA@XZ ; std::unique_ptr<D3D12UploadBufferResource<D3D12PassConstants>,std::default_delete<D3D12UploadBufferResource<D3D12PassConstants> > >::unique_ptr<D3D12UploadBufferResource<D3D12PassConstants>,std::default_delete<D3D12UploadBufferResource<D3D12PassConstants> > ><std::default_delete<D3D12UploadBufferResource<D3D12PassConstants> >,0>
PUBLIC	?InternalRelease@?$ComPtr@UID3D12Debug@@@WRL@Microsoft@@IEAAKXZ ; Microsoft::WRL::ComPtr<ID3D12Debug>::InternalRelease
PUBLIC	??0?$ComPtr@UID3D12Debug@@@WRL@Microsoft@@QEAA@XZ ; Microsoft::WRL::ComPtr<ID3D12Debug>::ComPtr<ID3D12Debug>
PUBLIC	??1?$ComPtr@UID3D12Debug@@@WRL@Microsoft@@QEAA@XZ ; Microsoft::WRL::ComPtr<ID3D12Debug>::~ComPtr<ID3D12Debug>
PUBLIC	??C?$ComPtr@UID3D12Debug@@@WRL@Microsoft@@QEBAPEAUID3D12Debug@@XZ ; Microsoft::WRL::ComPtr<ID3D12Debug>::operator->
PUBLIC	??I?$ComPtr@UID3D12Debug@@@WRL@Microsoft@@QEAA?AV?$ComPtrRef@V?$ComPtr@UID3D12Debug@@@WRL@Microsoft@@@Details@12@XZ ; Microsoft::WRL::ComPtr<ID3D12Debug>::operator&
PUBLIC	?ReleaseAndGetAddressOf@?$ComPtr@UID3D12Debug@@@WRL@Microsoft@@QEAAPEAPEAUID3D12Debug@@XZ ; Microsoft::WRL::ComPtr<ID3D12Debug>::ReleaseAndGetAddressOf
PUBLIC	??0?$ComPtrRef@V?$ComPtr@UID3D12Debug@@@WRL@Microsoft@@@Details@WRL@Microsoft@@QEAA@PEAV?$ComPtr@UID3D12Debug@@@23@@Z ; Microsoft::WRL::Details::ComPtrRef<Microsoft::WRL::ComPtr<ID3D12Debug> >::ComPtrRef<Microsoft::WRL::ComPtr<ID3D12Debug> >
PUBLIC	??B?$ComPtrRef@V?$ComPtr@UID3D12Debug@@@WRL@Microsoft@@@Details@WRL@Microsoft@@QEBAPEAPEAXXZ ; Microsoft::WRL::Details::ComPtrRef<Microsoft::WRL::ComPtr<ID3D12Debug> >::operator void * *
PUBLIC	??$IID_PPV_ARGS_Helper@V?$ComPtr@UID3D12Debug@@@WRL@Microsoft@@@@YAPEAPEAXV?$ComPtrRef@V?$ComPtr@UID3D12Debug@@@WRL@Microsoft@@@Details@WRL@Microsoft@@@Z ; IID_PPV_ARGS_Helper<Microsoft::WRL::ComPtr<ID3D12Debug> >
PUBLIC	??$Bind@VD3D12Renderer@@@?$TMultiCastDelegate@XJJ@@QEAAXPEAVD3D12Renderer@@P81@EAAXJJ@Z@Z ; TMultiCastDelegate<void,long,long>::Bind<D3D12Renderer>
PUBLIC	??0?$ComPtrRef@V?$ComPtr@UIDXGIFactory7@@@WRL@Microsoft@@@Details@WRL@Microsoft@@QEAA@PEAV?$ComPtr@UIDXGIFactory7@@@23@@Z ; Microsoft::WRL::Details::ComPtrRef<Microsoft::WRL::ComPtr<IDXGIFactory7> >::ComPtrRef<Microsoft::WRL::ComPtr<IDXGIFactory7> >
PUBLIC	??B?$ComPtrRef@V?$ComPtr@UIDXGIFactory7@@@WRL@Microsoft@@@Details@WRL@Microsoft@@QEBAPEAPEAXXZ ; Microsoft::WRL::Details::ComPtrRef<Microsoft::WRL::ComPtr<IDXGIFactory7> >::operator void * *
PUBLIC	??$IID_PPV_ARGS_Helper@V?$ComPtr@UIDXGIFactory7@@@WRL@Microsoft@@@@YAPEAPEAXV?$ComPtrRef@V?$ComPtr@UIDXGIFactory7@@@WRL@Microsoft@@@Details@WRL@Microsoft@@@Z ; IID_PPV_ARGS_Helper<Microsoft::WRL::ComPtr<IDXGIFactory7> >
PUBLIC	??0?$ComPtrRef@V?$ComPtr@UID3D12Device8@@@WRL@Microsoft@@@Details@WRL@Microsoft@@QEAA@PEAV?$ComPtr@UID3D12Device8@@@23@@Z ; Microsoft::WRL::Details::ComPtrRef<Microsoft::WRL::ComPtr<ID3D12Device8> >::ComPtrRef<Microsoft::WRL::ComPtr<ID3D12Device8> >
PUBLIC	??B?$ComPtrRef@V?$ComPtr@UID3D12Device8@@@WRL@Microsoft@@@Details@WRL@Microsoft@@QEBAPEAPEAXXZ ; Microsoft::WRL::Details::ComPtrRef<Microsoft::WRL::ComPtr<ID3D12Device8> >::operator void * *
PUBLIC	??$IID_PPV_ARGS_Helper@V?$ComPtr@UID3D12Device8@@@WRL@Microsoft@@@@YAPEAPEAXV?$ComPtrRef@V?$ComPtr@UID3D12Device8@@@WRL@Microsoft@@@Details@WRL@Microsoft@@@Z ; IID_PPV_ARGS_Helper<Microsoft::WRL::ComPtr<ID3D12Device8> >
PUBLIC	??0?$ComPtrRef@V?$ComPtr@UIDXGIAdapter1@@@WRL@Microsoft@@@Details@WRL@Microsoft@@QEAA@PEAV?$ComPtr@UIDXGIAdapter1@@@23@@Z ; Microsoft::WRL::Details::ComPtrRef<Microsoft::WRL::ComPtr<IDXGIAdapter1> >::ComPtrRef<Microsoft::WRL::ComPtr<IDXGIAdapter1> >
PUBLIC	??B?$ComPtrRef@V?$ComPtr@UIDXGIAdapter1@@@WRL@Microsoft@@@Details@WRL@Microsoft@@QEBAPEAPEAXXZ ; Microsoft::WRL::Details::ComPtrRef<Microsoft::WRL::ComPtr<IDXGIAdapter1> >::operator void * *
PUBLIC	??$IID_PPV_ARGS_Helper@V?$ComPtr@UIDXGIAdapter1@@@WRL@Microsoft@@@@YAPEAPEAXV?$ComPtrRef@V?$ComPtr@UIDXGIAdapter1@@@WRL@Microsoft@@@Details@WRL@Microsoft@@@Z ; IID_PPV_ARGS_Helper<Microsoft::WRL::ComPtr<IDXGIAdapter1> >
PUBLIC	??0?$ComPtrRef@V?$ComPtr@UID3D12CommandQueue@@@WRL@Microsoft@@@Details@WRL@Microsoft@@QEAA@PEAV?$ComPtr@UID3D12CommandQueue@@@23@@Z ; Microsoft::WRL::Details::ComPtrRef<Microsoft::WRL::ComPtr<ID3D12CommandQueue> >::ComPtrRef<Microsoft::WRL::ComPtr<ID3D12CommandQueue> >
PUBLIC	??B?$ComPtrRef@V?$ComPtr@UID3D12CommandQueue@@@WRL@Microsoft@@@Details@WRL@Microsoft@@QEBAPEAPEAXXZ ; Microsoft::WRL::Details::ComPtrRef<Microsoft::WRL::ComPtr<ID3D12CommandQueue> >::operator void * *
PUBLIC	??$IID_PPV_ARGS_Helper@V?$ComPtr@UID3D12CommandQueue@@@WRL@Microsoft@@@@YAPEAPEAXV?$ComPtrRef@V?$ComPtr@UID3D12CommandQueue@@@WRL@Microsoft@@@Details@WRL@Microsoft@@@Z ; IID_PPV_ARGS_Helper<Microsoft::WRL::ComPtr<ID3D12CommandQueue> >
PUBLIC	??0?$ComPtrRef@V?$ComPtr@UIDXGISwapChain@@@WRL@Microsoft@@@Details@WRL@Microsoft@@QEAA@PEAV?$ComPtr@UIDXGISwapChain@@@23@@Z ; Microsoft::WRL::Details::ComPtrRef<Microsoft::WRL::ComPtr<IDXGISwapChain> >::ComPtrRef<Microsoft::WRL::ComPtr<IDXGISwapChain> >
PUBLIC	??B?$ComPtrRef@V?$ComPtr@UIDXGISwapChain@@@WRL@Microsoft@@@Details@WRL@Microsoft@@QEAAPEAPEAUIDXGISwapChain@@XZ ; Microsoft::WRL::Details::ComPtrRef<Microsoft::WRL::ComPtr<IDXGISwapChain> >::operator IDXGISwapChain * *
PUBLIC	??0?$ComPtrRef@V?$ComPtr@UIDXGISwapChain4@@@WRL@Microsoft@@@Details@WRL@Microsoft@@QEAA@PEAV?$ComPtr@UIDXGISwapChain4@@@23@@Z ; Microsoft::WRL::Details::ComPtrRef<Microsoft::WRL::ComPtr<IDXGISwapChain4> >::ComPtrRef<Microsoft::WRL::ComPtr<IDXGISwapChain4> >
PUBLIC	??B?$ComPtrRef@V?$ComPtr@UIDXGISwapChain4@@@WRL@Microsoft@@@Details@WRL@Microsoft@@QEBAPEAPEAXXZ ; Microsoft::WRL::Details::ComPtrRef<Microsoft::WRL::ComPtr<IDXGISwapChain4> >::operator void * *
PUBLIC	??$As@UIDXGISwapChain4@@@?$ComPtr@UIDXGISwapChain@@@WRL@Microsoft@@QEBAJV?$ComPtrRef@V?$ComPtr@UIDXGISwapChain4@@@WRL@Microsoft@@@Details@12@@Z ; Microsoft::WRL::ComPtr<IDXGISwapChain>::As<IDXGISwapChain4>
PUBLIC	??$make_unique@VDescriptorHeap@DirectX@@PEAUID3D12Device8@@W4D3D12_DESCRIPTOR_HEAP_TYPE@@W4D3D12_DESCRIPTOR_HEAP_FLAGS@@AEBI$0A@@std@@YA?AV?$unique_ptr@VDescriptorHeap@DirectX@@U?$default_delete@VDescriptorHeap@DirectX@@@std@@@0@$$QEAPEAUID3D12Device8@@$$QEAW4D3D12_DESCRIPTOR_HEAP_TYPE@@$$QEAW4D3D12_DESCRIPTOR_HEAP_FLAGS@@AEBI@Z ; std::make_unique<DirectX::DescriptorHeap,ID3D12Device8 *,enum D3D12_DESCRIPTOR_HEAP_TYPE,enum D3D12_DESCRIPTOR_HEAP_FLAGS,unsigned int const &,0>
PUBLIC	??$make_unique@VDescriptorHeap@DirectX@@PEAUID3D12Device8@@W4D3D12_DESCRIPTOR_HEAP_TYPE@@W4D3D12_DESCRIPTOR_HEAP_FLAGS@@H$0A@@std@@YA?AV?$unique_ptr@VDescriptorHeap@DirectX@@U?$default_delete@VDescriptorHeap@DirectX@@@std@@@0@$$QEAPEAUID3D12Device8@@$$QEAW4D3D12_DESCRIPTOR_HEAP_TYPE@@$$QEAW4D3D12_DESCRIPTOR_HEAP_FLAGS@@$$QEAH@Z ; std::make_unique<DirectX::DescriptorHeap,ID3D12Device8 *,enum D3D12_DESCRIPTOR_HEAP_TYPE,enum D3D12_DESCRIPTOR_HEAP_FLAGS,int,0>
PUBLIC	??0?$ComPtrRef@V?$ComPtr@UID3D12CommandAllocator@@@WRL@Microsoft@@@Details@WRL@Microsoft@@QEAA@PEAV?$ComPtr@UID3D12CommandAllocator@@@23@@Z ; Microsoft::WRL::Details::ComPtrRef<Microsoft::WRL::ComPtr<ID3D12CommandAllocator> >::ComPtrRef<Microsoft::WRL::ComPtr<ID3D12CommandAllocator> >
PUBLIC	??B?$ComPtrRef@V?$ComPtr@UID3D12CommandAllocator@@@WRL@Microsoft@@@Details@WRL@Microsoft@@QEBAPEAPEAXXZ ; Microsoft::WRL::Details::ComPtrRef<Microsoft::WRL::ComPtr<ID3D12CommandAllocator> >::operator void * *
PUBLIC	??$IID_PPV_ARGS_Helper@V?$ComPtr@UID3D12CommandAllocator@@@WRL@Microsoft@@@@YAPEAPEAXV?$ComPtrRef@V?$ComPtr@UID3D12CommandAllocator@@@WRL@Microsoft@@@Details@WRL@Microsoft@@@Z ; IID_PPV_ARGS_Helper<Microsoft::WRL::ComPtr<ID3D12CommandAllocator> >
PUBLIC	??0?$ComPtrRef@V?$ComPtr@UID3D12GraphicsCommandList6@@@WRL@Microsoft@@@Details@WRL@Microsoft@@QEAA@PEAV?$ComPtr@UID3D12GraphicsCommandList6@@@23@@Z ; Microsoft::WRL::Details::ComPtrRef<Microsoft::WRL::ComPtr<ID3D12GraphicsCommandList6> >::ComPtrRef<Microsoft::WRL::ComPtr<ID3D12GraphicsCommandList6> >
PUBLIC	??B?$ComPtrRef@V?$ComPtr@UID3D12GraphicsCommandList6@@@WRL@Microsoft@@@Details@WRL@Microsoft@@QEBAPEAPEAXXZ ; Microsoft::WRL::Details::ComPtrRef<Microsoft::WRL::ComPtr<ID3D12GraphicsCommandList6> >::operator void * *
PUBLIC	??$IID_PPV_ARGS_Helper@V?$ComPtr@UID3D12GraphicsCommandList6@@@WRL@Microsoft@@@@YAPEAPEAXV?$ComPtrRef@V?$ComPtr@UID3D12GraphicsCommandList6@@@WRL@Microsoft@@@Details@WRL@Microsoft@@@Z ; IID_PPV_ARGS_Helper<Microsoft::WRL::ComPtr<ID3D12GraphicsCommandList6> >
PUBLIC	??0?$ComPtrRef@V?$ComPtr@UID3D12Fence@@@WRL@Microsoft@@@Details@WRL@Microsoft@@QEAA@PEAV?$ComPtr@UID3D12Fence@@@23@@Z ; Microsoft::WRL::Details::ComPtrRef<Microsoft::WRL::ComPtr<ID3D12Fence> >::ComPtrRef<Microsoft::WRL::ComPtr<ID3D12Fence> >
PUBLIC	??B?$ComPtrRef@V?$ComPtr@UID3D12Fence@@@WRL@Microsoft@@@Details@WRL@Microsoft@@QEBAPEAPEAXXZ ; Microsoft::WRL::Details::ComPtrRef<Microsoft::WRL::ComPtr<ID3D12Fence> >::operator void * *
PUBLIC	??$IID_PPV_ARGS_Helper@V?$ComPtr@UID3D12Fence@@@WRL@Microsoft@@@@YAPEAPEAXV?$ComPtrRef@V?$ComPtr@UID3D12Fence@@@WRL@Microsoft@@@Details@WRL@Microsoft@@@Z ; IID_PPV_ARGS_Helper<Microsoft::WRL::ComPtr<ID3D12Fence> >
PUBLIC	??$make_unique@V?$D3D12UploadBufferResource@UD3D12PassConstants@@@@H_N$0A@@std@@YA?AV?$unique_ptr@V?$D3D12UploadBufferResource@UD3D12PassConstants@@@@U?$default_delete@V?$D3D12UploadBufferResource@UD3D12PassConstants@@@@@std@@@0@$$QEAH$$QEA_N@Z ; std::make_unique<D3D12UploadBufferResource<D3D12PassConstants>,int,bool,0>
PUBLIC	??$?0UID3D12Resource@@@?$ComPtr@UID3D12Resource@@@WRL@Microsoft@@QEAA@PEAUID3D12Resource@@@Z ; Microsoft::WRL::ComPtr<ID3D12Resource>::ComPtr<ID3D12Resource><ID3D12Resource>
PUBLIC	??0?$allocator@UD3D12PassConstants@@@std@@QEAA@XZ ; std::allocator<D3D12PassConstants>::allocator<D3D12PassConstants>
PUBLIC	?deallocate@?$allocator@UD3D12PassConstants@@@std@@QEAAXQEAUD3D12PassConstants@@_K@Z ; std::allocator<D3D12PassConstants>::deallocate
PUBLIC	?allocate@?$allocator@UD3D12PassConstants@@@std@@QEAAPEAUD3D12PassConstants@@_K@Z ; std::allocator<D3D12PassConstants>::allocate
PUBLIC	?max_size@?$_Default_allocator_traits@V?$allocator@UD3D12PassConstants@@@std@@@std@@SA_KAEBV?$allocator@UD3D12PassConstants@@@2@@Z ; std::_Default_allocator_traits<std::allocator<D3D12PassConstants> >::max_size
PUBLIC	??0?$vector@UD3D12PassConstants@@V?$allocator@UD3D12PassConstants@@@std@@@std@@QEAA@XZ ; std::vector<D3D12PassConstants,std::allocator<D3D12PassConstants> >::vector<D3D12PassConstants,std::allocator<D3D12PassConstants> >
PUBLIC	??1?$vector@UD3D12PassConstants@@V?$allocator@UD3D12PassConstants@@@std@@@std@@QEAA@XZ ; std::vector<D3D12PassConstants,std::allocator<D3D12PassConstants> >::~vector<D3D12PassConstants,std::allocator<D3D12PassConstants> >
PUBLIC	?resize@?$vector@UD3D12PassConstants@@V?$allocator@UD3D12PassConstants@@@std@@@std@@QEAAX_K@Z ; std::vector<D3D12PassConstants,std::allocator<D3D12PassConstants> >::resize
PUBLIC	?max_size@?$vector@UD3D12PassConstants@@V?$allocator@UD3D12PassConstants@@@std@@@std@@QEBA_KXZ ; std::vector<D3D12PassConstants,std::allocator<D3D12PassConstants> >::max_size
PUBLIC	?capacity@?$vector@UD3D12PassConstants@@V?$allocator@UD3D12PassConstants@@@std@@@std@@QEBA_KXZ ; std::vector<D3D12PassConstants,std::allocator<D3D12PassConstants> >::capacity
PUBLIC	??A?$vector@UD3D12PassConstants@@V?$allocator@UD3D12PassConstants@@@std@@@std@@QEAAAEAUD3D12PassConstants@@_K@Z ; std::vector<D3D12PassConstants,std::allocator<D3D12PassConstants> >::operator[]
PUBLIC	?_Calculate_growth@?$vector@UD3D12PassConstants@@V?$allocator@UD3D12PassConstants@@@std@@@std@@AEBA_K_K@Z ; std::vector<D3D12PassConstants,std::allocator<D3D12PassConstants> >::_Calculate_growth
PUBLIC	?_Change_array@?$vector@UD3D12PassConstants@@V?$allocator@UD3D12PassConstants@@@std@@@std@@AEAAXQEAUD3D12PassConstants@@_K1@Z ; std::vector<D3D12PassConstants,std::allocator<D3D12PassConstants> >::_Change_array
PUBLIC	?_Tidy@?$vector@UD3D12PassConstants@@V?$allocator@UD3D12PassConstants@@@std@@@std@@AEAAXXZ ; std::vector<D3D12PassConstants,std::allocator<D3D12PassConstants> >::_Tidy
PUBLIC	?_Xlength@?$vector@UD3D12PassConstants@@V?$allocator@UD3D12PassConstants@@@std@@@std@@CAXXZ ; std::vector<D3D12PassConstants,std::allocator<D3D12PassConstants> >::_Xlength
PUBLIC	?_Orphan_range_unlocked@?$vector@UD3D12PassConstants@@V?$allocator@UD3D12PassConstants@@@std@@@std@@AEBAXPEAUD3D12PassConstants@@0@Z ; std::vector<D3D12PassConstants,std::allocator<D3D12PassConstants> >::_Orphan_range_unlocked
PUBLIC	?_Orphan_range_locked@?$vector@UD3D12PassConstants@@V?$allocator@UD3D12PassConstants@@@std@@@std@@AEBAXPEAUD3D12PassConstants@@0@Z ; std::vector<D3D12PassConstants,std::allocator<D3D12PassConstants> >::_Orphan_range_locked
PUBLIC	?_Orphan_range@?$vector@UD3D12PassConstants@@V?$allocator@UD3D12PassConstants@@@std@@@std@@AEBAXPEAUD3D12PassConstants@@0@Z ; std::vector<D3D12PassConstants,std::allocator<D3D12PassConstants> >::_Orphan_range
PUBLIC	?_Getal@?$vector@UD3D12PassConstants@@V?$allocator@UD3D12PassConstants@@@std@@@std@@AEAAAEAV?$allocator@UD3D12PassConstants@@@2@XZ ; std::vector<D3D12PassConstants,std::allocator<D3D12PassConstants> >::_Getal
PUBLIC	?_Getal@?$vector@UD3D12PassConstants@@V?$allocator@UD3D12PassConstants@@@std@@@std@@AEBAAEBV?$allocator@UD3D12PassConstants@@@2@XZ ; std::vector<D3D12PassConstants,std::allocator<D3D12PassConstants> >::_Getal
PUBLIC	??0?$_Vector_val@U?$_Simple_types@UD3D12PassConstants@@@std@@@std@@QEAA@XZ ; std::_Vector_val<std::_Simple_types<D3D12PassConstants> >::_Vector_val<std::_Simple_types<D3D12PassConstants> >
PUBLIC	?_Get_first@?$_Compressed_pair@V?$allocator@UD3D12PassConstants@@@std@@V?$_Vector_val@U?$_Simple_types@UD3D12PassConstants@@@std@@@2@$00@std@@QEAAAEAV?$allocator@UD3D12PassConstants@@@2@XZ ; std::_Compressed_pair<std::allocator<D3D12PassConstants>,std::_Vector_val<std::_Simple_types<D3D12PassConstants> >,1>::_Get_first
PUBLIC	?_Get_first@?$_Compressed_pair@V?$allocator@UD3D12PassConstants@@@std@@V?$_Vector_val@U?$_Simple_types@UD3D12PassConstants@@@std@@@2@$00@std@@QEBAAEBV?$allocator@UD3D12PassConstants@@@2@XZ ; std::_Compressed_pair<std::allocator<D3D12PassConstants>,std::_Vector_val<std::_Simple_types<D3D12PassConstants> >,1>::_Get_first
PUBLIC	??0?$D3D12UploadBufferResource@UD3D12PassConstants@@@@QEAA@I_N@Z ; D3D12UploadBufferResource<D3D12PassConstants>::D3D12UploadBufferResource<D3D12PassConstants>
PUBLIC	??1?$D3D12UploadBufferResource@UD3D12PassConstants@@@@QEAA@XZ ; D3D12UploadBufferResource<D3D12PassConstants>::~D3D12UploadBufferResource<D3D12PassConstants>
PUBLIC	?CopyData@?$D3D12UploadBufferResource@UD3D12PassConstants@@@@QEAAXIAEBUD3D12PassConstants@@@Z ; D3D12UploadBufferResource<D3D12PassConstants>::CopyData
PUBLIC	?GetResource@?$D3D12UploadBufferResource@UD3D12PassConstants@@@@QEAAPEAUID3D12Resource@@XZ ; D3D12UploadBufferResource<D3D12PassConstants>::GetResource
PUBLIC	??_G?$D3D12UploadBufferResource@UD3D12PassConstants@@@@QEAAPEAXI@Z ; D3D12UploadBufferResource<D3D12PassConstants>::`scalar deleting destructor'
PUBLIC	?deallocate@?$allocator@U_Container_proxy@std@@@std@@QEAAXQEAU_Container_proxy@2@_K@Z ; std::allocator<std::_Container_proxy>::deallocate
PUBLIC	?allocate@?$allocator@U_Container_proxy@std@@@std@@QEAAPEAU_Container_proxy@2@_K@Z ; std::allocator<std::_Container_proxy>::allocate
PUBLIC	??$exchange@PEAU_Container_proxy@std@@$$T@std@@YAPEAU_Container_proxy@0@AEAPEAU10@$$QEA$$T@Z ; std::exchange<std::_Container_proxy *,std::nullptr_t>
PUBLIC	??$_Delete_plain_internal@V?$allocator@U_Container_proxy@std@@@std@@@std@@YAXAEAV?$allocator@U_Container_proxy@std@@@0@QEAU_Container_proxy@0@@Z ; std::_Delete_plain_internal<std::allocator<std::_Container_proxy> >
PUBLIC	??$_Allocate_at_least_helper@V?$allocator@D@std@@@std@@YAPEADAEAV?$allocator@D@0@AEA_K@Z ; std::_Allocate_at_least_helper<std::allocator<char> >
PUBLIC	??$_Unfancy@D@std@@YAPEADPEAD@Z			; std::_Unfancy<char>
PUBLIC	??$_Alloc_proxy@V?$allocator@U_Container_proxy@std@@@std@@@_Container_base12@std@@QEAAX$$QEAV?$allocator@U_Container_proxy@std@@@1@@Z ; std::_Container_base12::_Alloc_proxy<std::allocator<std::_Container_proxy> >
PUBLIC	??$?0_J$0A@@?$duration@_JU?$ratio@$00$0DOI@@std@@@chrono@std@@QEAA@AEB_J@Z ; std::chrono::duration<__int64,std::ratio<1,1000> >::duration<__int64,std::ratio<1,1000> ><__int64,0>
PUBLIC	??$min@_K@std@@YAAEB_KAEB_K0@Z			; std::min<unsigned __int64>
PUBLIC	??$?0PEAVD3D12Model@@@?$allocator@U_Container_proxy@std@@@std@@QEAA@AEBV?$allocator@PEAVD3D12Model@@@1@@Z ; std::allocator<std::_Container_proxy>::allocator<std::_Container_proxy><D3D12Model *>
PUBLIC	??$?0V?$allocator@PEAVD3D12Model@@@std@@$$V@?$_Compressed_pair@V?$allocator@PEAVD3D12Model@@@std@@V?$_Vector_val@U?$_Simple_types@PEAVD3D12Model@@@std@@@2@$00@std@@QEAA@U_One_then_variadic_args_t@1@$$QEAV?$allocator@PEAVD3D12Model@@@1@@Z ; std::_Compressed_pair<std::allocator<D3D12Model *>,std::_Vector_val<std::_Simple_types<D3D12Model *> >,1>::_Compressed_pair<std::allocator<D3D12Model *>,std::_Vector_val<std::_Simple_types<D3D12Model *> >,1><std::allocator<D3D12Model *> >
PUBLIC	??$_Construct_n@AEBQEAPEAVD3D12Model@@AEBQEAPEAV1@@?$vector@PEAVD3D12Model@@V?$allocator@PEAVD3D12Model@@@std@@@std@@AEAAX_KAEBQEAPEAVD3D12Model@@1@Z ; std::vector<D3D12Model *,std::allocator<D3D12Model *> >::_Construct_n<D3D12Model * * const &,D3D12Model * * const &>
PUBLIC	?pointer_to@?$pointer_traits@PEAU?$pair@$$CBIV?$unique_ptr@VD3D12PipelineShaderRootSignature@@U?$default_delete@VD3D12PipelineShaderRootSignature@@@std@@@std@@@std@@@std@@SAPEAU?$pair@$$CBIV?$unique_ptr@VD3D12PipelineShaderRootSignature@@U?$default_delete@VD3D12PipelineShaderRootSignature@@@std@@@std@@@2@AEAU32@@Z ; std::pointer_traits<std::pair<unsigned int const ,std::unique_ptr<D3D12PipelineShaderRootSignature,std::default_delete<D3D12PipelineShaderRootSignature> > > *>::pointer_to
PUBLIC	??$_Convert_size@_K_K@std@@YA_K_K@Z		; std::_Convert_size<unsigned __int64,unsigned __int64>
PUBLIC	??$?0D@?$allocator@U_Container_proxy@std@@@std@@QEAA@AEBV?$allocator@D@1@@Z ; std::allocator<std::_Container_proxy>::allocator<std::_Container_proxy><char>
PUBLIC	??$?0$$V@?$_Compressed_pair@V?$allocator@D@std@@V?$_String_val@U?$_Simple_types@D@std@@@2@$00@std@@QEAA@U_Zero_then_variadic_args_t@1@@Z ; std::_Compressed_pair<std::allocator<char>,std::_String_val<std::_Simple_types<char> >,1>::_Compressed_pair<std::allocator<char>,std::_String_val<std::_Simple_types<char> >,1><>
PUBLIC	??$_Construct@$00PEBD@?$basic_string@DU?$char_traits@D@std@@V?$allocator@D@2@@std@@AEAAXQEBD_K@Z ; std::basic_string<char,std::char_traits<char>,std::allocator<char> >::_Construct<1,char const *>
PUBLIC	??$addressof@U?$pair@$$CBIV?$unique_ptr@VD3D12PipelineShaderRootSignature@@U?$default_delete@VD3D12PipelineShaderRootSignature@@@std@@@std@@@std@@@std@@YAPEAU?$pair@$$CBIV?$unique_ptr@VD3D12PipelineShaderRootSignature@@U?$default_delete@VD3D12PipelineShaderRootSignature@@@std@@@std@@@0@AEAU10@@Z ; std::addressof<std::pair<unsigned int const ,std::unique_ptr<D3D12PipelineShaderRootSignature,std::default_delete<D3D12PipelineShaderRootSignature> > > >
PUBLIC	??$addressof@D@std@@YAPEADAEAD@Z		; std::addressof<char>
PUBLIC	??$_Destroy_range@V?$allocator@PEAVD3D12Model@@@std@@@std@@YAXPEAPEAVD3D12Model@@QEAPEAV1@AEAV?$allocator@PEAVD3D12Model@@@0@@Z ; std::_Destroy_range<std::allocator<D3D12Model *> >
PUBLIC	??0?$_Container_proxy_ptr12@V?$allocator@U_Container_proxy@std@@@std@@@std@@QEAA@AEAV?$allocator@U_Container_proxy@std@@@1@AEAU_Container_base12@1@@Z ; std::_Container_proxy_ptr12<std::allocator<std::_Container_proxy> >::_Container_proxy_ptr12<std::allocator<std::_Container_proxy> >
PUBLIC	??1?$_Container_proxy_ptr12@V?$allocator@U_Container_proxy@std@@@std@@@std@@QEAA@XZ ; std::_Container_proxy_ptr12<std::allocator<std::_Container_proxy> >::~_Container_proxy_ptr12<std::allocator<std::_Container_proxy> >
PUBLIC	??$_Deallocate@$0BA@$0A@@std@@YAXPEAX_K@Z	; std::_Deallocate<16,0>
PUBLIC	??$_Unfancy@U_Container_proxy@std@@@std@@YAPEAU_Container_proxy@0@PEAU10@@Z ; std::_Unfancy<std::_Container_proxy>
PUBLIC	??$_Allocate@$0BA@U_Default_allocate_traits@std@@$0A@@std@@YAPEAX_K@Z ; std::_Allocate<16,std::_Default_allocate_traits,0>
PUBLIC	??$_Get_size_of_n@$0BA@@std@@YA_K_K@Z		; std::_Get_size_of_n<16>
PUBLIC	??$construct_at@DAEBD$0A@@std@@YAPEADQEADAEBD@Z	; std::construct_at<char,char const &,0>
PUBLIC	??$addressof@U_Container_proxy@std@@@std@@YAPEAU_Container_proxy@0@AEAU10@@Z ; std::addressof<std::_Container_proxy>
PUBLIC	??$construct_at@U_Container_proxy@std@@PEAU_Container_base12@2@$0A@@std@@YAPEAU_Container_proxy@0@QEAU10@$$QEAPEAU_Container_base12@0@@Z ; std::construct_at<std::_Container_proxy,std::_Container_base12 *,0>
PUBLIC	??$?RI@?$_Uhash_compare@IU?$hash@I@std@@U?$equal_to@I@2@@std@@QEBA_KAEBI@Z ; std::_Uhash_compare<unsigned int,std::hash<unsigned int>,std::equal_to<unsigned int> >::operator()<unsigned int>
PUBLIC	??$_Find@I@?$_Hash@V?$_Umap_traits@IV?$unique_ptr@VD3D12PipelineShaderRootSignature@@U?$default_delete@VD3D12PipelineShaderRootSignature@@@std@@@std@@V?$_Uhash_compare@IU?$hash@I@std@@U?$equal_to@I@2@@2@V?$allocator@U?$pair@$$CBIV?$unique_ptr@VD3D12PipelineShaderRootSignature@@U?$default_delete@VD3D12PipelineShaderRootSignature@@@std@@@std@@@std@@@2@$0A@@std@@@std@@AEBAPEAU?$_List_node@U?$pair@$$CBIV?$unique_ptr@VD3D12PipelineShaderRootSignature@@U?$default_delete@VD3D12PipelineShaderRootSignature@@@std@@@std@@@std@@PEAX@1@AEBI_K@Z ; std::_Hash<std::_Umap_traits<unsigned int,std::unique_ptr<D3D12PipelineShaderRootSignature,std::default_delete<D3D12PipelineShaderRootSignature> >,std::_Uhash_compare<unsigned int,std::hash<unsigned int>,std::equal_to<unsigned int> >,std::allocator<std::pair<unsigned int const ,std::unique_ptr<D3D12PipelineShaderRootSignature,std::default_delete<D3D12PipelineShaderRootSignature> > > >,0> >::_Find<unsigned int>
PUBLIC	??$_Fnv1a_append_value@I@std@@YA_K_KAEBI@Z	; std::_Fnv1a_append_value<unsigned int>
PUBLIC	??$?0$$V@?$_Compressed_pair@U?$default_delete@VDescriptorHeap@DirectX@@@std@@PEAVDescriptorHeap@DirectX@@$00@std@@QEAA@U_Zero_then_variadic_args_t@1@@Z ; std::_Compressed_pair<std::default_delete<DirectX::DescriptorHeap>,DirectX::DescriptorHeap *,1>::_Compressed_pair<std::default_delete<DirectX::DescriptorHeap>,DirectX::DescriptorHeap *,1><>
PUBLIC	??$?0$$V@?$_Compressed_pair@U?$default_delete@V?$D3D12UploadBufferResource@UD3D12PassConstants@@@@@std@@PEAV?$D3D12UploadBufferResource@UD3D12PassConstants@@@@$00@std@@QEAA@U_Zero_then_variadic_args_t@1@@Z ; std::_Compressed_pair<std::default_delete<D3D12UploadBufferResource<D3D12PassConstants> >,D3D12UploadBufferResource<D3D12PassConstants> *,1>::_Compressed_pair<std::default_delete<D3D12UploadBufferResource<D3D12PassConstants> >,D3D12UploadBufferResource<D3D12PassConstants> *,1><>
PUBLIC	?deallocate@?$allocator@PEAV?$IIContainer@XJJ@@@std@@QEAAXQEAPEAV?$IIContainer@XJJ@@_K@Z ; std::allocator<IIContainer<void,long,long> *>::deallocate
PUBLIC	?allocate@?$allocator@PEAV?$IIContainer@XJJ@@@std@@QEAAPEAPEAV?$IIContainer@XJJ@@_K@Z ; std::allocator<IIContainer<void,long,long> *>::allocate
PUBLIC	?max_size@?$_Default_allocator_traits@V?$allocator@PEAV?$IIContainer@XJJ@@@std@@@std@@SA_KAEBV?$allocator@PEAV?$IIContainer@XJJ@@@2@@Z ; std::_Default_allocator_traits<std::allocator<IIContainer<void,long,long> *> >::max_size
PUBLIC	?push_back@?$vector@PEAV?$IIContainer@XJJ@@V?$allocator@PEAV?$IIContainer@XJJ@@@std@@@std@@QEAAXAEBQEAV?$IIContainer@XJJ@@@Z ; std::vector<IIContainer<void,long,long> *,std::allocator<IIContainer<void,long,long> *> >::push_back
PUBLIC	?max_size@?$vector@PEAV?$IIContainer@XJJ@@V?$allocator@PEAV?$IIContainer@XJJ@@@std@@@std@@QEBA_KXZ ; std::vector<IIContainer<void,long,long> *,std::allocator<IIContainer<void,long,long> *> >::max_size
PUBLIC	?capacity@?$vector@PEAV?$IIContainer@XJJ@@V?$allocator@PEAV?$IIContainer@XJJ@@@std@@@std@@QEBA_KXZ ; std::vector<IIContainer<void,long,long> *,std::allocator<IIContainer<void,long,long> *> >::capacity
PUBLIC	?_Calculate_growth@?$vector@PEAV?$IIContainer@XJJ@@V?$allocator@PEAV?$IIContainer@XJJ@@@std@@@std@@AEBA_K_K@Z ; std::vector<IIContainer<void,long,long> *,std::allocator<IIContainer<void,long,long> *> >::_Calculate_growth
PUBLIC	?_Change_array@?$vector@PEAV?$IIContainer@XJJ@@V?$allocator@PEAV?$IIContainer@XJJ@@@std@@@std@@AEAAXQEAPEAV?$IIContainer@XJJ@@_K1@Z ; std::vector<IIContainer<void,long,long> *,std::allocator<IIContainer<void,long,long> *> >::_Change_array
PUBLIC	?_Xlength@?$vector@PEAV?$IIContainer@XJJ@@V?$allocator@PEAV?$IIContainer@XJJ@@@std@@@std@@CAXXZ ; std::vector<IIContainer<void,long,long> *,std::allocator<IIContainer<void,long,long> *> >::_Xlength
PUBLIC	?_Orphan_range_unlocked@?$vector@PEAV?$IIContainer@XJJ@@V?$allocator@PEAV?$IIContainer@XJJ@@@std@@@std@@AEBAXPEAPEAV?$IIContainer@XJJ@@0@Z ; std::vector<IIContainer<void,long,long> *,std::allocator<IIContainer<void,long,long> *> >::_Orphan_range_unlocked
PUBLIC	?_Orphan_range_locked@?$vector@PEAV?$IIContainer@XJJ@@V?$allocator@PEAV?$IIContainer@XJJ@@@std@@@std@@AEBAXPEAPEAV?$IIContainer@XJJ@@0@Z ; std::vector<IIContainer<void,long,long> *,std::allocator<IIContainer<void,long,long> *> >::_Orphan_range_locked
PUBLIC	?_Orphan_range@?$vector@PEAV?$IIContainer@XJJ@@V?$allocator@PEAV?$IIContainer@XJJ@@@std@@@std@@AEBAXPEAPEAV?$IIContainer@XJJ@@0@Z ; std::vector<IIContainer<void,long,long> *,std::allocator<IIContainer<void,long,long> *> >::_Orphan_range
PUBLIC	?_Getal@?$vector@PEAV?$IIContainer@XJJ@@V?$allocator@PEAV?$IIContainer@XJJ@@@std@@@std@@AEAAAEAV?$allocator@PEAV?$IIContainer@XJJ@@@2@XZ ; std::vector<IIContainer<void,long,long> *,std::allocator<IIContainer<void,long,long> *> >::_Getal
PUBLIC	?_Getal@?$vector@PEAV?$IIContainer@XJJ@@V?$allocator@PEAV?$IIContainer@XJJ@@@std@@@std@@AEBAAEBV?$allocator@PEAV?$IIContainer@XJJ@@@2@XZ ; std::vector<IIContainer<void,long,long> *,std::allocator<IIContainer<void,long,long> *> >::_Getal
PUBLIC	?_Get_first@?$_Compressed_pair@V?$allocator@PEAV?$IIContainer@XJJ@@@std@@V?$_Vector_val@U?$_Simple_types@PEAV?$IIContainer@XJJ@@@std@@@2@$00@std@@QEAAAEAV?$allocator@PEAV?$IIContainer@XJJ@@@2@XZ ; std::_Compressed_pair<std::allocator<IIContainer<void,long,long> *>,std::_Vector_val<std::_Simple_types<IIContainer<void,long,long> *> >,1>::_Get_first
PUBLIC	?_Get_first@?$_Compressed_pair@V?$allocator@PEAV?$IIContainer@XJJ@@@std@@V?$_Vector_val@U?$_Simple_types@PEAV?$IIContainer@XJJ@@@std@@@2@$00@std@@QEBAAEBV?$allocator@PEAV?$IIContainer@XJJ@@@2@XZ ; std::_Compressed_pair<std::allocator<IIContainer<void,long,long> *>,std::_Vector_val<std::_Simple_types<IIContainer<void,long,long> *> >,1>::_Get_first
PUBLIC	??0?$IIContainer@XJJ@@QEAA@XZ			; IIContainer<void,long,long>::IIContainer<void,long,long>
PUBLIC	??0?$TMethodContainter@VD3D12Renderer@@XJJ@@QEAA@PEAVD3D12Renderer@@P81@EAAXJJ@Z@Z ; TMethodContainter<D3D12Renderer,void,long,long>::TMethodContainter<D3D12Renderer,void,long,long>
PUBLIC	?Call@?$TMethodContainter@VD3D12Renderer@@XJJ@@UEAAXJJ@Z ; TMethodContainter<D3D12Renderer,void,long,long>::Call
PUBLIC	??$?0U?$default_delete@VDescriptorHeap@DirectX@@@std@@$0A@@?$unique_ptr@VDescriptorHeap@DirectX@@U?$default_delete@VDescriptorHeap@DirectX@@@std@@@std@@QEAA@PEAVDescriptorHeap@DirectX@@@Z ; std::unique_ptr<DirectX::DescriptorHeap,std::default_delete<DirectX::DescriptorHeap> >::unique_ptr<DirectX::DescriptorHeap,std::default_delete<DirectX::DescriptorHeap> ><std::default_delete<DirectX::DescriptorHeap>,0>
PUBLIC	??$?0U?$default_delete@V?$D3D12UploadBufferResource@UD3D12PassConstants@@@@@std@@$0A@@?$unique_ptr@V?$D3D12UploadBufferResource@UD3D12PassConstants@@@@U?$default_delete@V?$D3D12UploadBufferResource@UD3D12PassConstants@@@@@std@@@std@@QEAA@PEAV?$D3D12UploadBufferResource@UD3D12PassConstants@@@@@Z ; std::unique_ptr<D3D12UploadBufferResource<D3D12PassConstants>,std::default_delete<D3D12UploadBufferResource<D3D12PassConstants> > >::unique_ptr<D3D12UploadBufferResource<D3D12PassConstants>,std::default_delete<D3D12UploadBufferResource<D3D12PassConstants> > ><std::default_delete<D3D12UploadBufferResource<D3D12PassConstants> >,0>
PUBLIC	??$_Deallocate_plain@V?$allocator@U_Container_proxy@std@@@std@@@std@@YAXAEAV?$allocator@U_Container_proxy@std@@@0@QEAU_Container_proxy@0@@Z ; std::_Deallocate_plain<std::allocator<std::_Container_proxy> >
PUBLIC	??1?$_Tidy_guard@V?$vector@PEAVD3D12Model@@V?$allocator@PEAVD3D12Model@@@std@@@std@@@std@@QEAA@XZ ; std::_Tidy_guard<std::vector<D3D12Model *,std::allocator<D3D12Model *> > >::~_Tidy_guard<std::vector<D3D12Model *,std::allocator<D3D12Model *> > >
PUBLIC	??$_Uninitialized_copy@PEAPEAVD3D12Model@@PEAPEAV1@V?$allocator@PEAVD3D12Model@@@std@@@std@@YAPEAPEAVD3D12Model@@PEAPEAV1@00AEAV?$allocator@PEAVD3D12Model@@@0@@Z ; std::_Uninitialized_copy<D3D12Model * *,D3D12Model * *,std::allocator<D3D12Model *> >
PUBLIC	??$_Construct_in_place@PEADAEBQEAD@std@@YAXAEAPEADAEBQEAD@Z ; std::_Construct_in_place<char *,char * const &>
PUBLIC	??$addressof@PEAD@std@@YAPEAPEADAEAPEAD@Z	; std::addressof<char *>
PUBLIC	??$_Allocate_manually_vector_aligned@U_Default_allocate_traits@std@@@std@@YAPEAX_K@Z ; std::_Allocate_manually_vector_aligned<std::_Default_allocate_traits>
PUBLIC	??$_Emplace_one_at_back@AEBQEAV?$IIContainer@XJJ@@@?$vector@PEAV?$IIContainer@XJJ@@V?$allocator@PEAV?$IIContainer@XJJ@@@std@@@std@@AEAAAEAPEAV?$IIContainer@XJJ@@AEBQEAV2@@Z ; std::vector<IIContainer<void,long,long> *,std::allocator<IIContainer<void,long,long> *> >::_Emplace_one_at_back<IIContainer<void,long,long> * const &>
PUBLIC	??$?0UD3D12PassConstants@@@?$allocator@U_Container_proxy@std@@@std@@QEAA@AEBV?$allocator@UD3D12PassConstants@@@1@@Z ; std::allocator<std::_Container_proxy>::allocator<std::_Container_proxy><D3D12PassConstants>
PUBLIC	??$exchange@PEAV?$D3D12UploadBufferResource@UD3D12PassConstants@@@@AEAPEAV1@@std@@YAPEAV?$D3D12UploadBufferResource@UD3D12PassConstants@@@@AEAPEAV1@0@Z ; std::exchange<D3D12UploadBufferResource<D3D12PassConstants> *,D3D12UploadBufferResource<D3D12PassConstants> * &>
PUBLIC	??$exchange@PEAV?$D3D12UploadBufferResource@UD3D12PassConstants@@@@$$T@std@@YAPEAV?$D3D12UploadBufferResource@UD3D12PassConstants@@@@AEAPEAV1@$$QEA$$T@Z ; std::exchange<D3D12UploadBufferResource<D3D12PassConstants> *,std::nullptr_t>
PUBLIC	??$exchange@PEAVDescriptorHeap@DirectX@@AEAPEAV12@@std@@YAPEAVDescriptorHeap@DirectX@@AEAPEAV12@0@Z ; std::exchange<DirectX::DescriptorHeap *,DirectX::DescriptorHeap * &>
PUBLIC	??$exchange@PEAVDescriptorHeap@DirectX@@$$T@std@@YAPEAVDescriptorHeap@DirectX@@AEAPEAV12@$$QEA$$T@Z ; std::exchange<DirectX::DescriptorHeap *,std::nullptr_t>
PUBLIC	??$addressof@$$CBV?$_List_val@U?$_List_simple_types@U?$pair@$$CBIV?$unique_ptr@VD3D12PipelineShaderRootSignature@@U?$default_delete@VD3D12PipelineShaderRootSignature@@@std@@@std@@@std@@@std@@@std@@@std@@YAPEBV?$_List_val@U?$_List_simple_types@U?$pair@$$CBIV?$unique_ptr@VD3D12PipelineShaderRootSignature@@U?$default_delete@VD3D12PipelineShaderRootSignature@@@std@@@std@@@std@@@std@@@0@AEBV10@@Z ; std::addressof<std::_List_val<std::_List_simple_types<std::pair<unsigned int const ,std::unique_ptr<D3D12PipelineShaderRootSignature,std::default_delete<D3D12PipelineShaderRootSignature> > > > > const >
PUBLIC	??$construct_at@D$$V$0A@@std@@YAPEADQEAD@Z	; std::construct_at<char,0>
PUBLIC	??$_Get_size_of_n@$00@std@@YA_K_K@Z		; std::_Get_size_of_n<1>
PUBLIC	??$_Destroy_range@V?$allocator@UD3D12PassConstants@@@std@@@std@@YAXPEAUD3D12PassConstants@@QEAU1@AEAV?$allocator@UD3D12PassConstants@@@0@@Z ; std::_Destroy_range<std::allocator<D3D12PassConstants> >
PUBLIC	??$_Allocate_at_least_helper@V?$allocator@PEAVD3D12Model@@@std@@@std@@YAPEAPEAVD3D12Model@@AEAV?$allocator@PEAVD3D12Model@@@0@AEA_K@Z ; std::_Allocate_at_least_helper<std::allocator<D3D12Model *> >
PUBLIC	??$_Find_last@I@?$_Hash@V?$_Umap_traits@IV?$unique_ptr@VD3D12PipelineShaderRootSignature@@U?$default_delete@VD3D12PipelineShaderRootSignature@@@std@@@std@@V?$_Uhash_compare@IU?$hash@I@std@@U?$equal_to@I@2@@2@V?$allocator@U?$pair@$$CBIV?$unique_ptr@VD3D12PipelineShaderRootSignature@@U?$default_delete@VD3D12PipelineShaderRootSignature@@@std@@@std@@@std@@@2@$0A@@std@@@std@@IEBA?AU?$_Hash_find_last_result@PEAU?$_List_node@U?$pair@$$CBIV?$unique_ptr@VD3D12PipelineShaderRootSignature@@U?$default_delete@VD3D12PipelineShaderRootSignature@@@std@@@std@@@std@@PEAX@std@@@1@AEBI_K@Z ; std::_Hash<std::_Umap_traits<unsigned int,std::unique_ptr<D3D12PipelineShaderRootSignature,std::default_delete<D3D12PipelineShaderRootSignature> >,std::_Uhash_compare<unsigned int,std::hash<unsigned int>,std::equal_to<unsigned int> >,std::allocator<std::pair<unsigned int const ,std::unique_ptr<D3D12PipelineShaderRootSignature,std::default_delete<D3D12PipelineShaderRootSignature> > > >,0> >::_Find_last<unsigned int>
PUBLIC	??$?0AEAPEAVDescriptorHeap@DirectX@@@?$_Compressed_pair@U?$default_delete@VDescriptorHeap@DirectX@@@std@@PEAVDescriptorHeap@DirectX@@$00@std@@QEAA@U_Zero_then_variadic_args_t@1@AEAPEAVDescriptorHeap@DirectX@@@Z ; std::_Compressed_pair<std::default_delete<DirectX::DescriptorHeap>,DirectX::DescriptorHeap *,1>::_Compressed_pair<std::default_delete<DirectX::DescriptorHeap>,DirectX::DescriptorHeap *,1><DirectX::DescriptorHeap * &>
PUBLIC	??$?0AEAPEAV?$D3D12UploadBufferResource@UD3D12PassConstants@@@@@?$_Compressed_pair@U?$default_delete@V?$D3D12UploadBufferResource@UD3D12PassConstants@@@@@std@@PEAV?$D3D12UploadBufferResource@UD3D12PassConstants@@@@$00@std@@QEAA@U_Zero_then_variadic_args_t@1@AEAPEAV?$D3D12UploadBufferResource@UD3D12PassConstants@@@@@Z ; std::_Compressed_pair<std::default_delete<D3D12UploadBufferResource<D3D12PassConstants> >,D3D12UploadBufferResource<D3D12PassConstants> *,1>::_Compressed_pair<std::default_delete<D3D12UploadBufferResource<D3D12PassConstants> >,D3D12UploadBufferResource<D3D12PassConstants> *,1><D3D12UploadBufferResource<D3D12PassConstants> * &>
PUBLIC	?deallocate@?$_Default_allocator_traits@V?$allocator@U_Container_proxy@std@@@std@@@std@@SAXAEAV?$allocator@U_Container_proxy@std@@@2@QEAU_Container_proxy@2@_K@Z ; std::_Default_allocator_traits<std::allocator<std::_Container_proxy> >::deallocate
PUBLIC	??$_Unwrap_iter@PEAPEAVD3D12Model@@PEAPEAV1@@ranges@std@@YA?A_T$$QEAPEAPEAVD3D12Model@@@Z ; std::ranges::_Unwrap_iter<D3D12Model * *,D3D12Model * *>
PUBLIC	??$_Unwrap_sent@PEAPEAVD3D12Model@@PEAPEAV1@@ranges@std@@YA?A_T$$QEAPEAPEAVD3D12Model@@@Z ; std::ranges::_Unwrap_sent<D3D12Model * *,D3D12Model * *>
PUBLIC	??$_To_address@PEAPEAVD3D12Model@@@std@@YA?A_PAEBQEAPEAVD3D12Model@@@Z ; std::_To_address<D3D12Model * *>
PUBLIC	??$to_address@PEAVD3D12Model@@@std@@YAPEAPEAVD3D12Model@@QEAPEAV1@@Z ; std::to_address<D3D12Model *>
PUBLIC	??$_Unfancy@PEAVD3D12Model@@@std@@YAPEAPEAVD3D12Model@@PEAPEAV1@@Z ; std::_Unfancy<D3D12Model *>
PUBLIC	??$_Copy_memmove@PEAPEAVD3D12Model@@PEAPEAV1@@std@@YAPEAPEAVD3D12Model@@PEAPEAV1@00@Z ; std::_Copy_memmove<D3D12Model * *,D3D12Model * *>
PUBLIC	??0?$_Uninitialized_backout_al@V?$allocator@PEAVD3D12Model@@@std@@@std@@QEAA@PEAPEAVD3D12Model@@AEAV?$allocator@PEAVD3D12Model@@@1@@Z ; std::_Uninitialized_backout_al<std::allocator<D3D12Model *> >::_Uninitialized_backout_al<std::allocator<D3D12Model *> >
PUBLIC	??1?$_Uninitialized_backout_al@V?$allocator@PEAVD3D12Model@@@std@@@std@@QEAA@XZ ; std::_Uninitialized_backout_al<std::allocator<D3D12Model *> >::~_Uninitialized_backout_al<std::allocator<D3D12Model *> >
PUBLIC	?_Release@?$_Uninitialized_backout_al@V?$allocator@PEAVD3D12Model@@@std@@@std@@QEAAPEAPEAVD3D12Model@@XZ ; std::_Uninitialized_backout_al<std::allocator<D3D12Model *> >::_Release
PUBLIC	??$_Emplace_back@AEAPEAVD3D12Model@@@?$_Uninitialized_backout_al@V?$allocator@PEAVD3D12Model@@@std@@@std@@QEAAXAEAPEAVD3D12Model@@@Z ; std::_Uninitialized_backout_al<std::allocator<D3D12Model *> >::_Emplace_back<D3D12Model * &>
PUBLIC	??$construct_at@PEADAEBQEAD$0A@@std@@YAPEAPEADQEAPEADAEBQEAD@Z ; std::construct_at<char *,char * const &,0>
PUBLIC	??$_Emplace_back_with_unused_capacity@AEBQEAV?$IIContainer@XJJ@@@?$vector@PEAV?$IIContainer@XJJ@@V?$allocator@PEAV?$IIContainer@XJJ@@@std@@@std@@AEAAAEAPEAV?$IIContainer@XJJ@@AEBQEAV2@@Z ; std::vector<IIContainer<void,long,long> *,std::allocator<IIContainer<void,long,long> *> >::_Emplace_back_with_unused_capacity<IIContainer<void,long,long> * const &>
PUBLIC	??$_Emplace_reallocate@AEBQEAV?$IIContainer@XJJ@@@?$vector@PEAV?$IIContainer@XJJ@@V?$allocator@PEAV?$IIContainer@XJJ@@@std@@@std@@AEAAPEAPEAV?$IIContainer@XJJ@@QEAPEAV2@AEBQEAV2@@Z ; std::vector<IIContainer<void,long,long> *,std::allocator<IIContainer<void,long,long> *> >::_Emplace_reallocate<IIContainer<void,long,long> * const &>
PUBLIC	??$_Resize@U_Value_init_tag@std@@@?$vector@UD3D12PassConstants@@V?$allocator@UD3D12PassConstants@@@std@@@std@@AEAAX_KAEBU_Value_init_tag@1@@Z ; std::vector<D3D12PassConstants,std::allocator<D3D12PassConstants> >::_Resize<std::_Value_init_tag>
PUBLIC	??$?0$$V@?$_Compressed_pair@V?$allocator@UD3D12PassConstants@@@std@@V?$_Vector_val@U?$_Simple_types@UD3D12PassConstants@@@std@@@2@$00@std@@QEAA@U_Zero_then_variadic_args_t@1@@Z ; std::_Compressed_pair<std::allocator<D3D12PassConstants>,std::_Vector_val<std::_Simple_types<D3D12PassConstants> >,1>::_Compressed_pair<std::allocator<D3D12PassConstants>,std::_Vector_val<std::_Simple_types<D3D12PassConstants> >,1><>
PUBLIC	??$_Get_size_of_n@$07@std@@YA_K_K@Z		; std::_Get_size_of_n<8>
PUBLIC	??$_Kfn@$$CBIV?$unique_ptr@VD3D12PipelineShaderRootSignature@@U?$default_delete@VD3D12PipelineShaderRootSignature@@@std@@@std@@@?$_Umap_traits@IV?$unique_ptr@VD3D12PipelineShaderRootSignature@@U?$default_delete@VD3D12PipelineShaderRootSignature@@@std@@@std@@V?$_Uhash_compare@IU?$hash@I@std@@U?$equal_to@I@2@@2@V?$allocator@U?$pair@$$CBIV?$unique_ptr@VD3D12PipelineShaderRootSignature@@U?$default_delete@VD3D12PipelineShaderRootSignature@@@std@@@std@@@std@@@2@$0A@@std@@SAAEBIAEBU?$pair@$$CBIV?$unique_ptr@VD3D12PipelineShaderRootSignature@@U?$default_delete@VD3D12PipelineShaderRootSignature@@@std@@@std@@@1@@Z ; std::_Umap_traits<unsigned int,std::unique_ptr<D3D12PipelineShaderRootSignature,std::default_delete<D3D12PipelineShaderRootSignature> >,std::_Uhash_compare<unsigned int,std::hash<unsigned int>,std::equal_to<unsigned int> >,std::allocator<std::pair<unsigned int const ,std::unique_ptr<D3D12PipelineShaderRootSignature,std::default_delete<D3D12PipelineShaderRootSignature> > > >,0>::_Kfn<unsigned int const ,std::unique_ptr<D3D12PipelineShaderRootSignature,std::default_delete<D3D12PipelineShaderRootSignature> > >
PUBLIC	??$?RII@?$_Uhash_compare@IU?$hash@I@std@@U?$equal_to@I@2@@std@@QEBA_NAEBI0@Z ; std::_Uhash_compare<unsigned int,std::hash<unsigned int>,std::equal_to<unsigned int> >::operator()<unsigned int,unsigned int>
PUBLIC	??$construct@PEAVD3D12Model@@AEAPEAV1@@?$_Default_allocator_traits@V?$allocator@PEAVD3D12Model@@@std@@@std@@SAXAEAV?$allocator@PEAVD3D12Model@@@1@QEAPEAVD3D12Model@@AEAPEAV3@@Z ; std::_Default_allocator_traits<std::allocator<D3D12Model *> >::construct<D3D12Model *,D3D12Model * &>
PUBLIC	??$_Construct_in_place@PEAV?$IIContainer@XJJ@@AEBQEAV1@@std@@YAXAEAPEAV?$IIContainer@XJJ@@AEBQEAV1@@Z ; std::_Construct_in_place<IIContainer<void,long,long> *,IIContainer<void,long,long> * const &>
PUBLIC	??$_Allocate_at_least_helper@V?$allocator@PEAV?$IIContainer@XJJ@@@std@@@std@@YAPEAPEAV?$IIContainer@XJJ@@AEAV?$allocator@PEAV?$IIContainer@XJJ@@@0@AEA_K@Z ; std::_Allocate_at_least_helper<std::allocator<IIContainer<void,long,long> *> >
PUBLIC	??$_Unfancy@PEAV?$IIContainer@XJJ@@@std@@YAPEAPEAV?$IIContainer@XJJ@@PEAPEAV1@@Z ; std::_Unfancy<IIContainer<void,long,long> *>
PUBLIC	??$construct@PEAV?$IIContainer@XJJ@@AEBQEAV1@@?$_Default_allocator_traits@V?$allocator@PEAV?$IIContainer@XJJ@@@std@@@std@@SAXAEAV?$allocator@PEAV?$IIContainer@XJJ@@@1@QEAPEAV?$IIContainer@XJJ@@AEBQEAV3@@Z ; std::_Default_allocator_traits<std::allocator<IIContainer<void,long,long> *> >::construct<IIContainer<void,long,long> *,IIContainer<void,long,long> * const &>
PUBLIC	??$_Uninitialized_move@PEAPEAV?$IIContainer@XJJ@@V?$allocator@PEAV?$IIContainer@XJJ@@@std@@@std@@YAPEAPEAV?$IIContainer@XJJ@@QEAPEAV1@0PEAPEAV1@AEAV?$allocator@PEAV?$IIContainer@XJJ@@@0@@Z ; std::_Uninitialized_move<IIContainer<void,long,long> * *,std::allocator<IIContainer<void,long,long> *> >
PUBLIC	??$_Destroy_range@V?$allocator@PEAV?$IIContainer@XJJ@@@std@@@std@@YAXPEAPEAV?$IIContainer@XJJ@@QEAPEAV1@AEAV?$allocator@PEAV?$IIContainer@XJJ@@@0@@Z ; std::_Destroy_range<std::allocator<IIContainer<void,long,long> *> >
PUBLIC	??$_Resize_reallocate@U_Value_init_tag@std@@@?$vector@UD3D12PassConstants@@V?$allocator@UD3D12PassConstants@@@std@@@std@@AEAAX_KAEBU_Value_init_tag@1@@Z ; std::vector<D3D12PassConstants,std::allocator<D3D12PassConstants> >::_Resize_reallocate<std::_Value_init_tag>
PUBLIC	??$_Uninitialized_value_construct_n@V?$allocator@UD3D12PassConstants@@@std@@@std@@YAPEAUD3D12PassConstants@@PEAU1@_KAEAV?$allocator@UD3D12PassConstants@@@0@@Z ; std::_Uninitialized_value_construct_n<std::allocator<D3D12PassConstants> >
PUBLIC	??$construct_at@PEAVD3D12Model@@AEAPEAV1@$0A@@std@@YAPEAPEAVD3D12Model@@QEAPEAV1@AEAPEAV1@@Z ; std::construct_at<D3D12Model *,D3D12Model * &,0>
PUBLIC	??$addressof@PEAV?$IIContainer@XJJ@@@std@@YAPEAPEAV?$IIContainer@XJJ@@AEAPEAV1@@Z ; std::addressof<IIContainer<void,long,long> *>
PUBLIC	??$construct_at@PEAV?$IIContainer@XJJ@@AEBQEAV1@$0A@@std@@YAPEAPEAV?$IIContainer@XJJ@@QEAPEAV1@AEBQEAV1@@Z ; std::construct_at<IIContainer<void,long,long> *,IIContainer<void,long,long> * const &,0>
PUBLIC	??$_Get_unwrapped@AEBQEAPEAV?$IIContainer@XJJ@@@std@@YA?A_TAEBQEAPEAV?$IIContainer@XJJ@@@Z ; std::_Get_unwrapped<IIContainer<void,long,long> * * const &>
PUBLIC	??$_Copy_memmove@PEAPEAV?$IIContainer@XJJ@@PEAPEAV1@@std@@YAPEAPEAV?$IIContainer@XJJ@@PEAPEAV1@00@Z ; std::_Copy_memmove<IIContainer<void,long,long> * *,IIContainer<void,long,long> * *>
PUBLIC	??0?$_Uninitialized_backout_al@V?$allocator@PEAV?$IIContainer@XJJ@@@std@@@std@@QEAA@PEAPEAV?$IIContainer@XJJ@@AEAV?$allocator@PEAV?$IIContainer@XJJ@@@1@@Z ; std::_Uninitialized_backout_al<std::allocator<IIContainer<void,long,long> *> >::_Uninitialized_backout_al<std::allocator<IIContainer<void,long,long> *> >
PUBLIC	??1?$_Uninitialized_backout_al@V?$allocator@PEAV?$IIContainer@XJJ@@@std@@@std@@QEAA@XZ ; std::_Uninitialized_backout_al<std::allocator<IIContainer<void,long,long> *> >::~_Uninitialized_backout_al<std::allocator<IIContainer<void,long,long> *> >
PUBLIC	?_Release@?$_Uninitialized_backout_al@V?$allocator@PEAV?$IIContainer@XJJ@@@std@@@std@@QEAAPEAPEAV?$IIContainer@XJJ@@XZ ; std::_Uninitialized_backout_al<std::allocator<IIContainer<void,long,long> *> >::_Release
PUBLIC	??$_Emplace_back@PEAV?$IIContainer@XJJ@@@?$_Uninitialized_backout_al@V?$allocator@PEAV?$IIContainer@XJJ@@@std@@@std@@QEAAX$$QEAPEAV?$IIContainer@XJJ@@@Z ; std::_Uninitialized_backout_al<std::allocator<IIContainer<void,long,long> *> >::_Emplace_back<IIContainer<void,long,long> *>
PUBLIC	??$_Allocate_at_least_helper@V?$allocator@UD3D12PassConstants@@@std@@@std@@YAPEAUD3D12PassConstants@@AEAV?$allocator@UD3D12PassConstants@@@0@AEA_K@Z ; std::_Allocate_at_least_helper<std::allocator<D3D12PassConstants> >
PUBLIC	??$_Uninitialized_move@PEAUD3D12PassConstants@@V?$allocator@UD3D12PassConstants@@@std@@@std@@YAPEAUD3D12PassConstants@@QEAU1@0PEAU1@AEAV?$allocator@UD3D12PassConstants@@@0@@Z ; std::_Uninitialized_move<D3D12PassConstants *,std::allocator<D3D12PassConstants> >
PUBLIC	??0?$_Uninitialized_backout_al@V?$allocator@UD3D12PassConstants@@@std@@@std@@QEAA@PEAUD3D12PassConstants@@AEAV?$allocator@UD3D12PassConstants@@@1@@Z ; std::_Uninitialized_backout_al<std::allocator<D3D12PassConstants> >::_Uninitialized_backout_al<std::allocator<D3D12PassConstants> >
PUBLIC	??1?$_Uninitialized_backout_al@V?$allocator@UD3D12PassConstants@@@std@@@std@@QEAA@XZ ; std::_Uninitialized_backout_al<std::allocator<D3D12PassConstants> >::~_Uninitialized_backout_al<std::allocator<D3D12PassConstants> >
PUBLIC	?_Release@?$_Uninitialized_backout_al@V?$allocator@UD3D12PassConstants@@@std@@@std@@QEAAPEAUD3D12PassConstants@@XZ ; std::_Uninitialized_backout_al<std::allocator<D3D12PassConstants> >::_Release
PUBLIC	??$_Emplace_back@$$V@?$_Uninitialized_backout_al@V?$allocator@UD3D12PassConstants@@@std@@@std@@QEAAXXZ ; std::_Uninitialized_backout_al<std::allocator<D3D12PassConstants> >::_Emplace_back<>
PUBLIC	??$_To_address@PEAPEAV?$IIContainer@XJJ@@@std@@YA?A_PAEBQEAPEAV?$IIContainer@XJJ@@@Z ; std::_To_address<IIContainer<void,long,long> * *>
PUBLIC	??$to_address@PEAV?$IIContainer@XJJ@@@std@@YAPEAPEAV?$IIContainer@XJJ@@QEAPEAV1@@Z ; std::to_address<IIContainer<void,long,long> *>
PUBLIC	??$construct@PEAV?$IIContainer@XJJ@@PEAV1@@?$_Default_allocator_traits@V?$allocator@PEAV?$IIContainer@XJJ@@@std@@@std@@SAXAEAV?$allocator@PEAV?$IIContainer@XJJ@@@1@QEAPEAV?$IIContainer@XJJ@@$$QEAPEAV3@@Z ; std::_Default_allocator_traits<std::allocator<IIContainer<void,long,long> *> >::construct<IIContainer<void,long,long> *,IIContainer<void,long,long> *>
PUBLIC	??$_Get_unwrapped@AEBQEAUD3D12PassConstants@@@std@@YA?A_TAEBQEAUD3D12PassConstants@@@Z ; std::_Get_unwrapped<D3D12PassConstants * const &>
PUBLIC	??$_Unfancy@UD3D12PassConstants@@@std@@YAPEAUD3D12PassConstants@@PEAU1@@Z ; std::_Unfancy<D3D12PassConstants>
PUBLIC	??$_Copy_memmove@PEAUD3D12PassConstants@@PEAU1@@std@@YAPEAUD3D12PassConstants@@PEAU1@00@Z ; std::_Copy_memmove<D3D12PassConstants *,D3D12PassConstants *>
PUBLIC	??$_Emplace_back@UD3D12PassConstants@@@?$_Uninitialized_backout_al@V?$allocator@UD3D12PassConstants@@@std@@@std@@QEAAX$$QEAUD3D12PassConstants@@@Z ; std::_Uninitialized_backout_al<std::allocator<D3D12PassConstants> >::_Emplace_back<D3D12PassConstants>
PUBLIC	??$construct@UD3D12PassConstants@@$$V@?$_Default_allocator_traits@V?$allocator@UD3D12PassConstants@@@std@@@std@@SAXAEAV?$allocator@UD3D12PassConstants@@@1@QEAUD3D12PassConstants@@@Z ; std::_Default_allocator_traits<std::allocator<D3D12PassConstants> >::construct<D3D12PassConstants>
PUBLIC	??$_Get_size_of_n@$0DPE@@std@@YA_K_K@Z		; std::_Get_size_of_n<1012>
PUBLIC	??$construct_at@PEAV?$IIContainer@XJJ@@PEAV1@$0A@@std@@YAPEAPEAV?$IIContainer@XJJ@@QEAPEAV1@$$QEAPEAV1@@Z ; std::construct_at<IIContainer<void,long,long> *,IIContainer<void,long,long> *,0>
PUBLIC	??$_To_address@PEAUD3D12PassConstants@@@std@@YA?A_PAEBQEAUD3D12PassConstants@@@Z ; std::_To_address<D3D12PassConstants *>
PUBLIC	??$to_address@UD3D12PassConstants@@@std@@YAPEAUD3D12PassConstants@@QEAU1@@Z ; std::to_address<D3D12PassConstants>
PUBLIC	??$construct@UD3D12PassConstants@@U1@@?$_Default_allocator_traits@V?$allocator@UD3D12PassConstants@@@std@@@std@@SAXAEAV?$allocator@UD3D12PassConstants@@@1@QEAUD3D12PassConstants@@$$QEAU3@@Z ; std::_Default_allocator_traits<std::allocator<D3D12PassConstants> >::construct<D3D12PassConstants,D3D12PassConstants>
PUBLIC	??$construct_at@UD3D12PassConstants@@$$V$0A@@std@@YAPEAUD3D12PassConstants@@QEAU1@@Z ; std::construct_at<D3D12PassConstants,0>
PUBLIC	??$construct_at@UD3D12PassConstants@@U1@$0A@@std@@YAPEAUD3D12PassConstants@@QEAU1@$$QEAU1@@Z ; std::construct_at<D3D12PassConstants,D3D12PassConstants,0>
PUBLIC	__JustMyCode_Default
PUBLIC	??_C@_1KM@DJALCFKP@?$AAC?$AA?3?$AA?2?$AAP?$AAr?$AAo?$AAg?$AAr?$AAa?$AAm?$AA?5?$AAF?$AAi?$AAl?$AAe@ ; `string'
PUBLIC	??_C@_1BA@LBADLIHI@?$AAp?$AAS?$AAo?$AAu?$AAr?$AAc?$AAe@ ; `string'
PUBLIC	?__LINE__Var@?0??XMLoadFloat3@DirectX@@YQ?AT__m128@@PEBUXMFLOAT3@2@@Z@4JA ; `DirectX::XMLoadFloat3'::`1'::__LINE__Var
PUBLIC	??_C@_1BK@FHLBGAOP@?$AAp?$AAD?$AAe?$AAs?$AAt?$AAi?$AAn?$AAa?$AAt?$AAi?$AAo?$AAn@ ; `string'
PUBLIC	?__LINE__Var@?0??XMStoreFloat4x4@DirectX@@YQXPEAUXMFLOAT4X4@2@UXMMATRIX@2@@Z@4JA ; `DirectX::XMStoreFloat4x4'::`1'::__LINE__Var
PUBLIC	??_C@_1KK@PCOFFEBL@?$AAC?$AA?3?$AA?2?$AAP?$AAr?$AAo?$AAg?$AAr?$AAa?$AAm?$AA?5?$AAF?$AAi?$AAl?$AAe@ ; `string'
PUBLIC	?__LINE__Var@?0??XMMatrixLookToLH@DirectX@@YQ?AUXMMATRIX@2@T__m128@@00@Z@4JA ; `DirectX::XMMatrixLookToLH'::`1'::__LINE__Var
PUBLIC	??_C@_1FM@KOIPKFLA@?$AA?$CB?$AAX?$AAM?$AAV?$AAe?$AAc?$AAt?$AAo?$AAr?$AA3?$AAE?$AAq?$AAu?$AAa?$AAl@ ; `string'
PUBLIC	??_C@_1EG@DOFHPLOD@?$AA?$CB?$AAX?$AAM?$AAV?$AAe?$AAc?$AAt?$AAo?$AAr?$AA3?$AAI?$AAs?$AAI?$AAn?$AAf@ ; `string'
PUBLIC	??_C@_1FK@IBPGMKAB@?$AA?$CB?$AAX?$AAM?$AAV?$AAe?$AAc?$AAt?$AAo?$AAr?$AA3?$AAE?$AAq?$AAu?$AAa?$AAl@ ; `string'
PUBLIC	??_C@_1EE@JAOFAOOK@?$AA?$CB?$AAX?$AAM?$AAV?$AAe?$AAc?$AAt?$AAo?$AAr?$AA3?$AAI?$AAs?$AAI?$AAn?$AAf@ ; `string'
PUBLIC	??_C@_1DE@NHJOKGBK@?$AAN?$AAe?$AAa?$AAr?$AAZ?$AA?5?$AA?$DO?$AA?5?$AA0?$AA?4?$AAf?$AA?5?$AA?$CG?$AA?$CG?$AA?5@ ; `string'
PUBLIC	??_C@_1FE@IMEJOJAH@?$AA?$CB?$AAX?$AAM?$AAS?$AAc?$AAa?$AAl?$AAa?$AAr?$AAN?$AAe?$AAa?$AAr?$AAE?$AAq@ ; `string'
PUBLIC	?__LINE__Var@?0??XMMatrixPerspectiveFovLH@DirectX@@YQ?AUXMMATRIX@2@MMMM@Z@4JA ; `DirectX::XMMatrixPerspectiveFovLH'::`1'::__LINE__Var
PUBLIC	??_C@_1GK@EFPMNDEN@?$AA?$CB?$AAX?$AAM?$AAS?$AAc?$AAa?$AAl?$AAa?$AAr?$AAN?$AAe?$AAa?$AAr?$AAE?$AAq@ ; `string'
PUBLIC	??_C@_1GA@CLJELBLH@?$AA?$CB?$AAX?$AAM?$AAS?$AAc?$AAa?$AAl?$AAa?$AAr?$AAN?$AAe?$AAa?$AAr?$AAE?$AAq@ ; `string'
PUBLIC	??_C@_1KG@LKCFMLEG@?$AAC?$AA?3?$AA?2?$AAP?$AAr?$AAo?$AAg?$AAr?$AAa?$AAm?$AA?5?$AAF?$AAi?$AAl?$AAe@ ; `string'
PUBLIC	?__LINE__Var@?0??XMScalarSinCos@DirectX@@YAXPEAM0M@Z@4JA ; `DirectX::XMScalarSinCos'::`1'::__LINE__Var
PUBLIC	??_C@_19MFJHDIJG@?$AAp?$AAS?$AAi?$AAn@		; `string'
PUBLIC	??_C@_19MNAGGFOC@?$AAp?$AAC?$AAo?$AAs@		; `string'
PUBLIC	??_7Renderer@@6B@				; Renderer::`vftable'
PUBLIC	??_7exception@std@@6B@				; std::exception::`vftable'
PUBLIC	??_C@_0BC@EOODALEL@Unknown?5exception@		; `string'
PUBLIC	??_7bad_alloc@std@@6B@				; std::bad_alloc::`vftable'
PUBLIC	??_7bad_array_new_length@std@@6B@		; std::bad_array_new_length::`vftable'
PUBLIC	??_C@_0BF@KINCDENJ@bad?5array?5new?5length@	; `string'
PUBLIC	_TI3?AVbad_array_new_length@std@@
PUBLIC	_CTA3?AVbad_array_new_length@std@@
PUBLIC	??_R0?AVbad_array_new_length@std@@@8		; std::bad_array_new_length `RTTI Type Descriptor'
PUBLIC	_CT??_R0?AVbad_array_new_length@std@@@8??0bad_array_new_length@std@@QEAA@AEBV01@@Z24
PUBLIC	??_R0?AVbad_alloc@std@@@8			; std::bad_alloc `RTTI Type Descriptor'
PUBLIC	_CT??_R0?AVbad_alloc@std@@@8??0bad_alloc@std@@QEAA@AEBV01@@Z24
PUBLIC	??_R0?AVexception@std@@@8			; std::exception `RTTI Type Descriptor'
PUBLIC	_CT??_R0?AVexception@std@@@8??0exception@std@@QEAA@AEBV01@@Z24
PUBLIC	?__LINE__Var@?0??_Adjust_manually_vector_aligned@std@@YAXAEAPEAXAEA_K@Z@4JA ; `std::_Adjust_manually_vector_aligned'::`1'::__LINE__Var
PUBLIC	??_C@_0BB@FCMFBGOM@invalid?5argument@		; `string'
PUBLIC	??_C@_02DKCKIIND@?$CFs@				; `string'
PUBLIC	??_C@_0GA@FLDGEGM@C?3?2Program?5Files?2Microsoft?5Visu@ ; `string'
PUBLIC	??_C@_1MA@IKJDCOIC@?$AAC?$AA?3?$AA?2?$AAP?$AAr?$AAo?$AAg?$AAr?$AAa?$AAm?$AA?5?$AAF?$AAi?$AAl?$AAe@ ; `string'
PUBLIC	??_C@_11LOCGONAA@@				; `string'
PUBLIC	??_C@_1CG@JNLFBNGN@?$AA?$CC?$AAi?$AAn?$AAv?$AAa?$AAl?$AAi?$AAd?$AA?5?$AAa?$AAr?$AAg?$AAu?$AAm?$AAe@ ; `string'
PUBLIC	??_C@_0BJ@LFDBABJJ@ITERATOR?5LIST?5CORRUPTED?$CB@ ; `string'
PUBLIC	??_C@_1DG@PLBPCAEM@?$AA?$CC?$AAI?$AAT?$AAE?$AAR?$AAA?$AAT?$AAO?$AAR?$AA?5?$AAL?$AAI?$AAS?$AAT?$AA?5@ ; `string'
PUBLIC	??_C@_0BA@JFNIOLAK@string?5too?5long@		; `string'
PUBLIC	??_7logic_error@std@@6B@			; std::logic_error::`vftable'
PUBLIC	??_7out_of_range@std@@6B@			; std::out_of_range::`vftable'
PUBLIC	??_C@_1LK@IBLCMEON@?$AAC?$AA?3?$AA?2?$AAU?$AAs?$AAe?$AAr?$AAs?$AA?2?$AAn?$AAa?$AAh?$AAm?$AAu?$AA?2@ ; `string'
PUBLIC	??_C@_1HC@EFHFIDCI@?$AAm?$AA_?$AAd?$AAe?$AAs?$AAc?$AA?4?$AAF?$AAl?$AAa?$AAg?$AAs?$AA?5?$AA?$CG?$AA?5@ ; `string'
PUBLIC	??_C@_1CG@OBBODHE@?$AAm?$AA_?$AAp?$AAH?$AAe?$AAa?$AAp?$AA?5?$AA?$CB?$AA?$DN?$AA?5?$AAn?$AAu?$AAl?$AAl@ ; `string'
PUBLIC	_TI3?AVout_of_range@std@@
PUBLIC	_CTA3?AVout_of_range@std@@
PUBLIC	??_R0?AVout_of_range@std@@@8			; std::out_of_range `RTTI Type Descriptor'
PUBLIC	_CT??_R0?AVout_of_range@std@@@8??0out_of_range@std@@QEAA@AEBV01@@Z24
PUBLIC	??_R0?AVlogic_error@std@@@8			; std::logic_error `RTTI Type Descriptor'
PUBLIC	_CT??_R0?AVlogic_error@std@@@8??0logic_error@std@@QEAA@AEBV01@@Z24
PUBLIC	??_C@_0BN@LHAFBJPG@D3DX12_GPU_DESCRIPTOR_HANDLE@ ; `string'
PUBLIC	??_C@_0BN@OLKEIKPG@D3DX12_CPU_DESCRIPTOR_HANDLE@ ; `string'
PUBLIC	?BACK_BUFFER_COUNT@D3D12Renderer@@0IB		; D3D12Renderer::BACK_BUFFER_COUNT
PUBLIC	??_7D3D12Renderer@@6B@				; D3D12Renderer::`vftable'
PUBLIC	??_C@_0GA@KNHPFGML@C?3?2Program?5Files?2Microsoft?5Visu@ ; `string'
PUBLIC	?__LINE__Var@?0??_Maklocwcs@std@@YAPEA_WPEB_W@Z@4JA ; `std::_Maklocwcs'::`1'::__LINE__Var
PUBLIC	??_C@_0GA@CODCFEGK@C?3?2Program?5Files?2Microsoft?5Visu@ ; `string'
PUBLIC	_GUID_344488b7_6846_474b_b989_f027448245e0
PUBLIC	_GUID_a4966eed_76db_44da_84c1_ee9a7afb20a8
PUBLIC	_GUID_9218e6bb_f944_4f7e_a75c_b1b2c7b701f3
PUBLIC	_GUID_29038f61_3839_4626_91fd_086879011a05
PUBLIC	_GUID_0ec870a6_5d7e_4c22_8cfc_5baae07616ed
PUBLIC	_GUID_696442be_a72e_4059_bc79_5b5c98040fad
PUBLIC	_GUID_6102dee4_af59_4b09_b999_b44d73f09b24
PUBLIC	_GUID_c3827890_e548_4cfa_96cf_5689a9370f80
PUBLIC	_GUID_0a753dcf_c4d8_4b91_adf6_be5a60d95a76
PUBLIC	??_C@_0BB@LMDDHACE@Resources?1uv?4dds@		; `string'
PUBLIC	??_C@_0FP@IENHKCNK@C?3?2Program?5Files?2Microsoft?5Visu@ ; `string'
PUBLIC	??_C@_1LO@DMIPLFD@?$AAC?$AA?3?$AA?2?$AAP?$AAr?$AAo?$AAg?$AAr?$AAa?$AAm?$AA?5?$AAF?$AAi?$AAl?$AAe@ ; `string'
PUBLIC	??_C@_0N@LPFKKEBD@?3AM?3am?3PM?3pm@		; `string'
PUBLIC	??_C@_0BO@PFKOHNJC@vector?5subscript?5out?5of?5range@ ; `string'
PUBLIC	??_C@_1EA@LEKOKFNB@?$AA?$CC?$AAv?$AAe?$AAc?$AAt?$AAo?$AAr?$AA?5?$AAs?$AAu?$AAb?$AAs?$AAc?$AAr?$AAi@ ; `string'
PUBLIC	??_C@_0BA@FOIKENOD@vector?5too?5long@		; `string'
PUBLIC	??_C@_0DG@KGHKKGBC@null?5pointer?5cannot?5point?5to?5a?5@ ; `string'
PUBLIC	??_C@_1HA@FACCKGGH@?$AA?$CC?$AAn?$AAu?$AAl?$AAl?$AA?5?$AAp?$AAo?$AAi?$AAn?$AAt?$AAe?$AAr?$AA?5?$AAc@ ; `string'
PUBLIC	??_C@_0DD@MBIHGLJE@cannot?5dereference?5value?9initia@ ; `string'
PUBLIC	??_C@_0FN@EEGLACMD@C?3?2Program?5Files?2Microsoft?5Visu@ ; `string'
PUBLIC	??_C@_1LK@GCOFKPID@?$AAC?$AA?3?$AA?2?$AAP?$AAr?$AAo?$AAg?$AAr?$AAa?$AAm?$AA?5?$AAF?$AAi?$AAl?$AAe@ ; `string'
PUBLIC	??_C@_1GK@NKIMOCIG@?$AA?$CC?$AAc?$AAa?$AAn?$AAn?$AAo?$AAt?$AA?5?$AAd?$AAe?$AAr?$AAe?$AAf?$AAe?$AAr@ ; `string'
PUBLIC	??_C@_0CF@JCBFHMPL@cannot?5dereference?5end?5list?5ite@ ; `string'
PUBLIC	??_C@_1EO@CNEFBDCF@?$AA?$CC?$AAc?$AAa?$AAn?$AAn?$AAo?$AAt?$AA?5?$AAd?$AAe?$AAr?$AAe?$AAf?$AAe?$AAr@ ; `string'
PUBLIC	??_C@_1BK@MHIKGOKE@?$AA?3?$AAA?$AAM?$AA?3?$AAa?$AAm?$AA?3?$AAP?$AAM?$AA?3?$AAp?$AAm@ ; `string'
PUBLIC	??_7?$IIContainer@XJJ@@6B@			; IIContainer<void,long,long>::`vftable'
PUBLIC	??_7?$TMethodContainter@VD3D12Renderer@@XJJ@@6B@ ; TMethodContainter<D3D12Renderer,void,long,long>::`vftable'
PUBLIC	_GUID_3d585d5a_bd4a_489e_b1f4_3dbcb6452ffb
PUBLIC	??_R4Renderer@@6B@				; Renderer::`RTTI Complete Object Locator'
PUBLIC	??_R0?AVRenderer@@@8				; Renderer `RTTI Type Descriptor'
PUBLIC	??_R3Renderer@@8				; Renderer::`RTTI Class Hierarchy Descriptor'
PUBLIC	??_R2Renderer@@8				; Renderer::`RTTI Base Class Array'
PUBLIC	??_R1A@?0A@EA@Renderer@@8			; Renderer::`RTTI Base Class Descriptor at (0,-1,0,64)'
PUBLIC	??_R4exception@std@@6B@				; std::exception::`RTTI Complete Object Locator'
PUBLIC	??_R3exception@std@@8				; std::exception::`RTTI Class Hierarchy Descriptor'
PUBLIC	??_R2exception@std@@8				; std::exception::`RTTI Base Class Array'
PUBLIC	??_R1A@?0A@EA@exception@std@@8			; std::exception::`RTTI Base Class Descriptor at (0,-1,0,64)'
PUBLIC	??_R4bad_alloc@std@@6B@				; std::bad_alloc::`RTTI Complete Object Locator'
PUBLIC	??_R3bad_alloc@std@@8				; std::bad_alloc::`RTTI Class Hierarchy Descriptor'
PUBLIC	??_R2bad_alloc@std@@8				; std::bad_alloc::`RTTI Base Class Array'
PUBLIC	??_R1A@?0A@EA@bad_alloc@std@@8			; std::bad_alloc::`RTTI Base Class Descriptor at (0,-1,0,64)'
PUBLIC	??_R4bad_array_new_length@std@@6B@		; std::bad_array_new_length::`RTTI Complete Object Locator'
PUBLIC	??_R3bad_array_new_length@std@@8		; std::bad_array_new_length::`RTTI Class Hierarchy Descriptor'
PUBLIC	??_R2bad_array_new_length@std@@8		; std::bad_array_new_length::`RTTI Base Class Array'
PUBLIC	??_R1A@?0A@EA@bad_array_new_length@std@@8	; std::bad_array_new_length::`RTTI Base Class Descriptor at (0,-1,0,64)'
PUBLIC	??_R4logic_error@std@@6B@			; std::logic_error::`RTTI Complete Object Locator'
PUBLIC	??_R3logic_error@std@@8				; std::logic_error::`RTTI Class Hierarchy Descriptor'
PUBLIC	??_R2logic_error@std@@8				; std::logic_error::`RTTI Base Class Array'
PUBLIC	??_R1A@?0A@EA@logic_error@std@@8		; std::logic_error::`RTTI Base Class Descriptor at (0,-1,0,64)'
PUBLIC	??_R4out_of_range@std@@6B@			; std::out_of_range::`RTTI Complete Object Locator'
PUBLIC	??_R3out_of_range@std@@8			; std::out_of_range::`RTTI Class Hierarchy Descriptor'
PUBLIC	??_R2out_of_range@std@@8			; std::out_of_range::`RTTI Base Class Array'
PUBLIC	??_R1A@?0A@EA@out_of_range@std@@8		; std::out_of_range::`RTTI Base Class Descriptor at (0,-1,0,64)'
PUBLIC	??_R4?$IIContainer@XJJ@@6B@			; IIContainer<void,long,long>::`RTTI Complete Object Locator'
PUBLIC	??_R0?AV?$IIContainer@XJJ@@@8			; IIContainer<void,long,long> `RTTI Type Descriptor'
PUBLIC	??_R3?$IIContainer@XJJ@@8			; IIContainer<void,long,long>::`RTTI Class Hierarchy Descriptor'
PUBLIC	??_R2?$IIContainer@XJJ@@8			; IIContainer<void,long,long>::`RTTI Base Class Array'
PUBLIC	??_R1A@?0A@EA@?$IIContainer@XJJ@@8		; IIContainer<void,long,long>::`RTTI Base Class Descriptor at (0,-1,0,64)'
PUBLIC	??_R4D3D12Renderer@@6B@				; D3D12Renderer::`RTTI Complete Object Locator'
PUBLIC	??_R0?AVD3D12Renderer@@@8			; D3D12Renderer `RTTI Type Descriptor'
PUBLIC	??_R3D3D12Renderer@@8				; D3D12Renderer::`RTTI Class Hierarchy Descriptor'
PUBLIC	??_R2D3D12Renderer@@8				; D3D12Renderer::`RTTI Base Class Array'
PUBLIC	??_R1A@?0A@EA@D3D12Renderer@@8			; D3D12Renderer::`RTTI Base Class Descriptor at (0,-1,0,64)'
PUBLIC	??_R4?$TMethodContainter@VD3D12Renderer@@XJJ@@6B@ ; TMethodContainter<D3D12Renderer,void,long,long>::`RTTI Complete Object Locator'
PUBLIC	??_R0?AV?$TMethodContainter@VD3D12Renderer@@XJJ@@@8 ; TMethodContainter<D3D12Renderer,void,long,long> `RTTI Type Descriptor'
PUBLIC	??_R3?$TMethodContainter@VD3D12Renderer@@XJJ@@8	; TMethodContainter<D3D12Renderer,void,long,long>::`RTTI Class Hierarchy Descriptor'
PUBLIC	??_R2?$TMethodContainter@VD3D12Renderer@@XJJ@@8	; TMethodContainter<D3D12Renderer,void,long,long>::`RTTI Base Class Array'
PUBLIC	??_R1A@?0A@EA@?$TMethodContainter@VD3D12Renderer@@XJJ@@8 ; TMethodContainter<D3D12Renderer,void,long,long>::`RTTI Base Class Descriptor at (0,-1,0,64)'
PUBLIC	__real@00000000
PUBLIC	__real@3638b88e
PUBLIC	__real@3727c5ac
PUBLIC	__real@37a7c5ac
PUBLIC	__real@37cfb4c2
PUBLIC	__real@39500bf1
PUBLIC	__real@3ab609aa
PUBLIC	__real@3c088886
PUBLIC	__real@3c8efa35
PUBLIC	__real@3d2aaaa3
PUBLIC	__real@3dcccccd
PUBLIC	__real@3e22f983
PUBLIC	__real@3e2aaaab
PUBLIC	__real@3e800000
PUBLIC	__real@3f000000
PUBLIC	__real@3f800000
PUBLIC	__real@3fbd70a4
PUBLIC	__real@3fc90fdb
PUBLIC	__real@40000000
PUBLIC	__real@40400000
PUBLIC	__real@40490fdb
PUBLIC	__real@40c90fdb
PUBLIC	__real@42c80000
PUBLIC	__real@43480000
PUBLIC	__real@b2cd365b
PUBLIC	__real@b48bdd11
PUBLIC	__real@bf800000
PUBLIC	__real@bfc90fdb
PUBLIC	__real@c0490fdb
PUBLIC	__xmm@80000000800000008000000080000000
EXTRN	??_L@YAXPEAX_K1P6AX0@Z2@Z:PROC			; `eh vector constructor iterator'
EXTRN	??_M@YAXPEAX_K1P6AX0@Z@Z:PROC			; `eh vector destructor iterator'
EXTRN	_purecall:PROC
EXTRN	??2@YAPEAX_K@Z:PROC				; operator new
EXTRN	??3@YAXPEAX@Z:PROC				; operator delete
EXTRN	??3@YAXPEAX_K@Z:PROC				; operator delete
EXTRN	??_V@YAXPEAX_K@Z:PROC				; operator delete[]
EXTRN	__imp__invalid_parameter:PROC
EXTRN	memcpy:PROC
EXTRN	memmove:PROC
EXTRN	__imp_wcslen:PROC
EXTRN	strlen:PROC
EXTRN	__imp_WaitForSingleObject:PROC
EXTRN	__imp_CreateEventW:PROC
EXTRN	D3D12CreateDevice:PROC
EXTRN	D3D12GetDebugInterface:PROC
EXTRN	CreateDXGIFactory2:PROC
EXTRN	fabs:PROC
EXTRN	__imp_cosf:PROC
EXTRN	__imp_sinf:PROC
EXTRN	__imp__wassert:PROC
EXTRN	__imp__calloc_dbg:PROC
EXTRN	__imp__CrtDbgReport:PROC
EXTRN	?SetVsync@Renderer@@UEAAXH@Z:PROC		; Renderer::SetVsync
EXTRN	__imp_??0_Lockit@std@@QEAA@H@Z:PROC
EXTRN	__imp_??1_Lockit@std@@QEAA@XZ:PROC
EXTRN	__std_exception_copy:PROC
EXTRN	__std_exception_destroy:PROC
EXTRN	??_Eexception@std@@UEAAPEAXI@Z:PROC		; std::exception::`vector deleting destructor'
EXTRN	??_Ebad_alloc@std@@UEAAPEAXI@Z:PROC		; std::bad_alloc::`vector deleting destructor'
EXTRN	??_Ebad_array_new_length@std@@UEAAPEAXI@Z:PROC	; std::bad_array_new_length::`vector deleting destructor'
EXTRN	?_Xbad_alloc@std@@YAXXZ:PROC			; std::_Xbad_alloc
EXTRN	?_Xlength_error@std@@YAXPEBD@Z:PROC		; std::_Xlength_error
EXTRN	??_Elogic_error@std@@UEAAPEAXI@Z:PROC		; std::logic_error::`vector deleting destructor'
EXTRN	??_Eout_of_range@std@@UEAAPEAXI@Z:PROC		; std::out_of_range::`vector deleting destructor'
EXTRN	??0DescriptorHeap@DirectX@@QEAA@PEAUID3D12Device@@W4D3D12_DESCRIPTOR_HEAP_TYPE@@W4D3D12_DESCRIPTOR_HEAP_FLAGS@@_K@Z:PROC ; DirectX::DescriptorHeap::DescriptorHeap
EXTRN	?Shutdown@D3DUtil@@SAXXZ:PROC			; D3DUtil::Shutdown
EXTRN	?InitStaticSamples@D3DUtil@@SAXXZ:PROC		; D3DUtil::InitStaticSamples
EXTRN	?CreatePipeline@D3DUtil@@SAIW4eShaderType@@@Z:PROC ; D3DUtil::CreatePipeline
EXTRN	?GetDevice@D3DUtil@@SAPEAUID3D12Device8@@XZ:PROC ; D3DUtil::GetDevice
EXTRN	?LoadTexture@D3DUtil@@SAPEAVD3D12Texture@@V?$basic_string@DU?$char_traits@D@std@@V?$allocator@D@2@@std@@@Z:PROC ; D3DUtil::LoadTexture
EXTRN	?FillConstantBuffer@D3D12Model@@QEAAXXZ:PROC	; D3D12Model::FillConstantBuffer
EXTRN	_Mbrtowc:PROC
EXTRN	__imp_?_Getcvt@_Locinfo@std@@QEBA?AU_Cvtvec@@XZ:PROC
EXTRN	__imp_?_Getdays@_Locinfo@std@@QEBAPEBDXZ:PROC
EXTRN	__imp_?_Getmonths@_Locinfo@std@@QEBAPEBDXZ:PROC
EXTRN	__imp_?_W_Getdays@_Locinfo@std@@QEBAPEBGXZ:PROC
EXTRN	__imp_?_W_Getmonths@_Locinfo@std@@QEBAPEBGXZ:PROC
EXTRN	?DeltaTime@FGameTimer@@SAMXZ:PROC		; FGameTimer::DeltaTime
EXTRN	?TotalTime@FGameTimer@@SAMXZ:PROC		; FGameTimer::TotalTime
EXTRN	_CxxThrowException:PROC
EXTRN	__CheckForDebuggerJustMyCode:PROC
EXTRN	__CxxFrameHandler4:PROC
EXTRN	??_7type_info@@6B@:BYTE				; type_info::`vftable'
EXTRN	?Pipelines@D3DUtil@@0V?$unordered_map@IV?$unique_ptr@VD3D12PipelineShaderRootSignature@@U?$default_delete@VD3D12PipelineShaderRootSignature@@@std@@@std@@U?$hash@I@2@U?$equal_to@I@2@V?$allocator@U?$pair@$$CBIV?$unique_ptr@VD3D12PipelineShaderRootSignature@@U?$default_delete@VD3D12PipelineShaderRootSignature@@@std@@@std@@@std@@@2@@std@@A:BYTE ; D3DUtil::Pipelines
EXTRN	?GEngine@@3VDEngine@@A:BYTE			; GEngine
EXTRN	_fltused:DWORD
;	COMDAT pdata
pdata	SEGMENT
$pdata$?__empty_global_delete@@YAXPEAX@Z DD imagerel $LN3
	DD	imagerel $LN3+33
	DD	imagerel $unwind$?__empty_global_delete@@YAXPEAX@Z
pdata	ENDS
;	COMDAT pdata
pdata	SEGMENT
$pdata$?__empty_global_delete@@YAXPEAX_K@Z DD imagerel $LN3
	DD	imagerel $LN3+38
	DD	imagerel $unwind$?__empty_global_delete@@YAXPEAX_K@Z
pdata	ENDS
;	COMDAT pdata
pdata	SEGMENT
$pdata$?__empty_global_delete@@YAXPEAXW4align_val_t@std@@@Z DD imagerel $LN3
	DD	imagerel $LN3+38
	DD	imagerel $unwind$?__empty_global_delete@@YAXPEAXW4align_val_t@std@@@Z
pdata	ENDS
;	COMDAT pdata
pdata	SEGMENT
$pdata$?__empty_global_delete@@YAXPEAX_KW4align_val_t@std@@@Z DD imagerel $LN3
	DD	imagerel $LN3+43
	DD	imagerel $unwind$?__empty_global_delete@@YAXPEAX_KW4align_val_t@std@@@Z
pdata	ENDS
;	COMDAT pdata
pdata	SEGMENT
$pdata$??I@YA?AW4D3D12_DESCRIPTOR_HEAP_FLAGS@@W40@0@Z DD imagerel $LN3
	DD	imagerel $LN3+46
	DD	imagerel $unwind$??I@YA?AW4D3D12_DESCRIPTOR_HEAP_FLAGS@@W40@0@Z
pdata	ENDS
;	COMDAT pdata
pdata	SEGMENT
$pdata$fabsf DD	imagerel $LN3
	DD	imagerel $LN3+48
	DD	imagerel $unwind$fabsf
pdata	ENDS
;	COMDAT pdata
pdata	SEGMENT
$pdata$?XMConvertToRadians@DirectX@@YAMM@Z DD imagerel $LN3
	DD	imagerel $LN3+47
	DD	imagerel $unwind$?XMConvertToRadians@DirectX@@YAMM@Z
pdata	ENDS
;	COMDAT pdata
pdata	SEGMENT
$pdata$??BXMVECTORF32@DirectX@@QEBA?AT__m128@@XZ DD imagerel $LN3
	DD	imagerel $LN3+56
	DD	imagerel $unwind$??BXMVECTORF32@DirectX@@QEBA?AT__m128@@XZ
pdata	ENDS
;	COMDAT pdata
pdata	SEGMENT
$pdata$??BXMVECTORI32@DirectX@@QEBA?AT__m128@@XZ DD imagerel $LN3
	DD	imagerel $LN3+56
	DD	imagerel $unwind$??BXMVECTORI32@DirectX@@QEBA?AT__m128@@XZ
pdata	ENDS
;	COMDAT pdata
pdata	SEGMENT
$pdata$??BXMVECTORU32@DirectX@@QEBA?AT__m128@@XZ DD imagerel $LN3
	DD	imagerel $LN3+56
	DD	imagerel $unwind$??BXMVECTORU32@DirectX@@QEBA?AT__m128@@XZ
pdata	ENDS
;	COMDAT pdata
pdata	SEGMENT
$pdata$??0XMFLOAT2@DirectX@@QEAA@MM@Z DD imagerel $LN3
	DD	imagerel $LN3+76
	DD	imagerel $unwind$??0XMFLOAT2@DirectX@@QEAA@MM@Z
pdata	ENDS
;	COMDAT pdata
pdata	SEGMENT
$pdata$??0XMFLOAT3@DirectX@@QEAA@MMM@Z DD imagerel $LN3
	DD	imagerel $LN3+96
	DD	imagerel $unwind$??0XMFLOAT3@DirectX@@QEAA@MMM@Z
pdata	ENDS
;	COMDAT pdata
pdata	SEGMENT
$pdata$??0XMFLOAT4@DirectX@@QEAA@MMMM@Z DD imagerel $LN3
	DD	imagerel $LN3+110
	DD	imagerel $unwind$??0XMFLOAT4@DirectX@@QEAA@MMMM@Z
pdata	ENDS
;	COMDAT pdata
pdata	SEGMENT
$pdata$?XMLoadFloat3@DirectX@@YQ?AT__m128@@PEBUXMFLOAT3@1@@Z DD imagerel $LN4
	DD	imagerel $LN4+191
	DD	imagerel $unwind$?XMLoadFloat3@DirectX@@YQ?AT__m128@@PEBUXMFLOAT3@1@@Z
pdata	ENDS
;	COMDAT pdata
pdata	SEGMENT
$pdata$?XMStoreFloat4x4@DirectX@@YQXPEAUXMFLOAT4X4@1@UXMMATRIX@1@@Z DD imagerel $LN4
	DD	imagerel $LN4+218
	DD	imagerel $unwind$?XMStoreFloat4x4@DirectX@@YQXPEAUXMFLOAT4X4@1@UXMMATRIX@1@@Z
pdata	ENDS
;	COMDAT pdata
pdata	SEGMENT
$pdata$?XMVectorZero@DirectX@@YQ?AT__m128@@XZ DD imagerel $LN3
	DD	imagerel $LN3+40
	DD	imagerel $unwind$?XMVectorZero@DirectX@@YQ?AT__m128@@XZ
pdata	ENDS
;	COMDAT pdata
pdata	SEGMENT
$pdata$?XMVectorSet@DirectX@@YQ?AT__m128@@MMMM@Z DD imagerel $LN3
	DD	imagerel $LN3+92
	DD	imagerel $unwind$?XMVectorSet@DirectX@@YQ?AT__m128@@MMMM@Z
pdata	ENDS
;	COMDAT pdata
pdata	SEGMENT
$pdata$?XMVectorSelect@DirectX@@YQ?AT__m128@@T2@00@Z DD imagerel $LN3
	DD	imagerel $LN3+157
	DD	imagerel $unwind$?XMVectorSelect@DirectX@@YQ?AT__m128@@T2@00@Z
pdata	ENDS
;	COMDAT pdata
pdata	SEGMENT
$pdata$?XMVectorNegate@DirectX@@YQ?AT__m128@@T2@@Z DD imagerel $LN3
	DD	imagerel $LN3+82
	DD	imagerel $unwind$?XMVectorNegate@DirectX@@YQ?AT__m128@@T2@@Z
pdata	ENDS
;	COMDAT pdata
pdata	SEGMENT
$pdata$?XMVector3Equal@DirectX@@YQ_NT__m128@@0@Z DD imagerel $LN7
	DD	imagerel $LN7+163
	DD	imagerel $unwind$?XMVector3Equal@DirectX@@YQ_NT__m128@@0@Z
pdata	ENDS
;	COMDAT pdata
pdata	SEGMENT
$pdata$?XMVector3IsInfinite@DirectX@@YQ_NT__m128@@@Z DD imagerel $LN5
	DD	imagerel $LN5+174
	DD	imagerel $unwind$?XMVector3IsInfinite@DirectX@@YQ_NT__m128@@@Z
pdata	ENDS
;	COMDAT pdata
pdata	SEGMENT
$pdata$?XMVector3Dot@DirectX@@YQ?AT__m128@@T2@0@Z DD imagerel $LN3
	DD	imagerel $LN3+224
	DD	imagerel $unwind$?XMVector3Dot@DirectX@@YQ?AT__m128@@T2@0@Z
pdata	ENDS
;	COMDAT pdata
pdata	SEGMENT
$pdata$?XMVector3Cross@DirectX@@YQ?AT__m128@@T2@0@Z DD imagerel $LN3
	DD	imagerel $LN3+285
	DD	imagerel $unwind$?XMVector3Cross@DirectX@@YQ?AT__m128@@T2@0@Z
pdata	ENDS
;	COMDAT pdata
pdata	SEGMENT
$pdata$?XMVector3Normalize@DirectX@@YQ?AT__m128@@T2@@Z DD imagerel $LN3
	DD	imagerel $LN3+479
	DD	imagerel $unwind$?XMVector3Normalize@DirectX@@YQ?AT__m128@@T2@@Z
pdata	ENDS
;	COMDAT pdata
pdata	SEGMENT
$pdata$?XMMatrixMultiply@DirectX@@YQ?AUXMMATRIX@1@U21@AEBU21@@Z DD imagerel $LN3
	DD	imagerel $LN3+2015
	DD	imagerel $unwind$?XMMatrixMultiply@DirectX@@YQ?AUXMMATRIX@1@U21@AEBU21@@Z
pdata	ENDS
;	COMDAT pdata
pdata	SEGMENT
$pdata$?XMMatrixTranspose@DirectX@@YQ?AUXMMATRIX@1@U21@@Z DD imagerel $LN3
	DD	imagerel $LN3+439
	DD	imagerel $unwind$?XMMatrixTranspose@DirectX@@YQ?AUXMMATRIX@1@U21@@Z
pdata	ENDS
;	COMDAT pdata
pdata	SEGMENT
$pdata$?XMMatrixLookToLH@DirectX@@YQ?AUXMMATRIX@1@T__m128@@00@Z DD imagerel $LN7
	DD	imagerel $LN7+794
	DD	imagerel $unwind$?XMMatrixLookToLH@DirectX@@YQ?AUXMMATRIX@1@T__m128@@00@Z
pdata	ENDS
;	COMDAT pdata
pdata	SEGMENT
$pdata$?XMMatrixPerspectiveFovLH@DirectX@@YQ?AUXMMATRIX@1@MMMM@Z DD imagerel $LN8
	DD	imagerel $LN8+790
	DD	imagerel $unwind$?XMMatrixPerspectiveFovLH@DirectX@@YQ?AUXMMATRIX@1@MMMM@Z
pdata	ENDS
;	COMDAT pdata
pdata	SEGMENT
$pdata$?XMScalarNearEqual@DirectX@@YA_NMMM@Z DD imagerel $LN5
	DD	imagerel $LN5+101
	DD	imagerel $unwind$?XMScalarNearEqual@DirectX@@YA_NMMM@Z
pdata	ENDS
;	COMDAT pdata
pdata	SEGMENT
$pdata$?XMScalarSinCos@DirectX@@YAXPEAM0M@Z DD imagerel $LN11
	DD	imagerel $LN11+557
	DD	imagerel $unwind$?XMScalarSinCos@DirectX@@YAXPEAM0M@Z
pdata	ENDS
;	COMDAT pdata
pdata	SEGMENT
$pdata$??2@YAPEAX_KPEAX@Z DD imagerel $LN3
	DD	imagerel $LN3+42
	DD	imagerel $unwind$??2@YAPEAX_KPEAX@Z
pdata	ENDS
;	COMDAT pdata
pdata	SEGMENT
$pdata$?InternalRelease@?$ComPtr@UIUnknown@@@WRL@Microsoft@@IEAAKXZ DD imagerel $LN4
	DD	imagerel $LN4+89
	DD	imagerel $unwind$?InternalRelease@?$ComPtr@UIUnknown@@@WRL@Microsoft@@IEAAKXZ
pdata	ENDS
;	COMDAT pdata
pdata	SEGMENT
$pdata$??1?$ComPtr@UIUnknown@@@WRL@Microsoft@@QEAA@XZ DD imagerel $LN3
	DD	imagerel $LN3+42
	DD	imagerel $unwind$??1?$ComPtr@UIUnknown@@@WRL@Microsoft@@QEAA@XZ
pdata	ENDS
;	COMDAT pdata
pdata	SEGMENT
$pdata$??_E?$ComPtr@UIUnknown@@@WRL@Microsoft@@QEAAPEAXI@Z DD imagerel $LN6
	DD	imagerel $LN6+153
	DD	imagerel $unwind$??_E?$ComPtr@UIUnknown@@@WRL@Microsoft@@QEAAPEAXI@Z
pdata	ENDS
;	COMDAT pdata
pdata	SEGMENT
$pdata$??0CD3DX12_HEAP_PROPERTIES@@QEAA@W4D3D12_HEAP_TYPE@@II@Z DD imagerel $LN3
	DD	imagerel $LN3+102
	DD	imagerel $unwind$??0CD3DX12_HEAP_PROPERTIES@@QEAA@W4D3D12_HEAP_TYPE@@II@Z
pdata	ENDS
;	COMDAT pdata
pdata	SEGMENT
$pdata$?Transition@CD3DX12_RESOURCE_BARRIER@@SA?AU1@PEAUID3D12Resource@@W4D3D12_RESOURCE_STATES@@1IW4D3D12_RESOURCE_BARRIER_FLAGS@@@Z DD imagerel $LN3
	DD	imagerel $LN3+170
	DD	imagerel $unwind$?Transition@CD3DX12_RESOURCE_BARRIER@@SA?AU1@PEAUID3D12Resource@@W4D3D12_RESOURCE_STATES@@1IW4D3D12_RESOURCE_BARRIER_FLAGS@@@Z
pdata	ENDS
;	COMDAT pdata
pdata	SEGMENT
$pdata$??0CD3DX12_CPU_DESCRIPTOR_HANDLE@@QEAA@AEBUD3D12_CPU_DESCRIPTOR_HANDLE@@@Z DD imagerel $LN3
	DD	imagerel $LN3+56
	DD	imagerel $unwind$??0CD3DX12_CPU_DESCRIPTOR_HANDLE@@QEAA@AEBUD3D12_CPU_DESCRIPTOR_HANDLE@@@Z
pdata	ENDS
;	COMDAT pdata
pdata	SEGMENT
$pdata$??0CD3DX12_RESOURCE_DESC@@QEAA@W4D3D12_RESOURCE_DIMENSION@@_K1IGGW4DXGI_FORMAT@@IIW4D3D12_TEXTURE_LAYOUT@@W4D3D12_RESOURCE_FLAGS@@@Z DD imagerel $LN3
	DD	imagerel $LN3+186
	DD	imagerel $unwind$??0CD3DX12_RESOURCE_DESC@@QEAA@W4D3D12_RESOURCE_DIMENSION@@_K1IGGW4DXGI_FORMAT@@IIW4D3D12_TEXTURE_LAYOUT@@W4D3D12_RESOURCE_FLAGS@@@Z
pdata	ENDS
;	COMDAT pdata
pdata	SEGMENT
$pdata$?Buffer@CD3DX12_RESOURCE_DESC@@SA?AU1@_KW4D3D12_RESOURCE_FLAGS@@0@Z DD imagerel $LN3
	DD	imagerel $LN3+138
	DD	imagerel $unwind$?Buffer@CD3DX12_RESOURCE_DESC@@SA?AU1@_KW4D3D12_RESOURCE_FLAGS@@0@Z
pdata	ENDS
;	COMDAT pdata
pdata	SEGMENT
$pdata$?Tex2D@CD3DX12_RESOURCE_DESC@@SA?AU1@W4DXGI_FORMAT@@_KIGGIIW4D3D12_RESOURCE_FLAGS@@W4D3D12_TEXTURE_LAYOUT@@1@Z DD imagerel $LN3
	DD	imagerel $LN3+151
	DD	imagerel $unwind$?Tex2D@CD3DX12_RESOURCE_DESC@@SA?AU1@W4DXGI_FORMAT@@_KIGGIIW4D3D12_RESOURCE_FLAGS@@W4D3D12_TEXTURE_LAYOUT@@1@Z
pdata	ENDS
;	COMDAT pdata
pdata	SEGMENT
$pdata$??0Renderer@@QEAA@XZ DD imagerel $LN3
	DD	imagerel $LN3+45
	DD	imagerel $unwind$??0Renderer@@QEAA@XZ
pdata	ENDS
;	COMDAT pdata
pdata	SEGMENT
$pdata$?is_constant_evaluated@std@@YA_NXZ DD imagerel $LN3
	DD	imagerel $LN3+31
	DD	imagerel $unwind$?is_constant_evaluated@std@@YA_NXZ
pdata	ENDS
;	COMDAT pdata
pdata	SEGMENT
$pdata$wmemcpy DD imagerel $LN3
	DD	imagerel $LN3+66
	DD	imagerel $unwind$wmemcpy
pdata	ENDS
;	COMDAT pdata
pdata	SEGMENT
$pdata$?max@?$numeric_limits@_J@std@@SA_JXZ DD imagerel $LN3
	DD	imagerel $LN3+39
	DD	imagerel $unwind$?max@?$numeric_limits@_J@std@@SA_JXZ
pdata	ENDS
;	COMDAT pdata
pdata	SEGMENT
$pdata$?_Fnv1a_append_bytes@std@@YA_K_KQEBE_K@Z DD imagerel $LN6
	DD	imagerel $LN6+136
	DD	imagerel $unwind$?_Fnv1a_append_bytes@std@@YA_K_KQEBE_K@Z
pdata	ENDS
;	COMDAT pdata
pdata	SEGMENT
$pdata$??0exception@std@@QEAA@QEBD@Z DD imagerel $LN3
	DD	imagerel $LN3+110
	DD	imagerel $unwind$??0exception@std@@QEAA@QEBD@Z
pdata	ENDS
;	COMDAT pdata
pdata	SEGMENT
$pdata$??0exception@std@@QEAA@QEBDH@Z DD imagerel $LN3
	DD	imagerel $LN3+95
	DD	imagerel $unwind$??0exception@std@@QEAA@QEBDH@Z
pdata	ENDS
;	COMDAT pdata
pdata	SEGMENT
$pdata$??0exception@std@@QEAA@AEBV01@@Z DD imagerel $LN3
	DD	imagerel $LN3+102
	DD	imagerel $unwind$??0exception@std@@QEAA@AEBV01@@Z
pdata	ENDS
;	COMDAT pdata
pdata	SEGMENT
$pdata$??1exception@std@@UEAA@XZ DD imagerel $LN3
	DD	imagerel $LN3+63
	DD	imagerel $unwind$??1exception@std@@UEAA@XZ
pdata	ENDS
;	COMDAT pdata
pdata	SEGMENT
$pdata$?what@exception@std@@UEBAPEBDXZ DD imagerel $LN5
	DD	imagerel $LN5+73
	DD	imagerel $unwind$?what@exception@std@@UEBAPEBDXZ
pdata	ENDS
;	COMDAT pdata
pdata	SEGMENT
$pdata$??_Gexception@std@@UEAAPEAXI@Z DD imagerel $LN4
	DD	imagerel $LN4+62
	DD	imagerel $unwind$??_Gexception@std@@UEAAPEAXI@Z
pdata	ENDS
;	COMDAT pdata
pdata	SEGMENT
$pdata$??0bad_alloc@std@@AEAA@QEBD@Z DD imagerel $LN3
	DD	imagerel $LN3+75
	DD	imagerel $unwind$??0bad_alloc@std@@AEAA@QEBD@Z
pdata	ENDS
;	COMDAT pdata
pdata	SEGMENT
$pdata$??1bad_alloc@std@@UEAA@XZ DD imagerel $LN3
	DD	imagerel $LN3+30
	DD	imagerel $unwind$??1bad_alloc@std@@UEAA@XZ
pdata	ENDS
;	COMDAT pdata
pdata	SEGMENT
$pdata$??0bad_alloc@std@@QEAA@AEBV01@@Z DD imagerel $LN3
	DD	imagerel $LN3+57
	DD	imagerel $unwind$??0bad_alloc@std@@QEAA@AEBV01@@Z
pdata	ENDS
;	COMDAT pdata
pdata	SEGMENT
$pdata$??_Gbad_alloc@std@@UEAAPEAXI@Z DD imagerel $LN4
	DD	imagerel $LN4+62
	DD	imagerel $unwind$??_Gbad_alloc@std@@UEAAPEAXI@Z
pdata	ENDS
;	COMDAT pdata
pdata	SEGMENT
$pdata$??0bad_array_new_length@std@@QEAA@XZ DD imagerel $LN3
	DD	imagerel $LN3+67
	DD	imagerel $unwind$??0bad_array_new_length@std@@QEAA@XZ
pdata	ENDS
;	COMDAT pdata
pdata	SEGMENT
$pdata$??1bad_array_new_length@std@@UEAA@XZ DD imagerel $LN3
	DD	imagerel $LN3+30
	DD	imagerel $unwind$??1bad_array_new_length@std@@UEAA@XZ
pdata	ENDS
;	COMDAT pdata
pdata	SEGMENT
$pdata$??0bad_array_new_length@std@@QEAA@AEBV01@@Z DD imagerel $LN3
	DD	imagerel $LN3+57
	DD	imagerel $unwind$??0bad_array_new_length@std@@QEAA@AEBV01@@Z
pdata	ENDS
;	COMDAT pdata
pdata	SEGMENT
$pdata$??_Gbad_array_new_length@std@@UEAAPEAXI@Z DD imagerel $LN4
	DD	imagerel $LN4+62
	DD	imagerel $unwind$??_Gbad_array_new_length@std@@UEAAPEAXI@Z
pdata	ENDS
;	COMDAT pdata
pdata	SEGMENT
$pdata$?_Throw_bad_array_new_length@std@@YAXXZ DD imagerel $LN3
	DD	imagerel $LN3+57
	DD	imagerel $unwind$?_Throw_bad_array_new_length@std@@YAXXZ
pdata	ENDS
;	COMDAT pdata
pdata	SEGMENT
$pdata$?_Allocate@_Default_allocate_traits@std@@SAPEAX_K@Z DD imagerel $LN3
	DD	imagerel $LN3+42
	DD	imagerel $unwind$?_Allocate@_Default_allocate_traits@std@@SAPEAX_K@Z
pdata	ENDS
;	COMDAT pdata
pdata	SEGMENT
$pdata$?_Adjust_manually_vector_aligned@std@@YAXAEAPEAXAEA_K@Z DD imagerel $LN21
	DD	imagerel $LN21+433
	DD	imagerel $unwind$?_Adjust_manually_vector_aligned@std@@YAXAEAPEAXAEA_K@Z
pdata	ENDS
;	COMDAT pdata
pdata	SEGMENT
$pdata$??0_Container_proxy@std@@QEAA@PEAU_Container_base12@1@@Z DD imagerel $LN3
	DD	imagerel $LN3+65
	DD	imagerel $unwind$??0_Container_proxy@std@@QEAA@PEAU_Container_base12@1@@Z
pdata	ENDS
;	COMDAT pdata
pdata	SEGMENT
$pdata$??0_Container_base12@std@@QEAA@XZ DD imagerel $LN3
	DD	imagerel $LN3+48
	DD	imagerel $unwind$??0_Container_base12@std@@QEAA@XZ
pdata	ENDS
;	COMDAT pdata
pdata	SEGMENT
$pdata$?_Orphan_all@_Container_base12@std@@QEAAXXZ DD imagerel $LN5
	DD	imagerel $LN5+65
	DD	imagerel $unwind$?_Orphan_all@_Container_base12@std@@QEAAXXZ
pdata	ENDS
;	COMDAT pdata
pdata	SEGMENT
$pdata$?_Orphan_all_unlocked_v3@_Container_base12@std@@AEAAXXZ DD imagerel $LN7
	DD	imagerel $LN7+114
	DD	imagerel $unwind$?_Orphan_all_unlocked_v3@_Container_base12@std@@AEAAXXZ
pdata	ENDS
;	COMDAT pdata
pdata	SEGMENT
$pdata$?_Orphan_all_locked_v3@_Container_base12@std@@AEAAXXZ DD imagerel $LN3
	DD	imagerel $LN3+67
	DD	imagerel $unwind$?_Orphan_all_locked_v3@_Container_base12@std@@AEAAXXZ
pdata	ENDS
;	COMDAT pdata
pdata	SEGMENT
$pdata$??0_Iterator_base12@std@@QEAA@XZ DD imagerel $LN3
	DD	imagerel $LN3+60
	DD	imagerel $unwind$??0_Iterator_base12@std@@QEAA@XZ
pdata	ENDS
;	COMDAT pdata
pdata	SEGMENT
$pdata$??1_Iterator_base12@std@@QEAA@XZ DD imagerel $LN5
	DD	imagerel $LN5+65
	DD	imagerel $unwind$??1_Iterator_base12@std@@QEAA@XZ
pdata	ENDS
;	COMDAT pdata
pdata	SEGMENT
$pdata$?_Adopt@_Iterator_base12@std@@QEAAXPEBU_Container_base12@2@@Z DD imagerel $LN5
	DD	imagerel $LN5+78
	DD	imagerel $unwind$?_Adopt@_Iterator_base12@std@@QEAAXPEBU_Container_base12@2@@Z
pdata	ENDS
;	COMDAT pdata
pdata	SEGMENT
$pdata$?_Getcont@_Iterator_base12@std@@QEBAPEBU_Container_base12@2@XZ DD imagerel $LN5
	DD	imagerel $LN5+71
	DD	imagerel $unwind$?_Getcont@_Iterator_base12@std@@QEBAPEBU_Container_base12@2@XZ
pdata	ENDS
;	COMDAT pdata
pdata	SEGMENT
$pdata$?_Adopt_unlocked@_Iterator_base12@std@@AEAAXPEBU_Container_base12@2@@Z DD imagerel $LN6
	DD	imagerel $LN6+138
	DD	imagerel $unwind$?_Adopt_unlocked@_Iterator_base12@std@@AEAAXPEBU_Container_base12@2@@Z
pdata	ENDS
;	COMDAT pdata
pdata	SEGMENT
$pdata$?_Adopt_locked@_Iterator_base12@std@@AEAAXPEBU_Container_base12@2@@Z DD imagerel $LN3
	DD	imagerel $LN3+76
	DD	imagerel $unwind$?_Adopt_locked@_Iterator_base12@std@@AEAAXPEBU_Container_base12@2@@Z
pdata	ENDS
;	COMDAT pdata
pdata	SEGMENT
$pdata$?_Orphan_me_unlocked_v3@_Iterator_base12@std@@AEAAXXZ DD imagerel $LN15
	DD	imagerel $LN15+257
	DD	imagerel $unwind$?_Orphan_me_unlocked_v3@_Iterator_base12@std@@AEAAXXZ
pdata	ENDS
;	COMDAT pdata
pdata	SEGMENT
$pdata$?_Orphan_me_locked_v3@_Iterator_base12@std@@AEAAXXZ DD imagerel $LN3
	DD	imagerel $LN3+67
	DD	imagerel $unwind$?_Orphan_me_locked_v3@_Iterator_base12@std@@AEAAXXZ
pdata	ENDS
;	COMDAT pdata
pdata	SEGMENT
$pdata$??$exchange@PEAU_Iterator_base12@std@@$$T@std@@YAPEAU_Iterator_base12@0@AEAPEAU10@$$QEA$$T@Z DD imagerel $LN3
	DD	imagerel $LN3+67
	DD	imagerel $unwind$??$exchange@PEAU_Iterator_base12@std@@$$T@std@@YAPEAU_Iterator_base12@0@AEAPEAU10@$$QEA$$T@Z
pdata	ENDS
;	COMDAT pdata
pdata	SEGMENT
$pdata$?_Release@_Basic_container_proxy_ptr12@std@@QEAAXXZ DD imagerel $LN3
	DD	imagerel $LN3+44
	DD	imagerel $unwind$?_Release@_Basic_container_proxy_ptr12@std@@QEAAXXZ
pdata	ENDS
;	COMDAT pdata
pdata	SEGMENT
$pdata$??0_Basic_container_proxy_ptr12@std@@IEAA@XZ DD imagerel $LN3
	DD	imagerel $LN3+48
	DD	imagerel $unwind$??0_Basic_container_proxy_ptr12@std@@IEAA@XZ
pdata	ENDS
;	COMDAT pdata
pdata	SEGMENT
$pdata$??$addressof@U_Container_base12@std@@@std@@YAPEAU_Container_base12@0@AEAU10@@Z DD imagerel $LN3
	DD	imagerel $LN3+37
	DD	imagerel $unwind$??$addressof@U_Container_base12@std@@@std@@YAPEAU_Container_base12@0@AEAU10@@Z
pdata	ENDS
;	COMDAT pdata
pdata	SEGMENT
$pdata$??$_Construct_in_place@U_Container_proxy@std@@PEAU_Container_base12@2@@std@@YAXAEAU_Container_proxy@0@$$QEAPEAU_Container_base12@0@@Z DD imagerel $LN5
	DD	imagerel $LN5+115
	DD	imagerel $unwind$??$_Construct_in_place@U_Container_proxy@std@@PEAU_Container_base12@2@@std@@YAXAEAU_Container_proxy@0@$$QEAPEAU_Container_base12@0@@Z
pdata	ENDS
;	COMDAT pdata
pdata	SEGMENT
$pdata$?copy@?$_Char_traits@DH@std@@SAPEADQEADQEBD_K@Z DD imagerel $LN7
	DD	imagerel $LN7+148
	DD	imagerel $unwind$?copy@?$_Char_traits@DH@std@@SAPEADQEADQEBD_K@Z
pdata	ENDS
;	COMDAT pdata
pdata	SEGMENT
$pdata$?assign@?$_Char_traits@DH@std@@SAXAEADAEBD@Z DD imagerel $LN5
	DD	imagerel $LN5+86
	DD	imagerel $unwind$?assign@?$_Char_traits@DH@std@@SAXAEADAEBD@Z
pdata	ENDS
;	COMDAT pdata
pdata	SEGMENT
$pdata$?length@?$_Narrow_char_traits@DH@std@@SA_KQEBD@Z DD imagerel $LN4
	DD	imagerel $LN4+71
	DD	imagerel $unwind$?length@?$_Narrow_char_traits@DH@std@@SA_KQEBD@Z
pdata	ENDS
;	COMDAT pdata
pdata	SEGMENT
$pdata$?assign@?$_Narrow_char_traits@DH@std@@SAXAEADAEBD@Z DD imagerel $LN4
	DD	imagerel $LN4+78
	DD	imagerel $unwind$?assign@?$_Narrow_char_traits@DH@std@@SAXAEADAEBD@Z
pdata	ENDS
;	COMDAT pdata
pdata	SEGMENT
$pdata$?_Xlen_string@std@@YAXXZ DD imagerel $LN3
	DD	imagerel $LN3+41
	DD	imagerel $unwind$?_Xlen_string@std@@YAXXZ
pdata	ENDS
;	COMDAT pdata
pdata	SEGMENT
$pdata$??0?$allocator@D@std@@QEAA@XZ DD imagerel $LN3
	DD	imagerel $LN3+37
	DD	imagerel $unwind$??0?$allocator@D@std@@QEAA@XZ
pdata	ENDS
;	COMDAT pdata
pdata	SEGMENT
$pdata$?allocate@?$allocator@D@std@@QEAAPEAD_K@Z DD imagerel $LN3
	DD	imagerel $LN3+55
	DD	imagerel $unwind$?allocate@?$allocator@D@std@@QEAAPEAD_K@Z
pdata	ENDS
;	COMDAT pdata
pdata	SEGMENT
$pdata$?max_size@?$_Default_allocator_traits@V?$allocator@D@std@@@std@@SA_KAEBV?$allocator@D@2@@Z DD imagerel $LN3
	DD	imagerel $LN3+40
	DD	imagerel $unwind$?max_size@?$_Default_allocator_traits@V?$allocator@D@std@@@std@@SA_KAEBV?$allocator@D@2@@Z
pdata	ENDS
;	COMDAT pdata
pdata	SEGMENT
$pdata$??0?$_String_val@U?$_Simple_types@D@std@@@std@@QEAA@XZ DD imagerel $LN3
	DD	imagerel $LN3+86
	DD	imagerel $unwind$??0?$_String_val@U?$_Simple_types@D@std@@@std@@QEAA@XZ
pdata	ENDS
;	COMDAT pdata
pdata	SEGMENT
$pdata$??0_Bxty@?$_String_val@U?$_Simple_types@D@std@@@std@@QEAA@XZ DD imagerel $LN3
	DD	imagerel $LN3+56
	DD	imagerel $unwind$??0_Bxty@?$_String_val@U?$_Simple_types@D@std@@@std@@QEAA@XZ
pdata	ENDS
;	COMDAT pdata
pdata	SEGMENT
$pdata$??1_Bxty@?$_String_val@U?$_Simple_types@D@std@@@std@@QEAA@XZ DD imagerel $LN3
	DD	imagerel $LN3+33
	DD	imagerel $unwind$??1_Bxty@?$_String_val@U?$_Simple_types@D@std@@@std@@QEAA@XZ
pdata	ENDS
;	COMDAT pdata
pdata	SEGMENT
$pdata$??1?$_String_val@U?$_Simple_types@D@std@@@std@@QEAA@XZ DD imagerel $LN3
	DD	imagerel $LN3+37
	DD	imagerel $unwind$??1?$_String_val@U?$_Simple_types@D@std@@@std@@QEAA@XZ
pdata	ENDS
;	COMDAT pdata
pdata	SEGMENT
$pdata$??0?$basic_string@DU?$char_traits@D@std@@V?$allocator@D@2@@std@@QEAA@QEBD@Z DD imagerel $LN4
	DD	imagerel $LN4+98
	DD	imagerel $unwind$??0?$basic_string@DU?$char_traits@D@std@@V?$allocator@D@2@@std@@QEAA@QEBD@Z
pdata	ENDS
;	COMDAT pdata
pdata	SEGMENT
$pdata$?dtor$0@?0???0?$basic_string@DU?$char_traits@D@std@@V?$allocator@D@2@@std@@QEAA@QEBD@Z@4HA DD imagerel ?dtor$0@?0???0?$basic_string@DU?$char_traits@D@std@@V?$allocator@D@2@@std@@QEAA@QEBD@Z@4HA
	DD	imagerel ?dtor$0@?0???0?$basic_string@DU?$char_traits@D@std@@V?$allocator@D@2@@std@@QEAA@QEBD@Z@4HA+25
	DD	imagerel $unwind$?dtor$0@?0???0?$basic_string@DU?$char_traits@D@std@@V?$allocator@D@2@@std@@QEAA@QEBD@Z@4HA
pdata	ENDS
;	COMDAT pdata
pdata	SEGMENT
$pdata$?_Start_element_lifetimes@?$basic_string@DU?$char_traits@D@std@@V?$allocator@D@2@@std@@CAXQEAD_K@Z DD imagerel $LN7
	DD	imagerel $LN7+105
	DD	imagerel $unwind$?_Start_element_lifetimes@?$basic_string@DU?$char_traits@D@std@@V?$allocator@D@2@@std@@CAXQEAD_K@Z
pdata	ENDS
;	COMDAT pdata
pdata	SEGMENT
$pdata$?max_size@?$basic_string@DU?$char_traits@D@std@@V?$allocator@D@2@@std@@QEBA_KXZ DD imagerel $LN3
	DD	imagerel $LN3+124
	DD	imagerel $unwind$?max_size@?$basic_string@DU?$char_traits@D@std@@V?$allocator@D@2@@std@@QEBA_KXZ
pdata	ENDS
;	COMDAT pdata
pdata	SEGMENT
$pdata$?_Calculate_growth@?$basic_string@DU?$char_traits@D@std@@V?$allocator@D@2@@std@@CA_K_K00@Z DD imagerel $LN5
	DD	imagerel $LN5+151
	DD	imagerel $unwind$?_Calculate_growth@?$basic_string@DU?$char_traits@D@std@@V?$allocator@D@2@@std@@CA_K_K00@Z
pdata	ENDS
;	COMDAT pdata
pdata	SEGMENT
$pdata$?_Calculate_growth@?$basic_string@DU?$char_traits@D@std@@V?$allocator@D@2@@std@@AEBA_K_K@Z DD imagerel $LN3
	DD	imagerel $LN3+80
	DD	imagerel $unwind$?_Calculate_growth@?$basic_string@DU?$char_traits@D@std@@V?$allocator@D@2@@std@@AEBA_K_K@Z
pdata	ENDS
;	COMDAT pdata
pdata	SEGMENT
$pdata$?_Getal@?$basic_string@DU?$char_traits@D@std@@V?$allocator@D@2@@std@@AEAAAEAV?$allocator@D@2@XZ DD imagerel $LN3
	DD	imagerel $LN3+45
	DD	imagerel $unwind$?_Getal@?$basic_string@DU?$char_traits@D@std@@V?$allocator@D@2@@std@@AEAAAEAV?$allocator@D@2@XZ
pdata	ENDS
;	COMDAT pdata
pdata	SEGMENT
$pdata$?_Getal@?$basic_string@DU?$char_traits@D@std@@V?$allocator@D@2@@std@@AEBAAEBV?$allocator@D@2@XZ DD imagerel $LN3
	DD	imagerel $LN3+45
	DD	imagerel $unwind$?_Getal@?$basic_string@DU?$char_traits@D@std@@V?$allocator@D@2@@std@@AEBAAEBV?$allocator@D@2@XZ
pdata	ENDS
;	COMDAT pdata
pdata	SEGMENT
$pdata$?_Get_first@?$_Compressed_pair@V?$allocator@D@std@@V?$_String_val@U?$_Simple_types@D@std@@@2@$00@std@@QEAAAEAV?$allocator@D@2@XZ DD imagerel $LN3
	DD	imagerel $LN3+37
	DD	imagerel $unwind$?_Get_first@?$_Compressed_pair@V?$allocator@D@std@@V?$_String_val@U?$_Simple_types@D@std@@@2@$00@std@@QEAAAEAV?$allocator@D@2@XZ
pdata	ENDS
;	COMDAT pdata
pdata	SEGMENT
$pdata$?_Get_first@?$_Compressed_pair@V?$allocator@D@std@@V?$_String_val@U?$_Simple_types@D@std@@@2@$00@std@@QEBAAEBV?$allocator@D@2@XZ DD imagerel $LN3
	DD	imagerel $LN3+37
	DD	imagerel $unwind$?_Get_first@?$_Compressed_pair@V?$allocator@D@std@@V?$_String_val@U?$_Simple_types@D@std@@@2@$00@std@@QEBAAEBV?$allocator@D@2@XZ
pdata	ENDS
;	COMDAT pdata
pdata	SEGMENT
$pdata$??1?$_Compressed_pair@V?$allocator@D@std@@V?$_String_val@U?$_Simple_types@D@std@@@2@$00@std@@QEAA@XZ DD imagerel $LN3
	DD	imagerel $LN3+33
	DD	imagerel $unwind$??1?$_Compressed_pair@V?$allocator@D@std@@V?$_String_val@U?$_Simple_types@D@std@@@2@$00@std@@QEAA@XZ
pdata	ENDS
;	COMDAT pdata
pdata	SEGMENT
$pdata$??0logic_error@std@@QEAA@PEBD@Z DD imagerel $LN4
	DD	imagerel $LN4+69
	DD	imagerel $unwind$??0logic_error@std@@QEAA@PEBD@Z
pdata	ENDS
;	COMDAT pdata
pdata	SEGMENT
$pdata$??1logic_error@std@@UEAA@XZ DD imagerel $LN3
	DD	imagerel $LN3+30
	DD	imagerel $unwind$??1logic_error@std@@UEAA@XZ
pdata	ENDS
;	COMDAT pdata
pdata	SEGMENT
$pdata$??0logic_error@std@@QEAA@AEBV01@@Z DD imagerel $LN3
	DD	imagerel $LN3+57
	DD	imagerel $unwind$??0logic_error@std@@QEAA@AEBV01@@Z
pdata	ENDS
;	COMDAT pdata
pdata	SEGMENT
$pdata$??_Glogic_error@std@@UEAAPEAXI@Z DD imagerel $LN4
	DD	imagerel $LN4+62
	DD	imagerel $unwind$??_Glogic_error@std@@UEAAPEAXI@Z
pdata	ENDS
;	COMDAT pdata
pdata	SEGMENT
$pdata$??0out_of_range@std@@QEAA@PEBD@Z DD imagerel $LN4
	DD	imagerel $LN4+69
	DD	imagerel $unwind$??0out_of_range@std@@QEAA@PEBD@Z
pdata	ENDS
;	COMDAT pdata
pdata	SEGMENT
$pdata$??1out_of_range@std@@UEAA@XZ DD imagerel $LN3
	DD	imagerel $LN3+30
	DD	imagerel $unwind$??1out_of_range@std@@UEAA@XZ
pdata	ENDS
;	COMDAT pdata
pdata	SEGMENT
$pdata$??0out_of_range@std@@QEAA@AEBV01@@Z DD imagerel $LN3
	DD	imagerel $LN3+57
	DD	imagerel $unwind$??0out_of_range@std@@QEAA@AEBV01@@Z
pdata	ENDS
;	COMDAT pdata
pdata	SEGMENT
$pdata$??_Gout_of_range@std@@UEAAPEAXI@Z DD imagerel $LN4
	DD	imagerel $LN4+62
	DD	imagerel $unwind$??_Gout_of_range@std@@UEAAPEAXI@Z
pdata	ENDS
;	COMDAT pdata
pdata	SEGMENT
$pdata$?GetFirstCpuHandle@DescriptorHeap@DirectX@@QEBA?AUD3D12_CPU_DESCRIPTOR_HANDLE@@XZ DD imagerel $LN4
	DD	imagerel $LN4+106
	DD	imagerel $unwind$?GetFirstCpuHandle@DescriptorHeap@DirectX@@QEBA?AUD3D12_CPU_DESCRIPTOR_HANDLE@@XZ
pdata	ENDS
;	COMDAT pdata
pdata	SEGMENT
$pdata$?GetGpuHandle@DescriptorHeap@DirectX@@QEBA?AUD3D12_GPU_DESCRIPTOR_HANDLE@@_K@Z DD imagerel $LN6
	DD	imagerel $LN6+232
	DD	imagerel $unwind$?GetGpuHandle@DescriptorHeap@DirectX@@QEBA?AUD3D12_GPU_DESCRIPTOR_HANDLE@@_K@Z
pdata	ENDS
;	COMDAT pdata
pdata	SEGMENT
$pdata$?GetCpuHandle@DescriptorHeap@DirectX@@QEBA?AUD3D12_CPU_DESCRIPTOR_HANDLE@@_K@Z DD imagerel $LN5
	DD	imagerel $LN5+183
	DD	imagerel $unwind$?GetCpuHandle@DescriptorHeap@DirectX@@QEBA?AUD3D12_CPU_DESCRIPTOR_HANDLE@@_K@Z
pdata	ENDS
;	COMDAT pdata
pdata	SEGMENT
$pdata$?Heap@DescriptorHeap@DirectX@@QEBAPEAUID3D12DescriptorHeap@@XZ DD imagerel $LN3
	DD	imagerel $LN3+45
	DD	imagerel $unwind$?Heap@DescriptorHeap@DirectX@@QEBAPEAUID3D12DescriptorHeap@@XZ
pdata	ENDS
;	COMDAT pdata
pdata	SEGMENT
$pdata$?InternalRelease@?$ComPtr@UID3D12DescriptorHeap@@@WRL@Microsoft@@IEAAKXZ DD imagerel $LN4
	DD	imagerel $LN4+89
	DD	imagerel $unwind$?InternalRelease@?$ComPtr@UID3D12DescriptorHeap@@@WRL@Microsoft@@IEAAKXZ
pdata	ENDS
;	COMDAT pdata
pdata	SEGMENT
$pdata$??1?$ComPtr@UID3D12DescriptorHeap@@@WRL@Microsoft@@QEAA@XZ DD imagerel $LN3
	DD	imagerel $LN3+42
	DD	imagerel $unwind$??1?$ComPtr@UID3D12DescriptorHeap@@@WRL@Microsoft@@QEAA@XZ
pdata	ENDS
;	COMDAT pdata
pdata	SEGMENT
$pdata$?Get@?$ComPtr@UID3D12DescriptorHeap@@@WRL@Microsoft@@QEBAPEAUID3D12DescriptorHeap@@XZ DD imagerel $LN3
	DD	imagerel $LN3+40
	DD	imagerel $unwind$?Get@?$ComPtr@UID3D12DescriptorHeap@@@WRL@Microsoft@@QEBAPEAUID3D12DescriptorHeap@@XZ
pdata	ENDS
;	COMDAT pdata
pdata	SEGMENT
$pdata$??1DescriptorHeap@DirectX@@QEAA@XZ DD imagerel $LN3
	DD	imagerel $LN3+33
	DD	imagerel $unwind$??1DescriptorHeap@DirectX@@QEAA@XZ
pdata	ENDS
;	COMDAT pdata
pdata	SEGMENT
$pdata$??_GDescriptorHeap@DirectX@@QEAAPEAXI@Z DD imagerel $LN4
	DD	imagerel $LN4+62
	DD	imagerel $unwind$??_GDescriptorHeap@DirectX@@QEAAPEAXI@Z
pdata	ENDS
;	COMDAT pdata
pdata	SEGMENT
$pdata$??$?9UID3D12DescriptorHeap@@@WRL@Microsoft@@YA_NAEBV?$ComPtr@UID3D12DescriptorHeap@@@01@$$T@Z DD imagerel $LN5
	DD	imagerel $LN5+72
	DD	imagerel $unwind$??$?9UID3D12DescriptorHeap@@@WRL@Microsoft@@YA_NAEBV?$ComPtr@UID3D12DescriptorHeap@@@01@$$T@Z
pdata	ENDS
;	COMDAT pdata
pdata	SEGMENT
$pdata$?GetWitdh@FWindowsWindow@@QEAAIXZ DD imagerel $LN3
	DD	imagerel $LN3+40
	DD	imagerel $unwind$?GetWitdh@FWindowsWindow@@QEAAIXZ
pdata	ENDS
;	COMDAT pdata
pdata	SEGMENT
$pdata$?GetHeight@FWindowsWindow@@QEAAIXZ DD imagerel $LN3
	DD	imagerel $LN3+40
	DD	imagerel $unwind$?GetHeight@FWindowsWindow@@QEAAIXZ
pdata	ENDS
;	COMDAT pdata
pdata	SEGMENT
$pdata$?GetHandle@FWindowsWindow@@QEAAPEAUHWND__@@XZ DD imagerel $LN3
	DD	imagerel $LN3+41
	DD	imagerel $unwind$?GetHandle@FWindowsWindow@@QEAAPEAUHWND__@@XZ
pdata	ENDS
;	COMDAT pdata
pdata	SEGMENT
$pdata$?GetRefreshRate@FWindowsWindow@@QEAAIXZ DD imagerel $LN3
	DD	imagerel $LN3+38
	DD	imagerel $unwind$?GetRefreshRate@FWindowsWindow@@QEAAIXZ
pdata	ENDS
;	COMDAT pdata
pdata	SEGMENT
$pdata$?GetWindow@FWindowsWindowManager@@QEAAPEAVFWindowsWindow@@I@Z DD imagerel $LN5
	DD	imagerel $LN5+116
	DD	imagerel $unwind$?GetWindow@FWindowsWindowManager@@QEAAPEAVFWindowsWindow@@I@Z
pdata	ENDS
;	COMDAT pdata
pdata	SEGMENT
$pdata$?size@?$vector@PEAVFWindowsWindow@@V?$allocator@PEAVFWindowsWindow@@@std@@@std@@QEBA_KXZ DD imagerel $LN3
	DD	imagerel $LN3+64
	DD	imagerel $unwind$?size@?$vector@PEAVFWindowsWindow@@V?$allocator@PEAVFWindowsWindow@@@std@@@std@@QEBA_KXZ
pdata	ENDS
;	COMDAT pdata
pdata	SEGMENT
$pdata$??A?$vector@PEAVFWindowsWindow@@V?$allocator@PEAVFWindowsWindow@@@std@@@std@@QEAAAEAPEAVFWindowsWindow@@_K@Z DD imagerel $LN12
	DD	imagerel $LN12+213
	DD	imagerel $unwind$??A?$vector@PEAVFWindowsWindow@@V?$allocator@PEAVFWindowsWindow@@@std@@@std@@QEAAAEAPEAVFWindowsWindow@@_K@Z
pdata	ENDS
;	COMDAT pdata
pdata	SEGMENT
$pdata$?cos@@YAMM@Z DD imagerel $LN3
	DD	imagerel $LN3+45
	DD	imagerel $unwind$?cos@@YAMM@Z
pdata	ENDS
;	COMDAT pdata
pdata	SEGMENT
$pdata$?sin@@YAMM@Z DD imagerel $LN3
	DD	imagerel $LN3+45
	DD	imagerel $unwind$?sin@@YAMM@Z
pdata	ENDS
;	COMDAT pdata
pdata	SEGMENT
$pdata$?CalcConstantBufferByteSize@D3DUtil@@SAII@Z DD imagerel $LN3
	DD	imagerel $LN3+45
	DD	imagerel $unwind$?CalcConstantBufferByteSize@D3DUtil@@SAII@Z
pdata	ENDS
;	COMDAT pdata
pdata	SEGMENT
$pdata$?InitPipelines@D3DUtil@@SAXXZ DD imagerel $LN6
	DD	imagerel $LN6+67
	DD	imagerel $unwind$?InitPipelines@D3DUtil@@SAXXZ
pdata	ENDS
;	COMDAT pdata
pdata	SEGMENT
$pdata$?GetPipeline@D3DUtil@@SAPEAVD3D12PipelineShaderRootSignature@@I@Z DD imagerel $LN4
	DD	imagerel $LN4+100
	DD	imagerel $unwind$?GetPipeline@D3DUtil@@SAPEAVD3D12PipelineShaderRootSignature@@I@Z
pdata	ENDS
;	COMDAT pdata
pdata	SEGMENT
$pdata$?GetViewProjMatrix@D3DUtil@@SA?AUXMFLOAT4X4@DirectX@@PEAUD3D12Camera@@@Z DD imagerel $LN4
	DD	imagerel $LN4+639
	DD	imagerel $unwind$?GetViewProjMatrix@D3DUtil@@SA?AUXMFLOAT4X4@DirectX@@PEAUD3D12Camera@@@Z
pdata	ENDS
;	COMDAT pdata
pdata	SEGMENT
$pdata$??R?$_Conditionally_enabled_hash@I$00@std@@QEBA_KAEBI@Z DD imagerel $LN3
	DD	imagerel $LN3+47
	DD	imagerel $unwind$??R?$_Conditionally_enabled_hash@I$00@std@@QEBA_KAEBI@Z
pdata	ENDS
;	COMDAT pdata
pdata	SEGMENT
$pdata$?_Do_hash@?$hash@I@std@@SA_KAEBI@Z DD imagerel $LN3
	DD	imagerel $LN3+42
	DD	imagerel $unwind$?_Do_hash@?$hash@I@std@@SA_KAEBI@Z
pdata	ENDS
;	COMDAT pdata
pdata	SEGMENT
$pdata$??R?$equal_to@I@std@@QEBA_NAEBI0@Z DD imagerel $LN5
	DD	imagerel $LN5+77
	DD	imagerel $unwind$??R?$equal_to@I@std@@QEBA_NAEBI0@Z
pdata	ENDS
;	COMDAT pdata
pdata	SEGMENT
$pdata$?_Get_first@?$_Compressed_pair@U?$equal_to@I@std@@M$00@std@@QEBAAEBU?$equal_to@I@2@XZ DD imagerel $LN3
	DD	imagerel $LN3+37
	DD	imagerel $unwind$?_Get_first@?$_Compressed_pair@U?$equal_to@I@std@@M$00@std@@QEBAAEBU?$equal_to@I@2@XZ
pdata	ENDS
;	COMDAT pdata
pdata	SEGMENT
$pdata$?_Get_first@?$_Compressed_pair@U?$hash@I@std@@V?$_Compressed_pair@U?$equal_to@I@std@@M$00@2@$00@std@@QEBAAEBU?$hash@I@2@XZ DD imagerel $LN3
	DD	imagerel $LN3+37
	DD	imagerel $unwind$?_Get_first@?$_Compressed_pair@U?$hash@I@std@@V?$_Compressed_pair@U?$equal_to@I@std@@M$00@2@$00@std@@QEBAAEBU?$hash@I@2@XZ
pdata	ENDS
;	COMDAT pdata
pdata	SEGMENT
$pdata$?_Make_iter@?$list@U?$pair@$$CBIV?$unique_ptr@VD3D12PipelineShaderRootSignature@@U?$default_delete@VD3D12PipelineShaderRootSignature@@@std@@@std@@@std@@V?$allocator@U?$pair@$$CBIV?$unique_ptr@VD3D12PipelineShaderRootSignature@@U?$default_delete@VD3D12PipelineShaderRootSignature@@@std@@@std@@@std@@@2@@std@@QEBA?AV?$_List_iterator@V?$_List_val@U?$_List_simple_types@U?$pair@$$CBIV?$unique_ptr@VD3D12PipelineShaderRootSignature@@U?$default_delete@VD3D12PipelineShaderRootSignature@@@std@@@std@@@std@@@std@@@std@@@2@PEAU?$_List_node@U?$pair@$$CBIV?$unique_ptr@VD3D12PipelineShaderRootSignature@@U?$default_delete@VD3D12PipelineShaderRootSignature@@@std@@@std@@@std@@PEAX@2@@Z DD imagerel $LN3
	DD	imagerel $LN3+75
	DD	imagerel $unwind$?_Make_iter@?$list@U?$pair@$$CBIV?$unique_ptr@VD3D12PipelineShaderRootSignature@@U?$default_delete@VD3D12PipelineShaderRootSignature@@@std@@@std@@@std@@V?$allocator@U?$pair@$$CBIV?$unique_ptr@VD3D12PipelineShaderRootSignature@@U?$default_delete@VD3D12PipelineShaderRootSignature@@@std@@@std@@@std@@@2@@std@@QEBA?AV?$_List_iterator@V?$_List_val@U?$_List_simple_types@U?$pair@$$CBIV?$unique_ptr@VD3D12PipelineShaderRootSignature@@U?$default_delete@VD3D12PipelineShaderRootSignature@@@std@@@std@@@std@@@std@@@std@@@2@PEAU?$_List_node@U?$pair@$$CBIV?$unique_ptr@VD3D12PipelineShaderRootSignature@@U?$default_delete@VD3D12PipelineShaderRootSignature@@@std@@@std@@@std@@PEAX@2@@Z
pdata	ENDS
;	COMDAT pdata
pdata	SEGMENT
$pdata$??$find@X@?$_Hash@V?$_Umap_traits@IV?$unique_ptr@VD3D12PipelineShaderRootSignature@@U?$default_delete@VD3D12PipelineShaderRootSignature@@@std@@@std@@V?$_Uhash_compare@IU?$hash@I@std@@U?$equal_to@I@2@@2@V?$allocator@U?$pair@$$CBIV?$unique_ptr@VD3D12PipelineShaderRootSignature@@U?$default_delete@VD3D12PipelineShaderRootSignature@@@std@@@std@@@std@@@2@$0A@@std@@@std@@QEAA?AV?$_List_iterator@V?$_List_val@U?$_List_simple_types@U?$pair@$$CBIV?$unique_ptr@VD3D12PipelineShaderRootSignature@@U?$default_delete@VD3D12PipelineShaderRootSignature@@@std@@@std@@@std@@@std@@@std@@@1@AEBI@Z DD imagerel $LN5
	DD	imagerel $LN5+137
	DD	imagerel $unwind$??$find@X@?$_Hash@V?$_Umap_traits@IV?$unique_ptr@VD3D12PipelineShaderRootSignature@@U?$default_delete@VD3D12PipelineShaderRootSignature@@@std@@@std@@V?$_Uhash_compare@IU?$hash@I@std@@U?$equal_to@I@2@@2@V?$allocator@U?$pair@$$CBIV?$unique_ptr@VD3D12PipelineShaderRootSignature@@U?$default_delete@VD3D12PipelineShaderRootSignature@@@std@@@std@@@std@@@2@$0A@@std@@@std@@QEAA?AV?$_List_iterator@V?$_List_val@U?$_List_simple_types@U?$pair@$$CBIV?$unique_ptr@VD3D12PipelineShaderRootSignature@@U?$default_delete@VD3D12PipelineShaderRootSignature@@@std@@@std@@@std@@@std@@@std@@@1@AEBI@Z
pdata	ENDS
;	COMDAT pdata
pdata	SEGMENT
$pdata$??0?$_List_unchecked_const_iterator@V?$_List_val@U?$_List_simple_types@U?$pair@$$CBIV?$unique_ptr@VD3D12PipelineShaderRootSignature@@U?$default_delete@VD3D12PipelineShaderRootSignature@@@std@@@std@@@std@@@std@@@std@@U_Iterator_base12@2@@std@@QEAA@PEAU?$_List_node@U?$pair@$$CBIV?$unique_ptr@VD3D12PipelineShaderRootSignature@@U?$default_delete@VD3D12PipelineShaderRootSignature@@@std@@@std@@@std@@PEAX@1@PEBV?$_List_val@U?$_List_simple_types@U?$pair@$$CBIV?$unique_ptr@VD3D12PipelineShaderRootSignature@@U?$default_delete@VD3D12PipelineShaderRootSignature@@@std@@@std@@@std@@@std@@@1@@Z DD imagerel $LN3
	DD	imagerel $LN3+81
	DD	imagerel $unwind$??0?$_List_unchecked_const_iterator@V?$_List_val@U?$_List_simple_types@U?$pair@$$CBIV?$unique_ptr@VD3D12PipelineShaderRootSignature@@U?$default_delete@VD3D12PipelineShaderRootSignature@@@std@@@std@@@std@@@std@@@std@@U_Iterator_base12@2@@std@@QEAA@PEAU?$_List_node@U?$pair@$$CBIV?$unique_ptr@VD3D12PipelineShaderRootSignature@@U?$default_delete@VD3D12PipelineShaderRootSignature@@@std@@@std@@@std@@PEAX@1@PEBV?$_List_val@U?$_List_simple_types@U?$pair@$$CBIV?$unique_ptr@VD3D12PipelineShaderRootSignature@@U?$default_delete@VD3D12PipelineShaderRootSignature@@@std@@@std@@@std@@@std@@@1@@Z
pdata	ENDS
;	COMDAT pdata
pdata	SEGMENT
$pdata$??1?$_List_unchecked_const_iterator@V?$_List_val@U?$_List_simple_types@U?$pair@$$CBIV?$unique_ptr@VD3D12PipelineShaderRootSignature@@U?$default_delete@VD3D12PipelineShaderRootSignature@@@std@@@std@@@std@@@std@@@std@@U_Iterator_base12@2@@std@@QEAA@XZ DD imagerel $LN3
	DD	imagerel $LN3+30
	DD	imagerel $unwind$??1?$_List_unchecked_const_iterator@V?$_List_val@U?$_List_simple_types@U?$pair@$$CBIV?$unique_ptr@VD3D12PipelineShaderRootSignature@@U?$default_delete@VD3D12PipelineShaderRootSignature@@@std@@@std@@@std@@@std@@@std@@U_Iterator_base12@2@@std@@QEAA@XZ
pdata	ENDS
;	COMDAT pdata
pdata	SEGMENT
$pdata$??D?$_List_const_iterator@V?$_List_val@U?$_List_simple_types@U?$pair@$$CBIV?$unique_ptr@VD3D12PipelineShaderRootSignature@@U?$default_delete@VD3D12PipelineShaderRootSignature@@@std@@@std@@@std@@@std@@@std@@@std@@QEBAAEBU?$pair@$$CBIV?$unique_ptr@VD3D12PipelineShaderRootSignature@@U?$default_delete@VD3D12PipelineShaderRootSignature@@@std@@@std@@@1@XZ DD imagerel $LN21
	DD	imagerel $LN21+320
	DD	imagerel $unwind$??D?$_List_const_iterator@V?$_List_val@U?$_List_simple_types@U?$pair@$$CBIV?$unique_ptr@VD3D12PipelineShaderRootSignature@@U?$default_delete@VD3D12PipelineShaderRootSignature@@@std@@@std@@@std@@@std@@@std@@@std@@QEBAAEBU?$pair@$$CBIV?$unique_ptr@VD3D12PipelineShaderRootSignature@@U?$default_delete@VD3D12PipelineShaderRootSignature@@@std@@@std@@@1@XZ
pdata	ENDS
;	COMDAT pdata
pdata	SEGMENT
$pdata$??1?$_List_const_iterator@V?$_List_val@U?$_List_simple_types@U?$pair@$$CBIV?$unique_ptr@VD3D12PipelineShaderRootSignature@@U?$default_delete@VD3D12PipelineShaderRootSignature@@@std@@@std@@@std@@@std@@@std@@@std@@QEAA@XZ DD imagerel $LN3
	DD	imagerel $LN3+30
	DD	imagerel $unwind$??1?$_List_const_iterator@V?$_List_val@U?$_List_simple_types@U?$pair@$$CBIV?$unique_ptr@VD3D12PipelineShaderRootSignature@@U?$default_delete@VD3D12PipelineShaderRootSignature@@@std@@@std@@@std@@@std@@@std@@@std@@QEAA@XZ
pdata	ENDS
;	COMDAT pdata
pdata	SEGMENT
$pdata$??0?$_List_const_iterator@V?$_List_val@U?$_List_simple_types@U?$pair@$$CBIV?$unique_ptr@VD3D12PipelineShaderRootSignature@@U?$default_delete@VD3D12PipelineShaderRootSignature@@@std@@@std@@@std@@@std@@@std@@@std@@QEAA@PEAU?$_List_node@U?$pair@$$CBIV?$unique_ptr@VD3D12PipelineShaderRootSignature@@U?$default_delete@VD3D12PipelineShaderRootSignature@@@std@@@std@@@std@@PEAX@1@PEBV?$_List_val@U?$_List_simple_types@U?$pair@$$CBIV?$unique_ptr@VD3D12PipelineShaderRootSignature@@U?$default_delete@VD3D12PipelineShaderRootSignature@@@std@@@std@@@std@@@std@@@1@@Z DD imagerel $LN3
	DD	imagerel $LN3+52
	DD	imagerel $unwind$??0?$_List_const_iterator@V?$_List_val@U?$_List_simple_types@U?$pair@$$CBIV?$unique_ptr@VD3D12PipelineShaderRootSignature@@U?$default_delete@VD3D12PipelineShaderRootSignature@@@std@@@std@@@std@@@std@@@std@@@std@@QEAA@PEAU?$_List_node@U?$pair@$$CBIV?$unique_ptr@VD3D12PipelineShaderRootSignature@@U?$default_delete@VD3D12PipelineShaderRootSignature@@@std@@@std@@@std@@PEAX@1@PEBV?$_List_val@U?$_List_simple_types@U?$pair@$$CBIV?$unique_ptr@VD3D12PipelineShaderRootSignature@@U?$default_delete@VD3D12PipelineShaderRootSignature@@@std@@@std@@@std@@@std@@@1@@Z
pdata	ENDS
;	COMDAT pdata
pdata	SEGMENT
$pdata$??D?$_List_iterator@V?$_List_val@U?$_List_simple_types@U?$pair@$$CBIV?$unique_ptr@VD3D12PipelineShaderRootSignature@@U?$default_delete@VD3D12PipelineShaderRootSignature@@@std@@@std@@@std@@@std@@@std@@@std@@QEBAAEAU?$pair@$$CBIV?$unique_ptr@VD3D12PipelineShaderRootSignature@@U?$default_delete@VD3D12PipelineShaderRootSignature@@@std@@@std@@@1@XZ DD imagerel $LN3
	DD	imagerel $LN3+42
	DD	imagerel $unwind$??D?$_List_iterator@V?$_List_val@U?$_List_simple_types@U?$pair@$$CBIV?$unique_ptr@VD3D12PipelineShaderRootSignature@@U?$default_delete@VD3D12PipelineShaderRootSignature@@@std@@@std@@@std@@@std@@@std@@@std@@QEBAAEAU?$pair@$$CBIV?$unique_ptr@VD3D12PipelineShaderRootSignature@@U?$default_delete@VD3D12PipelineShaderRootSignature@@@std@@@std@@@1@XZ
pdata	ENDS
;	COMDAT pdata
pdata	SEGMENT
$pdata$??C?$_List_iterator@V?$_List_val@U?$_List_simple_types@U?$pair@$$CBIV?$unique_ptr@VD3D12PipelineShaderRootSignature@@U?$default_delete@VD3D12PipelineShaderRootSignature@@@std@@@std@@@std@@@std@@@std@@@std@@QEBAPEAU?$pair@$$CBIV?$unique_ptr@VD3D12PipelineShaderRootSignature@@U?$default_delete@VD3D12PipelineShaderRootSignature@@@std@@@std@@@1@XZ DD imagerel $LN3
	DD	imagerel $LN3+50
	DD	imagerel $unwind$??C?$_List_iterator@V?$_List_val@U?$_List_simple_types@U?$pair@$$CBIV?$unique_ptr@VD3D12PipelineShaderRootSignature@@U?$default_delete@VD3D12PipelineShaderRootSignature@@@std@@@std@@@std@@@std@@@std@@@std@@QEBAPEAU?$pair@$$CBIV?$unique_ptr@VD3D12PipelineShaderRootSignature@@U?$default_delete@VD3D12PipelineShaderRootSignature@@@std@@@std@@@1@XZ
pdata	ENDS
;	COMDAT pdata
pdata	SEGMENT
$pdata$??1?$_List_iterator@V?$_List_val@U?$_List_simple_types@U?$pair@$$CBIV?$unique_ptr@VD3D12PipelineShaderRootSignature@@U?$default_delete@VD3D12PipelineShaderRootSignature@@@std@@@std@@@std@@@std@@@std@@@std@@QEAA@XZ DD imagerel $LN3
	DD	imagerel $LN3+30
	DD	imagerel $unwind$??1?$_List_iterator@V?$_List_val@U?$_List_simple_types@U?$pair@$$CBIV?$unique_ptr@VD3D12PipelineShaderRootSignature@@U?$default_delete@VD3D12PipelineShaderRootSignature@@@std@@@std@@@std@@@std@@@std@@@std@@QEAA@XZ
pdata	ENDS
;	COMDAT pdata
pdata	SEGMENT
$pdata$??0?$_List_iterator@V?$_List_val@U?$_List_simple_types@U?$pair@$$CBIV?$unique_ptr@VD3D12PipelineShaderRootSignature@@U?$default_delete@VD3D12PipelineShaderRootSignature@@@std@@@std@@@std@@@std@@@std@@@std@@QEAA@PEAU?$_List_node@U?$pair@$$CBIV?$unique_ptr@VD3D12PipelineShaderRootSignature@@U?$default_delete@VD3D12PipelineShaderRootSignature@@@std@@@std@@@std@@PEAX@1@PEBV?$_List_val@U?$_List_simple_types@U?$pair@$$CBIV?$unique_ptr@VD3D12PipelineShaderRootSignature@@U?$default_delete@VD3D12PipelineShaderRootSignature@@@std@@@std@@@std@@@std@@@1@@Z DD imagerel $LN3
	DD	imagerel $LN3+52
	DD	imagerel $unwind$??0?$_List_iterator@V?$_List_val@U?$_List_simple_types@U?$pair@$$CBIV?$unique_ptr@VD3D12PipelineShaderRootSignature@@U?$default_delete@VD3D12PipelineShaderRootSignature@@@std@@@std@@@std@@@std@@@std@@@std@@QEAA@PEAU?$_List_node@U?$pair@$$CBIV?$unique_ptr@VD3D12PipelineShaderRootSignature@@U?$default_delete@VD3D12PipelineShaderRootSignature@@@std@@@std@@@std@@PEAX@1@PEBV?$_List_val@U?$_List_simple_types@U?$pair@$$CBIV?$unique_ptr@VD3D12PipelineShaderRootSignature@@U?$default_delete@VD3D12PipelineShaderRootSignature@@@std@@@std@@@std@@@std@@@1@@Z
pdata	ENDS
;	COMDAT pdata
pdata	SEGMENT
$pdata$?get@?$unique_ptr@VD3D12PipelineShaderRootSignature@@U?$default_delete@VD3D12PipelineShaderRootSignature@@@std@@@std@@QEBAPEAVD3D12PipelineShaderRootSignature@@XZ DD imagerel $LN3
	DD	imagerel $LN3+40
	DD	imagerel $unwind$?get@?$unique_ptr@VD3D12PipelineShaderRootSignature@@U?$default_delete@VD3D12PipelineShaderRootSignature@@@std@@@std@@QEBAPEAVD3D12PipelineShaderRootSignature@@XZ
pdata	ENDS
;	COMDAT pdata
pdata	SEGMENT
$pdata$?InternalAddRef@?$ComPtr@UID3D12Resource@@@WRL@Microsoft@@IEBAXXZ DD imagerel $LN4
	DD	imagerel $LN4+64
	DD	imagerel $unwind$?InternalAddRef@?$ComPtr@UID3D12Resource@@@WRL@Microsoft@@IEBAXXZ
pdata	ENDS
;	COMDAT pdata
pdata	SEGMENT
$pdata$?InternalRelease@?$ComPtr@UID3D12Resource@@@WRL@Microsoft@@IEAAKXZ DD imagerel $LN4
	DD	imagerel $LN4+89
	DD	imagerel $unwind$?InternalRelease@?$ComPtr@UID3D12Resource@@@WRL@Microsoft@@IEAAKXZ
pdata	ENDS
;	COMDAT pdata
pdata	SEGMENT
$pdata$??0?$ComPtr@UID3D12Resource@@@WRL@Microsoft@@QEAA@XZ DD imagerel $LN3
	DD	imagerel $LN3+48
	DD	imagerel $unwind$??0?$ComPtr@UID3D12Resource@@@WRL@Microsoft@@QEAA@XZ
pdata	ENDS
;	COMDAT pdata
pdata	SEGMENT
$pdata$??0?$ComPtr@UID3D12Resource@@@WRL@Microsoft@@QEAA@AEBV012@@Z DD imagerel $LN3
	DD	imagerel $LN3+65
	DD	imagerel $unwind$??0?$ComPtr@UID3D12Resource@@@WRL@Microsoft@@QEAA@AEBV012@@Z
pdata	ENDS
;	COMDAT pdata
pdata	SEGMENT
$pdata$??1?$ComPtr@UID3D12Resource@@@WRL@Microsoft@@QEAA@XZ DD imagerel $LN3
	DD	imagerel $LN3+42
	DD	imagerel $unwind$??1?$ComPtr@UID3D12Resource@@@WRL@Microsoft@@QEAA@XZ
pdata	ENDS
;	COMDAT pdata
pdata	SEGMENT
$pdata$?Get@?$ComPtr@UID3D12Resource@@@WRL@Microsoft@@QEBAPEAUID3D12Resource@@XZ DD imagerel $LN3
	DD	imagerel $LN3+40
	DD	imagerel $unwind$?Get@?$ComPtr@UID3D12Resource@@@WRL@Microsoft@@QEBAPEAUID3D12Resource@@XZ
pdata	ENDS
;	COMDAT pdata
pdata	SEGMENT
$pdata$??C?$ComPtr@UID3D12Resource@@@WRL@Microsoft@@QEBAPEAUID3D12Resource@@XZ DD imagerel $LN3
	DD	imagerel $LN3+40
	DD	imagerel $unwind$??C?$ComPtr@UID3D12Resource@@@WRL@Microsoft@@QEBAPEAUID3D12Resource@@XZ
pdata	ENDS
;	COMDAT pdata
pdata	SEGMENT
$pdata$??I?$ComPtr@UID3D12Resource@@@WRL@Microsoft@@QEAA?AV?$ComPtrRef@V?$ComPtr@UID3D12Resource@@@WRL@Microsoft@@@Details@12@XZ DD imagerel $LN3
	DD	imagerel $LN3+55
	DD	imagerel $unwind$??I?$ComPtr@UID3D12Resource@@@WRL@Microsoft@@QEAA?AV?$ComPtrRef@V?$ComPtr@UID3D12Resource@@@WRL@Microsoft@@@Details@12@XZ
pdata	ENDS
;	COMDAT pdata
pdata	SEGMENT
$pdata$?ReleaseAndGetAddressOf@?$ComPtr@UID3D12Resource@@@WRL@Microsoft@@QEAAPEAPEAUID3D12Resource@@XZ DD imagerel $LN3
	DD	imagerel $LN3+46
	DD	imagerel $unwind$?ReleaseAndGetAddressOf@?$ComPtr@UID3D12Resource@@@WRL@Microsoft@@QEAAPEAPEAUID3D12Resource@@XZ
pdata	ENDS
;	COMDAT pdata
pdata	SEGMENT
$pdata$??0?$ComPtrRef@V?$ComPtr@UID3D12Resource@@@WRL@Microsoft@@@Details@WRL@Microsoft@@QEAA@PEAV?$ComPtr@UID3D12Resource@@@23@@Z DD imagerel $LN3
	DD	imagerel $LN3+53
	DD	imagerel $unwind$??0?$ComPtrRef@V?$ComPtr@UID3D12Resource@@@WRL@Microsoft@@@Details@WRL@Microsoft@@QEAA@PEAV?$ComPtr@UID3D12Resource@@@23@@Z
pdata	ENDS
;	COMDAT pdata
pdata	SEGMENT
$pdata$??B?$ComPtrRef@V?$ComPtr@UID3D12Resource@@@WRL@Microsoft@@@Details@WRL@Microsoft@@QEBAPEAPEAXXZ DD imagerel $LN3
	DD	imagerel $LN3+45
	DD	imagerel $unwind$??B?$ComPtrRef@V?$ComPtr@UID3D12Resource@@@WRL@Microsoft@@@Details@WRL@Microsoft@@QEBAPEAPEAXXZ
pdata	ENDS
;	COMDAT pdata
pdata	SEGMENT
$pdata$??$IID_PPV_ARGS_Helper@V?$ComPtr@UID3D12Resource@@@WRL@Microsoft@@@@YAPEAPEAXV?$ComPtrRef@V?$ComPtr@UID3D12Resource@@@WRL@Microsoft@@@Details@WRL@Microsoft@@@Z DD imagerel $LN3
	DD	imagerel $LN3+42
	DD	imagerel $unwind$??$IID_PPV_ARGS_Helper@V?$ComPtr@UID3D12Resource@@@WRL@Microsoft@@@@YAPEAPEAXV?$ComPtrRef@V?$ComPtr@UID3D12Resource@@@WRL@Microsoft@@@Details@WRL@Microsoft@@@Z
pdata	ENDS
;	COMDAT pdata
pdata	SEGMENT
$pdata$??0D3D12Renderer@@QEAA@XZ DD imagerel $LN18
	DD	imagerel $LN18+461
	DD	imagerel $unwind$??0D3D12Renderer@@QEAA@XZ
pdata	ENDS
;	COMDAT pdata
pdata	SEGMENT
$pdata$?dtor$0@?0???0D3D12Renderer@@QEAA@XZ@4HA DD imagerel ?dtor$0@?0???0D3D12Renderer@@QEAA@XZ@4HA
	DD	imagerel ?dtor$0@?0???0D3D12Renderer@@QEAA@XZ@4HA+29
	DD	imagerel $unwind$?dtor$0@?0???0D3D12Renderer@@QEAA@XZ@4HA
pdata	ENDS
;	COMDAT pdata
pdata	SEGMENT
$pdata$?dtor$1@?0???0D3D12Renderer@@QEAA@XZ@4HA DD imagerel ?dtor$1@?0???0D3D12Renderer@@QEAA@XZ@4HA
	DD	imagerel ?dtor$1@?0???0D3D12Renderer@@QEAA@XZ@4HA+29
	DD	imagerel $unwind$?dtor$1@?0???0D3D12Renderer@@QEAA@XZ@4HA
pdata	ENDS
;	COMDAT pdata
pdata	SEGMENT
$pdata$?dtor$2@?0???0D3D12Renderer@@QEAA@XZ@4HA DD imagerel ?dtor$2@?0???0D3D12Renderer@@QEAA@XZ@4HA
	DD	imagerel ?dtor$2@?0???0D3D12Renderer@@QEAA@XZ@4HA+29
	DD	imagerel $unwind$?dtor$2@?0???0D3D12Renderer@@QEAA@XZ@4HA
pdata	ENDS
;	COMDAT pdata
pdata	SEGMENT
$pdata$?dtor$3@?0???0D3D12Renderer@@QEAA@XZ@4HA DD imagerel ?dtor$3@?0???0D3D12Renderer@@QEAA@XZ@4HA
	DD	imagerel ?dtor$3@?0???0D3D12Renderer@@QEAA@XZ@4HA+29
	DD	imagerel $unwind$?dtor$3@?0???0D3D12Renderer@@QEAA@XZ@4HA
pdata	ENDS
;	COMDAT pdata
pdata	SEGMENT
$pdata$?dtor$4@?0???0D3D12Renderer@@QEAA@XZ@4HA DD imagerel ?dtor$4@?0???0D3D12Renderer@@QEAA@XZ@4HA
	DD	imagerel ?dtor$4@?0???0D3D12Renderer@@QEAA@XZ@4HA+29
	DD	imagerel $unwind$?dtor$4@?0???0D3D12Renderer@@QEAA@XZ@4HA
pdata	ENDS
;	COMDAT pdata
pdata	SEGMENT
$pdata$?dtor$5@?0???0D3D12Renderer@@QEAA@XZ@4HA DD imagerel ?dtor$5@?0???0D3D12Renderer@@QEAA@XZ@4HA
	DD	imagerel ?dtor$5@?0???0D3D12Renderer@@QEAA@XZ@4HA+29
	DD	imagerel $unwind$?dtor$5@?0???0D3D12Renderer@@QEAA@XZ@4HA
pdata	ENDS
;	COMDAT pdata
pdata	SEGMENT
$pdata$?dtor$6@?0???0D3D12Renderer@@QEAA@XZ@4HA DD imagerel ?dtor$6@?0???0D3D12Renderer@@QEAA@XZ@4HA
	DD	imagerel ?dtor$6@?0???0D3D12Renderer@@QEAA@XZ@4HA+29
	DD	imagerel $unwind$?dtor$6@?0???0D3D12Renderer@@QEAA@XZ@4HA
pdata	ENDS
;	COMDAT pdata
pdata	SEGMENT
$pdata$?dtor$7@?0???0D3D12Renderer@@QEAA@XZ@4HA DD imagerel ?dtor$7@?0???0D3D12Renderer@@QEAA@XZ@4HA
	DD	imagerel ?dtor$7@?0???0D3D12Renderer@@QEAA@XZ@4HA+29
	DD	imagerel $unwind$?dtor$7@?0???0D3D12Renderer@@QEAA@XZ@4HA
pdata	ENDS
;	COMDAT pdata
pdata	SEGMENT
$pdata$?dtor$8@?0???0D3D12Renderer@@QEAA@XZ@4HA DD imagerel ?dtor$8@?0???0D3D12Renderer@@QEAA@XZ@4HA
	DD	imagerel ?dtor$8@?0???0D3D12Renderer@@QEAA@XZ@4HA+29
	DD	imagerel $unwind$?dtor$8@?0???0D3D12Renderer@@QEAA@XZ@4HA
pdata	ENDS
;	COMDAT pdata
pdata	SEGMENT
$pdata$?dtor$9@?0???0D3D12Renderer@@QEAA@XZ@4HA DD imagerel ?dtor$9@?0???0D3D12Renderer@@QEAA@XZ@4HA
	DD	imagerel ?dtor$9@?0???0D3D12Renderer@@QEAA@XZ@4HA+29
	DD	imagerel $unwind$?dtor$9@?0???0D3D12Renderer@@QEAA@XZ@4HA
pdata	ENDS
;	COMDAT pdata
pdata	SEGMENT
$pdata$?dtor$10@?0???0D3D12Renderer@@QEAA@XZ@4HA DD imagerel ?dtor$10@?0???0D3D12Renderer@@QEAA@XZ@4HA
	DD	imagerel ?dtor$10@?0???0D3D12Renderer@@QEAA@XZ@4HA+29
	DD	imagerel $unwind$?dtor$10@?0???0D3D12Renderer@@QEAA@XZ@4HA
pdata	ENDS
;	COMDAT pdata
pdata	SEGMENT
$pdata$?Init@D3D12Renderer@@UEAAHXZ DD imagerel $LN22
	DD	imagerel $LN22+3872
	DD	imagerel $unwind$?Init@D3D12Renderer@@UEAAHXZ
pdata	ENDS
;	COMDAT pdata
pdata	SEGMENT
$pdata$?dtor$0@?0??Init@D3D12Renderer@@UEAAHXZ@4HA DD imagerel ?dtor$0@?0??Init@D3D12Renderer@@UEAAHXZ@4HA
	DD	imagerel ?dtor$0@?0??Init@D3D12Renderer@@UEAAHXZ@4HA+25
	DD	imagerel $unwind$?dtor$0@?0??Init@D3D12Renderer@@UEAAHXZ@4HA
pdata	ENDS
;	COMDAT pdata
pdata	SEGMENT
$pdata$?Shutdown@D3D12Renderer@@UEAAXXZ DD imagerel $LN3
	DD	imagerel $LN3+38
	DD	imagerel $unwind$?Shutdown@D3D12Renderer@@UEAAXXZ
pdata	ENDS
;	COMDAT pdata
pdata	SEGMENT
$pdata$?BeginFrame@D3D12Renderer@@QEAAXPEAVD3D12Scene@@@Z DD imagerel $LN14
	DD	imagerel $LN14+1395
	DD	imagerel $unwind$?BeginFrame@D3D12Renderer@@QEAAXPEAVD3D12Scene@@@Z
pdata	ENDS
;	COMDAT pdata
pdata	SEGMENT
$pdata$?dtor$0@?0??BeginFrame@D3D12Renderer@@QEAAXPEAVD3D12Scene@@@Z@4HA DD imagerel ?dtor$0@?0??BeginFrame@D3D12Renderer@@QEAAXPEAVD3D12Scene@@@Z@4HA
	DD	imagerel ?dtor$0@?0??BeginFrame@D3D12Renderer@@QEAAXPEAVD3D12Scene@@@Z@4HA+25
	DD	imagerel $unwind$?dtor$0@?0??BeginFrame@D3D12Renderer@@QEAAXPEAVD3D12Scene@@@Z@4HA
pdata	ENDS
;	COMDAT pdata
pdata	SEGMENT
$pdata$?Render@D3D12Renderer@@UEAAXPEAVD3D12Scene@@@Z DD imagerel $LN13
	DD	imagerel $LN13+3594
	DD	imagerel $unwind$?Render@D3D12Renderer@@UEAAXPEAVD3D12Scene@@@Z
pdata	ENDS
;	COMDAT pdata
pdata	SEGMENT
$pdata$?dtor$0@?0??Render@D3D12Renderer@@UEAAXPEAVD3D12Scene@@@Z@4HA DD imagerel ?dtor$0@?0??Render@D3D12Renderer@@UEAAXPEAVD3D12Scene@@@Z@4HA
	DD	imagerel ?dtor$0@?0??Render@D3D12Renderer@@UEAAXPEAVD3D12Scene@@@Z@4HA+25
	DD	imagerel $unwind$?dtor$0@?0??Render@D3D12Renderer@@UEAAXPEAVD3D12Scene@@@Z@4HA
pdata	ENDS
;	COMDAT pdata
pdata	SEGMENT
$pdata$?RenderObj@D3D12Renderer@@QEAAXXZ DD imagerel $LN3
	DD	imagerel $LN3+33
	DD	imagerel $unwind$?RenderObj@D3D12Renderer@@QEAAXXZ
pdata	ENDS
;	COMDAT pdata
pdata	SEGMENT
$pdata$?RenderScene@D3D12Renderer@@QEAAXXZ DD imagerel $LN3
	DD	imagerel $LN3+33
	DD	imagerel $unwind$?RenderScene@D3D12Renderer@@QEAAXXZ
pdata	ENDS
;	COMDAT pdata
pdata	SEGMENT
$pdata$?EndFrame@D3D12Renderer@@UEAAXXZ DD imagerel $LN3
	DD	imagerel $LN3+33
	DD	imagerel $unwind$?EndFrame@D3D12Renderer@@UEAAXXZ
pdata	ENDS
;	COMDAT pdata
pdata	SEGMENT
$pdata$?OnResize@D3D12Renderer@@QEAAXJJ@Z DD imagerel $LN3
	DD	imagerel $LN3+42
	DD	imagerel $unwind$?OnResize@D3D12Renderer@@QEAAXJJ@Z
pdata	ENDS
;	COMDAT pdata
pdata	SEGMENT
$pdata$?Update@D3D12Renderer@@QEAAXXZ DD imagerel $LN3
	DD	imagerel $LN3+33
	DD	imagerel $unwind$?Update@D3D12Renderer@@QEAAXXZ
pdata	ENDS
;	COMDAT pdata
pdata	SEGMENT
$pdata$?Signal@D3D12Renderer@@AEAA_KAEA_K@Z DD imagerel $LN3
	DD	imagerel $LN3+148
	DD	imagerel $unwind$?Signal@D3D12Renderer@@AEAA_KAEA_K@Z
pdata	ENDS
;	COMDAT pdata
pdata	SEGMENT
$pdata$?WaitForFenceValue@D3D12Renderer@@AEAAX_K@Z DD imagerel $LN4
	DD	imagerel $LN4+198
	DD	imagerel $unwind$?WaitForFenceValue@D3D12Renderer@@AEAAX_K@Z
pdata	ENDS
;	COMDAT pdata
pdata	SEGMENT
$pdata$?WaitFrame@D3D12Renderer@@AEAAXXZ DD imagerel $LN4
	DD	imagerel $LN4+354
	DD	imagerel $unwind$?WaitFrame@D3D12Renderer@@AEAAXXZ
pdata	ENDS
;	COMDAT pdata
pdata	SEGMENT
$pdata$?InternalRelease@?$ComPtr@UIDXGIFactory7@@@WRL@Microsoft@@IEAAKXZ DD imagerel $LN4
	DD	imagerel $LN4+89
	DD	imagerel $unwind$?InternalRelease@?$ComPtr@UIDXGIFactory7@@@WRL@Microsoft@@IEAAKXZ
pdata	ENDS
;	COMDAT pdata
pdata	SEGMENT
$pdata$??0?$ComPtr@UIDXGIFactory7@@@WRL@Microsoft@@QEAA@XZ DD imagerel $LN3
	DD	imagerel $LN3+48
	DD	imagerel $unwind$??0?$ComPtr@UIDXGIFactory7@@@WRL@Microsoft@@QEAA@XZ
pdata	ENDS
;	COMDAT pdata
pdata	SEGMENT
$pdata$??1?$ComPtr@UIDXGIFactory7@@@WRL@Microsoft@@QEAA@XZ DD imagerel $LN3
	DD	imagerel $LN3+42
	DD	imagerel $unwind$??1?$ComPtr@UIDXGIFactory7@@@WRL@Microsoft@@QEAA@XZ
pdata	ENDS
;	COMDAT pdata
pdata	SEGMENT
$pdata$??C?$ComPtr@UIDXGIFactory7@@@WRL@Microsoft@@QEBAPEAUIDXGIFactory7@@XZ DD imagerel $LN3
	DD	imagerel $LN3+40
	DD	imagerel $unwind$??C?$ComPtr@UIDXGIFactory7@@@WRL@Microsoft@@QEBAPEAUIDXGIFactory7@@XZ
pdata	ENDS
;	COMDAT pdata
pdata	SEGMENT
$pdata$??I?$ComPtr@UIDXGIFactory7@@@WRL@Microsoft@@QEAA?AV?$ComPtrRef@V?$ComPtr@UIDXGIFactory7@@@WRL@Microsoft@@@Details@12@XZ DD imagerel $LN3
	DD	imagerel $LN3+55
	DD	imagerel $unwind$??I?$ComPtr@UIDXGIFactory7@@@WRL@Microsoft@@QEAA?AV?$ComPtrRef@V?$ComPtr@UIDXGIFactory7@@@WRL@Microsoft@@@Details@12@XZ
pdata	ENDS
;	COMDAT pdata
pdata	SEGMENT
$pdata$?ReleaseAndGetAddressOf@?$ComPtr@UIDXGIFactory7@@@WRL@Microsoft@@QEAAPEAPEAUIDXGIFactory7@@XZ DD imagerel $LN3
	DD	imagerel $LN3+46
	DD	imagerel $unwind$?ReleaseAndGetAddressOf@?$ComPtr@UIDXGIFactory7@@@WRL@Microsoft@@QEAAPEAPEAUIDXGIFactory7@@XZ
pdata	ENDS
;	COMDAT pdata
pdata	SEGMENT
$pdata$?InternalRelease@?$ComPtr@UID3D12Device8@@@WRL@Microsoft@@IEAAKXZ DD imagerel $LN4
	DD	imagerel $LN4+89
	DD	imagerel $unwind$?InternalRelease@?$ComPtr@UID3D12Device8@@@WRL@Microsoft@@IEAAKXZ
pdata	ENDS
;	COMDAT pdata
pdata	SEGMENT
$pdata$??0?$ComPtr@UID3D12Device8@@@WRL@Microsoft@@QEAA@XZ DD imagerel $LN3
	DD	imagerel $LN3+48
	DD	imagerel $unwind$??0?$ComPtr@UID3D12Device8@@@WRL@Microsoft@@QEAA@XZ
pdata	ENDS
;	COMDAT pdata
pdata	SEGMENT
$pdata$??1?$ComPtr@UID3D12Device8@@@WRL@Microsoft@@QEAA@XZ DD imagerel $LN3
	DD	imagerel $LN3+42
	DD	imagerel $unwind$??1?$ComPtr@UID3D12Device8@@@WRL@Microsoft@@QEAA@XZ
pdata	ENDS
;	COMDAT pdata
pdata	SEGMENT
$pdata$?Get@?$ComPtr@UID3D12Device8@@@WRL@Microsoft@@QEBAPEAUID3D12Device8@@XZ DD imagerel $LN3
	DD	imagerel $LN3+40
	DD	imagerel $unwind$?Get@?$ComPtr@UID3D12Device8@@@WRL@Microsoft@@QEBAPEAUID3D12Device8@@XZ
pdata	ENDS
;	COMDAT pdata
pdata	SEGMENT
$pdata$??C?$ComPtr@UID3D12Device8@@@WRL@Microsoft@@QEBAPEAUID3D12Device8@@XZ DD imagerel $LN3
	DD	imagerel $LN3+40
	DD	imagerel $unwind$??C?$ComPtr@UID3D12Device8@@@WRL@Microsoft@@QEBAPEAUID3D12Device8@@XZ
pdata	ENDS
;	COMDAT pdata
pdata	SEGMENT
$pdata$??I?$ComPtr@UID3D12Device8@@@WRL@Microsoft@@QEAA?AV?$ComPtrRef@V?$ComPtr@UID3D12Device8@@@WRL@Microsoft@@@Details@12@XZ DD imagerel $LN3
	DD	imagerel $LN3+55
	DD	imagerel $unwind$??I?$ComPtr@UID3D12Device8@@@WRL@Microsoft@@QEAA?AV?$ComPtrRef@V?$ComPtr@UID3D12Device8@@@WRL@Microsoft@@@Details@12@XZ
pdata	ENDS
;	COMDAT pdata
pdata	SEGMENT
$pdata$?ReleaseAndGetAddressOf@?$ComPtr@UID3D12Device8@@@WRL@Microsoft@@QEAAPEAPEAUID3D12Device8@@XZ DD imagerel $LN3
	DD	imagerel $LN3+46
	DD	imagerel $unwind$?ReleaseAndGetAddressOf@?$ComPtr@UID3D12Device8@@@WRL@Microsoft@@QEAAPEAPEAUID3D12Device8@@XZ
pdata	ENDS
;	COMDAT pdata
pdata	SEGMENT
$pdata$?InternalRelease@?$ComPtr@UIDXGIAdapter1@@@WRL@Microsoft@@IEAAKXZ DD imagerel $LN4
	DD	imagerel $LN4+89
	DD	imagerel $unwind$?InternalRelease@?$ComPtr@UIDXGIAdapter1@@@WRL@Microsoft@@IEAAKXZ
pdata	ENDS
;	COMDAT pdata
pdata	SEGMENT
$pdata$??0?$ComPtr@UIDXGIAdapter1@@@WRL@Microsoft@@QEAA@XZ DD imagerel $LN3
	DD	imagerel $LN3+48
	DD	imagerel $unwind$??0?$ComPtr@UIDXGIAdapter1@@@WRL@Microsoft@@QEAA@XZ
pdata	ENDS
;	COMDAT pdata
pdata	SEGMENT
$pdata$??1?$ComPtr@UIDXGIAdapter1@@@WRL@Microsoft@@QEAA@XZ DD imagerel $LN3
	DD	imagerel $LN3+42
	DD	imagerel $unwind$??1?$ComPtr@UIDXGIAdapter1@@@WRL@Microsoft@@QEAA@XZ
pdata	ENDS
;	COMDAT pdata
pdata	SEGMENT
$pdata$??I?$ComPtr@UIDXGIAdapter1@@@WRL@Microsoft@@QEAA?AV?$ComPtrRef@V?$ComPtr@UIDXGIAdapter1@@@WRL@Microsoft@@@Details@12@XZ DD imagerel $LN3
	DD	imagerel $LN3+55
	DD	imagerel $unwind$??I?$ComPtr@UIDXGIAdapter1@@@WRL@Microsoft@@QEAA?AV?$ComPtrRef@V?$ComPtr@UIDXGIAdapter1@@@WRL@Microsoft@@@Details@12@XZ
pdata	ENDS
;	COMDAT pdata
pdata	SEGMENT
$pdata$?ReleaseAndGetAddressOf@?$ComPtr@UIDXGIAdapter1@@@WRL@Microsoft@@QEAAPEAPEAUIDXGIAdapter1@@XZ DD imagerel $LN3
	DD	imagerel $LN3+46
	DD	imagerel $unwind$?ReleaseAndGetAddressOf@?$ComPtr@UIDXGIAdapter1@@@WRL@Microsoft@@QEAAPEAPEAUIDXGIAdapter1@@XZ
pdata	ENDS
;	COMDAT pdata
pdata	SEGMENT
$pdata$?InternalRelease@?$ComPtr@UID3D12CommandAllocator@@@WRL@Microsoft@@IEAAKXZ DD imagerel $LN4
	DD	imagerel $LN4+89
	DD	imagerel $unwind$?InternalRelease@?$ComPtr@UID3D12CommandAllocator@@@WRL@Microsoft@@IEAAKXZ
pdata	ENDS
;	COMDAT pdata
pdata	SEGMENT
$pdata$??0?$ComPtr@UID3D12CommandAllocator@@@WRL@Microsoft@@QEAA@XZ DD imagerel $LN3
	DD	imagerel $LN3+48
	DD	imagerel $unwind$??0?$ComPtr@UID3D12CommandAllocator@@@WRL@Microsoft@@QEAA@XZ
pdata	ENDS
;	COMDAT pdata
pdata	SEGMENT
$pdata$??1?$ComPtr@UID3D12CommandAllocator@@@WRL@Microsoft@@QEAA@XZ DD imagerel $LN3
	DD	imagerel $LN3+42
	DD	imagerel $unwind$??1?$ComPtr@UID3D12CommandAllocator@@@WRL@Microsoft@@QEAA@XZ
pdata	ENDS
;	COMDAT pdata
pdata	SEGMENT
$pdata$?Get@?$ComPtr@UID3D12CommandAllocator@@@WRL@Microsoft@@QEBAPEAUID3D12CommandAllocator@@XZ DD imagerel $LN3
	DD	imagerel $LN3+40
	DD	imagerel $unwind$?Get@?$ComPtr@UID3D12CommandAllocator@@@WRL@Microsoft@@QEBAPEAUID3D12CommandAllocator@@XZ
pdata	ENDS
;	COMDAT pdata
pdata	SEGMENT
$pdata$??C?$ComPtr@UID3D12CommandAllocator@@@WRL@Microsoft@@QEBAPEAUID3D12CommandAllocator@@XZ DD imagerel $LN3
	DD	imagerel $LN3+40
	DD	imagerel $unwind$??C?$ComPtr@UID3D12CommandAllocator@@@WRL@Microsoft@@QEBAPEAUID3D12CommandAllocator@@XZ
pdata	ENDS
;	COMDAT pdata
pdata	SEGMENT
$pdata$??I?$ComPtr@UID3D12CommandAllocator@@@WRL@Microsoft@@QEAA?AV?$ComPtrRef@V?$ComPtr@UID3D12CommandAllocator@@@WRL@Microsoft@@@Details@12@XZ DD imagerel $LN3
	DD	imagerel $LN3+55
	DD	imagerel $unwind$??I?$ComPtr@UID3D12CommandAllocator@@@WRL@Microsoft@@QEAA?AV?$ComPtrRef@V?$ComPtr@UID3D12CommandAllocator@@@WRL@Microsoft@@@Details@12@XZ
pdata	ENDS
;	COMDAT pdata
pdata	SEGMENT
$pdata$?ReleaseAndGetAddressOf@?$ComPtr@UID3D12CommandAllocator@@@WRL@Microsoft@@QEAAPEAPEAUID3D12CommandAllocator@@XZ DD imagerel $LN3
	DD	imagerel $LN3+46
	DD	imagerel $unwind$?ReleaseAndGetAddressOf@?$ComPtr@UID3D12CommandAllocator@@@WRL@Microsoft@@QEAAPEAPEAUID3D12CommandAllocator@@XZ
pdata	ENDS
;	COMDAT pdata
pdata	SEGMENT
$pdata$?InternalAddRef@?$ComPtr@UID3D12GraphicsCommandList6@@@WRL@Microsoft@@IEBAXXZ DD imagerel $LN4
	DD	imagerel $LN4+64
	DD	imagerel $unwind$?InternalAddRef@?$ComPtr@UID3D12GraphicsCommandList6@@@WRL@Microsoft@@IEBAXXZ
pdata	ENDS
;	COMDAT pdata
pdata	SEGMENT
$pdata$?InternalRelease@?$ComPtr@UID3D12GraphicsCommandList6@@@WRL@Microsoft@@IEAAKXZ DD imagerel $LN4
	DD	imagerel $LN4+89
	DD	imagerel $unwind$?InternalRelease@?$ComPtr@UID3D12GraphicsCommandList6@@@WRL@Microsoft@@IEAAKXZ
pdata	ENDS
;	COMDAT pdata
pdata	SEGMENT
$pdata$??0?$ComPtr@UID3D12GraphicsCommandList6@@@WRL@Microsoft@@QEAA@XZ DD imagerel $LN3
	DD	imagerel $LN3+48
	DD	imagerel $unwind$??0?$ComPtr@UID3D12GraphicsCommandList6@@@WRL@Microsoft@@QEAA@XZ
pdata	ENDS
;	COMDAT pdata
pdata	SEGMENT
$pdata$??0?$ComPtr@UID3D12GraphicsCommandList6@@@WRL@Microsoft@@QEAA@AEBV012@@Z DD imagerel $LN3
	DD	imagerel $LN3+65
	DD	imagerel $unwind$??0?$ComPtr@UID3D12GraphicsCommandList6@@@WRL@Microsoft@@QEAA@AEBV012@@Z
pdata	ENDS
;	COMDAT pdata
pdata	SEGMENT
$pdata$??1?$ComPtr@UID3D12GraphicsCommandList6@@@WRL@Microsoft@@QEAA@XZ DD imagerel $LN3
	DD	imagerel $LN3+42
	DD	imagerel $unwind$??1?$ComPtr@UID3D12GraphicsCommandList6@@@WRL@Microsoft@@QEAA@XZ
pdata	ENDS
;	COMDAT pdata
pdata	SEGMENT
$pdata$?Get@?$ComPtr@UID3D12GraphicsCommandList6@@@WRL@Microsoft@@QEBAPEAUID3D12GraphicsCommandList6@@XZ DD imagerel $LN3
	DD	imagerel $LN3+40
	DD	imagerel $unwind$?Get@?$ComPtr@UID3D12GraphicsCommandList6@@@WRL@Microsoft@@QEBAPEAUID3D12GraphicsCommandList6@@XZ
pdata	ENDS
;	COMDAT pdata
pdata	SEGMENT
$pdata$??C?$ComPtr@UID3D12GraphicsCommandList6@@@WRL@Microsoft@@QEBAPEAUID3D12GraphicsCommandList6@@XZ DD imagerel $LN3
	DD	imagerel $LN3+40
	DD	imagerel $unwind$??C?$ComPtr@UID3D12GraphicsCommandList6@@@WRL@Microsoft@@QEBAPEAUID3D12GraphicsCommandList6@@XZ
pdata	ENDS
;	COMDAT pdata
pdata	SEGMENT
$pdata$??I?$ComPtr@UID3D12GraphicsCommandList6@@@WRL@Microsoft@@QEAA?AV?$ComPtrRef@V?$ComPtr@UID3D12GraphicsCommandList6@@@WRL@Microsoft@@@Details@12@XZ DD imagerel $LN3
	DD	imagerel $LN3+55
	DD	imagerel $unwind$??I?$ComPtr@UID3D12GraphicsCommandList6@@@WRL@Microsoft@@QEAA?AV?$ComPtrRef@V?$ComPtr@UID3D12GraphicsCommandList6@@@WRL@Microsoft@@@Details@12@XZ
pdata	ENDS
;	COMDAT pdata
pdata	SEGMENT
$pdata$?ReleaseAndGetAddressOf@?$ComPtr@UID3D12GraphicsCommandList6@@@WRL@Microsoft@@QEAAPEAPEAUID3D12GraphicsCommandList6@@XZ DD imagerel $LN3
	DD	imagerel $LN3+46
	DD	imagerel $unwind$?ReleaseAndGetAddressOf@?$ComPtr@UID3D12GraphicsCommandList6@@@WRL@Microsoft@@QEAAPEAPEAUID3D12GraphicsCommandList6@@XZ
pdata	ENDS
;	COMDAT pdata
pdata	SEGMENT
$pdata$?InternalRelease@?$ComPtr@UID3D12CommandQueue@@@WRL@Microsoft@@IEAAKXZ DD imagerel $LN4
	DD	imagerel $LN4+89
	DD	imagerel $unwind$?InternalRelease@?$ComPtr@UID3D12CommandQueue@@@WRL@Microsoft@@IEAAKXZ
pdata	ENDS
;	COMDAT pdata
pdata	SEGMENT
$pdata$??0?$ComPtr@UID3D12CommandQueue@@@WRL@Microsoft@@QEAA@XZ DD imagerel $LN3
	DD	imagerel $LN3+48
	DD	imagerel $unwind$??0?$ComPtr@UID3D12CommandQueue@@@WRL@Microsoft@@QEAA@XZ
pdata	ENDS
;	COMDAT pdata
pdata	SEGMENT
$pdata$??1?$ComPtr@UID3D12CommandQueue@@@WRL@Microsoft@@QEAA@XZ DD imagerel $LN3
	DD	imagerel $LN3+42
	DD	imagerel $unwind$??1?$ComPtr@UID3D12CommandQueue@@@WRL@Microsoft@@QEAA@XZ
pdata	ENDS
;	COMDAT pdata
pdata	SEGMENT
$pdata$?Get@?$ComPtr@UID3D12CommandQueue@@@WRL@Microsoft@@QEBAPEAUID3D12CommandQueue@@XZ DD imagerel $LN3
	DD	imagerel $LN3+40
	DD	imagerel $unwind$?Get@?$ComPtr@UID3D12CommandQueue@@@WRL@Microsoft@@QEBAPEAUID3D12CommandQueue@@XZ
pdata	ENDS
;	COMDAT pdata
pdata	SEGMENT
$pdata$??C?$ComPtr@UID3D12CommandQueue@@@WRL@Microsoft@@QEBAPEAUID3D12CommandQueue@@XZ DD imagerel $LN3
	DD	imagerel $LN3+40
	DD	imagerel $unwind$??C?$ComPtr@UID3D12CommandQueue@@@WRL@Microsoft@@QEBAPEAUID3D12CommandQueue@@XZ
pdata	ENDS
;	COMDAT pdata
pdata	SEGMENT
$pdata$??I?$ComPtr@UID3D12CommandQueue@@@WRL@Microsoft@@QEAA?AV?$ComPtrRef@V?$ComPtr@UID3D12CommandQueue@@@WRL@Microsoft@@@Details@12@XZ DD imagerel $LN3
	DD	imagerel $LN3+55
	DD	imagerel $unwind$??I?$ComPtr@UID3D12CommandQueue@@@WRL@Microsoft@@QEAA?AV?$ComPtrRef@V?$ComPtr@UID3D12CommandQueue@@@WRL@Microsoft@@@Details@12@XZ
pdata	ENDS
;	COMDAT pdata
pdata	SEGMENT
$pdata$?ReleaseAndGetAddressOf@?$ComPtr@UID3D12CommandQueue@@@WRL@Microsoft@@QEAAPEAPEAUID3D12CommandQueue@@XZ DD imagerel $LN3
	DD	imagerel $LN3+46
	DD	imagerel $unwind$?ReleaseAndGetAddressOf@?$ComPtr@UID3D12CommandQueue@@@WRL@Microsoft@@QEAAPEAPEAUID3D12CommandQueue@@XZ
pdata	ENDS
;	COMDAT pdata
pdata	SEGMENT
$pdata$??R?$default_delete@VDescriptorHeap@DirectX@@@std@@QEBAXPEAVDescriptorHeap@DirectX@@@Z DD imagerel $LN5
	DD	imagerel $LN5+81
	DD	imagerel $unwind$??R?$default_delete@VDescriptorHeap@DirectX@@@std@@QEBAXPEAVDescriptorHeap@DirectX@@@Z
pdata	ENDS
;	COMDAT pdata
pdata	SEGMENT
$pdata$??1?$unique_ptr@VDescriptorHeap@DirectX@@U?$default_delete@VDescriptorHeap@DirectX@@@std@@@std@@QEAA@XZ DD imagerel $LN4
	DD	imagerel $LN4+83
	DD	imagerel $unwind$??1?$unique_ptr@VDescriptorHeap@DirectX@@U?$default_delete@VDescriptorHeap@DirectX@@@std@@@std@@QEAA@XZ
pdata	ENDS
;	COMDAT pdata
pdata	SEGMENT
$pdata$??C?$unique_ptr@VDescriptorHeap@DirectX@@U?$default_delete@VDescriptorHeap@DirectX@@@std@@@std@@QEBAPEAVDescriptorHeap@DirectX@@XZ DD imagerel $LN3
	DD	imagerel $LN3+40
	DD	imagerel $unwind$??C?$unique_ptr@VDescriptorHeap@DirectX@@U?$default_delete@VDescriptorHeap@DirectX@@@std@@@std@@QEBAPEAVDescriptorHeap@DirectX@@XZ
pdata	ENDS
;	COMDAT pdata
pdata	SEGMENT
$pdata$?release@?$unique_ptr@VDescriptorHeap@DirectX@@U?$default_delete@VDescriptorHeap@DirectX@@@std@@@std@@QEAAPEAVDescriptorHeap@DirectX@@XZ DD imagerel $LN3
	DD	imagerel $LN3+57
	DD	imagerel $unwind$?release@?$unique_ptr@VDescriptorHeap@DirectX@@U?$default_delete@VDescriptorHeap@DirectX@@@std@@@std@@QEAAPEAVDescriptorHeap@DirectX@@XZ
pdata	ENDS
;	COMDAT pdata
pdata	SEGMENT
$pdata$?reset@?$unique_ptr@VDescriptorHeap@DirectX@@U?$default_delete@VDescriptorHeap@DirectX@@@std@@@std@@QEAAXPEAVDescriptorHeap@DirectX@@@Z DD imagerel $LN4
	DD	imagerel $LN4+94
	DD	imagerel $unwind$?reset@?$unique_ptr@VDescriptorHeap@DirectX@@U?$default_delete@VDescriptorHeap@DirectX@@@std@@@std@@QEAAXPEAVDescriptorHeap@DirectX@@@Z
pdata	ENDS
;	COMDAT pdata
pdata	SEGMENT
$pdata$?_Get_first@?$_Compressed_pair@U?$default_delete@VDescriptorHeap@DirectX@@@std@@PEAVDescriptorHeap@DirectX@@$00@std@@QEAAAEAU?$default_delete@VDescriptorHeap@DirectX@@@2@XZ DD imagerel $LN3
	DD	imagerel $LN3+37
	DD	imagerel $unwind$?_Get_first@?$_Compressed_pair@U?$default_delete@VDescriptorHeap@DirectX@@@std@@PEAVDescriptorHeap@DirectX@@$00@std@@QEAAAEAU?$default_delete@VDescriptorHeap@DirectX@@@2@XZ
pdata	ENDS
;	COMDAT pdata
pdata	SEGMENT
$pdata$?InternalRelease@?$ComPtr@UIDXGISwapChain4@@@WRL@Microsoft@@IEAAKXZ DD imagerel $LN4
	DD	imagerel $LN4+89
	DD	imagerel $unwind$?InternalRelease@?$ComPtr@UIDXGISwapChain4@@@WRL@Microsoft@@IEAAKXZ
pdata	ENDS
;	COMDAT pdata
pdata	SEGMENT
$pdata$??0?$ComPtr@UIDXGISwapChain4@@@WRL@Microsoft@@QEAA@XZ DD imagerel $LN3
	DD	imagerel $LN3+48
	DD	imagerel $unwind$??0?$ComPtr@UIDXGISwapChain4@@@WRL@Microsoft@@QEAA@XZ
pdata	ENDS
;	COMDAT pdata
pdata	SEGMENT
$pdata$??1?$ComPtr@UIDXGISwapChain4@@@WRL@Microsoft@@QEAA@XZ DD imagerel $LN3
	DD	imagerel $LN3+42
	DD	imagerel $unwind$??1?$ComPtr@UIDXGISwapChain4@@@WRL@Microsoft@@QEAA@XZ
pdata	ENDS
;	COMDAT pdata
pdata	SEGMENT
$pdata$??C?$ComPtr@UIDXGISwapChain4@@@WRL@Microsoft@@QEBAPEAUIDXGISwapChain4@@XZ DD imagerel $LN3
	DD	imagerel $LN3+40
	DD	imagerel $unwind$??C?$ComPtr@UIDXGISwapChain4@@@WRL@Microsoft@@QEBAPEAUIDXGISwapChain4@@XZ
pdata	ENDS
;	COMDAT pdata
pdata	SEGMENT
$pdata$??I?$ComPtr@UIDXGISwapChain4@@@WRL@Microsoft@@QEAA?AV?$ComPtrRef@V?$ComPtr@UIDXGISwapChain4@@@WRL@Microsoft@@@Details@12@XZ DD imagerel $LN3
	DD	imagerel $LN3+55
	DD	imagerel $unwind$??I?$ComPtr@UIDXGISwapChain4@@@WRL@Microsoft@@QEAA?AV?$ComPtrRef@V?$ComPtr@UIDXGISwapChain4@@@WRL@Microsoft@@@Details@12@XZ
pdata	ENDS
;	COMDAT pdata
pdata	SEGMENT
$pdata$?ReleaseAndGetAddressOf@?$ComPtr@UIDXGISwapChain4@@@WRL@Microsoft@@QEAAPEAPEAUIDXGISwapChain4@@XZ DD imagerel $LN3
	DD	imagerel $LN3+46
	DD	imagerel $unwind$?ReleaseAndGetAddressOf@?$ComPtr@UIDXGISwapChain4@@@WRL@Microsoft@@QEAAPEAPEAUIDXGISwapChain4@@XZ
pdata	ENDS
;	COMDAT pdata
pdata	SEGMENT
$pdata$?InternalRelease@?$ComPtr@UIDXGISwapChain@@@WRL@Microsoft@@IEAAKXZ DD imagerel $LN4
	DD	imagerel $LN4+89
	DD	imagerel $unwind$?InternalRelease@?$ComPtr@UIDXGISwapChain@@@WRL@Microsoft@@IEAAKXZ
pdata	ENDS
;	COMDAT pdata
pdata	SEGMENT
$pdata$??0?$ComPtr@UIDXGISwapChain@@@WRL@Microsoft@@QEAA@XZ DD imagerel $LN3
	DD	imagerel $LN3+48
	DD	imagerel $unwind$??0?$ComPtr@UIDXGISwapChain@@@WRL@Microsoft@@QEAA@XZ
pdata	ENDS
;	COMDAT pdata
pdata	SEGMENT
$pdata$??1?$ComPtr@UIDXGISwapChain@@@WRL@Microsoft@@QEAA@XZ DD imagerel $LN3
	DD	imagerel $LN3+42
	DD	imagerel $unwind$??1?$ComPtr@UIDXGISwapChain@@@WRL@Microsoft@@QEAA@XZ
pdata	ENDS
;	COMDAT pdata
pdata	SEGMENT
$pdata$??I?$ComPtr@UIDXGISwapChain@@@WRL@Microsoft@@QEAA?AV?$ComPtrRef@V?$ComPtr@UIDXGISwapChain@@@WRL@Microsoft@@@Details@12@XZ DD imagerel $LN3
	DD	imagerel $LN3+55
	DD	imagerel $unwind$??I?$ComPtr@UIDXGISwapChain@@@WRL@Microsoft@@QEAA?AV?$ComPtrRef@V?$ComPtr@UIDXGISwapChain@@@WRL@Microsoft@@@Details@12@XZ
pdata	ENDS
;	COMDAT pdata
pdata	SEGMENT
$pdata$?ReleaseAndGetAddressOf@?$ComPtr@UIDXGISwapChain@@@WRL@Microsoft@@QEAAPEAPEAUIDXGISwapChain@@XZ DD imagerel $LN3
	DD	imagerel $LN3+46
	DD	imagerel $unwind$?ReleaseAndGetAddressOf@?$ComPtr@UIDXGISwapChain@@@WRL@Microsoft@@QEAAPEAPEAUIDXGISwapChain@@XZ
pdata	ENDS
;	COMDAT pdata
pdata	SEGMENT
$pdata$?InternalRelease@?$ComPtr@UID3D12Fence@@@WRL@Microsoft@@IEAAKXZ DD imagerel $LN4
	DD	imagerel $LN4+89
	DD	imagerel $unwind$?InternalRelease@?$ComPtr@UID3D12Fence@@@WRL@Microsoft@@IEAAKXZ
pdata	ENDS
;	COMDAT pdata
pdata	SEGMENT
$pdata$??0?$ComPtr@UID3D12Fence@@@WRL@Microsoft@@QEAA@XZ DD imagerel $LN3
	DD	imagerel $LN3+48
	DD	imagerel $unwind$??0?$ComPtr@UID3D12Fence@@@WRL@Microsoft@@QEAA@XZ
pdata	ENDS
;	COMDAT pdata
pdata	SEGMENT
$pdata$?Get@?$ComPtr@UID3D12Fence@@@WRL@Microsoft@@QEBAPEAUID3D12Fence@@XZ DD imagerel $LN3
	DD	imagerel $LN3+40
	DD	imagerel $unwind$?Get@?$ComPtr@UID3D12Fence@@@WRL@Microsoft@@QEBAPEAUID3D12Fence@@XZ
pdata	ENDS
;	COMDAT pdata
pdata	SEGMENT
$pdata$??C?$ComPtr@UID3D12Fence@@@WRL@Microsoft@@QEBAPEAUID3D12Fence@@XZ DD imagerel $LN3
	DD	imagerel $LN3+40
	DD	imagerel $unwind$??C?$ComPtr@UID3D12Fence@@@WRL@Microsoft@@QEBAPEAUID3D12Fence@@XZ
pdata	ENDS
;	COMDAT pdata
pdata	SEGMENT
$pdata$??I?$ComPtr@UID3D12Fence@@@WRL@Microsoft@@QEAA?AV?$ComPtrRef@V?$ComPtr@UID3D12Fence@@@WRL@Microsoft@@@Details@12@XZ DD imagerel $LN3
	DD	imagerel $LN3+55
	DD	imagerel $unwind$??I?$ComPtr@UID3D12Fence@@@WRL@Microsoft@@QEAA?AV?$ComPtrRef@V?$ComPtr@UID3D12Fence@@@WRL@Microsoft@@@Details@12@XZ
pdata	ENDS
;	COMDAT pdata
pdata	SEGMENT
$pdata$?ReleaseAndGetAddressOf@?$ComPtr@UID3D12Fence@@@WRL@Microsoft@@QEAAPEAPEAUID3D12Fence@@XZ DD imagerel $LN3
	DD	imagerel $LN3+46
	DD	imagerel $unwind$?ReleaseAndGetAddressOf@?$ComPtr@UID3D12Fence@@@WRL@Microsoft@@QEAAPEAPEAUID3D12Fence@@XZ
pdata	ENDS
;	COMDAT pdata
pdata	SEGMENT
$pdata$??R?$default_delete@V?$D3D12UploadBufferResource@UD3D12PassConstants@@@@@std@@QEBAXPEAV?$D3D12UploadBufferResource@UD3D12PassConstants@@@@@Z DD imagerel $LN5
	DD	imagerel $LN5+81
	DD	imagerel $unwind$??R?$default_delete@V?$D3D12UploadBufferResource@UD3D12PassConstants@@@@@std@@QEBAXPEAV?$D3D12UploadBufferResource@UD3D12PassConstants@@@@@Z
pdata	ENDS
;	COMDAT pdata
pdata	SEGMENT
$pdata$??1?$unique_ptr@V?$D3D12UploadBufferResource@UD3D12PassConstants@@@@U?$default_delete@V?$D3D12UploadBufferResource@UD3D12PassConstants@@@@@std@@@std@@QEAA@XZ DD imagerel $LN4
	DD	imagerel $LN4+83
	DD	imagerel $unwind$??1?$unique_ptr@V?$D3D12UploadBufferResource@UD3D12PassConstants@@@@U?$default_delete@V?$D3D12UploadBufferResource@UD3D12PassConstants@@@@@std@@@std@@QEAA@XZ
pdata	ENDS
;	COMDAT pdata
pdata	SEGMENT
$pdata$??C?$unique_ptr@V?$D3D12UploadBufferResource@UD3D12PassConstants@@@@U?$default_delete@V?$D3D12UploadBufferResource@UD3D12PassConstants@@@@@std@@@std@@QEBAPEAV?$D3D12UploadBufferResource@UD3D12PassConstants@@@@XZ DD imagerel $LN3
	DD	imagerel $LN3+40
	DD	imagerel $unwind$??C?$unique_ptr@V?$D3D12UploadBufferResource@UD3D12PassConstants@@@@U?$default_delete@V?$D3D12UploadBufferResource@UD3D12PassConstants@@@@@std@@@std@@QEBAPEAV?$D3D12UploadBufferResource@UD3D12PassConstants@@@@XZ
pdata	ENDS
;	COMDAT pdata
pdata	SEGMENT
$pdata$?release@?$unique_ptr@V?$D3D12UploadBufferResource@UD3D12PassConstants@@@@U?$default_delete@V?$D3D12UploadBufferResource@UD3D12PassConstants@@@@@std@@@std@@QEAAPEAV?$D3D12UploadBufferResource@UD3D12PassConstants@@@@XZ DD imagerel $LN3
	DD	imagerel $LN3+57
	DD	imagerel $unwind$?release@?$unique_ptr@V?$D3D12UploadBufferResource@UD3D12PassConstants@@@@U?$default_delete@V?$D3D12UploadBufferResource@UD3D12PassConstants@@@@@std@@@std@@QEAAPEAV?$D3D12UploadBufferResource@UD3D12PassConstants@@@@XZ
pdata	ENDS
;	COMDAT pdata
pdata	SEGMENT
$pdata$?reset@?$unique_ptr@V?$D3D12UploadBufferResource@UD3D12PassConstants@@@@U?$default_delete@V?$D3D12UploadBufferResource@UD3D12PassConstants@@@@@std@@@std@@QEAAXPEAV?$D3D12UploadBufferResource@UD3D12PassConstants@@@@@Z DD imagerel $LN4
	DD	imagerel $LN4+94
	DD	imagerel $unwind$?reset@?$unique_ptr@V?$D3D12UploadBufferResource@UD3D12PassConstants@@@@U?$default_delete@V?$D3D12UploadBufferResource@UD3D12PassConstants@@@@@std@@@std@@QEAAXPEAV?$D3D12UploadBufferResource@UD3D12PassConstants@@@@@Z
pdata	ENDS
;	COMDAT pdata
pdata	SEGMENT
$pdata$?_Get_first@?$_Compressed_pair@U?$default_delete@V?$D3D12UploadBufferResource@UD3D12PassConstants@@@@@std@@PEAV?$D3D12UploadBufferResource@UD3D12PassConstants@@@@$00@std@@QEAAAEAU?$default_delete@V?$D3D12UploadBufferResource@UD3D12PassConstants@@@@@2@XZ DD imagerel $LN3
	DD	imagerel $LN3+37
	DD	imagerel $unwind$?_Get_first@?$_Compressed_pair@U?$default_delete@V?$D3D12UploadBufferResource@UD3D12PassConstants@@@@@std@@PEAV?$D3D12UploadBufferResource@UD3D12PassConstants@@@@$00@std@@QEAAAEAU?$default_delete@V?$D3D12UploadBufferResource@UD3D12PassConstants@@@@@2@XZ
pdata	ENDS
;	COMDAT pdata
pdata	SEGMENT
$pdata$??$?4U?$default_delete@VDescriptorHeap@DirectX@@@std@@$0A@@?$unique_ptr@VDescriptorHeap@DirectX@@U?$default_delete@VDescriptorHeap@DirectX@@@std@@@std@@QEAAAEAV01@$$QEAV01@@Z DD imagerel $LN3
	DD	imagerel $LN3+87
	DD	imagerel $unwind$??$?4U?$default_delete@VDescriptorHeap@DirectX@@@std@@$0A@@?$unique_ptr@VDescriptorHeap@DirectX@@U?$default_delete@VDescriptorHeap@DirectX@@@std@@@std@@QEAAAEAV01@$$QEAV01@@Z
pdata	ENDS
;	COMDAT pdata
pdata	SEGMENT
$pdata$??$?4U?$default_delete@V?$D3D12UploadBufferResource@UD3D12PassConstants@@@@@std@@$0A@@?$unique_ptr@V?$D3D12UploadBufferResource@UD3D12PassConstants@@@@U?$default_delete@V?$D3D12UploadBufferResource@UD3D12PassConstants@@@@@std@@@std@@QEAAAEAV01@$$QEAV01@@Z DD imagerel $LN3
	DD	imagerel $LN3+87
	DD	imagerel $unwind$??$?4U?$default_delete@V?$D3D12UploadBufferResource@UD3D12PassConstants@@@@@std@@$0A@@?$unique_ptr@V?$D3D12UploadBufferResource@UD3D12PassConstants@@@@U?$default_delete@V?$D3D12UploadBufferResource@UD3D12PassConstants@@@@@std@@@std@@QEAAAEAV01@$$QEAV01@@Z
pdata	ENDS
;	COMDAT pdata
pdata	SEGMENT
$pdata$?GetResource@?$D3D12UploadBufferResource@UXMMATRIX@DirectX@@@@QEAAPEAUID3D12Resource@@XZ DD imagerel $LN3
	DD	imagerel $LN3+49
	DD	imagerel $unwind$?GetResource@?$D3D12UploadBufferResource@UXMMATRIX@DirectX@@@@QEAAPEAUID3D12Resource@@XZ
pdata	ENDS
;	COMDAT pdata
pdata	SEGMENT
$pdata$?GetResource@?$D3D12UploadBufferResource@UD3D12MaterialConstants@@@@QEAAPEAUID3D12Resource@@XZ DD imagerel $LN3
	DD	imagerel $LN3+49
	DD	imagerel $unwind$?GetResource@?$D3D12UploadBufferResource@UD3D12MaterialConstants@@@@QEAAPEAUID3D12Resource@@XZ
pdata	ENDS
;	COMDAT pdata
pdata	SEGMENT
$pdata$?deallocate@?$allocator@PEAVD3D12Model@@@std@@QEAAXQEAPEAVD3D12Model@@_K@Z DD imagerel $LN13
	DD	imagerel $LN13+196
	DD	imagerel $unwind$?deallocate@?$allocator@PEAVD3D12Model@@@std@@QEAAXQEAPEAVD3D12Model@@_K@Z
pdata	ENDS
;	COMDAT pdata
pdata	SEGMENT
$pdata$?allocate@?$allocator@PEAVD3D12Model@@@std@@QEAAPEAPEAVD3D12Model@@_K@Z DD imagerel $LN3
	DD	imagerel $LN3+55
	DD	imagerel $unwind$?allocate@?$allocator@PEAVD3D12Model@@@std@@QEAAPEAPEAVD3D12Model@@_K@Z
pdata	ENDS
;	COMDAT pdata
pdata	SEGMENT
$pdata$?max_size@?$_Default_allocator_traits@V?$allocator@PEAVD3D12Model@@@std@@@std@@SA_KAEBV?$allocator@PEAVD3D12Model@@@2@@Z DD imagerel $LN3
	DD	imagerel $LN3+43
	DD	imagerel $unwind$?max_size@?$_Default_allocator_traits@V?$allocator@PEAVD3D12Model@@@std@@@std@@SA_KAEBV?$allocator@PEAVD3D12Model@@@2@@Z
pdata	ENDS
;	COMDAT pdata
pdata	SEGMENT
$pdata$?select_on_container_copy_construction@?$_Default_allocator_traits@V?$allocator@PEAVD3D12Model@@@std@@@std@@SA?AV?$allocator@PEAVD3D12Model@@@2@AEBV32@@Z DD imagerel $LN3
	DD	imagerel $LN3+42
	DD	imagerel $unwind$?select_on_container_copy_construction@?$_Default_allocator_traits@V?$allocator@PEAVD3D12Model@@@std@@@std@@SA?AV?$allocator@PEAVD3D12Model@@@2@AEBV32@@Z
pdata	ENDS
;	COMDAT pdata
pdata	SEGMENT
$pdata$??0?$vector@PEAVD3D12Model@@V?$allocator@PEAVD3D12Model@@@std@@@std@@QEAA@AEBV01@@Z DD imagerel $LN3
	DD	imagerel $LN3+187
	DD	imagerel $unwind$??0?$vector@PEAVD3D12Model@@V?$allocator@PEAVD3D12Model@@@std@@@std@@QEAA@AEBV01@@Z
pdata	ENDS
;	COMDAT pdata
pdata	SEGMENT
$pdata$??1?$vector@PEAVD3D12Model@@V?$allocator@PEAVD3D12Model@@@std@@@std@@QEAA@XZ DD imagerel $LN3
	DD	imagerel $LN3+110
	DD	imagerel $unwind$??1?$vector@PEAVD3D12Model@@V?$allocator@PEAVD3D12Model@@@std@@@std@@QEAA@XZ
pdata	ENDS
;	COMDAT pdata
pdata	SEGMENT
$pdata$?_Unchecked_begin@?$vector@PEAVD3D12Model@@V?$allocator@PEAVD3D12Model@@@std@@@std@@QEAAPEAPEAVD3D12Model@@XZ DD imagerel $LN3
	DD	imagerel $LN3+41
	DD	imagerel $unwind$?_Unchecked_begin@?$vector@PEAVD3D12Model@@V?$allocator@PEAVD3D12Model@@@std@@@std@@QEAAPEAPEAVD3D12Model@@XZ
pdata	ENDS
;	COMDAT pdata
pdata	SEGMENT
$pdata$?_Unchecked_end@?$vector@PEAVD3D12Model@@V?$allocator@PEAVD3D12Model@@@std@@@std@@QEAAPEAPEAVD3D12Model@@XZ DD imagerel $LN3
	DD	imagerel $LN3+41
	DD	imagerel $unwind$?_Unchecked_end@?$vector@PEAVD3D12Model@@V?$allocator@PEAVD3D12Model@@@std@@@std@@QEAAPEAPEAVD3D12Model@@XZ
pdata	ENDS
;	COMDAT pdata
pdata	SEGMENT
$pdata$?max_size@?$vector@PEAVD3D12Model@@V?$allocator@PEAVD3D12Model@@@std@@@std@@QEBA_KXZ DD imagerel $LN3
	DD	imagerel $LN3+79
	DD	imagerel $unwind$?max_size@?$vector@PEAVD3D12Model@@V?$allocator@PEAVD3D12Model@@@std@@@std@@QEBA_KXZ
pdata	ENDS
;	COMDAT pdata
pdata	SEGMENT
$pdata$?_Buy_raw@?$vector@PEAVD3D12Model@@V?$allocator@PEAVD3D12Model@@@std@@@std@@AEAAX_K@Z DD imagerel $LN3
	DD	imagerel $LN3+163
	DD	imagerel $unwind$?_Buy_raw@?$vector@PEAVD3D12Model@@V?$allocator@PEAVD3D12Model@@@std@@@std@@AEAAX_K@Z
pdata	ENDS
;	COMDAT pdata
pdata	SEGMENT
$pdata$?_Buy_nonzero@?$vector@PEAVD3D12Model@@V?$allocator@PEAVD3D12Model@@@std@@@std@@AEAAX_K@Z DD imagerel $LN4
	DD	imagerel $LN4+71
	DD	imagerel $unwind$?_Buy_nonzero@?$vector@PEAVD3D12Model@@V?$allocator@PEAVD3D12Model@@@std@@@std@@AEAAX_K@Z
pdata	ENDS
;	COMDAT pdata
pdata	SEGMENT
$pdata$?_Tidy@?$vector@PEAVD3D12Model@@V?$allocator@PEAVD3D12Model@@@std@@@std@@AEAAXXZ DD imagerel $LN4
	DD	imagerel $LN4+214
	DD	imagerel $unwind$?_Tidy@?$vector@PEAVD3D12Model@@V?$allocator@PEAVD3D12Model@@@std@@@std@@AEAAXXZ
pdata	ENDS
;	COMDAT pdata
pdata	SEGMENT
$pdata$?_Xlength@?$vector@PEAVD3D12Model@@V?$allocator@PEAVD3D12Model@@@std@@@std@@CAXXZ DD imagerel $LN3
	DD	imagerel $LN3+41
	DD	imagerel $unwind$?_Xlength@?$vector@PEAVD3D12Model@@V?$allocator@PEAVD3D12Model@@@std@@@std@@CAXXZ
pdata	ENDS
;	COMDAT pdata
pdata	SEGMENT
$pdata$?_Getal@?$vector@PEAVD3D12Model@@V?$allocator@PEAVD3D12Model@@@std@@@std@@AEAAAEAV?$allocator@PEAVD3D12Model@@@2@XZ DD imagerel $LN3
	DD	imagerel $LN3+45
	DD	imagerel $unwind$?_Getal@?$vector@PEAVD3D12Model@@V?$allocator@PEAVD3D12Model@@@std@@@std@@AEAAAEAV?$allocator@PEAVD3D12Model@@@2@XZ
pdata	ENDS
;	COMDAT pdata
pdata	SEGMENT
$pdata$?_Getal@?$vector@PEAVD3D12Model@@V?$allocator@PEAVD3D12Model@@@std@@@std@@AEBAAEBV?$allocator@PEAVD3D12Model@@@2@XZ DD imagerel $LN3
	DD	imagerel $LN3+45
	DD	imagerel $unwind$?_Getal@?$vector@PEAVD3D12Model@@V?$allocator@PEAVD3D12Model@@@std@@@std@@AEBAAEBV?$allocator@PEAVD3D12Model@@@2@XZ
pdata	ENDS
;	COMDAT pdata
pdata	SEGMENT
$pdata$??0?$_Vector_val@U?$_Simple_types@PEAVD3D12Model@@@std@@@std@@QEAA@XZ DD imagerel $LN3
	DD	imagerel $LN3+82
	DD	imagerel $unwind$??0?$_Vector_val@U?$_Simple_types@PEAVD3D12Model@@@std@@@std@@QEAA@XZ
pdata	ENDS
;	COMDAT pdata
pdata	SEGMENT
$pdata$?_Get_first@?$_Compressed_pair@V?$allocator@PEAVD3D12Model@@@std@@V?$_Vector_val@U?$_Simple_types@PEAVD3D12Model@@@std@@@2@$00@std@@QEAAAEAV?$allocator@PEAVD3D12Model@@@2@XZ DD imagerel $LN3
	DD	imagerel $LN3+37
	DD	imagerel $unwind$?_Get_first@?$_Compressed_pair@V?$allocator@PEAVD3D12Model@@@std@@V?$_Vector_val@U?$_Simple_types@PEAVD3D12Model@@@std@@@2@$00@std@@QEAAAEAV?$allocator@PEAVD3D12Model@@@2@XZ
pdata	ENDS
;	COMDAT pdata
pdata	SEGMENT
$pdata$?_Get_first@?$_Compressed_pair@V?$allocator@PEAVD3D12Model@@@std@@V?$_Vector_val@U?$_Simple_types@PEAVD3D12Model@@@std@@@2@$00@std@@QEBAAEBV?$allocator@PEAVD3D12Model@@@2@XZ DD imagerel $LN3
	DD	imagerel $LN3+37
	DD	imagerel $unwind$?_Get_first@?$_Compressed_pair@V?$allocator@PEAVD3D12Model@@@std@@V?$_Vector_val@U?$_Simple_types@PEAVD3D12Model@@@std@@@2@$00@std@@QEBAAEBV?$allocator@PEAVD3D12Model@@@2@XZ
pdata	ENDS
;	COMDAT pdata
pdata	SEGMENT
$pdata$?GetModels@D3D12Scene@@QEBA?AV?$vector@PEAVD3D12Model@@V?$allocator@PEAVD3D12Model@@@std@@@std@@XZ DD imagerel $LN5
	DD	imagerel $LN5+74
	DD	imagerel $unwind$?GetModels@D3D12Scene@@QEBA?AV?$vector@PEAVD3D12Model@@V?$allocator@PEAVD3D12Model@@@std@@@std@@XZ
pdata	ENDS
;	COMDAT pdata
pdata	SEGMENT
$pdata$?GetCamera@D3D12Scene@@QEAAAEAUD3D12Camera@@XZ DD imagerel $LN3
	DD	imagerel $LN3+41
	DD	imagerel $unwind$?GetCamera@D3D12Scene@@QEAAAEAUD3D12Camera@@XZ
pdata	ENDS
;	COMDAT pdata
pdata	SEGMENT
$pdata$??$_Maklocstr@_W@std@@YAPEA_WPEBDPEA_WAEBU_Cvtvec@@@Z DD imagerel $LN12
	DD	imagerel $LN12+438
	DD	imagerel $unwind$??$_Maklocstr@_W@std@@YAPEA_WPEBDPEA_WAEBU_Cvtvec@@@Z
pdata	ENDS
;	COMDAT pdata
pdata	SEGMENT
$pdata$?_Maklocwcs@std@@YAPEA_WPEB_W@Z DD imagerel $LN4
	DD	imagerel $LN4+131
	DD	imagerel $unwind$?_Maklocwcs@std@@YAPEA_WPEB_W@Z
pdata	ENDS
;	COMDAT pdata
pdata	SEGMENT
$pdata$??$_Maklocstr@D@std@@YAPEADPEBDPEADAEBU_Cvtvec@@@Z DD imagerel $LN7
	DD	imagerel $LN7+183
	DD	imagerel $unwind$??$_Maklocstr@D@std@@YAPEADPEBDPEADAEBU_Cvtvec@@@Z
pdata	ENDS
;	COMDAT pdata
pdata	SEGMENT
$pdata$?count@?$duration@_JU?$ratio@$00$0DOI@@std@@@chrono@std@@QEBA_JXZ DD imagerel $LN3
	DD	imagerel $LN3+40
	DD	imagerel $unwind$?count@?$duration@_JU?$ratio@$00$0DOI@@std@@@chrono@std@@QEBA_JXZ
pdata	ENDS
;	COMDAT pdata
pdata	SEGMENT
$pdata$?max@?$duration@_JU?$ratio@$00$0DOI@@std@@@chrono@std@@SA?AV123@XZ DD imagerel $LN3
	DD	imagerel $LN3+59
	DD	imagerel $unwind$?max@?$duration@_JU?$ratio@$00$0DOI@@std@@@chrono@std@@SA?AV123@XZ
pdata	ENDS
;	COMDAT pdata
pdata	SEGMENT
$pdata$?max@?$duration_values@_J@chrono@std@@SA_JXZ DD imagerel $LN3
	DD	imagerel $LN3+34
	DD	imagerel $unwind$?max@?$duration_values@_J@chrono@std@@SA_JXZ
pdata	ENDS
;	COMDAT pdata
pdata	SEGMENT
$pdata$??$_Hash_representation@I@std@@YA_KAEBI@Z DD imagerel $LN3
	DD	imagerel $LN3+52
	DD	imagerel $unwind$??$_Hash_representation@I@std@@YA_KAEBI@Z
pdata	ENDS
;	COMDAT pdata
pdata	SEGMENT
$pdata$??$_Getvals@_W@?$time_get@DV?$istreambuf_iterator@DU?$char_traits@D@std@@@std@@@std@@IEAAX_WAEBV_Locinfo@1@@Z DD imagerel $LN5
	DD	imagerel $LN5+341
	DD	imagerel $unwind$??$_Getvals@_W@?$time_get@DV?$istreambuf_iterator@DU?$char_traits@D@std@@@std@@@std@@IEAAX_WAEBV_Locinfo@1@@Z
pdata	ENDS
;	COMDAT pdata
pdata	SEGMENT
$pdata$??$_Getvals@_W@?$time_get@_WV?$istreambuf_iterator@_WU?$char_traits@_W@std@@@std@@@std@@IEAAX_WAEBV_Locinfo@1@@Z DD imagerel $LN5
	DD	imagerel $LN5+341
	DD	imagerel $unwind$??$_Getvals@_W@?$time_get@_WV?$istreambuf_iterator@_WU?$char_traits@_W@std@@@std@@@std@@IEAAX_WAEBV_Locinfo@1@@Z
pdata	ENDS
;	COMDAT pdata
pdata	SEGMENT
$pdata$??$max@_K@std@@YAAEB_KAEB_K0@Z DD imagerel $LN5
	DD	imagerel $LN5+84
	DD	imagerel $unwind$??$max@_K@std@@YAAEB_KAEB_K0@Z
pdata	ENDS
;	COMDAT pdata
pdata	SEGMENT
$pdata$?GetWindowManager@DEngine@@QEAAPEAVFWindowsWindowManager@@XZ DD imagerel $LN3
	DD	imagerel $LN3+41
	DD	imagerel $unwind$?GetWindowManager@DEngine@@QEAAPEAVFWindowsWindowManager@@XZ
pdata	ENDS
;	COMDAT pdata
pdata	SEGMENT
$pdata$?Get@?$ComPtr@UID3D12PipelineState@@@WRL@Microsoft@@QEBAPEAUID3D12PipelineState@@XZ DD imagerel $LN3
	DD	imagerel $LN3+40
	DD	imagerel $unwind$?Get@?$ComPtr@UID3D12PipelineState@@@WRL@Microsoft@@QEBAPEAUID3D12PipelineState@@XZ
pdata	ENDS
;	COMDAT pdata
pdata	SEGMENT
$pdata$?Get@?$ComPtr@UID3D12RootSignature@@@WRL@Microsoft@@QEBAPEAUID3D12RootSignature@@XZ DD imagerel $LN3
	DD	imagerel $LN3+40
	DD	imagerel $unwind$?Get@?$ComPtr@UID3D12RootSignature@@@WRL@Microsoft@@QEBAPEAUID3D12RootSignature@@XZ
pdata	ENDS
;	COMDAT pdata
pdata	SEGMENT
$pdata$?TransitionResource@@YAXV?$ComPtr@UID3D12GraphicsCommandList6@@@WRL@Microsoft@@V?$ComPtr@UID3D12Resource@@@23@W4D3D12_RESOURCE_STATES@@2@Z DD imagerel $LN5
	DD	imagerel $LN5+181
	DD	imagerel $unwind$?TransitionResource@@YAXV?$ComPtr@UID3D12GraphicsCommandList6@@@WRL@Microsoft@@V?$ComPtr@UID3D12Resource@@@23@W4D3D12_RESOURCE_STATES@@2@Z
pdata	ENDS
;	COMDAT pdata
pdata	SEGMENT
$pdata$?dtor$0@?0??TransitionResource@@YAXV?$ComPtr@UID3D12GraphicsCommandList6@@@WRL@Microsoft@@V?$ComPtr@UID3D12Resource@@@23@W4D3D12_RESOURCE_STATES@@2@Z@4HA DD imagerel ?dtor$0@?0??TransitionResource@@YAXV?$ComPtr@UID3D12GraphicsCommandList6@@@WRL@Microsoft@@V?$ComPtr@UID3D12Resource@@@23@W4D3D12_RESOURCE_STATES@@2@Z@4HA
	DD	imagerel ?dtor$0@?0??TransitionResource@@YAXV?$ComPtr@UID3D12GraphicsCommandList6@@@WRL@Microsoft@@V?$ComPtr@UID3D12Resource@@@23@W4D3D12_RESOURCE_STATES@@2@Z@4HA+28
	DD	imagerel $unwind$?dtor$0@?0??TransitionResource@@YAXV?$ComPtr@UID3D12GraphicsCommandList6@@@WRL@Microsoft@@V?$ComPtr@UID3D12Resource@@@23@W4D3D12_RESOURCE_STATES@@2@Z@4HA
pdata	ENDS
;	COMDAT pdata
pdata	SEGMENT
$pdata$?dtor$1@?0??TransitionResource@@YAXV?$ComPtr@UID3D12GraphicsCommandList6@@@WRL@Microsoft@@V?$ComPtr@UID3D12Resource@@@23@W4D3D12_RESOURCE_STATES@@2@Z@4HA DD imagerel ?dtor$1@?0??TransitionResource@@YAXV?$ComPtr@UID3D12GraphicsCommandList6@@@WRL@Microsoft@@V?$ComPtr@UID3D12Resource@@@23@W4D3D12_RESOURCE_STATES@@2@Z@4HA
	DD	imagerel ?dtor$1@?0??TransitionResource@@YAXV?$ComPtr@UID3D12GraphicsCommandList6@@@WRL@Microsoft@@V?$ComPtr@UID3D12Resource@@@23@W4D3D12_RESOURCE_STATES@@2@Z@4HA+28
	DD	imagerel $unwind$?dtor$1@?0??TransitionResource@@YAXV?$ComPtr@UID3D12GraphicsCommandList6@@@WRL@Microsoft@@V?$ComPtr@UID3D12Resource@@@23@W4D3D12_RESOURCE_STATES@@2@Z@4HA
pdata	ENDS
;	COMDAT pdata
pdata	SEGMENT
$pdata$??$?0U?$default_delete@VDescriptorHeap@DirectX@@@std@@$0A@@?$unique_ptr@VDescriptorHeap@DirectX@@U?$default_delete@VDescriptorHeap@DirectX@@@std@@@std@@QEAA@XZ DD imagerel $LN3
	DD	imagerel $LN3+58
	DD	imagerel $unwind$??$?0U?$default_delete@VDescriptorHeap@DirectX@@@std@@$0A@@?$unique_ptr@VDescriptorHeap@DirectX@@U?$default_delete@VDescriptorHeap@DirectX@@@std@@@std@@QEAA@XZ
pdata	ENDS
;	COMDAT pdata
pdata	SEGMENT
$pdata$??$?0U?$default_delete@V?$D3D12UploadBufferResource@UD3D12PassConstants@@@@@std@@$0A@@?$unique_ptr@V?$D3D12UploadBufferResource@UD3D12PassConstants@@@@U?$default_delete@V?$D3D12UploadBufferResource@UD3D12PassConstants@@@@@std@@@std@@QEAA@XZ DD imagerel $LN3
	DD	imagerel $LN3+58
	DD	imagerel $unwind$??$?0U?$default_delete@V?$D3D12UploadBufferResource@UD3D12PassConstants@@@@@std@@$0A@@?$unique_ptr@V?$D3D12UploadBufferResource@UD3D12PassConstants@@@@U?$default_delete@V?$D3D12UploadBufferResource@UD3D12PassConstants@@@@@std@@@std@@QEAA@XZ
pdata	ENDS
;	COMDAT pdata
pdata	SEGMENT
$pdata$?InternalRelease@?$ComPtr@UID3D12Debug@@@WRL@Microsoft@@IEAAKXZ DD imagerel $LN4
	DD	imagerel $LN4+89
	DD	imagerel $unwind$?InternalRelease@?$ComPtr@UID3D12Debug@@@WRL@Microsoft@@IEAAKXZ
pdata	ENDS
;	COMDAT pdata
pdata	SEGMENT
$pdata$??0?$ComPtr@UID3D12Debug@@@WRL@Microsoft@@QEAA@XZ DD imagerel $LN3
	DD	imagerel $LN3+48
	DD	imagerel $unwind$??0?$ComPtr@UID3D12Debug@@@WRL@Microsoft@@QEAA@XZ
pdata	ENDS
;	COMDAT pdata
pdata	SEGMENT
$pdata$??1?$ComPtr@UID3D12Debug@@@WRL@Microsoft@@QEAA@XZ DD imagerel $LN3
	DD	imagerel $LN3+42
	DD	imagerel $unwind$??1?$ComPtr@UID3D12Debug@@@WRL@Microsoft@@QEAA@XZ
pdata	ENDS
;	COMDAT pdata
pdata	SEGMENT
$pdata$??C?$ComPtr@UID3D12Debug@@@WRL@Microsoft@@QEBAPEAUID3D12Debug@@XZ DD imagerel $LN3
