; Listing generated by Microsoft (R) Optimizing Compiler Version 19.38.33030.0 

include listing.inc

INCLUDELIB MSVCRTD
INCLUDELIB OLDNAMES

PUBLIC	?g_XMSinCoefficients0@DirectX@@3UXMVECTORF32@1@B ; DirectX::g_XMSinCoefficients0
PUBLIC	?g_XMSinCoefficients1@DirectX@@3UXMVECTORF32@1@B ; DirectX::g_XMSinCoefficients1
PUBLIC	?g_XMCosCoefficients0@DirectX@@3UXMVECTORF32@1@B ; DirectX::g_XMCosCoefficients0
PUBLIC	?g_XMCosCoefficients1@DirectX@@3UXMVECTORF32@1@B ; DirectX::g_XMCosCoefficients1
PUBLIC	?g_XMTanCoefficients0@DirectX@@3UXMVECTORF32@1@B ; DirectX::g_XMTanCoefficients0
PUBLIC	?g_XMTanCoefficients1@DirectX@@3UXMVECTORF32@1@B ; DirectX::g_XMTanCoefficients1
PUBLIC	?g_XMTanCoefficients2@DirectX@@3UXMVECTORF32@1@B ; DirectX::g_XMTanCoefficients2
PUBLIC	?g_XMArcCoefficients0@DirectX@@3UXMVECTORF32@1@B ; DirectX::g_XMArcCoefficients0
PUBLIC	?g_XMArcCoefficients1@DirectX@@3UXMVECTORF32@1@B ; DirectX::g_XMArcCoefficients1
PUBLIC	?g_XMATanCoefficients0@DirectX@@3UXMVECTORF32@1@B ; DirectX::g_XMATanCoefficients0
PUBLIC	?g_XMATanCoefficients1@DirectX@@3UXMVECTORF32@1@B ; DirectX::g_XMATanCoefficients1
PUBLIC	?g_XMATanEstCoefficients0@DirectX@@3UXMVECTORF32@1@B ; DirectX::g_XMATanEstCoefficients0
PUBLIC	?g_XMATanEstCoefficients1@DirectX@@3UXMVECTORF32@1@B ; DirectX::g_XMATanEstCoefficients1
PUBLIC	?g_XMTanEstCoefficients@DirectX@@3UXMVECTORF32@1@B ; DirectX::g_XMTanEstCoefficients
PUBLIC	?g_XMArcEstCoefficients@DirectX@@3UXMVECTORF32@1@B ; DirectX::g_XMArcEstCoefficients
PUBLIC	?g_XMPiConstants0@DirectX@@3UXMVECTORF32@1@B	; DirectX::g_XMPiConstants0
PUBLIC	?g_XMIdentityR0@DirectX@@3UXMVECTORF32@1@B	; DirectX::g_XMIdentityR0
PUBLIC	?g_XMIdentityR1@DirectX@@3UXMVECTORF32@1@B	; DirectX::g_XMIdentityR1
PUBLIC	?g_XMIdentityR2@DirectX@@3UXMVECTORF32@1@B	; DirectX::g_XMIdentityR2
PUBLIC	?g_XMIdentityR3@DirectX@@3UXMVECTORF32@1@B	; DirectX::g_XMIdentityR3
PUBLIC	?g_XMNegIdentityR0@DirectX@@3UXMVECTORF32@1@B	; DirectX::g_XMNegIdentityR0
PUBLIC	?g_XMNegIdentityR1@DirectX@@3UXMVECTORF32@1@B	; DirectX::g_XMNegIdentityR1
PUBLIC	?g_XMNegIdentityR2@DirectX@@3UXMVECTORF32@1@B	; DirectX::g_XMNegIdentityR2
PUBLIC	?g_XMNegIdentityR3@DirectX@@3UXMVECTORF32@1@B	; DirectX::g_XMNegIdentityR3
PUBLIC	?g_XMNegativeZero@DirectX@@3UXMVECTORU32@1@B	; DirectX::g_XMNegativeZero
PUBLIC	?g_XMNegate3@DirectX@@3UXMVECTORU32@1@B		; DirectX::g_XMNegate3
PUBLIC	?g_XMMaskXY@DirectX@@3UXMVECTORU32@1@B		; DirectX::g_XMMaskXY
PUBLIC	?g_XMMask3@DirectX@@3UXMVECTORU32@1@B		; DirectX::g_XMMask3
PUBLIC	?g_XMMaskX@DirectX@@3UXMVECTORU32@1@B		; DirectX::g_XMMaskX
PUBLIC	?g_XMMaskY@DirectX@@3UXMVECTORU32@1@B		; DirectX::g_XMMaskY
PUBLIC	?g_XMMaskZ@DirectX@@3UXMVECTORU32@1@B		; DirectX::g_XMMaskZ
PUBLIC	?g_XMMaskW@DirectX@@3UXMVECTORU32@1@B		; DirectX::g_XMMaskW
PUBLIC	?g_XMOne@DirectX@@3UXMVECTORF32@1@B		; DirectX::g_XMOne
PUBLIC	?g_XMOne3@DirectX@@3UXMVECTORF32@1@B		; DirectX::g_XMOne3
PUBLIC	?g_XMZero@DirectX@@3UXMVECTORF32@1@B		; DirectX::g_XMZero
PUBLIC	?g_XMTwo@DirectX@@3UXMVECTORF32@1@B		; DirectX::g_XMTwo
PUBLIC	?g_XMFour@DirectX@@3UXMVECTORF32@1@B		; DirectX::g_XMFour
PUBLIC	?g_XMSix@DirectX@@3UXMVECTORF32@1@B		; DirectX::g_XMSix
PUBLIC	?g_XMNegativeOne@DirectX@@3UXMVECTORF32@1@B	; DirectX::g_XMNegativeOne
PUBLIC	?g_XMOneHalf@DirectX@@3UXMVECTORF32@1@B		; DirectX::g_XMOneHalf
PUBLIC	?g_XMNegativeOneHalf@DirectX@@3UXMVECTORF32@1@B	; DirectX::g_XMNegativeOneHalf
PUBLIC	?g_XMNegativeTwoPi@DirectX@@3UXMVECTORF32@1@B	; DirectX::g_XMNegativeTwoPi
PUBLIC	?g_XMNegativePi@DirectX@@3UXMVECTORF32@1@B	; DirectX::g_XMNegativePi
PUBLIC	?g_XMHalfPi@DirectX@@3UXMVECTORF32@1@B		; DirectX::g_XMHalfPi
PUBLIC	?g_XMPi@DirectX@@3UXMVECTORF32@1@B		; DirectX::g_XMPi
PUBLIC	?g_XMReciprocalPi@DirectX@@3UXMVECTORF32@1@B	; DirectX::g_XMReciprocalPi
PUBLIC	?g_XMTwoPi@DirectX@@3UXMVECTORF32@1@B		; DirectX::g_XMTwoPi
PUBLIC	?g_XMReciprocalTwoPi@DirectX@@3UXMVECTORF32@1@B	; DirectX::g_XMReciprocalTwoPi
PUBLIC	?g_XMEpsilon@DirectX@@3UXMVECTORF32@1@B		; DirectX::g_XMEpsilon
PUBLIC	?g_XMInfinity@DirectX@@3UXMVECTORI32@1@B	; DirectX::g_XMInfinity
PUBLIC	?g_XMQNaN@DirectX@@3UXMVECTORI32@1@B		; DirectX::g_XMQNaN
PUBLIC	?g_XMQNaNTest@DirectX@@3UXMVECTORI32@1@B	; DirectX::g_XMQNaNTest
PUBLIC	?g_XMAbsMask@DirectX@@3UXMVECTORI32@1@B		; DirectX::g_XMAbsMask
PUBLIC	?g_XMFltMin@DirectX@@3UXMVECTORI32@1@B		; DirectX::g_XMFltMin
PUBLIC	?g_XMFltMax@DirectX@@3UXMVECTORI32@1@B		; DirectX::g_XMFltMax
PUBLIC	?g_XMNegOneMask@DirectX@@3UXMVECTORU32@1@B	; DirectX::g_XMNegOneMask
PUBLIC	?g_XMMaskA8R8G8B8@DirectX@@3UXMVECTORU32@1@B	; DirectX::g_XMMaskA8R8G8B8
PUBLIC	?g_XMFlipA8R8G8B8@DirectX@@3UXMVECTORU32@1@B	; DirectX::g_XMFlipA8R8G8B8
PUBLIC	?g_XMFixAA8R8G8B8@DirectX@@3UXMVECTORF32@1@B	; DirectX::g_XMFixAA8R8G8B8
PUBLIC	?g_XMNormalizeA8R8G8B8@DirectX@@3UXMVECTORF32@1@B ; DirectX::g_XMNormalizeA8R8G8B8
PUBLIC	?g_XMMaskA2B10G10R10@DirectX@@3UXMVECTORU32@1@B	; DirectX::g_XMMaskA2B10G10R10
PUBLIC	?g_XMFlipA2B10G10R10@DirectX@@3UXMVECTORU32@1@B	; DirectX::g_XMFlipA2B10G10R10
PUBLIC	?g_XMFixAA2B10G10R10@DirectX@@3UXMVECTORF32@1@B	; DirectX::g_XMFixAA2B10G10R10
PUBLIC	?g_XMNormalizeA2B10G10R10@DirectX@@3UXMVECTORF32@1@B ; DirectX::g_XMNormalizeA2B10G10R10
PUBLIC	?g_XMMaskX16Y16@DirectX@@3UXMVECTORU32@1@B	; DirectX::g_XMMaskX16Y16
PUBLIC	?g_XMFlipX16Y16@DirectX@@3UXMVECTORI32@1@B	; DirectX::g_XMFlipX16Y16
PUBLIC	?g_XMFixX16Y16@DirectX@@3UXMVECTORF32@1@B	; DirectX::g_XMFixX16Y16
PUBLIC	?g_XMNormalizeX16Y16@DirectX@@3UXMVECTORF32@1@B	; DirectX::g_XMNormalizeX16Y16
PUBLIC	?g_XMMaskX16Y16Z16W16@DirectX@@3UXMVECTORU32@1@B ; DirectX::g_XMMaskX16Y16Z16W16
PUBLIC	?g_XMFlipX16Y16Z16W16@DirectX@@3UXMVECTORI32@1@B ; DirectX::g_XMFlipX16Y16Z16W16
PUBLIC	?g_XMFixX16Y16Z16W16@DirectX@@3UXMVECTORF32@1@B	; DirectX::g_XMFixX16Y16Z16W16
PUBLIC	?g_XMNormalizeX16Y16Z16W16@DirectX@@3UXMVECTORF32@1@B ; DirectX::g_XMNormalizeX16Y16Z16W16
PUBLIC	?g_XMNoFraction@DirectX@@3UXMVECTORF32@1@B	; DirectX::g_XMNoFraction
PUBLIC	?g_XMMaskByte@DirectX@@3UXMVECTORI32@1@B	; DirectX::g_XMMaskByte
PUBLIC	?g_XMNegateX@DirectX@@3UXMVECTORF32@1@B		; DirectX::g_XMNegateX
PUBLIC	?g_XMNegateY@DirectX@@3UXMVECTORF32@1@B		; DirectX::g_XMNegateY
PUBLIC	?g_XMNegateZ@DirectX@@3UXMVECTORF32@1@B		; DirectX::g_XMNegateZ
PUBLIC	?g_XMNegateW@DirectX@@3UXMVECTORF32@1@B		; DirectX::g_XMNegateW
PUBLIC	?g_XMSelect0101@DirectX@@3UXMVECTORU32@1@B	; DirectX::g_XMSelect0101
PUBLIC	?g_XMSelect1010@DirectX@@3UXMVECTORU32@1@B	; DirectX::g_XMSelect1010
PUBLIC	?g_XMOneHalfMinusEpsilon@DirectX@@3UXMVECTORI32@1@B ; DirectX::g_XMOneHalfMinusEpsilon
PUBLIC	?g_XMSelect1000@DirectX@@3UXMVECTORU32@1@B	; DirectX::g_XMSelect1000
PUBLIC	?g_XMSelect1100@DirectX@@3UXMVECTORU32@1@B	; DirectX::g_XMSelect1100
PUBLIC	?g_XMSelect1110@DirectX@@3UXMVECTORU32@1@B	; DirectX::g_XMSelect1110
PUBLIC	?g_XMSelect1011@DirectX@@3UXMVECTORU32@1@B	; DirectX::g_XMSelect1011
PUBLIC	?g_XMFixupY16@DirectX@@3UXMVECTORF32@1@B	; DirectX::g_XMFixupY16
PUBLIC	?g_XMFixupY16W16@DirectX@@3UXMVECTORF32@1@B	; DirectX::g_XMFixupY16W16
PUBLIC	?g_XMFlipY@DirectX@@3UXMVECTORU32@1@B		; DirectX::g_XMFlipY
PUBLIC	?g_XMFlipZ@DirectX@@3UXMVECTORU32@1@B		; DirectX::g_XMFlipZ
PUBLIC	?g_XMFlipW@DirectX@@3UXMVECTORU32@1@B		; DirectX::g_XMFlipW
PUBLIC	?g_XMFlipYZ@DirectX@@3UXMVECTORU32@1@B		; DirectX::g_XMFlipYZ
PUBLIC	?g_XMFlipZW@DirectX@@3UXMVECTORU32@1@B		; DirectX::g_XMFlipZW
PUBLIC	?g_XMFlipYW@DirectX@@3UXMVECTORU32@1@B		; DirectX::g_XMFlipYW
PUBLIC	?g_XMMaskDec4@DirectX@@3UXMVECTORI32@1@B	; DirectX::g_XMMaskDec4
PUBLIC	?g_XMXorDec4@DirectX@@3UXMVECTORI32@1@B		; DirectX::g_XMXorDec4
PUBLIC	?g_XMAddUDec4@DirectX@@3UXMVECTORF32@1@B	; DirectX::g_XMAddUDec4
PUBLIC	?g_XMAddDec4@DirectX@@3UXMVECTORF32@1@B		; DirectX::g_XMAddDec4
PUBLIC	?g_XMMulDec4@DirectX@@3UXMVECTORF32@1@B		; DirectX::g_XMMulDec4
PUBLIC	?g_XMMaskByte4@DirectX@@3UXMVECTORU32@1@B	; DirectX::g_XMMaskByte4
PUBLIC	?g_XMXorByte4@DirectX@@3UXMVECTORI32@1@B	; DirectX::g_XMXorByte4
PUBLIC	?g_XMAddByte4@DirectX@@3UXMVECTORF32@1@B	; DirectX::g_XMAddByte4
PUBLIC	?g_XMFixUnsigned@DirectX@@3UXMVECTORF32@1@B	; DirectX::g_XMFixUnsigned
PUBLIC	?g_XMMaxInt@DirectX@@3UXMVECTORF32@1@B		; DirectX::g_XMMaxInt
PUBLIC	?g_XMMaxUInt@DirectX@@3UXMVECTORF32@1@B		; DirectX::g_XMMaxUInt
PUBLIC	?g_XMUnsignedFix@DirectX@@3UXMVECTORF32@1@B	; DirectX::g_XMUnsignedFix
PUBLIC	?g_XMsrgbScale@DirectX@@3UXMVECTORF32@1@B	; DirectX::g_XMsrgbScale
PUBLIC	?g_XMsrgbA@DirectX@@3UXMVECTORF32@1@B		; DirectX::g_XMsrgbA
PUBLIC	?g_XMsrgbA1@DirectX@@3UXMVECTORF32@1@B		; DirectX::g_XMsrgbA1
PUBLIC	?g_XMExponentBias@DirectX@@3UXMVECTORI32@1@B	; DirectX::g_XMExponentBias
PUBLIC	?g_XMSubnormalExponent@DirectX@@3UXMVECTORI32@1@B ; DirectX::g_XMSubnormalExponent
PUBLIC	?g_XMNumTrailing@DirectX@@3UXMVECTORI32@1@B	; DirectX::g_XMNumTrailing
PUBLIC	?g_XMMinNormal@DirectX@@3UXMVECTORI32@1@B	; DirectX::g_XMMinNormal
PUBLIC	?g_XMNegInfinity@DirectX@@3UXMVECTORU32@1@B	; DirectX::g_XMNegInfinity
PUBLIC	?g_XMNegQNaN@DirectX@@3UXMVECTORU32@1@B		; DirectX::g_XMNegQNaN
PUBLIC	?g_XMBin128@DirectX@@3UXMVECTORI32@1@B		; DirectX::g_XMBin128
PUBLIC	?g_XMBinNeg150@DirectX@@3UXMVECTORU32@1@B	; DirectX::g_XMBinNeg150
PUBLIC	?g_XM253@DirectX@@3UXMVECTORI32@1@B		; DirectX::g_XM253
PUBLIC	?g_XMExpEst1@DirectX@@3UXMVECTORF32@1@B		; DirectX::g_XMExpEst1
PUBLIC	?g_XMExpEst2@DirectX@@3UXMVECTORF32@1@B		; DirectX::g_XMExpEst2
PUBLIC	?g_XMExpEst3@DirectX@@3UXMVECTORF32@1@B		; DirectX::g_XMExpEst3
PUBLIC	?g_XMExpEst4@DirectX@@3UXMVECTORF32@1@B		; DirectX::g_XMExpEst4
PUBLIC	?g_XMExpEst5@DirectX@@3UXMVECTORF32@1@B		; DirectX::g_XMExpEst5
PUBLIC	?g_XMExpEst6@DirectX@@3UXMVECTORF32@1@B		; DirectX::g_XMExpEst6
PUBLIC	?g_XMExpEst7@DirectX@@3UXMVECTORF32@1@B		; DirectX::g_XMExpEst7
PUBLIC	?g_XMLogEst0@DirectX@@3UXMVECTORF32@1@B		; DirectX::g_XMLogEst0
PUBLIC	?g_XMLogEst1@DirectX@@3UXMVECTORF32@1@B		; DirectX::g_XMLogEst1
PUBLIC	?g_XMLogEst2@DirectX@@3UXMVECTORF32@1@B		; DirectX::g_XMLogEst2
PUBLIC	?g_XMLogEst3@DirectX@@3UXMVECTORF32@1@B		; DirectX::g_XMLogEst3
PUBLIC	?g_XMLogEst4@DirectX@@3UXMVECTORF32@1@B		; DirectX::g_XMLogEst4
PUBLIC	?g_XMLogEst5@DirectX@@3UXMVECTORF32@1@B		; DirectX::g_XMLogEst5
PUBLIC	?g_XMLogEst6@DirectX@@3UXMVECTORF32@1@B		; DirectX::g_XMLogEst6
PUBLIC	?g_XMLogEst7@DirectX@@3UXMVECTORF32@1@B		; DirectX::g_XMLogEst7
PUBLIC	?g_XMLgE@DirectX@@3UXMVECTORF32@1@B		; DirectX::g_XMLgE
PUBLIC	?g_XMInvLgE@DirectX@@3UXMVECTORF32@1@B		; DirectX::g_XMInvLgE
PUBLIC	?g_XMLg10@DirectX@@3UXMVECTORF32@1@B		; DirectX::g_XMLg10
PUBLIC	?g_XMInvLg10@DirectX@@3UXMVECTORF32@1@B		; DirectX::g_XMInvLg10
PUBLIC	?g_UByteMax@DirectX@@3UXMVECTORF32@1@B		; DirectX::g_UByteMax
PUBLIC	?g_ByteMin@DirectX@@3UXMVECTORF32@1@B		; DirectX::g_ByteMin
PUBLIC	?g_ByteMax@DirectX@@3UXMVECTORF32@1@B		; DirectX::g_ByteMax
PUBLIC	?g_ShortMin@DirectX@@3UXMVECTORF32@1@B		; DirectX::g_ShortMin
PUBLIC	?g_ShortMax@DirectX@@3UXMVECTORF32@1@B		; DirectX::g_ShortMax
PUBLIC	?g_UShortMax@DirectX@@3UXMVECTORF32@1@B		; DirectX::g_UShortMax
PUBLIC	__pobjectentryfirst
PUBLIC	__pobjectentrymid
PUBLIC	__pobjectentrylast
PUBLIC	?DefaultDelegateCheckMode@WRL@Microsoft@@3W4DelegateCheckMode@12@B ; Microsoft::WRL::DefaultDelegateCheckMode
msvcjmc	SEGMENT
__0ED14FEE_winpackagefamily@h DB 01H
__F92EF742_winapifamily@h DB 01H
__22E515EB_sdkddkver@h DB 01H
__4A250794_concurrencysal@h DB 01H
__64794009_sal@h DB 01H
__A3E7195B_vadefs@h DB 01H
__978626E5_vcruntime@h DB 01H
__73193115_excpt@h DB 01H
__EF35C9F2_stdarg@h DB 01H
__29F49F40_specstrings_undef@h DB 01H
__D0F42932_specstrings_strict@h DB 01H
__F00405FD_sdv_driverspecs@h DB 01H
__173E09CA_driverspecs@h DB 01H
__9A452361_specstrings@h DB 01H
__1B0272D9_corecrt@h DB 01H
__74484FB3_corecrt_wctype@h DB 01H
__1EC467ED_ctype@h DB 01H
__98517906_kernelspecs@h DB 01H
__D3497022_basetsd@h DB 01H
__61CC25A1_errno@h DB 01H
__4CB5F942_vcruntime_string@h DB 01H
__E4C945B4_corecrt_memcpy_s@h DB 01H
__8EAFF484_corecrt_memory@h DB 01H
__6490AEC5_corecrt_wstring@h DB 01H
__E8295E1E_string@h DB 01H
__7FCB5136_guiddef@h DB 01H
__FF8A9E11_pshpack4@h DB 01H
__D5438902_poppack@h DB 01H
__FB07E2A3_pshpack2@h DB 01H
__F6906775_pshpack8@h DB 01H
__F9415CFA_pshpack1@h DB 01H
__E58C6F1C_apiset@h DB 01H
__A5C52262_ktmtypes@h DB 01H
__FBBA8F9D_winnt@h DB 01H
__A32D3D2C_minwindef@h DB 01H
__7D798299_windef@h DB 01H
__9AE108E9_apisetcconv@h DB 01H
__9CE53D2C_minwinbase@h DB 01H
__5D0AA210_apiquery2@h DB 01H
__4DD4E726_processenv@h DB 01H
__3575CC96_fileapi@h DB 01H
__8EA220E6_fileapifromapp@h DB 01H
__BF9B31FE_debugapi@h DB 01H
__C3AFE134_utilapiset@h DB 01H
__76F69E51_handleapi@h DB 01H
__7E63D784_errhandlingapi@h DB 01H
__FFA7003C_fibersapi@h DB 01H
__8971CECF_namedpipeapi@h DB 01H
__46C9D8A6_profileapi@h DB 01H
__98D4F0A3_heapapi@h DB 01H
__50EF2A88_ioapiset@h DB 01H
__92EA1464_synchapi@h DB 01H
__A53D8AED_interlockedapi@h DB 01H
__B506CAAF_processthreadsapi@h DB 01H
__FF735694_sysinfoapi@h DB 01H
__29589789_memoryapi@h DB 01H
__E9C7A663_enclaveapi@h DB 01H
__D035F9F7_threadpoollegacyapiset@h DB 01H
__C899130C_threadpoolapiset@h DB 01H
__E0441EE7_jobapi@h DB 01H
__CEF86838_jobapi2@h DB 01H
__35AC6B9A_wow64apiset@h DB 01H
__C8AE41A5_libloaderapi@h DB 01H
__CC9E232D_securitybaseapi@h DB 01H
__C9D0C9B8_namespaceapi@h DB 01H
__30FF9CAD_systemtopologyapi@h DB 01H
__4D358795_processtopologyapi@h DB 01H
__40446D10_securityappcontainer@h DB 01H
__3A952EDF_realtimeapiset@h DB 01H
__F4865F4B_winerror@h DB 01H
__53C1BD93_timezoneapi@h DB 01H
__1FFBEDBF_winbase@h DB 01H
__43D3FA34_wingdi@h DB 01H
__D24A7391_tvout@h DB 01H
__7713A6C8_winuser@h DB 01H
__0B345F71_datetimeapi@h DB 01H
__9AC6960C_winnls@h DB 01H
__973A40A8_stringapiset@h DB 01H
__CC46FEE2_wincontypes@h DB 01H
__97D70BE1_consoleapi@h DB 01H
__27EC5E18_consoleapi2@h DB 01H
__262E342F_consoleapi3@h DB 01H
__641DCD70_wincon@h DB 01H
__5A96C7A7_verrsrc@h DB 01H
__B69C6FF2_winver@h DB 01H
__7AEB8C37_reason@h DB 01H
__59F1A8A9_winreg@h DB 01H
__EE0E2B7F_wnnc@h DB 01H
__DCDB7054_winnetwk@h DB 01H
__EDC72EEB_cderr@h DB 01H
__95F9199D_dde@h DB 01H
__66427627_ddeml@h DB 01H
__957C29A0_dlgs@h DB 01H
__12EA15AF_lzexpand@h DB 01H
__62131F15_mmsyscom@h DB 01H
__47E68D49_mciapi@h DB 01H
__5D7DD356_mmiscapi@h DB 01H
__7223D2EF_mmiscapi2@h DB 01H
__A330DBB3_playsoundapi@h DB 01H
__601B366F_mmeapi@h DB 01H
__1134ADD5_timeapi@h DB 01H
__93F2265A_joystickapi@h DB 01H
__DF6EB4E3_mmsystem@h DB 01H
__BD641FCB_nb30@h DB 01H
__DF8704F0_rpcdcep@h DB 01H
__5C6CA7BB_rpcdce@h DB 01H
__853533C4_rpcnsi@h DB 01H
__2D2406C3_rpcnterr@h DB 01H
__64521D71_rpcasync@h DB 01H
__AADCBA08_rpc@h DB 01H
__19E26CFF_shellapi@h DB 01H
__1E9F31D3_winperf@h DB 01H
__832A4112_inaddr@h DB 01H
__32C6F875_winsock@h DB 01H
__7953A3F8_bcrypt@h DB 01H
__E4169492_ncrypt@h DB 01H
__AF3DDDC3_dpapi@h DB 01H
__D1E23BF2_wincrypt@h DB 01H
__82AB4779_winefs@h DB 01H
__1FE431C9_rpcnsip@h DB 01H
__2B741F2D_rpcsal@h DB 01H
__92623256_rpcndr@h DB 01H
__9C18532E_wtypesbase@h DB 01H
__EA2E1D6D_wtypes@h DB 01H
__7DDD9F45_winioctl@h DB 01H
__E550A843_winsmcrd@h DB 01H
__9809C1BA_winscard@h DB 01H
__EA174FA4_prsht@h DB 01H
__0E1BD114_winspool@h DB 01H
__45DED006_corecrt_malloc@h DB 01H
__13F5961F_stddef@h DB 01H
__FD6DBD68_corecrt_search@h DB 01H
__E2E33A61_corecrt_wstdlib@h DB 01H
__659C5902_limits@h DB 01H
__6E5ACABA_stdlib@h DB 01H
__30B1AFDA_unknwnbase@h DB 01H
__328C1996_objidlbase@h DB 01H
__C4E06B6A_cguid@h DB 01H
__434718C5_combaseapi@h DB 01H
__DE6FDEF1_unknwn@h DB 01H
__CCE0BACC_objidl@h DB 01H
__8C7011E5_oaidl@h DB 01H
__2E0B7863_propidlbase@h DB 01H
__BF4CF2EC_coml2api@h DB 01H
__6D897344_oleidl@h DB 01H
__1129FC2C_servprov@h DB 01H
__757952E4_msxml@h DB 01H
__B1191D53_urlmon@h DB 01H
__404D1A47_propidl@h DB 01H
__A1C63593_objbase@h DB 01H
__C1B0A9CB_oleauto@h DB 01H
__24EAF61F_ole2@h DB 01H
__2B1843DA_commdlg@h DB 01H
__81DDEDE3_stralign@h DB 01H
__2134D1B4_winsvc@h DB 01H
__11C07376_mcx@h DB 01H
__577CE3E7_ime_cmodes@h DB 01H
__1E72C31E_imm@h DB 01H
__E15BF856_windows@h DB 01H
__C868A340_OCIdl@h DB 01H
__90AD1CBB_dxgicommon@h DB 01H
__DBA3F304_dxgiformat@h DB 01H
__4B98FDD9_d3dcommon@h DB 01H
__30CE95B1_d3d12sdklayers@h DB 01H
__AD50D478_d3d12@h DB 01H
__EBD162FD_dxgitype@h DB 01H
__F473F334_dxgi@h DB 01H
__3532CEB3_dxgi1_2@h DB 01H
__34F0A484_dxgi1_3@h DB 01H
__31BFB201_dxgi1_4@h DB 01H
__307DD836_dxgi1_5@h DB 01H
__323B666F_dxgi1_6@h DB 01H
__BB16330F_corecrt_math@h DB 01H
__3BF2A406_math@h DB 01H
__B9985323_float@h DB 01H
__51ADDFC3_intrin0@inl@h DB 01H
__4B899F3E_setjmp@h DB 01H
__A40231C8_mmintrin@h DB 01H
__FA77ED4C_malloc@h DB 01H
__17534AB1_xmmintrin@h DB 01H
__7231C37D_emmintrin@h DB 01H
__AD90ABF4_pmmintrin@h DB 01H
__1D49D876_tmmintrin@h DB 01H
__3472CDF5_smmintrin@h DB 01H
__51104439_nmmintrin@h DB 01H
__84ABBE77_wmmintrin@h DB 01H
__4F3FF370_zmmintrin@h DB 01H
__782B51BA_immintrin@h DB 01H
__C2E8B0FF_ammintrin@h DB 01H
__6DBF2349_intrin@h DB 01H
__19139D6C_assert@h DB 01H
__DBEA773D_stdint@h DB 01H
__85ADA900_DirectXMathConvert@inl DB 01H
__411BBCFA_DirectXMathVector@inl DB 01H
__4AFE615D_DirectXMathMatrix@inl DB 01H
__98B66FFE_DirectXMathMisc@inl DB 01H
__E6E853B5_DirectXMath@h DB 01H
__CAFE1B4D_d3d11shader@h DB 01H
__F3732788_d3d12shader@h DB 01H
__2CACEFC0_d3dcompiler@h DB 01H
__F2FF8333_hstring@h DB 01H
__4BAE0D45_inspectable@h DB 01H
__2E21A007_weakreference@h DB 01H
__ADF9C41F_activation@h DB 01H
__847F1726_roapi@h DB 01H
__0AE89165_def@h DB 01H
__84C50014_vcruntime_new@h DB 01H
__7A6EC116_vcruntime_new_debug@h DB 01H
__935DC21B_crtdbg@h DB 01H
__087FBF63_internal@h DB 01H
__F7423081_client@h DB 01H
__12FD3F40_WinString@h DB 01H
__E5B2708F_crtdefs@h DB 01H
__6F9C91B0_new@h DB 01H
__247BB969_restrictedErrorInfo@h DB 01H
__05F5D399_roerrorapi@h DB 01H
__73CE9EEE_implements@h DB 01H
__94D81D1E_ftm@h DB 01H
__5611F633_intsafe@h DB 01H
__5DD10A16_corewrappers@h DB 01H
__B8B3BDBE_module@h DB 01H
__D6FCE5BE_eventtoken@h DB 01H
__3D51D5E6_event@h DB 01H
__0691033D_wrl@h DB 01H
__B629FA8A_d3dx12@h DB 01H
__DC39B1D9_D3D12@h DB 01H
__735B63F8_xkeycheck@h DB 01H
__142C9C9C_yvals_core@h DB 01H
__BE829F50_climits DB 01H
__9A2CA802_xtr1common DB 01H
__FC9FC984_intrin0@h DB 01H
__F3EA4CCC___msvc_bit_utils@hpp DB 01H
__87335CDF_cstdint DB 01H
__3A6DBDA2_cstdlib DB 01H
__3FBCF6F4_cfloat DB 01H
__44420885_corecrt_stdio_config@h DB 01H
__AB601D8D_corecrt_wstdio@h DB 01H
__C1EC35D3_stdio@h DB 01H
__4CF83D73_cstdio DB 01H
__EF1F6BBA_corecrt_wconio@h DB 01H
__3D1D430C_corecrt_wdirect@h DB 01H
__8ECB7138_corecrt_share@h DB 01H
__DB7FEBA6_corecrt_wio@h DB 01H
__9A9F0068_corecrt_wprocess@h DB 01H
__369A9BC3_corecrt_wtime@h DB 01H
__CE789B9D_types@h DB 01H
__9901C817_stat@h DB 01H
__3FCAD62E_wchar@h DB 01H
__D673EB20_cwchar DB 01H
__595ABB90_limits DB 01H
__61229A4B_use_ansi@h DB 01H
__8C2D0B1D_yvals@h DB 01H
__9FA6670F_cstddef DB 01H
__3DF2A533_type_traits DB 01H
__89766DA4_corecrt_terminate@h DB 01H
__35BB339F_eh@h DB 01H
__7280C444_vcruntime_exception@h DB 01H
__2DED1E19_exception DB 01H
__A5D71DBC_new DB 01H
__27E192CF_xatomic@h DB 01H
__50E371A7_initializer_list DB 01H
__339AE60A_concepts DB 01H
__C3788713_compare DB 01H
__0D603829_utility DB 01H
__874288EA___msvc_iter_core@hpp DB 01H
__76FF1542_cstring DB 01H
__B7320FC0_xutility DB 01H
__A0E057FF_tuple DB 01H
__67F55BEA_xmemory DB 01H
__A0A2F5C0_xpolymorphic_allocator@h DB 01H
__C671E263___msvc_sanitizer_annotate_container@hpp DB 01H
__14F7CB70_vector DB 01H
__FBEF5BAE_Array@h DB 01H
__95B36E16_iosfwd DB 01H
__1326DD76_xstring DB 01H
__4333DAD4_cctype DB 01H
__91273182_string DB 01H
__9024636E_DarkString@h DB 01H
__ED560F7A_VertexTypes@h DB 01H
__4C7DEF31_D3D12Types@h DB 01H
__1FF1BD98_D3D12Mesh@h DB 01H
__06C34EBE_cmath DB 01H
__52656974_list DB 01H
__B566F9C5_xbit_ops@h DB 01H
__1B8E3698_xnode_handle@h DB 01H
__696C8ED8_xhash DB 01H
__3DA11C4D_unordered_map DB 01H
__93AC6E75_vcruntime_typeinfo@h DB 01H
__C7EDFCD9_typeinfo DB 01H
__4F9CF3B8_xatomic_wait@h DB 01H
__0A9237D2_time@h DB 01H
__C070D2B6_ctime DB 01H
__01F6EC81_xtimec@h DB 01H
__006CADF8_xthreads@h DB 01H
__326FE752_atomic DB 01H
__E5F4B71E_memory DB 01H
__B51A3A23_Core@h DB 01H
__98E9BF8D_TUniquePtr@h DB 01H
__EAA52A7A_D3D12Camera@h DB 01H
__68B439B4_D3D12Texture@h DB 01H
__466C4D22_D3D12Utils@h DB 01H
__45275B9D_D3D12Resource@h DB 01H
__CF36E38C_D3D12Material@h DB 01H
__E9AE02A5_D3D12Model@h DB 01H
__4C3DB073_D3D12Scene@h DB 01H
__BC1C32AF_D3D12Scene@cpp DB 01H
msvcjmc	ENDS
;	COMDAT ?DefaultDelegateCheckMode@WRL@Microsoft@@3W4DelegateCheckMode@12@B
CONST	SEGMENT
?DefaultDelegateCheckMode@WRL@Microsoft@@3W4DelegateCheckMode@12@B DD 01H ; Microsoft::WRL::DefaultDelegateCheckMode
CONST	ENDS
;	COMDAT __pobjectentrylast
minATL$__z	SEGMENT
__pobjectentrylast DQ 0000000000000000H
minATL$__z	ENDS
;	COMDAT __pobjectentrymid
minATL$__m	SEGMENT
__pobjectentrymid DQ 0000000000000000H
minATL$__m	ENDS
;	COMDAT __pobjectentryfirst
minATL$__a	SEGMENT
__pobjectentryfirst DQ 0000000000000000H
minATL$__a	ENDS
;	COMDAT ?g_UShortMax@DirectX@@3UXMVECTORF32@1@B
CONST	SEGMENT
?g_UShortMax@DirectX@@3UXMVECTORF32@1@B DD 0477fff00r ; 65535 ; DirectX::g_UShortMax
	DD	0477fff00r			; 65535
	DD	0477fff00r			; 65535
	DD	0477fff00r			; 65535
CONST	ENDS
;	COMDAT ?g_ShortMax@DirectX@@3UXMVECTORF32@1@B
CONST	SEGMENT
?g_ShortMax@DirectX@@3UXMVECTORF32@1@B DD 046fffe00r ; 32767 ; DirectX::g_ShortMax
	DD	046fffe00r			; 32767
	DD	046fffe00r			; 32767
	DD	046fffe00r			; 32767
CONST	ENDS
;	COMDAT ?g_ShortMin@DirectX@@3UXMVECTORF32@1@B
CONST	SEGMENT
?g_ShortMin@DirectX@@3UXMVECTORF32@1@B DD 0c6fffe00r ; -32767 ; DirectX::g_ShortMin
	DD	0c6fffe00r			; -32767
	DD	0c6fffe00r			; -32767
	DD	0c6fffe00r			; -32767
CONST	ENDS
;	COMDAT ?g_ByteMax@DirectX@@3UXMVECTORF32@1@B
CONST	SEGMENT
?g_ByteMax@DirectX@@3UXMVECTORF32@1@B DD 042fe0000r ; 127 ; DirectX::g_ByteMax
	DD	042fe0000r			; 127
	DD	042fe0000r			; 127
	DD	042fe0000r			; 127
CONST	ENDS
;	COMDAT ?g_ByteMin@DirectX@@3UXMVECTORF32@1@B
CONST	SEGMENT
?g_ByteMin@DirectX@@3UXMVECTORF32@1@B DD 0c2fe0000r ; -127 ; DirectX::g_ByteMin
	DD	0c2fe0000r			; -127
	DD	0c2fe0000r			; -127
	DD	0c2fe0000r			; -127
CONST	ENDS
;	COMDAT ?g_UByteMax@DirectX@@3UXMVECTORF32@1@B
CONST	SEGMENT
?g_UByteMax@DirectX@@3UXMVECTORF32@1@B DD 0437f0000r ; 255 ; DirectX::g_UByteMax
	DD	0437f0000r			; 255
	DD	0437f0000r			; 255
	DD	0437f0000r			; 255
CONST	ENDS
;	COMDAT ?g_XMInvLg10@DirectX@@3UXMVECTORF32@1@B
CONST	SEGMENT
?g_XMInvLg10@DirectX@@3UXMVECTORF32@1@B DD 03e9a209br ; 0.30103 ; DirectX::g_XMInvLg10
	DD	03e9a209br			; 0.30103
	DD	03e9a209br			; 0.30103
	DD	03e9a209br			; 0.30103
CONST	ENDS
;	COMDAT ?g_XMLg10@DirectX@@3UXMVECTORF32@1@B
CONST	SEGMENT
?g_XMLg10@DirectX@@3UXMVECTORF32@1@B DD 040549a78r ; 3.32193 ; DirectX::g_XMLg10
	DD	040549a78r			; 3.32193
	DD	040549a78r			; 3.32193
	DD	040549a78r			; 3.32193
CONST	ENDS
;	COMDAT ?g_XMInvLgE@DirectX@@3UXMVECTORF32@1@B
CONST	SEGMENT
?g_XMInvLgE@DirectX@@3UXMVECTORF32@1@B DD 03f317218r ; 0.693147 ; DirectX::g_XMInvLgE
	DD	03f317218r			; 0.693147
	DD	03f317218r			; 0.693147
	DD	03f317218r			; 0.693147
CONST	ENDS
;	COMDAT ?g_XMLgE@DirectX@@3UXMVECTORF32@1@B
CONST	SEGMENT
?g_XMLgE@DirectX@@3UXMVECTORF32@1@B DD 03fb8aa3br ; 1.4427 ; DirectX::g_XMLgE
	DD	03fb8aa3br			; 1.4427
	DD	03fb8aa3br			; 1.4427
	DD	03fb8aa3br			; 1.4427
CONST	ENDS
;	COMDAT ?g_XMLogEst7@DirectX@@3UXMVECTORF32@1@B
CONST	SEGMENT
?g_XMLogEst7@DirectX@@3UXMVECTORF32@1@B DD 0bc2d4f59r ; -0.010578 ; DirectX::g_XMLogEst7
	DD	0bc2d4f59r			; -0.010578
	DD	0bc2d4f59r			; -0.010578
	DD	0bc2d4f59r			; -0.010578
CONST	ENDS
;	COMDAT ?g_XMLogEst6@DirectX@@3UXMVECTORF32@1@B
CONST	SEGMENT
?g_XMLogEst6@DirectX@@3UXMVECTORF32@1@B DD 03d6a1405r ; 0.057148 ; DirectX::g_XMLogEst6
	DD	03d6a1405r			; 0.057148
	DD	03d6a1405r			; 0.057148
	DD	03d6a1405r			; 0.057148
CONST	ENDS
;	COMDAT ?g_XMLogEst5@DirectX@@3UXMVECTORF32@1@B
CONST	SEGMENT
?g_XMLogEst5@DirectX@@3UXMVECTORF32@1@B DD 0be153261r ; -0.1457 ; DirectX::g_XMLogEst5
	DD	0be153261r			; -0.1457
	DD	0be153261r			; -0.1457
	DD	0be153261r			; -0.1457
CONST	ENDS
;	COMDAT ?g_XMLogEst4@DirectX@@3UXMVECTORF32@1@B
CONST	SEGMENT
?g_XMLogEst4@DirectX@@3UXMVECTORF32@1@B DD 03e7e8e61r ; 0.24859 ; DirectX::g_XMLogEst4
	DD	03e7e8e61r			; 0.24859
	DD	03e7e8e61r			; 0.24859
	DD	03e7e8e61r			; 0.24859
CONST	ENDS
;	COMDAT ?g_XMLogEst3@DirectX@@3UXMVECTORF32@1@B
CONST	SEGMENT
?g_XMLogEst3@DirectX@@3UXMVECTORF32@1@B DD 0beb359der ; -0.350295 ; DirectX::g_XMLogEst3
	DD	0beb359der			; -0.350295
	DD	0beb359der			; -0.350295
	DD	0beb359der			; -0.350295
CONST	ENDS
;	COMDAT ?g_XMLogEst2@DirectX@@3UXMVECTORF32@1@B
CONST	SEGMENT
?g_XMLogEst2@DirectX@@3UXMVECTORF32@1@B DD 03ef571d2r ; 0.479384 ; DirectX::g_XMLogEst2
	DD	03ef571d2r			; 0.479384
	DD	03ef571d2r			; 0.479384
	DD	03ef571d2r			; 0.479384
CONST	ENDS
;	COMDAT ?g_XMLogEst1@DirectX@@3UXMVECTORF32@1@B
CONST	SEGMENT
?g_XMLogEst1@DirectX@@3UXMVECTORF32@1@B DD 0bf38a351r ; -0.721242 ; DirectX::g_XMLogEst1
	DD	0bf38a351r			; -0.721242
	DD	0bf38a351r			; -0.721242
	DD	0bf38a351r			; -0.721242
CONST	ENDS
;	COMDAT ?g_XMLogEst0@DirectX@@3UXMVECTORF32@1@B
CONST	SEGMENT
?g_XMLogEst0@DirectX@@3UXMVECTORF32@1@B DD 03fb8aa2ar ; 1.44269 ; DirectX::g_XMLogEst0
	DD	03fb8aa2ar			; 1.44269
	DD	03fb8aa2ar			; 1.44269
	DD	03fb8aa2ar			; 1.44269
CONST	ENDS
;	COMDAT ?g_XMExpEst7@DirectX@@3UXMVECTORF32@1@B
CONST	SEGMENT
?g_XMExpEst7@DirectX@@3UXMVECTORF32@1@B DD 0b7364261r ; -1.08635e-05 ; DirectX::g_XMExpEst7
	DD	0b7364261r			; -1.08635e-05
	DD	0b7364261r			; -1.08635e-05
	DD	0b7364261r			; -1.08635e-05
CONST	ENDS
;	COMDAT ?g_XMExpEst6@DirectX@@3UXMVECTORF32@1@B
CONST	SEGMENT
?g_XMExpEst6@DirectX@@3UXMVECTORF32@1@B DD 0391aa7d7r ; 0.000147491 ; DirectX::g_XMExpEst6
	DD	0391aa7d7r			; 0.000147491
	DD	0391aa7d7r			; 0.000147491
	DD	0391aa7d7r			; 0.000147491
CONST	ENDS
;	COMDAT ?g_XMExpEst5@DirectX@@3UXMVECTORF32@1@B
CONST	SEGMENT
?g_XMExpEst5@DirectX@@3UXMVECTORF32@1@B DD 0baae1854r ; -0.00132824 ; DirectX::g_XMExpEst5
	DD	0baae1854r			; -0.00132824
	DD	0baae1854r			; -0.00132824
	DD	0baae1854r			; -0.00132824
CONST	ENDS
;	COMDAT ?g_XMExpEst4@DirectX@@3UXMVECTORF32@1@B
CONST	SEGMENT
?g_XMExpEst4@DirectX@@3UXMVECTORF32@1@B DD 03c1d8c54r ; 0.00961598 ; DirectX::g_XMExpEst4
	DD	03c1d8c54r			; 0.00961598
	DD	03c1d8c54r			; 0.00961598
	DD	03c1d8c54r			; 0.00961598
CONST	ENDS
;	COMDAT ?g_XMExpEst3@DirectX@@3UXMVECTORF32@1@B
CONST	SEGMENT
?g_XMExpEst3@DirectX@@3UXMVECTORF32@1@B DD 0bd6357car ; -0.0555036 ; DirectX::g_XMExpEst3
	DD	0bd6357car			; -0.0555036
	DD	0bd6357car			; -0.0555036
	DD	0bd6357car			; -0.0555036
CONST	ENDS
;	COMDAT ?g_XMExpEst2@DirectX@@3UXMVECTORF32@1@B
CONST	SEGMENT
?g_XMExpEst2@DirectX@@3UXMVECTORF32@1@B DD 03e75fdedr ; 0.240226 ; DirectX::g_XMExpEst2
	DD	03e75fdedr			; 0.240226
	DD	03e75fdedr			; 0.240226
	DD	03e75fdedr			; 0.240226
CONST	ENDS
;	COMDAT ?g_XMExpEst1@DirectX@@3UXMVECTORF32@1@B
CONST	SEGMENT
?g_XMExpEst1@DirectX@@3UXMVECTORF32@1@B DD 0bf317218r ; -0.693147 ; DirectX::g_XMExpEst1
	DD	0bf317218r			; -0.693147
	DD	0bf317218r			; -0.693147
	DD	0bf317218r			; -0.693147
CONST	ENDS
;	COMDAT ?g_XM253@DirectX@@3UXMVECTORI32@1@B
CONST	SEGMENT
?g_XM253@DirectX@@3UXMVECTORI32@1@B DD 0fdH		; DirectX::g_XM253
	DD	0fdH
	DD	0fdH
	DD	0fdH
CONST	ENDS
;	COMDAT ?g_XMBinNeg150@DirectX@@3UXMVECTORU32@1@B
CONST	SEGMENT
?g_XMBinNeg150@DirectX@@3UXMVECTORU32@1@B DD 0c3160000H	; DirectX::g_XMBinNeg150
	DD	0c3160000H
	DD	0c3160000H
	DD	0c3160000H
CONST	ENDS
;	COMDAT ?g_XMBin128@DirectX@@3UXMVECTORI32@1@B
CONST	SEGMENT
?g_XMBin128@DirectX@@3UXMVECTORI32@1@B DD 043000000H	; DirectX::g_XMBin128
	DD	043000000H
	DD	043000000H
	DD	043000000H
CONST	ENDS
;	COMDAT ?g_XMNegQNaN@DirectX@@3UXMVECTORU32@1@B
CONST	SEGMENT
?g_XMNegQNaN@DirectX@@3UXMVECTORU32@1@B DD 0ffc00000H	; DirectX::g_XMNegQNaN
	DD	0ffc00000H
	DD	0ffc00000H
	DD	0ffc00000H
CONST	ENDS
;	COMDAT ?g_XMNegInfinity@DirectX@@3UXMVECTORU32@1@B
CONST	SEGMENT
?g_XMNegInfinity@DirectX@@3UXMVECTORU32@1@B DD 0ff800000H ; DirectX::g_XMNegInfinity
	DD	0ff800000H
	DD	0ff800000H
	DD	0ff800000H
CONST	ENDS
;	COMDAT ?g_XMMinNormal@DirectX@@3UXMVECTORI32@1@B
CONST	SEGMENT
?g_XMMinNormal@DirectX@@3UXMVECTORI32@1@B DD 0800000H	; DirectX::g_XMMinNormal
	DD	0800000H
	DD	0800000H
	DD	0800000H
CONST	ENDS
;	COMDAT ?g_XMNumTrailing@DirectX@@3UXMVECTORI32@1@B
CONST	SEGMENT
?g_XMNumTrailing@DirectX@@3UXMVECTORI32@1@B DD 017H	; DirectX::g_XMNumTrailing
	DD	017H
	DD	017H
	DD	017H
CONST	ENDS
;	COMDAT ?g_XMSubnormalExponent@DirectX@@3UXMVECTORI32@1@B
CONST	SEGMENT
?g_XMSubnormalExponent@DirectX@@3UXMVECTORI32@1@B DD 0ffffff82H ; DirectX::g_XMSubnormalExponent
	DD	0ffffff82H
	DD	0ffffff82H
	DD	0ffffff82H
CONST	ENDS
;	COMDAT ?g_XMExponentBias@DirectX@@3UXMVECTORI32@1@B
CONST	SEGMENT
?g_XMExponentBias@DirectX@@3UXMVECTORI32@1@B DD 07fH	; DirectX::g_XMExponentBias
	DD	07fH
	DD	07fH
	DD	07fH
CONST	ENDS
;	COMDAT ?g_XMsrgbA1@DirectX@@3UXMVECTORF32@1@B
CONST	SEGMENT
?g_XMsrgbA1@DirectX@@3UXMVECTORF32@1@B DD 03f870a3dr ; 1.055 ; DirectX::g_XMsrgbA1
	DD	03f870a3dr			; 1.055
	DD	03f870a3dr			; 1.055
	DD	03f800000r			; 1
CONST	ENDS
;	COMDAT ?g_XMsrgbA@DirectX@@3UXMVECTORF32@1@B
CONST	SEGMENT
?g_XMsrgbA@DirectX@@3UXMVECTORF32@1@B DD 03d6147aer ; 0.055 ; DirectX::g_XMsrgbA
	DD	03d6147aer			; 0.055
	DD	03d6147aer			; 0.055
	DD	000000000r			; 0
CONST	ENDS
;	COMDAT ?g_XMsrgbScale@DirectX@@3UXMVECTORF32@1@B
CONST	SEGMENT
?g_XMsrgbScale@DirectX@@3UXMVECTORF32@1@B DD 0414eb852r ; 12.92 ; DirectX::g_XMsrgbScale
	DD	0414eb852r			; 12.92
	DD	0414eb852r			; 12.92
	DD	03f800000r			; 1
CONST	ENDS
;	COMDAT ?g_XMUnsignedFix@DirectX@@3UXMVECTORF32@1@B
CONST	SEGMENT
?g_XMUnsignedFix@DirectX@@3UXMVECTORF32@1@B DD 04f000000r ; 2.14748e+09 ; DirectX::g_XMUnsignedFix
	DD	04f000000r			; 2.14748e+09
	DD	04f000000r			; 2.14748e+09
	DD	04f000000r			; 2.14748e+09
CONST	ENDS
;	COMDAT ?g_XMMaxUInt@DirectX@@3UXMVECTORF32@1@B
CONST	SEGMENT
?g_XMMaxUInt@DirectX@@3UXMVECTORF32@1@B DD 04f7fffffr ; 4.29497e+09 ; DirectX::g_XMMaxUInt
	DD	04f7fffffr			; 4.29497e+09
	DD	04f7fffffr			; 4.29497e+09
	DD	04f7fffffr			; 4.29497e+09
CONST	ENDS
;	COMDAT ?g_XMMaxInt@DirectX@@3UXMVECTORF32@1@B
CONST	SEGMENT
?g_XMMaxInt@DirectX@@3UXMVECTORF32@1@B DD 04effffffr ; 2.14748e+09 ; DirectX::g_XMMaxInt
	DD	04effffffr			; 2.14748e+09
	DD	04effffffr			; 2.14748e+09
	DD	04effffffr			; 2.14748e+09
CONST	ENDS
;	COMDAT ?g_XMFixUnsigned@DirectX@@3UXMVECTORF32@1@B
CONST	SEGMENT
?g_XMFixUnsigned@DirectX@@3UXMVECTORF32@1@B DD 04f000000r ; 2.14748e+09 ; DirectX::g_XMFixUnsigned
	DD	04f000000r			; 2.14748e+09
	DD	04f000000r			; 2.14748e+09
	DD	04f000000r			; 2.14748e+09
CONST	ENDS
;	COMDAT ?g_XMAddByte4@DirectX@@3UXMVECTORF32@1@B
CONST	SEGMENT
?g_XMAddByte4@DirectX@@3UXMVECTORF32@1@B DD 0c3000000r ; -128 ; DirectX::g_XMAddByte4
	DD	0c7000000r			; -32768
	DD	0cb000000r			; -8.38861e+06
	DD	000000000r			; 0
CONST	ENDS
;	COMDAT ?g_XMXorByte4@DirectX@@3UXMVECTORI32@1@B
CONST	SEGMENT
?g_XMXorByte4@DirectX@@3UXMVECTORI32@1@B DD 080H	; DirectX::g_XMXorByte4
	DD	08000H
	DD	0800000H
	DD	00H
CONST	ENDS
;	COMDAT ?g_XMMaskByte4@DirectX@@3UXMVECTORU32@1@B
CONST	SEGMENT
?g_XMMaskByte4@DirectX@@3UXMVECTORU32@1@B DD 0ffH	; DirectX::g_XMMaskByte4
	DD	0ff00H
	DD	0ff0000H
	DD	0ff000000H
CONST	ENDS
;	COMDAT ?g_XMMulDec4@DirectX@@3UXMVECTORF32@1@B
CONST	SEGMENT
?g_XMMulDec4@DirectX@@3UXMVECTORF32@1@B DD 03f800000r ; 1 ; DirectX::g_XMMulDec4
	DD	03a800000r			; 0.000976562
	DD	035800000r			; 9.53674e-07
	DD	030800000r			; 9.31323e-10
CONST	ENDS
;	COMDAT ?g_XMAddDec4@DirectX@@3UXMVECTORF32@1@B
CONST	SEGMENT
?g_XMAddDec4@DirectX@@3UXMVECTORF32@1@B DD 0c4000000r ; -512 ; DirectX::g_XMAddDec4
	DD	0c9000000r			; -524288
	DD	0ce000000r			; -5.36871e+08
	DD	000000000r			; 0
CONST	ENDS
;	COMDAT ?g_XMAddUDec4@DirectX@@3UXMVECTORF32@1@B
CONST	SEGMENT
?g_XMAddUDec4@DirectX@@3UXMVECTORF32@1@B DD 000000000r ; 0 ; DirectX::g_XMAddUDec4
	DD	000000000r			; 0
	DD	000000000r			; 0
	DD	04f000000r			; 2.14748e+09
CONST	ENDS
;	COMDAT ?g_XMXorDec4@DirectX@@3UXMVECTORI32@1@B
CONST	SEGMENT
?g_XMXorDec4@DirectX@@3UXMVECTORI32@1@B DD 0200H	; DirectX::g_XMXorDec4
	DD	080000H
	DD	020000000H
	DD	00H
CONST	ENDS
;	COMDAT ?g_XMMaskDec4@DirectX@@3UXMVECTORI32@1@B
CONST	SEGMENT
?g_XMMaskDec4@DirectX@@3UXMVECTORI32@1@B DD 03ffH	; DirectX::g_XMMaskDec4
	DD	0ffc00H
	DD	03ff00000H
	DD	0c0000000H
CONST	ENDS
;	COMDAT ?g_XMFlipYW@DirectX@@3UXMVECTORU32@1@B
CONST	SEGMENT
?g_XMFlipYW@DirectX@@3UXMVECTORU32@1@B DD 00H		; DirectX::g_XMFlipYW
	DD	080000000H
	DD	00H
	DD	080000000H
CONST	ENDS
;	COMDAT ?g_XMFlipZW@DirectX@@3UXMVECTORU32@1@B
CONST	SEGMENT
?g_XMFlipZW@DirectX@@3UXMVECTORU32@1@B DD 00H		; DirectX::g_XMFlipZW
	DD	00H
	DD	080000000H
	DD	080000000H
CONST	ENDS
;	COMDAT ?g_XMFlipYZ@DirectX@@3UXMVECTORU32@1@B
CONST	SEGMENT
?g_XMFlipYZ@DirectX@@3UXMVECTORU32@1@B DD 00H		; DirectX::g_XMFlipYZ
	DD	080000000H
	DD	080000000H
	DD	00H
CONST	ENDS
;	COMDAT ?g_XMFlipW@DirectX@@3UXMVECTORU32@1@B
CONST	SEGMENT
?g_XMFlipW@DirectX@@3UXMVECTORU32@1@B DD 00H		; DirectX::g_XMFlipW
	DD	00H
	DD	00H
	DD	080000000H
CONST	ENDS
;	COMDAT ?g_XMFlipZ@DirectX@@3UXMVECTORU32@1@B
CONST	SEGMENT
?g_XMFlipZ@DirectX@@3UXMVECTORU32@1@B DD 00H		; DirectX::g_XMFlipZ
	DD	00H
	DD	080000000H
	DD	00H
CONST	ENDS
;	COMDAT ?g_XMFlipY@DirectX@@3UXMVECTORU32@1@B
CONST	SEGMENT
?g_XMFlipY@DirectX@@3UXMVECTORU32@1@B DD 00H		; DirectX::g_XMFlipY
	DD	080000000H
	DD	00H
	DD	00H
CONST	ENDS
;	COMDAT ?g_XMFixupY16W16@DirectX@@3UXMVECTORF32@1@B
CONST	SEGMENT
?g_XMFixupY16W16@DirectX@@3UXMVECTORF32@1@B DD 03f800000r ; 1 ; DirectX::g_XMFixupY16W16
	DD	03f800000r			; 1
	DD	037800000r			; 1.52588e-05
	DD	037800000r			; 1.52588e-05
CONST	ENDS
;	COMDAT ?g_XMFixupY16@DirectX@@3UXMVECTORF32@1@B
CONST	SEGMENT
?g_XMFixupY16@DirectX@@3UXMVECTORF32@1@B DD 03f800000r ; 1 ; DirectX::g_XMFixupY16
	DD	037800000r			; 1.52588e-05
	DD	000000000r			; 0
	DD	000000000r			; 0
CONST	ENDS
;	COMDAT ?g_XMSelect1011@DirectX@@3UXMVECTORU32@1@B
CONST	SEGMENT
?g_XMSelect1011@DirectX@@3UXMVECTORU32@1@B DD 0ffffffffH ; DirectX::g_XMSelect1011
	DD	00H
	DD	0ffffffffH
	DD	0ffffffffH
CONST	ENDS
;	COMDAT ?g_XMSelect1110@DirectX@@3UXMVECTORU32@1@B
CONST	SEGMENT
?g_XMSelect1110@DirectX@@3UXMVECTORU32@1@B DD 0ffffffffH ; DirectX::g_XMSelect1110
	DD	0ffffffffH
	DD	0ffffffffH
	DD	00H
CONST	ENDS
;	COMDAT ?g_XMSelect1100@DirectX@@3UXMVECTORU32@1@B
CONST	SEGMENT
?g_XMSelect1100@DirectX@@3UXMVECTORU32@1@B DD 0ffffffffH ; DirectX::g_XMSelect1100
	DD	0ffffffffH
	DD	00H
	DD	00H
CONST	ENDS
;	COMDAT ?g_XMSelect1000@DirectX@@3UXMVECTORU32@1@B
CONST	SEGMENT
?g_XMSelect1000@DirectX@@3UXMVECTORU32@1@B DD 0ffffffffH ; DirectX::g_XMSelect1000
	DD	00H
	DD	00H
	DD	00H
CONST	ENDS
;	COMDAT ?g_XMOneHalfMinusEpsilon@DirectX@@3UXMVECTORI32@1@B
CONST	SEGMENT
?g_XMOneHalfMinusEpsilon@DirectX@@3UXMVECTORI32@1@B DD 03efffffdH ; DirectX::g_XMOneHalfMinusEpsilon
	DD	03efffffdH
	DD	03efffffdH
	DD	03efffffdH
CONST	ENDS
;	COMDAT ?g_XMSelect1010@DirectX@@3UXMVECTORU32@1@B
CONST	SEGMENT
?g_XMSelect1010@DirectX@@3UXMVECTORU32@1@B DD 0ffffffffH ; DirectX::g_XMSelect1010
	DD	00H
	DD	0ffffffffH
	DD	00H
CONST	ENDS
;	COMDAT ?g_XMSelect0101@DirectX@@3UXMVECTORU32@1@B
CONST	SEGMENT
?g_XMSelect0101@DirectX@@3UXMVECTORU32@1@B DD 00H	; DirectX::g_XMSelect0101
	DD	0ffffffffH
	DD	00H
	DD	0ffffffffH
CONST	ENDS
;	COMDAT ?g_XMNegateW@DirectX@@3UXMVECTORF32@1@B
CONST	SEGMENT
?g_XMNegateW@DirectX@@3UXMVECTORF32@1@B DD 03f800000r ; 1 ; DirectX::g_XMNegateW
	DD	03f800000r			; 1
	DD	03f800000r			; 1
	DD	0bf800000r			; -1
CONST	ENDS
;	COMDAT ?g_XMNegateZ@DirectX@@3UXMVECTORF32@1@B
CONST	SEGMENT
?g_XMNegateZ@DirectX@@3UXMVECTORF32@1@B DD 03f800000r ; 1 ; DirectX::g_XMNegateZ
	DD	03f800000r			; 1
	DD	0bf800000r			; -1
	DD	03f800000r			; 1
CONST	ENDS
;	COMDAT ?g_XMNegateY@DirectX@@3UXMVECTORF32@1@B
CONST	SEGMENT
?g_XMNegateY@DirectX@@3UXMVECTORF32@1@B DD 03f800000r ; 1 ; DirectX::g_XMNegateY
	DD	0bf800000r			; -1
	DD	03f800000r			; 1
	DD	03f800000r			; 1
CONST	ENDS
;	COMDAT ?g_XMNegateX@DirectX@@3UXMVECTORF32@1@B
CONST	SEGMENT
?g_XMNegateX@DirectX@@3UXMVECTORF32@1@B DD 0bf800000r ; -1 ; DirectX::g_XMNegateX
	DD	03f800000r			; 1
	DD	03f800000r			; 1
	DD	03f800000r			; 1
CONST	ENDS
;	COMDAT ?g_XMMaskByte@DirectX@@3UXMVECTORI32@1@B
CONST	SEGMENT
?g_XMMaskByte@DirectX@@3UXMVECTORI32@1@B DD 0ffH	; DirectX::g_XMMaskByte
	DD	0ffH
	DD	0ffH
	DD	0ffH
CONST	ENDS
;	COMDAT ?g_XMNoFraction@DirectX@@3UXMVECTORF32@1@B
CONST	SEGMENT
?g_XMNoFraction@DirectX@@3UXMVECTORF32@1@B DD 04b000000r ; 8.38861e+06 ; DirectX::g_XMNoFraction
	DD	04b000000r			; 8.38861e+06
	DD	04b000000r			; 8.38861e+06
	DD	04b000000r			; 8.38861e+06
CONST	ENDS
;	COMDAT ?g_XMNormalizeX16Y16Z16W16@DirectX@@3UXMVECTORF32@1@B
CONST	SEGMENT
?g_XMNormalizeX16Y16Z16W16@DirectX@@3UXMVECTORF32@1@B DD 038000100r ; 3.05185e-05 ; DirectX::g_XMNormalizeX16Y16Z16W16
	DD	038000100r			; 3.05185e-05
	DD	030000100r			; 4.65675e-10
	DD	030000100r			; 4.65675e-10
CONST	ENDS
;	COMDAT ?g_XMFixX16Y16Z16W16@DirectX@@3UXMVECTORF32@1@B
CONST	SEGMENT
?g_XMFixX16Y16Z16W16@DirectX@@3UXMVECTORF32@1@B DD 0c7000000r ; -32768 ; DirectX::g_XMFixX16Y16Z16W16
	DD	0c7000000r			; -32768
	DD	000000000r			; 0
	DD	000000000r			; 0
CONST	ENDS
;	COMDAT ?g_XMFlipX16Y16Z16W16@DirectX@@3UXMVECTORI32@1@B
CONST	SEGMENT
?g_XMFlipX16Y16Z16W16@DirectX@@3UXMVECTORI32@1@B DD 08000H ; DirectX::g_XMFlipX16Y16Z16W16
	DD	08000H
	DD	00H
	DD	00H
CONST	ENDS
;	COMDAT ?g_XMMaskX16Y16Z16W16@DirectX@@3UXMVECTORU32@1@B
CONST	SEGMENT
?g_XMMaskX16Y16Z16W16@DirectX@@3UXMVECTORU32@1@B DD 0ffffH ; DirectX::g_XMMaskX16Y16Z16W16
	DD	0ffffH
	DD	0ffff0000H
	DD	0ffff0000H
CONST	ENDS
;	COMDAT ?g_XMNormalizeX16Y16@DirectX@@3UXMVECTORF32@1@B
CONST	SEGMENT
?g_XMNormalizeX16Y16@DirectX@@3UXMVECTORF32@1@B DD 038000100r ; 3.05185e-05 ; DirectX::g_XMNormalizeX16Y16
	DD	030000100r			; 4.65675e-10
	DD	000000000r			; 0
	DD	000000000r			; 0
CONST	ENDS
;	COMDAT ?g_XMFixX16Y16@DirectX@@3UXMVECTORF32@1@B
CONST	SEGMENT
?g_XMFixX16Y16@DirectX@@3UXMVECTORF32@1@B DD 0c7000000r ; -32768 ; DirectX::g_XMFixX16Y16
	DD	000000000r			; 0
	DD	000000000r			; 0
	DD	000000000r			; 0
CONST	ENDS
;	COMDAT ?g_XMFlipX16Y16@DirectX@@3UXMVECTORI32@1@B
CONST	SEGMENT
?g_XMFlipX16Y16@DirectX@@3UXMVECTORI32@1@B DD 08000H	; DirectX::g_XMFlipX16Y16
	DD	00H
	DD	00H
	DD	00H
CONST	ENDS
;	COMDAT ?g_XMMaskX16Y16@DirectX@@3UXMVECTORU32@1@B
CONST	SEGMENT
?g_XMMaskX16Y16@DirectX@@3UXMVECTORU32@1@B DD 0ffffH	; DirectX::g_XMMaskX16Y16
	DD	0ffff0000H
	DD	00H
	DD	00H
CONST	ENDS
;	COMDAT ?g_XMNormalizeA2B10G10R10@DirectX@@3UXMVECTORF32@1@B
CONST	SEGMENT
?g_XMNormalizeA2B10G10R10@DirectX@@3UXMVECTORF32@1@B DD 03b004020r ; 0.00195695 ; DirectX::g_XMNormalizeA2B10G10R10
	DD	036004020r			; 1.91108e-06
	DD	031004020r			; 1.86629e-09
	DD	02faaaaabr			; 3.10441e-10
CONST	ENDS
;	COMDAT ?g_XMFixAA2B10G10R10@DirectX@@3UXMVECTORF32@1@B
CONST	SEGMENT
?g_XMFixAA2B10G10R10@DirectX@@3UXMVECTORF32@1@B DD 0c4000000r ; -512 ; DirectX::g_XMFixAA2B10G10R10
	DD	0c9000000r			; -524288
	DD	0ce000000r			; -5.36871e+08
	DD	04f000000r			; 2.14748e+09
CONST	ENDS
;	COMDAT ?g_XMFlipA2B10G10R10@DirectX@@3UXMVECTORU32@1@B
CONST	SEGMENT
?g_XMFlipA2B10G10R10@DirectX@@3UXMVECTORU32@1@B DD 0200H ; DirectX::g_XMFlipA2B10G10R10
	DD	080000H
	DD	020000000H
	DD	080000000H
CONST	ENDS
;	COMDAT ?g_XMMaskA2B10G10R10@DirectX@@3UXMVECTORU32@1@B
CONST	SEGMENT
?g_XMMaskA2B10G10R10@DirectX@@3UXMVECTORU32@1@B DD 03ffH ; DirectX::g_XMMaskA2B10G10R10
	DD	0ffc00H
	DD	03ff00000H
	DD	0c0000000H
CONST	ENDS
;	COMDAT ?g_XMNormalizeA8R8G8B8@DirectX@@3UXMVECTORF32@1@B
CONST	SEGMENT
?g_XMNormalizeA8R8G8B8@DirectX@@3UXMVECTORF32@1@B DD 033808081r ; 5.98384e-08 ; DirectX::g_XMNormalizeA8R8G8B8
	DD	037808081r			; 1.53186e-05
	DD	03b808081r			; 0.00392157
	DD	02f808081r			; 2.33744e-10
CONST	ENDS
;	COMDAT ?g_XMFixAA8R8G8B8@DirectX@@3UXMVECTORF32@1@B
CONST	SEGMENT
?g_XMFixAA8R8G8B8@DirectX@@3UXMVECTORF32@1@B DD 000000000r ; 0 ; DirectX::g_XMFixAA8R8G8B8
	DD	000000000r			; 0
	DD	000000000r			; 0
	DD	04f000000r			; 2.14748e+09
CONST	ENDS
;	COMDAT ?g_XMFlipA8R8G8B8@DirectX@@3UXMVECTORU32@1@B
CONST	SEGMENT
?g_XMFlipA8R8G8B8@DirectX@@3UXMVECTORU32@1@B DD 00H	; DirectX::g_XMFlipA8R8G8B8
	DD	00H
	DD	00H
	DD	080000000H
CONST	ENDS
;	COMDAT ?g_XMMaskA8R8G8B8@DirectX@@3UXMVECTORU32@1@B
CONST	SEGMENT
?g_XMMaskA8R8G8B8@DirectX@@3UXMVECTORU32@1@B DD 0ff0000H ; DirectX::g_XMMaskA8R8G8B8
	DD	0ff00H
	DD	0ffH
	DD	0ff000000H
CONST	ENDS
;	COMDAT ?g_XMNegOneMask@DirectX@@3UXMVECTORU32@1@B
CONST	SEGMENT
?g_XMNegOneMask@DirectX@@3UXMVECTORU32@1@B DD 0ffffffffH ; DirectX::g_XMNegOneMask
	DD	0ffffffffH
	DD	0ffffffffH
	DD	0ffffffffH
CONST	ENDS
;	COMDAT ?g_XMFltMax@DirectX@@3UXMVECTORI32@1@B
CONST	SEGMENT
?g_XMFltMax@DirectX@@3UXMVECTORI32@1@B DD 07f7fffffH	; DirectX::g_XMFltMax
	DD	07f7fffffH
	DD	07f7fffffH
	DD	07f7fffffH
CONST	ENDS
;	COMDAT ?g_XMFltMin@DirectX@@3UXMVECTORI32@1@B
CONST	SEGMENT
?g_XMFltMin@DirectX@@3UXMVECTORI32@1@B DD 0800000H	; DirectX::g_XMFltMin
	DD	0800000H
	DD	0800000H
	DD	0800000H
CONST	ENDS
;	COMDAT ?g_XMAbsMask@DirectX@@3UXMVECTORI32@1@B
CONST	SEGMENT
?g_XMAbsMask@DirectX@@3UXMVECTORI32@1@B DD 07fffffffH	; DirectX::g_XMAbsMask
	DD	07fffffffH
	DD	07fffffffH
	DD	07fffffffH
CONST	ENDS
;	COMDAT ?g_XMQNaNTest@DirectX@@3UXMVECTORI32@1@B
CONST	SEGMENT
?g_XMQNaNTest@DirectX@@3UXMVECTORI32@1@B DD 07fffffH	; DirectX::g_XMQNaNTest
	DD	07fffffH
	DD	07fffffH
	DD	07fffffH
CONST	ENDS
;	COMDAT ?g_XMQNaN@DirectX@@3UXMVECTORI32@1@B
CONST	SEGMENT
?g_XMQNaN@DirectX@@3UXMVECTORI32@1@B DD 07fc00000H	; DirectX::g_XMQNaN
	DD	07fc00000H
	DD	07fc00000H
	DD	07fc00000H
CONST	ENDS
;	COMDAT ?g_XMInfinity@DirectX@@3UXMVECTORI32@1@B
CONST	SEGMENT
?g_XMInfinity@DirectX@@3UXMVECTORI32@1@B DD 07f800000H	; DirectX::g_XMInfinity
	DD	07f800000H
	DD	07f800000H
	DD	07f800000H
CONST	ENDS
;	COMDAT ?g_XMEpsilon@DirectX@@3UXMVECTORF32@1@B
CONST	SEGMENT
?g_XMEpsilon@DirectX@@3UXMVECTORF32@1@B DD 034000000r ; 1.19209e-07 ; DirectX::g_XMEpsilon
	DD	034000000r			; 1.19209e-07
	DD	034000000r			; 1.19209e-07
	DD	034000000r			; 1.19209e-07
CONST	ENDS
;	COMDAT ?g_XMReciprocalTwoPi@DirectX@@3UXMVECTORF32@1@B
CONST	SEGMENT
?g_XMReciprocalTwoPi@DirectX@@3UXMVECTORF32@1@B DD 03e22f983r ; 0.159155 ; DirectX::g_XMReciprocalTwoPi
	DD	03e22f983r			; 0.159155
	DD	03e22f983r			; 0.159155
	DD	03e22f983r			; 0.159155
CONST	ENDS
;	COMDAT ?g_XMTwoPi@DirectX@@3UXMVECTORF32@1@B
CONST	SEGMENT
?g_XMTwoPi@DirectX@@3UXMVECTORF32@1@B DD 040c90fdbr ; 6.28319 ; DirectX::g_XMTwoPi
	DD	040c90fdbr			; 6.28319
	DD	040c90fdbr			; 6.28319
	DD	040c90fdbr			; 6.28319
CONST	ENDS
;	COMDAT ?g_XMReciprocalPi@DirectX@@3UXMVECTORF32@1@B
CONST	SEGMENT
?g_XMReciprocalPi@DirectX@@3UXMVECTORF32@1@B DD 03ea2f983r ; 0.31831 ; DirectX::g_XMReciprocalPi
	DD	03ea2f983r			; 0.31831
	DD	03ea2f983r			; 0.31831
	DD	03ea2f983r			; 0.31831
CONST	ENDS
;	COMDAT ?g_XMPi@DirectX@@3UXMVECTORF32@1@B
CONST	SEGMENT
?g_XMPi@DirectX@@3UXMVECTORF32@1@B DD 040490fdbr ; 3.14159 ; DirectX::g_XMPi
	DD	040490fdbr			; 3.14159
	DD	040490fdbr			; 3.14159
	DD	040490fdbr			; 3.14159
CONST	ENDS
;	COMDAT ?g_XMHalfPi@DirectX@@3UXMVECTORF32@1@B
CONST	SEGMENT
?g_XMHalfPi@DirectX@@3UXMVECTORF32@1@B DD 03fc90fdbr ; 1.5708 ; DirectX::g_XMHalfPi
	DD	03fc90fdbr			; 1.5708
	DD	03fc90fdbr			; 1.5708
	DD	03fc90fdbr			; 1.5708
CONST	ENDS
;	COMDAT ?g_XMNegativePi@DirectX@@3UXMVECTORF32@1@B
CONST	SEGMENT
?g_XMNegativePi@DirectX@@3UXMVECTORF32@1@B DD 0c0490fdbr ; -3.14159 ; DirectX::g_XMNegativePi
	DD	0c0490fdbr			; -3.14159
	DD	0c0490fdbr			; -3.14159
	DD	0c0490fdbr			; -3.14159
CONST	ENDS
;	COMDAT ?g_XMNegativeTwoPi@DirectX@@3UXMVECTORF32@1@B
CONST	SEGMENT
?g_XMNegativeTwoPi@DirectX@@3UXMVECTORF32@1@B DD 0c0c90fdbr ; -6.28319 ; DirectX::g_XMNegativeTwoPi
	DD	0c0c90fdbr			; -6.28319
	DD	0c0c90fdbr			; -6.28319
	DD	0c0c90fdbr			; -6.28319
CONST	ENDS
;	COMDAT ?g_XMNegativeOneHalf@DirectX@@3UXMVECTORF32@1@B
CONST	SEGMENT
?g_XMNegativeOneHalf@DirectX@@3UXMVECTORF32@1@B DD 0bf000000r ; -0.5 ; DirectX::g_XMNegativeOneHalf
	DD	0bf000000r			; -0.5
	DD	0bf000000r			; -0.5
	DD	0bf000000r			; -0.5
CONST	ENDS
;	COMDAT ?g_XMOneHalf@DirectX@@3UXMVECTORF32@1@B
CONST	SEGMENT
?g_XMOneHalf@DirectX@@3UXMVECTORF32@1@B DD 03f000000r ; 0.5 ; DirectX::g_XMOneHalf
	DD	03f000000r			; 0.5
	DD	03f000000r			; 0.5
	DD	03f000000r			; 0.5
CONST	ENDS
;	COMDAT ?g_XMNegativeOne@DirectX@@3UXMVECTORF32@1@B
CONST	SEGMENT
?g_XMNegativeOne@DirectX@@3UXMVECTORF32@1@B DD 0bf800000r ; -1 ; DirectX::g_XMNegativeOne
	DD	0bf800000r			; -1
	DD	0bf800000r			; -1
	DD	0bf800000r			; -1
CONST	ENDS
;	COMDAT ?g_XMSix@DirectX@@3UXMVECTORF32@1@B
CONST	SEGMENT
?g_XMSix@DirectX@@3UXMVECTORF32@1@B DD 040c00000r ; 6	; DirectX::g_XMSix
	DD	040c00000r			; 6
	DD	040c00000r			; 6
	DD	040c00000r			; 6
CONST	ENDS
;	COMDAT ?g_XMFour@DirectX@@3UXMVECTORF32@1@B
CONST	SEGMENT
?g_XMFour@DirectX@@3UXMVECTORF32@1@B DD 040800000r ; 4	; DirectX::g_XMFour
	DD	040800000r			; 4
	DD	040800000r			; 4
	DD	040800000r			; 4
CONST	ENDS
;	COMDAT ?g_XMTwo@DirectX@@3UXMVECTORF32@1@B
CONST	SEGMENT
?g_XMTwo@DirectX@@3UXMVECTORF32@1@B DD 040000000r ; 2	; DirectX::g_XMTwo
	DD	040000000r			; 2
	DD	040000000r			; 2
	DD	040000000r			; 2
CONST	ENDS
;	COMDAT ?g_XMZero@DirectX@@3UXMVECTORF32@1@B
CONST	SEGMENT
?g_XMZero@DirectX@@3UXMVECTORF32@1@B DD 000000000r ; 0	; DirectX::g_XMZero
	DD	000000000r			; 0
	DD	000000000r			; 0
	DD	000000000r			; 0
CONST	ENDS
;	COMDAT ?g_XMOne3@DirectX@@3UXMVECTORF32@1@B
CONST	SEGMENT
?g_XMOne3@DirectX@@3UXMVECTORF32@1@B DD 03f800000r ; 1	; DirectX::g_XMOne3
	DD	03f800000r			; 1
	DD	03f800000r			; 1
	DD	000000000r			; 0
CONST	ENDS
;	COMDAT ?g_XMOne@DirectX@@3UXMVECTORF32@1@B
CONST	SEGMENT
?g_XMOne@DirectX@@3UXMVECTORF32@1@B DD 03f800000r ; 1	; DirectX::g_XMOne
	DD	03f800000r			; 1
	DD	03f800000r			; 1
	DD	03f800000r			; 1
CONST	ENDS
;	COMDAT ?g_XMMaskW@DirectX@@3UXMVECTORU32@1@B
CONST	SEGMENT
?g_XMMaskW@DirectX@@3UXMVECTORU32@1@B DD 00H		; DirectX::g_XMMaskW
	DD	00H
	DD	00H
	DD	0ffffffffH
CONST	ENDS
;	COMDAT ?g_XMMaskZ@DirectX@@3UXMVECTORU32@1@B
CONST	SEGMENT
?g_XMMaskZ@DirectX@@3UXMVECTORU32@1@B DD 00H		; DirectX::g_XMMaskZ
	DD	00H
	DD	0ffffffffH
	DD	00H
CONST	ENDS
;	COMDAT ?g_XMMaskY@DirectX@@3UXMVECTORU32@1@B
CONST	SEGMENT
?g_XMMaskY@DirectX@@3UXMVECTORU32@1@B DD 00H		; DirectX::g_XMMaskY
	DD	0ffffffffH
	DD	00H
	DD	00H
CONST	ENDS
;	COMDAT ?g_XMMaskX@DirectX@@3UXMVECTORU32@1@B
CONST	SEGMENT
?g_XMMaskX@DirectX@@3UXMVECTORU32@1@B DD 0ffffffffH	; DirectX::g_XMMaskX
	DD	00H
	DD	00H
	DD	00H
CONST	ENDS
;	COMDAT ?g_XMMask3@DirectX@@3UXMVECTORU32@1@B
CONST	SEGMENT
?g_XMMask3@DirectX@@3UXMVECTORU32@1@B DD 0ffffffffH	; DirectX::g_XMMask3
	DD	0ffffffffH
	DD	0ffffffffH
	DD	00H
CONST	ENDS
;	COMDAT ?g_XMMaskXY@DirectX@@3UXMVECTORU32@1@B
CONST	SEGMENT
?g_XMMaskXY@DirectX@@3UXMVECTORU32@1@B DD 0ffffffffH	; DirectX::g_XMMaskXY
	DD	0ffffffffH
	DD	00H
	DD	00H
CONST	ENDS
;	COMDAT ?g_XMNegate3@DirectX@@3UXMVECTORU32@1@B
CONST	SEGMENT
?g_XMNegate3@DirectX@@3UXMVECTORU32@1@B DD 080000000H	; DirectX::g_XMNegate3
	DD	080000000H
	DD	080000000H
	DD	00H
CONST	ENDS
;	COMDAT ?g_XMNegativeZero@DirectX@@3UXMVECTORU32@1@B
CONST	SEGMENT
?g_XMNegativeZero@DirectX@@3UXMVECTORU32@1@B DD 080000000H ; DirectX::g_XMNegativeZero
	DD	080000000H
	DD	080000000H
	DD	080000000H
CONST	ENDS
;	COMDAT ?g_XMNegIdentityR3@DirectX@@3UXMVECTORF32@1@B
CONST	SEGMENT
?g_XMNegIdentityR3@DirectX@@3UXMVECTORF32@1@B DD 000000000r ; 0 ; DirectX::g_XMNegIdentityR3
	DD	000000000r			; 0
	DD	000000000r			; 0
	DD	0bf800000r			; -1
CONST	ENDS
;	COMDAT ?g_XMNegIdentityR2@DirectX@@3UXMVECTORF32@1@B
CONST	SEGMENT
?g_XMNegIdentityR2@DirectX@@3UXMVECTORF32@1@B DD 000000000r ; 0 ; DirectX::g_XMNegIdentityR2
	DD	000000000r			; 0
	DD	0bf800000r			; -1
	DD	000000000r			; 0
CONST	ENDS
;	COMDAT ?g_XMNegIdentityR1@DirectX@@3UXMVECTORF32@1@B
CONST	SEGMENT
?g_XMNegIdentityR1@DirectX@@3UXMVECTORF32@1@B DD 000000000r ; 0 ; DirectX::g_XMNegIdentityR1
	DD	0bf800000r			; -1
	DD	000000000r			; 0
	DD	000000000r			; 0
CONST	ENDS
;	COMDAT ?g_XMNegIdentityR0@DirectX@@3UXMVECTORF32@1@B
CONST	SEGMENT
?g_XMNegIdentityR0@DirectX@@3UXMVECTORF32@1@B DD 0bf800000r ; -1 ; DirectX::g_XMNegIdentityR0
	DD	000000000r			; 0
	DD	000000000r			; 0
	DD	000000000r			; 0
CONST	ENDS
;	COMDAT ?g_XMIdentityR3@DirectX@@3UXMVECTORF32@1@B
CONST	SEGMENT
?g_XMIdentityR3@DirectX@@3UXMVECTORF32@1@B DD 000000000r ; 0 ; DirectX::g_XMIdentityR3
	DD	000000000r			; 0
	DD	000000000r			; 0
	DD	03f800000r			; 1
CONST	ENDS
;	COMDAT ?g_XMIdentityR2@DirectX@@3UXMVECTORF32@1@B
CONST	SEGMENT
?g_XMIdentityR2@DirectX@@3UXMVECTORF32@1@B DD 000000000r ; 0 ; DirectX::g_XMIdentityR2
	DD	000000000r			; 0
	DD	03f800000r			; 1
	DD	000000000r			; 0
CONST	ENDS
;	COMDAT ?g_XMIdentityR1@DirectX@@3UXMVECTORF32@1@B
CONST	SEGMENT
?g_XMIdentityR1@DirectX@@3UXMVECTORF32@1@B DD 000000000r ; 0 ; DirectX::g_XMIdentityR1
	DD	03f800000r			; 1
	DD	000000000r			; 0
	DD	000000000r			; 0
CONST	ENDS
;	COMDAT ?g_XMIdentityR0@DirectX@@3UXMVECTORF32@1@B
CONST	SEGMENT
?g_XMIdentityR0@DirectX@@3UXMVECTORF32@1@B DD 03f800000r ; 1 ; DirectX::g_XMIdentityR0
	DD	000000000r			; 0
	DD	000000000r			; 0
	DD	000000000r			; 0
CONST	ENDS
;	COMDAT ?g_XMPiConstants0@DirectX@@3UXMVECTORF32@1@B
CONST	SEGMENT
?g_XMPiConstants0@DirectX@@3UXMVECTORF32@1@B DD 040490fdbr ; 3.14159 ; DirectX::g_XMPiConstants0
	DD	040c90fdbr			; 6.28319
	DD	03ea2f983r			; 0.31831
	DD	03e22f983r			; 0.159155
CONST	ENDS
;	COMDAT ?g_XMArcEstCoefficients@DirectX@@3UXMVECTORF32@1@B
CONST	SEGMENT
?g_XMArcEstCoefficients@DirectX@@3UXMVECTORF32@1@B DD 03fc90da4r ; 1.57073 ; DirectX::g_XMArcEstCoefficients
	DD	0be593484r			; -0.212114
	DD	03d981627r			; 0.074261
	DD	0bc996e30r			; -0.0187293
CONST	ENDS
;	COMDAT ?g_XMTanEstCoefficients@DirectX@@3UXMVECTORF32@1@B
CONST	SEGMENT
?g_XMTanEstCoefficients@DirectX@@3UXMVECTORF32@1@B DD 0401ef9dbr ; 2.484 ; DirectX::g_XMTanEstCoefficients
	DD	0be482f23r			; -0.195492
	DD	0401de9e6r			; 2.4674
	DD	03ea2f983r			; 0.31831
CONST	ENDS
;	COMDAT ?g_XMATanEstCoefficients1@DirectX@@3UXMVECTORF32@1@B
CONST	SEGMENT
?g_XMATanEstCoefficients1@DirectX@@3UXMVECTORF32@1@B DD 0bea91d04r ; -0.330299 ; DirectX::g_XMATanEstCoefficients1
	DD	03e3876e2r			; 0.180141
	DD	0bdae5a36r			; -0.085133
	DD	03caaae5fr			; 0.0208351
CONST	ENDS
;	COMDAT ?g_XMATanEstCoefficients0@DirectX@@3UXMVECTORF32@1@B
CONST	SEGMENT
?g_XMATanEstCoefficients0@DirectX@@3UXMVECTORF32@1@B DD 03f7ff738r ; 0.999866 ; DirectX::g_XMATanEstCoefficients0
	DD	03f7ff738r			; 0.999866
	DD	03f7ff738r			; 0.999866
	DD	03f7ff738r			; 0.999866
CONST	ENDS
;	COMDAT ?g_XMATanCoefficients1@DirectX@@3UXMVECTORF32@1@B
CONST	SEGMENT
?g_XMATanCoefficients1@DirectX@@3UXMVECTORF32@1@B DD 0bd9a3174r ; -0.0752896 ; DirectX::g_XMATanCoefficients1
	DD	03d2fc1fer			; 0.0429096
	DD	0bc846e02r			; -0.0161657
	DD	03b3bd74ar			; 0.00286623
CONST	ENDS
;	COMDAT ?g_XMATanCoefficients0@DirectX@@3UXMVECTORF32@1@B
CONST	SEGMENT
?g_XMATanCoefficients0@DirectX@@3UXMVECTORF32@1@B DD 0beaaaa6cr ; -0.333331 ; DirectX::g_XMATanCoefficients0
	DD	03e4cbbe5r			; 0.199936
	DD	0be117fc7r			; -0.142089
	DD	03dda3d83r			; 0.106563
CONST	ENDS
;	COMDAT ?g_XMArcCoefficients1@DirectX@@3UXMVECTORF32@1@B
CONST	SEGMENT
?g_XMArcCoefficients1@DirectX@@3UXMVECTORF32@1@B DD 03cfd10f8r ; 0.0308919 ; DirectX::g_XMArcCoefficients1
	DD	0bc8bfc66r			; -0.0170881
	DD	03bda90c5r			; 0.00667009
	DD	0baa57a2cr			; -0.00126249
CONST	ENDS
;	COMDAT ?g_XMArcCoefficients0@DirectX@@3UXMVECTORF32@1@B
CONST	SEGMENT
?g_XMArcCoefficients0@DirectX@@3UXMVECTORF32@1@B DD 03fc90fdar ; 1.5708 ; DirectX::g_XMArcCoefficients0
	DD	0be5bbfcar			; -0.214599
	DD	03db63a9er			; 0.088979
	DD	0bd4d8392r			; -0.0501743
CONST	ENDS
;	COMDAT ?g_XMTanCoefficients2@DirectX@@3UXMVECTORF32@1@B
CONST	SEGMENT
?g_XMTanCoefficients2@DirectX@@3UXMVECTORF32@1@B DD 03a1aac12r ; 0.000590027 ; DirectX::g_XMTanCoefficients2
	DD	0397abeb9r			; 0.000239129
	DD	038cb3f0cr			; 9.69154e-05
	DD	03824bec9r			; 3.92783e-05
CONST	ENDS
;	COMDAT ?g_XMTanCoefficients1@DirectX@@3UXMVECTORF32@1@B
CONST	SEGMENT
?g_XMTanCoefficients1@DirectX@@3UXMVECTORF32@1@B DD 03cb327a4r ; 0.0218695 ; DirectX::g_XMTanCoefficients1
	DD	03c11371br			; 0.00886324
	DD	03b6b69e9r			; 0.00359213
	DD	03abed1b3r			; 0.00145583
CONST	ENDS
;	COMDAT ?g_XMTanCoefficients0@DirectX@@3UXMVECTORF32@1@B
CONST	SEGMENT
?g_XMTanCoefficients0@DirectX@@3UXMVECTORF32@1@B DD 03f800000r ; 1 ; DirectX::g_XMTanCoefficients0
	DD	03eaaaaabr			; 0.333333
	DD	03e088889r			; 0.133333
	DD	03d5d0dd1r			; 0.0539683
CONST	ENDS
;	COMDAT ?g_XMCosCoefficients1@DirectX@@3UXMVECTORF32@1@B
CONST	SEGMENT
?g_XMCosCoefficients1@DirectX@@3UXMVECTORF32@1@B DD 0b48bdd11r ; -2.60516e-07 ; DirectX::g_XMCosCoefficients1
	DD	0befff67er			; -0.499927
	DD	03d29f587r			; 0.0414939
	DD	0baa69fdbr			; -0.00127124
CONST	ENDS
;	COMDAT ?g_XMCosCoefficients0@DirectX@@3UXMVECTORF32@1@B
CONST	SEGMENT
?g_XMCosCoefficients0@DirectX@@3UXMVECTORF32@1@B DD 0bf000000r ; -0.5 ; DirectX::g_XMCosCoefficients0
	DD	03d2aaaa3r			; 0.0416666
	DD	0bab609aar			; -0.00138884
	DD	037cfb4c2r			; 2.47605e-05
CONST	ENDS
;	COMDAT ?g_XMSinCoefficients1@DirectX@@3UXMVECTORF32@1@B
CONST	SEGMENT
?g_XMSinCoefficients1@DirectX@@3UXMVECTORF32@1@B DD 0b2cd365br ; -2.38899e-08 ; DirectX::g_XMSinCoefficients1
	DD	0be2aa888r			; -0.166659
	DD	03c08373cr			; 0.00831395
	DD	0b9423ec8r			; -0.000185247
CONST	ENDS
;	COMDAT ?g_XMSinCoefficients0@DirectX@@3UXMVECTORF32@1@B
CONST	SEGMENT
?g_XMSinCoefficients0@DirectX@@3UXMVECTORF32@1@B DD 0be2aaaabr ; -0.166667 ; DirectX::g_XMSinCoefficients0
	DD	03c088886r			; 0.00833333
	DD	0b9500bf1r			; -0.000198409
	DD	03638b88er			; 2.75256e-06
CONST	ENDS
PUBLIC	??2@YAPEAX_KPEAX@Z				; operator new
PUBLIC	?InternalRelease@?$ComPtr@UIUnknown@@@WRL@Microsoft@@IEAAKXZ ; Microsoft::WRL::ComPtr<IUnknown>::InternalRelease
PUBLIC	??1?$ComPtr@UIUnknown@@@WRL@Microsoft@@QEAA@XZ	; Microsoft::WRL::ComPtr<IUnknown>::~ComPtr<IUnknown>
PUBLIC	??_E?$ComPtr@UIUnknown@@@WRL@Microsoft@@QEAAPEAXI@Z ; Microsoft::WRL::ComPtr<IUnknown>::`vector deleting destructor'
PUBLIC	?is_constant_evaluated@std@@YA_NXZ		; std::is_constant_evaluated
PUBLIC	?max@?$numeric_limits@_J@std@@SA_JXZ		; std::numeric_limits<__int64>::max
PUBLIC	??0exception@std@@QEAA@QEBDH@Z			; std::exception::exception
PUBLIC	??0exception@std@@QEAA@AEBV01@@Z		; std::exception::exception
PUBLIC	??1exception@std@@UEAA@XZ			; std::exception::~exception
PUBLIC	?what@exception@std@@UEBAPEBDXZ			; std::exception::what
PUBLIC	??_Gexception@std@@UEAAPEAXI@Z			; std::exception::`scalar deleting destructor'
PUBLIC	??0bad_alloc@std@@AEAA@QEBD@Z			; std::bad_alloc::bad_alloc
PUBLIC	??1bad_alloc@std@@UEAA@XZ			; std::bad_alloc::~bad_alloc
PUBLIC	??0bad_alloc@std@@QEAA@AEBV01@@Z		; std::bad_alloc::bad_alloc
PUBLIC	??_Gbad_alloc@std@@UEAAPEAXI@Z			; std::bad_alloc::`scalar deleting destructor'
PUBLIC	??0bad_array_new_length@std@@QEAA@XZ		; std::bad_array_new_length::bad_array_new_length
PUBLIC	??1bad_array_new_length@std@@UEAA@XZ		; std::bad_array_new_length::~bad_array_new_length
PUBLIC	??0bad_array_new_length@std@@QEAA@AEBV01@@Z	; std::bad_array_new_length::bad_array_new_length
PUBLIC	??_Gbad_array_new_length@std@@UEAAPEAXI@Z	; std::bad_array_new_length::`scalar deleting destructor'
PUBLIC	?_Throw_bad_array_new_length@std@@YAXXZ		; std::_Throw_bad_array_new_length
PUBLIC	?_Allocate@_Default_allocate_traits@std@@SAPEAX_K@Z ; std::_Default_allocate_traits::_Allocate
PUBLIC	?_Adjust_manually_vector_aligned@std@@YAXAEAPEAXAEA_K@Z ; std::_Adjust_manually_vector_aligned
PUBLIC	?_Orphan_all@_Container_base12@std@@QEAAXXZ	; std::_Container_base12::_Orphan_all
PUBLIC	?_Orphan_all_unlocked_v3@_Container_base12@std@@AEAAXXZ ; std::_Container_base12::_Orphan_all_unlocked_v3
PUBLIC	?_Orphan_all_locked_v3@_Container_base12@std@@AEAAXXZ ; std::_Container_base12::_Orphan_all_locked_v3
PUBLIC	??0_Iterator_base12@std@@QEAA@XZ		; std::_Iterator_base12::_Iterator_base12
PUBLIC	??0_Iterator_base12@std@@QEAA@AEBU01@@Z		; std::_Iterator_base12::_Iterator_base12
PUBLIC	??4_Iterator_base12@std@@QEAAAEAU01@AEBU01@@Z	; std::_Iterator_base12::operator=
PUBLIC	??1_Iterator_base12@std@@QEAA@XZ		; std::_Iterator_base12::~_Iterator_base12
PUBLIC	?_Adopt@_Iterator_base12@std@@QEAAXPEBU_Container_base12@2@@Z ; std::_Iterator_base12::_Adopt
PUBLIC	?_Getcont@_Iterator_base12@std@@QEBAPEBU_Container_base12@2@XZ ; std::_Iterator_base12::_Getcont
PUBLIC	?_Assign_unlocked@_Iterator_base12@std@@AEAAXAEBU12@@Z ; std::_Iterator_base12::_Assign_unlocked
PUBLIC	?_Assign_locked@_Iterator_base12@std@@AEAAXAEBU12@@Z ; std::_Iterator_base12::_Assign_locked
PUBLIC	?_Adopt_unlocked@_Iterator_base12@std@@AEAAXPEBU_Container_base12@2@@Z ; std::_Iterator_base12::_Adopt_unlocked
PUBLIC	?_Adopt_locked@_Iterator_base12@std@@AEAAXPEBU_Container_base12@2@@Z ; std::_Iterator_base12::_Adopt_locked
PUBLIC	?_Orphan_me_unlocked_v3@_Iterator_base12@std@@AEAAXXZ ; std::_Iterator_base12::_Orphan_me_unlocked_v3
PUBLIC	?_Orphan_me_locked_v3@_Iterator_base12@std@@AEAAXXZ ; std::_Iterator_base12::_Orphan_me_locked_v3
PUBLIC	??$exchange@PEAU_Iterator_base12@std@@$$T@std@@YAPEAU_Iterator_base12@0@AEAPEAU10@$$QEA$$T@Z ; std::exchange<std::_Iterator_base12 *,std::nullptr_t>
PUBLIC	?deallocate@?$allocator@PEAVD3D12Model@@@std@@QEAAXQEAPEAVD3D12Model@@_K@Z ; std::allocator<D3D12Model *>::deallocate
PUBLIC	?allocate@?$allocator@PEAVD3D12Model@@@std@@QEAAPEAPEAVD3D12Model@@_K@Z ; std::allocator<D3D12Model *>::allocate
PUBLIC	?max_size@?$_Default_allocator_traits@V?$allocator@PEAVD3D12Model@@@std@@@std@@SA_KAEBV?$allocator@PEAVD3D12Model@@@2@@Z ; std::_Default_allocator_traits<std::allocator<D3D12Model *> >::max_size
PUBLIC	??1?$vector@PEAVD3D12Model@@V?$allocator@PEAVD3D12Model@@@std@@@std@@QEAA@XZ ; std::vector<D3D12Model *,std::allocator<D3D12Model *> >::~vector<D3D12Model *,std::allocator<D3D12Model *> >
PUBLIC	?push_back@?$vector@PEAVD3D12Model@@V?$allocator@PEAVD3D12Model@@@std@@@std@@QEAAXAEBQEAVD3D12Model@@@Z ; std::vector<D3D12Model *,std::allocator<D3D12Model *> >::push_back
PUBLIC	??4?$vector@PEAVD3D12Model@@V?$allocator@PEAVD3D12Model@@@std@@@std@@QEAAAEAV01@AEBV01@@Z ; std::vector<D3D12Model *,std::allocator<D3D12Model *> >::operator=
PUBLIC	?_Clear_and_reserve_geometric@?$vector@PEAVD3D12Model@@V?$allocator@PEAVD3D12Model@@@std@@@std@@AEAAX_K@Z ; std::vector<D3D12Model *,std::allocator<D3D12Model *> >::_Clear_and_reserve_geometric
PUBLIC	?clear@?$vector@PEAVD3D12Model@@V?$allocator@PEAVD3D12Model@@@std@@@std@@QEAAXXZ ; std::vector<D3D12Model *,std::allocator<D3D12Model *> >::clear
PUBLIC	?begin@?$vector@PEAVD3D12Model@@V?$allocator@PEAVD3D12Model@@@std@@@std@@QEAA?AV?$_Vector_iterator@V?$_Vector_val@U?$_Simple_types@PEAVD3D12Model@@@std@@@std@@@2@XZ ; std::vector<D3D12Model *,std::allocator<D3D12Model *> >::begin
PUBLIC	?end@?$vector@PEAVD3D12Model@@V?$allocator@PEAVD3D12Model@@@std@@@std@@QEAA?AV?$_Vector_iterator@V?$_Vector_val@U?$_Simple_types@PEAVD3D12Model@@@std@@@std@@@2@XZ ; std::vector<D3D12Model *,std::allocator<D3D12Model *> >::end
PUBLIC	?max_size@?$vector@PEAVD3D12Model@@V?$allocator@PEAVD3D12Model@@@std@@@std@@QEBA_KXZ ; std::vector<D3D12Model *,std::allocator<D3D12Model *> >::max_size
PUBLIC	?capacity@?$vector@PEAVD3D12Model@@V?$allocator@PEAVD3D12Model@@@std@@@std@@QEBA_KXZ ; std::vector<D3D12Model *,std::allocator<D3D12Model *> >::capacity
PUBLIC	?_Calculate_growth@?$vector@PEAVD3D12Model@@V?$allocator@PEAVD3D12Model@@@std@@@std@@AEBA_K_K@Z ; std::vector<D3D12Model *,std::allocator<D3D12Model *> >::_Calculate_growth
PUBLIC	?_Buy_raw@?$vector@PEAVD3D12Model@@V?$allocator@PEAVD3D12Model@@@std@@@std@@AEAAX_K@Z ; std::vector<D3D12Model *,std::allocator<D3D12Model *> >::_Buy_raw
PUBLIC	?_Change_array@?$vector@PEAVD3D12Model@@V?$allocator@PEAVD3D12Model@@@std@@@std@@AEAAXQEAPEAVD3D12Model@@_K1@Z ; std::vector<D3D12Model *,std::allocator<D3D12Model *> >::_Change_array
PUBLIC	?_Tidy@?$vector@PEAVD3D12Model@@V?$allocator@PEAVD3D12Model@@@std@@@std@@AEAAXXZ ; std::vector<D3D12Model *,std::allocator<D3D12Model *> >::_Tidy
PUBLIC	?_Xlength@?$vector@PEAVD3D12Model@@V?$allocator@PEAVD3D12Model@@@std@@@std@@CAXXZ ; std::vector<D3D12Model *,std::allocator<D3D12Model *> >::_Xlength
PUBLIC	?_Orphan_range_unlocked@?$vector@PEAVD3D12Model@@V?$allocator@PEAVD3D12Model@@@std@@@std@@AEBAXPEAPEAVD3D12Model@@0@Z ; std::vector<D3D12Model *,std::allocator<D3D12Model *> >::_Orphan_range_unlocked
PUBLIC	?_Orphan_range_locked@?$vector@PEAVD3D12Model@@V?$allocator@PEAVD3D12Model@@@std@@@std@@AEBAXPEAPEAVD3D12Model@@0@Z ; std::vector<D3D12Model *,std::allocator<D3D12Model *> >::_Orphan_range_locked
PUBLIC	?_Orphan_range@?$vector@PEAVD3D12Model@@V?$allocator@PEAVD3D12Model@@@std@@@std@@AEBAXPEAPEAVD3D12Model@@0@Z ; std::vector<D3D12Model *,std::allocator<D3D12Model *> >::_Orphan_range
PUBLIC	?_Getal@?$vector@PEAVD3D12Model@@V?$allocator@PEAVD3D12Model@@@std@@@std@@AEAAAEAV?$allocator@PEAVD3D12Model@@@2@XZ ; std::vector<D3D12Model *,std::allocator<D3D12Model *> >::_Getal
PUBLIC	?_Getal@?$vector@PEAVD3D12Model@@V?$allocator@PEAVD3D12Model@@@std@@@std@@AEBAAEBV?$allocator@PEAVD3D12Model@@@2@XZ ; std::vector<D3D12Model *,std::allocator<D3D12Model *> >::_Getal
PUBLIC	?_Make_iterator_offset@?$vector@PEAVD3D12Model@@V?$allocator@PEAVD3D12Model@@@std@@@std@@AEAA?AV?$_Vector_iterator@V?$_Vector_val@U?$_Simple_types@PEAVD3D12Model@@@std@@@std@@@2@_K@Z ; std::vector<D3D12Model *,std::allocator<D3D12Model *> >::_Make_iterator_offset
PUBLIC	?_Get_first@?$_Compressed_pair@V?$allocator@PEAVD3D12Model@@@std@@V?$_Vector_val@U?$_Simple_types@PEAVD3D12Model@@@std@@@2@$00@std@@QEAAAEAV?$allocator@PEAVD3D12Model@@@2@XZ ; std::_Compressed_pair<std::allocator<D3D12Model *>,std::_Vector_val<std::_Simple_types<D3D12Model *> >,1>::_Get_first
PUBLIC	?_Get_first@?$_Compressed_pair@V?$allocator@PEAVD3D12Model@@@std@@V?$_Vector_val@U?$_Simple_types@PEAVD3D12Model@@@std@@@2@$00@std@@QEBAAEBV?$allocator@PEAVD3D12Model@@@2@XZ ; std::_Compressed_pair<std::allocator<D3D12Model *>,std::_Vector_val<std::_Simple_types<D3D12Model *> >,1>::_Get_first
PUBLIC	?SetCamera@D3D12Scene@@QEAAXUD3D12Camera@@@Z	; D3D12Scene::SetCamera
PUBLIC	?AddModel@D3D12Scene@@QEAAXPEAVD3D12Model@@@Z	; D3D12Scene::AddModel
PUBLIC	?AddModels@D3D12Scene@@QEAAXV?$vector@PEAVD3D12Model@@V?$allocator@PEAVD3D12Model@@@std@@@std@@@Z ; D3D12Scene::AddModels
PUBLIC	?SetModels@D3D12Scene@@QEAAXV?$vector@PEAVD3D12Model@@V?$allocator@PEAVD3D12Model@@@std@@@std@@@Z ; D3D12Scene::SetModels
PUBLIC	?ResetModels@D3D12Scene@@QEAAXXZ		; D3D12Scene::ResetModels
PUBLIC	??0?$_Vector_const_iterator@V?$_Vector_val@U?$_Simple_types@PEAVD3D12Model@@@std@@@std@@@std@@QEAA@PEAPEAVD3D12Model@@PEBU_Container_base12@1@@Z ; std::_Vector_const_iterator<std::_Vector_val<std::_Simple_types<D3D12Model *> > >::_Vector_const_iterator<std::_Vector_val<std::_Simple_types<D3D12Model *> > >
PUBLIC	?_Verify_range@std@@YAXAEBV?$_Vector_const_iterator@V?$_Vector_val@U?$_Simple_types@PEAVD3D12Model@@@std@@@std@@@1@0@Z ; std::_Verify_range
PUBLIC	??1?$_Vector_const_iterator@V?$_Vector_val@U?$_Simple_types@PEAVD3D12Model@@@std@@@std@@@std@@QEAA@XZ ; std::_Vector_const_iterator<std::_Vector_val<std::_Simple_types<D3D12Model *> > >::~_Vector_const_iterator<std::_Vector_val<std::_Simple_types<D3D12Model *> > >
PUBLIC	??0?$_Vector_const_iterator@V?$_Vector_val@U?$_Simple_types@PEAVD3D12Model@@@std@@@std@@@std@@QEAA@AEBV01@@Z ; std::_Vector_const_iterator<std::_Vector_val<std::_Simple_types<D3D12Model *> > >::_Vector_const_iterator<std::_Vector_val<std::_Simple_types<D3D12Model *> > >
PUBLIC	??0?$_Vector_const_iterator@V?$_Vector_val@U?$_Simple_types@PEAVD3D12Model@@@std@@@std@@@std@@QEAA@$$QEAV01@@Z ; std::_Vector_const_iterator<std::_Vector_val<std::_Simple_types<D3D12Model *> > >::_Vector_const_iterator<std::_Vector_val<std::_Simple_types<D3D12Model *> > >
PUBLIC	?_Unwrapped@?$_Vector_iterator@V?$_Vector_val@U?$_Simple_types@PEAVD3D12Model@@@std@@@std@@@std@@QEBAPEAPEAVD3D12Model@@XZ ; std::_Vector_iterator<std::_Vector_val<std::_Simple_types<D3D12Model *> > >::_Unwrapped
PUBLIC	??1?$_Vector_iterator@V?$_Vector_val@U?$_Simple_types@PEAVD3D12Model@@@std@@@std@@@std@@QEAA@XZ ; std::_Vector_iterator<std::_Vector_val<std::_Simple_types<D3D12Model *> > >::~_Vector_iterator<std::_Vector_val<std::_Simple_types<D3D12Model *> > >
PUBLIC	??0?$_Vector_iterator@V?$_Vector_val@U?$_Simple_types@PEAVD3D12Model@@@std@@@std@@@std@@QEAA@PEAPEAVD3D12Model@@PEBU_Container_base12@1@@Z ; std::_Vector_iterator<std::_Vector_val<std::_Simple_types<D3D12Model *> > >::_Vector_iterator<std::_Vector_val<std::_Simple_types<D3D12Model *> > >
PUBLIC	??$insert@V?$_Vector_iterator@V?$_Vector_val@U?$_Simple_types@PEAVD3D12Model@@@std@@@std@@@std@@$0A@@?$vector@PEAVD3D12Model@@V?$allocator@PEAVD3D12Model@@@std@@@std@@QEAA?AV?$_Vector_iterator@V?$_Vector_val@U?$_Simple_types@PEAVD3D12Model@@@std@@@std@@@1@V?$_Vector_const_iterator@V?$_Vector_val@U?$_Simple_types@PEAVD3D12Model@@@std@@@std@@@1@V21@1@Z ; std::vector<D3D12Model *,std::allocator<D3D12Model *> >::insert<std::_Vector_iterator<std::_Vector_val<std::_Simple_types<D3D12Model *> > >,0>
PUBLIC	??$addressof@V?$_Vector_val@U?$_Simple_types@PEAVD3D12Model@@@std@@@std@@@std@@YAPEAV?$_Vector_val@U?$_Simple_types@PEAVD3D12Model@@@std@@@0@AEAV10@@Z ; std::addressof<std::_Vector_val<std::_Simple_types<D3D12Model *> > >
PUBLIC	??$_Destroy_range@V?$allocator@PEAVD3D12Model@@@std@@@std@@YAXPEAPEAVD3D12Model@@QEAPEAV1@AEAV?$allocator@PEAVD3D12Model@@@0@@Z ; std::_Destroy_range<std::allocator<D3D12Model *> >
PUBLIC	??$addressof@$$CBV?$vector@PEAVD3D12Model@@V?$allocator@PEAVD3D12Model@@@std@@@std@@@std@@YAPEBV?$vector@PEAVD3D12Model@@V?$allocator@PEAVD3D12Model@@@std@@@0@AEBV10@@Z ; std::addressof<std::vector<D3D12Model *,std::allocator<D3D12Model *> > const >
PUBLIC	??$_Pocca@V?$allocator@PEAVD3D12Model@@@std@@@std@@YAXAEAV?$allocator@PEAVD3D12Model@@@0@AEBV10@@Z ; std::_Pocca<std::allocator<D3D12Model *> >
PUBLIC	??$_Assign_counted_range@PEAPEAVD3D12Model@@@?$vector@PEAVD3D12Model@@V?$allocator@PEAVD3D12Model@@@std@@@std@@AEAAXPEAPEAVD3D12Model@@_K@Z ; std::vector<D3D12Model *,std::allocator<D3D12Model *> >::_Assign_counted_range<D3D12Model * *>
PUBLIC	??$_Emplace_one_at_back@AEBQEAVD3D12Model@@@?$vector@PEAVD3D12Model@@V?$allocator@PEAVD3D12Model@@@std@@@std@@AEAAAEAPEAVD3D12Model@@AEBQEAV2@@Z ; std::vector<D3D12Model *,std::allocator<D3D12Model *> >::_Emplace_one_at_back<D3D12Model * const &>
PUBLIC	?deallocate@?$allocator@U_Container_proxy@std@@@std@@QEAAXQEAU_Container_proxy@2@_K@Z ; std::allocator<std::_Container_proxy>::deallocate
PUBLIC	??$?0PEAVD3D12Model@@@?$allocator@U_Container_proxy@std@@@std@@QEAA@AEBV?$allocator@PEAVD3D12Model@@@1@@Z ; std::allocator<std::_Container_proxy>::allocator<std::_Container_proxy><D3D12Model *>
PUBLIC	??$exchange@PEAU_Container_proxy@std@@$$T@std@@YAPEAU_Container_proxy@0@AEAPEAU10@$$QEA$$T@Z ; std::exchange<std::_Container_proxy *,std::nullptr_t>
PUBLIC	??$_Delete_plain_internal@V?$allocator@U_Container_proxy@std@@@std@@@std@@YAXAEAV?$allocator@U_Container_proxy@std@@@0@QEAU_Container_proxy@0@@Z ; std::_Delete_plain_internal<std::allocator<std::_Container_proxy> >
PUBLIC	??$_Deallocate@$0BA@$0A@@std@@YAXPEAX_K@Z	; std::_Deallocate<16,0>
PUBLIC	??$_Adl_verify_range@V?$_Vector_iterator@V?$_Vector_val@U?$_Simple_types@PEAVD3D12Model@@@std@@@std@@@std@@V12@@std@@YAXAEBV?$_Vector_iterator@V?$_Vector_val@U?$_Simple_types@PEAVD3D12Model@@@std@@@std@@@0@0@Z ; std::_Adl_verify_range<std::_Vector_iterator<std::_Vector_val<std::_Simple_types<D3D12Model *> > >,std::_Vector_iterator<std::_Vector_val<std::_Simple_types<D3D12Model *> > > >
PUBLIC	??$_Get_unwrapped@AEAV?$_Vector_iterator@V?$_Vector_val@U?$_Simple_types@PEAVD3D12Model@@@std@@@std@@@std@@@std@@YA?A_TAEAV?$_Vector_iterator@V?$_Vector_val@U?$_Simple_types@PEAVD3D12Model@@@std@@@std@@@0@@Z ; std::_Get_unwrapped<std::_Vector_iterator<std::_Vector_val<std::_Simple_types<D3D12Model *> > > &>
PUBLIC	??$distance@PEAPEAVD3D12Model@@@std@@YA_JPEAPEAVD3D12Model@@0@Z ; std::distance<D3D12Model * *>
PUBLIC	??$_Convert_size@_K_K@std@@YA_K_K@Z		; std::_Convert_size<unsigned __int64,unsigned __int64>
PUBLIC	??$_Insert_counted_range@PEAPEAVD3D12Model@@@?$vector@PEAVD3D12Model@@V?$allocator@PEAVD3D12Model@@@std@@@std@@AEAAXV?$_Vector_const_iterator@V?$_Vector_val@U?$_Simple_types@PEAVD3D12Model@@@std@@@std@@@1@PEAPEAVD3D12Model@@_K@Z ; std::vector<D3D12Model *,std::allocator<D3D12Model *> >::_Insert_counted_range<D3D12Model * *>
PUBLIC	??$_Uninitialized_copy_n@PEAPEAVD3D12Model@@V?$allocator@PEAVD3D12Model@@@std@@@std@@YAPEAPEAVD3D12Model@@PEAPEAV1@_K0AEAV?$allocator@PEAVD3D12Model@@@0@@Z ; std::_Uninitialized_copy_n<D3D12Model * *,std::allocator<D3D12Model *> >
PUBLIC	??$_Copy_memmove_n@PEAPEAVD3D12Model@@PEAPEAV1@@std@@YAPEAPEAVD3D12Model@@PEAPEAV1@_K0@Z ; std::_Copy_memmove_n<D3D12Model * *,D3D12Model * *>
PUBLIC	??$_Copy_n_unchecked4@PEAPEAVD3D12Model@@_KPEAPEAV1@@std@@YAPEAPEAVD3D12Model@@PEAPEAV1@_K0@Z ; std::_Copy_n_unchecked4<D3D12Model * *,unsigned __int64,D3D12Model * *>
PUBLIC	??$_Emplace_back_with_unused_capacity@AEBQEAVD3D12Model@@@?$vector@PEAVD3D12Model@@V?$allocator@PEAVD3D12Model@@@std@@@std@@AEAAAEAPEAVD3D12Model@@AEBQEAV2@@Z ; std::vector<D3D12Model *,std::allocator<D3D12Model *> >::_Emplace_back_with_unused_capacity<D3D12Model * const &>
PUBLIC	??$_Emplace_reallocate@AEBQEAVD3D12Model@@@?$vector@PEAVD3D12Model@@V?$allocator@PEAVD3D12Model@@@std@@@std@@AEAAPEAPEAVD3D12Model@@QEAPEAV2@AEBQEAV2@@Z ; std::vector<D3D12Model *,std::allocator<D3D12Model *> >::_Emplace_reallocate<D3D12Model * const &>
PUBLIC	??$_Deallocate_plain@V?$allocator@U_Container_proxy@std@@@std@@@std@@YAXAEAV?$allocator@U_Container_proxy@std@@@0@QEAU_Container_proxy@0@@Z ; std::_Deallocate_plain<std::allocator<std::_Container_proxy> >
PUBLIC	??$_Allocate@$0BA@U_Default_allocate_traits@std@@$0A@@std@@YAPEAX_K@Z ; std::_Allocate<16,std::_Default_allocate_traits,0>
PUBLIC	??$_Unfancy@PEAVD3D12Model@@@std@@YAPEAPEAVD3D12Model@@PEAPEAV1@@Z ; std::_Unfancy<D3D12Model *>
PUBLIC	??$min@_K@std@@YAAEB_KAEB_K0@Z			; std::min<unsigned __int64>
PUBLIC	??$_Allocate_at_least_helper@V?$allocator@PEAVD3D12Model@@@std@@@std@@YAPEAPEAVD3D12Model@@AEAV?$allocator@PEAVD3D12Model@@@0@AEA_K@Z ; std::_Allocate_at_least_helper<std::allocator<D3D12Model *> >
PUBLIC	??$_Uninitialized_move@PEAPEAVD3D12Model@@V?$allocator@PEAVD3D12Model@@@std@@@std@@YAPEAPEAVD3D12Model@@QEAPEAV1@0PEAPEAV1@AEAV?$allocator@PEAVD3D12Model@@@0@@Z ; std::_Uninitialized_move<D3D12Model * *,std::allocator<D3D12Model *> >
PUBLIC	??$_Move_backward_unchecked@PEAPEAVD3D12Model@@PEAPEAV1@@std@@YAPEAPEAVD3D12Model@@PEAPEAV1@00@Z ; std::_Move_backward_unchecked<D3D12Model * *,D3D12Model * *>
PUBLIC	??$_Move_unchecked@PEAPEAVD3D12Model@@PEAPEAV1@@std@@YAPEAPEAVD3D12Model@@PEAPEAV1@00@Z ; std::_Move_unchecked<D3D12Model * *,D3D12Model * *>
PUBLIC	??$_Get_unwrapped@PEAPEAVD3D12Model@@@std@@YA?A_T$$QEAPEAPEAVD3D12Model@@@Z ; std::_Get_unwrapped<D3D12Model * *>
PUBLIC	??0?$_Uninitialized_backout_al@V?$allocator@PEAVD3D12Model@@@std@@@std@@QEAA@PEAPEAVD3D12Model@@AEAV?$allocator@PEAVD3D12Model@@@1@@Z ; std::_Uninitialized_backout_al<std::allocator<D3D12Model *> >::_Uninitialized_backout_al<std::allocator<D3D12Model *> >
PUBLIC	??1?$_Uninitialized_backout_al@V?$allocator@PEAVD3D12Model@@@std@@@std@@QEAA@XZ ; std::_Uninitialized_backout_al<std::allocator<D3D12Model *> >::~_Uninitialized_backout_al<std::allocator<D3D12Model *> >
PUBLIC	?_Release@?$_Uninitialized_backout_al@V?$allocator@PEAVD3D12Model@@@std@@@std@@QEAAPEAPEAVD3D12Model@@XZ ; std::_Uninitialized_backout_al<std::allocator<D3D12Model *> >::_Release
PUBLIC	??$_Emplace_back@AEAPEAVD3D12Model@@@?$_Uninitialized_backout_al@V?$allocator@PEAVD3D12Model@@@std@@@std@@QEAAXAEAPEAVD3D12Model@@@Z ; std::_Uninitialized_backout_al<std::allocator<D3D12Model *> >::_Emplace_back<D3D12Model * &>
PUBLIC	??$_Copy_memmove@PEAPEAVD3D12Model@@PEAPEAV1@@std@@YAPEAPEAVD3D12Model@@PEAPEAV1@00@Z ; std::_Copy_memmove<D3D12Model * *,D3D12Model * *>
PUBLIC	??$_Construct_in_place@PEAVD3D12Model@@AEBQEAV1@@std@@YAXAEAPEAVD3D12Model@@AEBQEAV1@@Z ; std::_Construct_in_place<D3D12Model *,D3D12Model * const &>
PUBLIC	??$construct@PEAVD3D12Model@@AEBQEAV1@@?$_Default_allocator_traits@V?$allocator@PEAVD3D12Model@@@std@@@std@@SAXAEAV?$allocator@PEAVD3D12Model@@@1@QEAPEAVD3D12Model@@AEBQEAV3@@Z ; std::_Default_allocator_traits<std::allocator<D3D12Model *> >::construct<D3D12Model *,D3D12Model * const &>
PUBLIC	?deallocate@?$_Default_allocator_traits@V?$allocator@U_Container_proxy@std@@@std@@@std@@SAXAEAV?$allocator@U_Container_proxy@std@@@2@QEAU_Container_proxy@2@_K@Z ; std::_Default_allocator_traits<std::allocator<std::_Container_proxy> >::deallocate
PUBLIC	??$_To_address@PEAPEAVD3D12Model@@@std@@YA?A_PAEBQEAPEAVD3D12Model@@@Z ; std::_To_address<D3D12Model * *>
PUBLIC	??$to_address@PEAVD3D12Model@@@std@@YAPEAPEAVD3D12Model@@QEAPEAV1@@Z ; std::to_address<D3D12Model *>
PUBLIC	??$_Allocate_manually_vector_aligned@U_Default_allocate_traits@std@@@std@@YAPEAX_K@Z ; std::_Allocate_manually_vector_aligned<std::_Default_allocate_traits>
PUBLIC	??$_Get_size_of_n@$07@std@@YA_K_K@Z		; std::_Get_size_of_n<8>
PUBLIC	??$_Get_unwrapped@AEBQEAPEAVD3D12Model@@@std@@YA?A_TAEBQEAPEAVD3D12Model@@@Z ; std::_Get_unwrapped<D3D12Model * * const &>
PUBLIC	??$_Emplace_back@PEAVD3D12Model@@@?$_Uninitialized_backout_al@V?$allocator@PEAVD3D12Model@@@std@@@std@@QEAAX$$QEAPEAVD3D12Model@@@Z ; std::_Uninitialized_backout_al<std::allocator<D3D12Model *> >::_Emplace_back<D3D12Model *>
PUBLIC	??$_Copy_backward_memmove@PEAPEAVD3D12Model@@PEAPEAV1@@std@@YAPEAPEAVD3D12Model@@PEAPEAV1@00@Z ; std::_Copy_backward_memmove<D3D12Model * *,D3D12Model * *>
PUBLIC	??$construct@PEAVD3D12Model@@AEAPEAV1@@?$_Default_allocator_traits@V?$allocator@PEAVD3D12Model@@@std@@@std@@SAXAEAV?$allocator@PEAVD3D12Model@@@1@QEAPEAVD3D12Model@@AEAPEAV3@@Z ; std::_Default_allocator_traits<std::allocator<D3D12Model *> >::construct<D3D12Model *,D3D12Model * &>
PUBLIC	??$addressof@PEAVD3D12Model@@@std@@YAPEAPEAVD3D12Model@@AEAPEAV1@@Z ; std::addressof<D3D12Model *>
PUBLIC	??$construct_at@PEAVD3D12Model@@AEBQEAV1@$0A@@std@@YAPEAPEAVD3D12Model@@QEAPEAV1@AEBQEAV1@@Z ; std::construct_at<D3D12Model *,D3D12Model * const &,0>
PUBLIC	??$construct@PEAVD3D12Model@@PEAV1@@?$_Default_allocator_traits@V?$allocator@PEAVD3D12Model@@@std@@@std@@SAXAEAV?$allocator@PEAVD3D12Model@@@1@QEAPEAVD3D12Model@@$$QEAPEAV3@@Z ; std::_Default_allocator_traits<std::allocator<D3D12Model *> >::construct<D3D12Model *,D3D12Model *>
PUBLIC	??$construct_at@PEAVD3D12Model@@AEAPEAV1@$0A@@std@@YAPEAPEAVD3D12Model@@QEAPEAV1@AEAPEAV1@@Z ; std::construct_at<D3D12Model *,D3D12Model * &,0>
PUBLIC	??$construct_at@PEAVD3D12Model@@PEAV1@$0A@@std@@YAPEAPEAVD3D12Model@@QEAPEAV1@$$QEAPEAV1@@Z ; std::construct_at<D3D12Model *,D3D12Model *,0>
PUBLIC	__JustMyCode_Default
PUBLIC	??_7exception@std@@6B@				; std::exception::`vftable'
PUBLIC	??_C@_0BC@EOODALEL@Unknown?5exception@		; `string'
PUBLIC	??_7bad_alloc@std@@6B@				; std::bad_alloc::`vftable'
PUBLIC	??_7bad_array_new_length@std@@6B@		; std::bad_array_new_length::`vftable'
PUBLIC	??_C@_0BF@KINCDENJ@bad?5array?5new?5length@	; `string'
PUBLIC	_TI3?AVbad_array_new_length@std@@
PUBLIC	_CTA3?AVbad_array_new_length@std@@
PUBLIC	??_R0?AVbad_array_new_length@std@@@8		; std::bad_array_new_length `RTTI Type Descriptor'
PUBLIC	_CT??_R0?AVbad_array_new_length@std@@@8??0bad_array_new_length@std@@QEAA@AEBV01@@Z24
PUBLIC	??_R0?AVbad_alloc@std@@@8			; std::bad_alloc `RTTI Type Descriptor'
PUBLIC	_CT??_R0?AVbad_alloc@std@@@8??0bad_alloc@std@@QEAA@AEBV01@@Z24
PUBLIC	??_R0?AVexception@std@@@8			; std::exception `RTTI Type Descriptor'
PUBLIC	_CT??_R0?AVexception@std@@@8??0exception@std@@QEAA@AEBV01@@Z24
PUBLIC	?__LINE__Var@?0??_Adjust_manually_vector_aligned@std@@YAXAEAPEAXAEA_K@Z@4JA ; `std::_Adjust_manually_vector_aligned'::`1'::__LINE__Var
PUBLIC	??_C@_0BB@FCMFBGOM@invalid?5argument@		; `string'
PUBLIC	??_C@_02DKCKIIND@?$CFs@				; `string'
PUBLIC	??_C@_0GA@FLDGEGM@C?3?2Program?5Files?2Microsoft?5Visu@ ; `string'
PUBLIC	??_C@_1MA@IKJDCOIC@?$AAC?$AA?3?$AA?2?$AAP?$AAr?$AAo?$AAg?$AAr?$AAa?$AAm?$AA?5?$AAF?$AAi?$AAl?$AAe@ ; `string'
PUBLIC	??_C@_11LOCGONAA@@				; `string'
PUBLIC	??_C@_1CG@JNLFBNGN@?$AA?$CC?$AAi?$AAn?$AAv?$AAa?$AAl?$AAi?$AAd?$AA?5?$AAa?$AAr?$AAg?$AAu?$AAm?$AAe@ ; `string'
PUBLIC	??_C@_0BJ@LFDBABJJ@ITERATOR?5LIST?5CORRUPTED?$CB@ ; `string'
PUBLIC	??_C@_1DG@PLBPCAEM@?$AA?$CC?$AAI?$AAT?$AAE?$AAR?$AAA?$AAT?$AAO?$AAR?$AA?5?$AAL?$AAI?$AAS?$AAT?$AA?5@ ; `string'
PUBLIC	??_C@_0DG@KGHKKGBC@null?5pointer?5cannot?5point?5to?5a?5@ ; `string'
PUBLIC	??_C@_1HA@FACCKGGH@?$AA?$CC?$AAn?$AAu?$AAl?$AAl?$AA?5?$AAp?$AAo?$AAi?$AAn?$AAt?$AAe?$AAr?$AA?5?$AAc@ ; `string'
PUBLIC	??_C@_0CF@NNBLLPGF@vector?5insert?5iterator?5outside?5@ ; `string'
PUBLIC	??_C@_0FP@IENHKCNK@C?3?2Program?5Files?2Microsoft?5Visu@ ; `string'
PUBLIC	??_C@_1LO@DMIPLFD@?$AAC?$AA?3?$AA?2?$AAP?$AAr?$AAo?$AAg?$AAr?$AAa?$AAm?$AA?5?$AAF?$AAi?$AAl?$AAe@ ; `string'
PUBLIC	??_C@_1EO@HCJPCNBE@?$AA?$CC?$AAv?$AAe?$AAc?$AAt?$AAo?$AAr?$AA?5?$AAi?$AAn?$AAs?$AAe?$AAr?$AAt?$AA?5@ ; `string'
PUBLIC	??_C@_0BA@FOIKENOD@vector?5too?5long@		; `string'
PUBLIC	??_C@_0DI@PBEELKIF@vector?5iterators?5in?5range?5are?5f@ ; `string'
PUBLIC	??_C@_1HE@KBMFDAFB@?$AA?$CC?$AAv?$AAe?$AAc?$AAt?$AAo?$AAr?$AA?5?$AAi?$AAt?$AAe?$AAr?$AAa?$AAt?$AAo@ ; `string'
PUBLIC	??_C@_0CB@LIAHLBAO@vector?5iterator?5range?5transpose@ ; `string'
PUBLIC	??_C@_1EG@ODKBEHFN@?$AA?$CC?$AAv?$AAe?$AAc?$AAt?$AAo?$AAr?$AA?5?$AAi?$AAt?$AAe?$AAr?$AAa?$AAt?$AAo@ ; `string'
PUBLIC	??_R4exception@std@@6B@				; std::exception::`RTTI Complete Object Locator'
PUBLIC	??_R3exception@std@@8				; std::exception::`RTTI Class Hierarchy Descriptor'
PUBLIC	??_R2exception@std@@8				; std::exception::`RTTI Base Class Array'
PUBLIC	??_R1A@?0A@EA@exception@std@@8			; std::exception::`RTTI Base Class Descriptor at (0,-1,0,64)'
PUBLIC	??_R4bad_alloc@std@@6B@				; std::bad_alloc::`RTTI Complete Object Locator'
PUBLIC	??_R3bad_alloc@std@@8				; std::bad_alloc::`RTTI Class Hierarchy Descriptor'
PUBLIC	??_R2bad_alloc@std@@8				; std::bad_alloc::`RTTI Base Class Array'
PUBLIC	??_R1A@?0A@EA@bad_alloc@std@@8			; std::bad_alloc::`RTTI Base Class Descriptor at (0,-1,0,64)'
PUBLIC	??_R4bad_array_new_length@std@@6B@		; std::bad_array_new_length::`RTTI Complete Object Locator'
PUBLIC	??_R3bad_array_new_length@std@@8		; std::bad_array_new_length::`RTTI Class Hierarchy Descriptor'
PUBLIC	??_R2bad_array_new_length@std@@8		; std::bad_array_new_length::`RTTI Base Class Array'
PUBLIC	??_R1A@?0A@EA@bad_array_new_length@std@@8	; std::bad_array_new_length::`RTTI Base Class Descriptor at (0,-1,0,64)'
EXTRN	??_M@YAXPEAX_K1P6AX0@Z@Z:PROC			; `eh vector destructor iterator'
EXTRN	??2@YAPEAX_K@Z:PROC				; operator new
EXTRN	??3@YAXPEAX@Z:PROC				; operator delete
EXTRN	??3@YAXPEAX_K@Z:PROC				; operator delete
EXTRN	??_V@YAXPEAX_K@Z:PROC				; operator delete[]
EXTRN	__imp__invalid_parameter:PROC
EXTRN	memmove:PROC
EXTRN	__imp__CrtDbgReport:PROC
EXTRN	__imp_??0_Lockit@std@@QEAA@H@Z:PROC
EXTRN	__imp_??1_Lockit@std@@QEAA@XZ:PROC
EXTRN	__std_exception_copy:PROC
EXTRN	__std_exception_destroy:PROC
EXTRN	??_Eexception@std@@UEAAPEAXI@Z:PROC		; std::exception::`vector deleting destructor'
EXTRN	??_Ebad_alloc@std@@UEAAPEAXI@Z:PROC		; std::bad_alloc::`vector deleting destructor'
EXTRN	??_Ebad_array_new_length@std@@UEAAPEAXI@Z:PROC	; std::bad_array_new_length::`vector deleting destructor'
EXTRN	?_Xlength_error@std@@YAXPEBD@Z:PROC		; std::_Xlength_error
EXTRN	_CxxThrowException:PROC
EXTRN	__CheckForDebuggerJustMyCode:PROC
EXTRN	__CxxFrameHandler4:PROC
EXTRN	??_7type_info@@6B@:BYTE				; type_info::`vftable'
;	COMDAT pdata
pdata	SEGMENT
$pdata$??2@YAPEAX_KPEAX@Z DD imagerel $LN3
	DD	imagerel $LN3+42
	DD	imagerel $unwind$??2@YAPEAX_KPEAX@Z
pdata	ENDS
;	COMDAT pdata
pdata	SEGMENT
$pdata$?InternalRelease@?$ComPtr@UIUnknown@@@WRL@Microsoft@@IEAAKXZ DD imagerel $LN4
	DD	imagerel $LN4+89
	DD	imagerel $unwind$?InternalRelease@?$ComPtr@UIUnknown@@@WRL@Microsoft@@IEAAKXZ
pdata	ENDS
;	COMDAT pdata
pdata	SEGMENT
$pdata$??1?$ComPtr@UIUnknown@@@WRL@Microsoft@@QEAA@XZ DD imagerel $LN3
	DD	imagerel $LN3+42
	DD	imagerel $unwind$??1?$ComPtr@UIUnknown@@@WRL@Microsoft@@QEAA@XZ
pdata	ENDS
;	COMDAT pdata
pdata	SEGMENT
$pdata$??_E?$ComPtr@UIUnknown@@@WRL@Microsoft@@QEAAPEAXI@Z DD imagerel $LN6
	DD	imagerel $LN6+153
	DD	imagerel $unwind$??_E?$ComPtr@UIUnknown@@@WRL@Microsoft@@QEAAPEAXI@Z
pdata	ENDS
;	COMDAT pdata
pdata	SEGMENT
$pdata$?is_constant_evaluated@std@@YA_NXZ DD imagerel $LN3
	DD	imagerel $LN3+31
	DD	imagerel $unwind$?is_constant_evaluated@std@@YA_NXZ
pdata	ENDS
;	COMDAT pdata
pdata	SEGMENT
$pdata$?max@?$numeric_limits@_J@std@@SA_JXZ DD imagerel $LN3
	DD	imagerel $LN3+39
	DD	imagerel $unwind$?max@?$numeric_limits@_J@std@@SA_JXZ
pdata	ENDS
;	COMDAT pdata
pdata	SEGMENT
$pdata$??0exception@std@@QEAA@QEBDH@Z DD imagerel $LN3
	DD	imagerel $LN3+95
	DD	imagerel $unwind$??0exception@std@@QEAA@QEBDH@Z
pdata	ENDS
;	COMDAT pdata
pdata	SEGMENT
$pdata$??0exception@std@@QEAA@AEBV01@@Z DD imagerel $LN3
	DD	imagerel $LN3+102
	DD	imagerel $unwind$??0exception@std@@QEAA@AEBV01@@Z
pdata	ENDS
;	COMDAT pdata
pdata	SEGMENT
$pdata$??1exception@std@@UEAA@XZ DD imagerel $LN3
	DD	imagerel $LN3+63
	DD	imagerel $unwind$??1exception@std@@UEAA@XZ
pdata	ENDS
;	COMDAT pdata
pdata	SEGMENT
$pdata$?what@exception@std@@UEBAPEBDXZ DD imagerel $LN5
	DD	imagerel $LN5+73
	DD	imagerel $unwind$?what@exception@std@@UEBAPEBDXZ
pdata	ENDS
;	COMDAT pdata
pdata	SEGMENT
$pdata$??_Gexception@std@@UEAAPEAXI@Z DD imagerel $LN4
	DD	imagerel $LN4+62
	DD	imagerel $unwind$??_Gexception@std@@UEAAPEAXI@Z
pdata	ENDS
;	COMDAT pdata
pdata	SEGMENT
$pdata$??0bad_alloc@std@@AEAA@QEBD@Z DD imagerel $LN3
	DD	imagerel $LN3+75
	DD	imagerel $unwind$??0bad_alloc@std@@AEAA@QEBD@Z
pdata	ENDS
;	COMDAT pdata
pdata	SEGMENT
$pdata$??1bad_alloc@std@@UEAA@XZ DD imagerel $LN3
	DD	imagerel $LN3+30
	DD	imagerel $unwind$??1bad_alloc@std@@UEAA@XZ
pdata	ENDS
;	COMDAT pdata
pdata	SEGMENT
$pdata$??0bad_alloc@std@@QEAA@AEBV01@@Z DD imagerel $LN3
	DD	imagerel $LN3+57
	DD	imagerel $unwind$??0bad_alloc@std@@QEAA@AEBV01@@Z
pdata	ENDS
;	COMDAT pdata
pdata	SEGMENT
$pdata$??_Gbad_alloc@std@@UEAAPEAXI@Z DD imagerel $LN4
	DD	imagerel $LN4+62
	DD	imagerel $unwind$??_Gbad_alloc@std@@UEAAPEAXI@Z
pdata	ENDS
;	COMDAT pdata
pdata	SEGMENT
$pdata$??0bad_array_new_length@std@@QEAA@XZ DD imagerel $LN3
	DD	imagerel $LN3+67
	DD	imagerel $unwind$??0bad_array_new_length@std@@QEAA@XZ
pdata	ENDS
;	COMDAT pdata
pdata	SEGMENT
$pdata$??1bad_array_new_length@std@@UEAA@XZ DD imagerel $LN3
	DD	imagerel $LN3+30
	DD	imagerel $unwind$??1bad_array_new_length@std@@UEAA@XZ
pdata	ENDS
;	COMDAT pdata
pdata	SEGMENT
$pdata$??0bad_array_new_length@std@@QEAA@AEBV01@@Z DD imagerel $LN3
	DD	imagerel $LN3+57
	DD	imagerel $unwind$??0bad_array_new_length@std@@QEAA@AEBV01@@Z
pdata	ENDS
;	COMDAT pdata
pdata	SEGMENT
$pdata$??_Gbad_array_new_length@std@@UEAAPEAXI@Z DD imagerel $LN4
	DD	imagerel $LN4+62
	DD	imagerel $unwind$??_Gbad_array_new_length@std@@UEAAPEAXI@Z
pdata	ENDS
;	COMDAT pdata
pdata	SEGMENT
$pdata$?_Throw_bad_array_new_length@std@@YAXXZ DD imagerel $LN3
	DD	imagerel $LN3+57
	DD	imagerel $unwind$?_Throw_bad_array_new_length@std@@YAXXZ
pdata	ENDS
;	COMDAT pdata
pdata	SEGMENT
$pdata$?_Allocate@_Default_allocate_traits@std@@SAPEAX_K@Z DD imagerel $LN3
	DD	imagerel $LN3+42
	DD	imagerel $unwind$?_Allocate@_Default_allocate_traits@std@@SAPEAX_K@Z
pdata	ENDS
;	COMDAT pdata
pdata	SEGMENT
$pdata$?_Adjust_manually_vector_aligned@std@@YAXAEAPEAXAEA_K@Z DD imagerel $LN21
	DD	imagerel $LN21+433
	DD	imagerel $unwind$?_Adjust_manually_vector_aligned@std@@YAXAEAPEAXAEA_K@Z
pdata	ENDS
;	COMDAT pdata
pdata	SEGMENT
$pdata$?_Orphan_all@_Container_base12@std@@QEAAXXZ DD imagerel $LN5
	DD	imagerel $LN5+65
	DD	imagerel $unwind$?_Orphan_all@_Container_base12@std@@QEAAXXZ
pdata	ENDS
;	COMDAT pdata
pdata	SEGMENT
$pdata$?_Orphan_all_unlocked_v3@_Container_base12@std@@AEAAXXZ DD imagerel $LN7
	DD	imagerel $LN7+114
	DD	imagerel $unwind$?_Orphan_all_unlocked_v3@_Container_base12@std@@AEAAXXZ
pdata	ENDS
;	COMDAT pdata
pdata	SEGMENT
$pdata$?_Orphan_all_locked_v3@_Container_base12@std@@AEAAXXZ DD imagerel $LN3
	DD	imagerel $LN3+67
	DD	imagerel $unwind$?_Orphan_all_locked_v3@_Container_base12@std@@AEAAXXZ
pdata	ENDS
;	COMDAT pdata
pdata	SEGMENT
$pdata$??0_Iterator_base12@std@@QEAA@XZ DD imagerel $LN3
	DD	imagerel $LN3+60
	DD	imagerel $unwind$??0_Iterator_base12@std@@QEAA@XZ
pdata	ENDS
;	COMDAT pdata
pdata	SEGMENT
$pdata$??0_Iterator_base12@std@@QEAA@AEBU01@@Z DD imagerel $LN3
	DD	imagerel $LN3+78
	DD	imagerel $unwind$??0_Iterator_base12@std@@QEAA@AEBU01@@Z
pdata	ENDS
;	COMDAT pdata
pdata	SEGMENT
$pdata$??4_Iterator_base12@std@@QEAAAEAU01@AEBU01@@Z DD imagerel $LN5
	DD	imagerel $LN5+82
	DD	imagerel $unwind$??4_Iterator_base12@std@@QEAAAEAU01@AEBU01@@Z
pdata	ENDS
;	COMDAT pdata
pdata	SEGMENT
$pdata$??1_Iterator_base12@std@@QEAA@XZ DD imagerel $LN5
	DD	imagerel $LN5+65
	DD	imagerel $unwind$??1_Iterator_base12@std@@QEAA@XZ
pdata	ENDS
;	COMDAT pdata
pdata	SEGMENT
$pdata$?_Adopt@_Iterator_base12@std@@QEAAXPEBU_Container_base12@2@@Z DD imagerel $LN5
	DD	imagerel $LN5+78
	DD	imagerel $unwind$?_Adopt@_Iterator_base12@std@@QEAAXPEBU_Container_base12@2@@Z
pdata	ENDS
;	COMDAT pdata
pdata	SEGMENT
$pdata$?_Getcont@_Iterator_base12@std@@QEBAPEBU_Container_base12@2@XZ DD imagerel $LN5
	DD	imagerel $LN5+71
	DD	imagerel $unwind$?_Getcont@_Iterator_base12@std@@QEBAPEBU_Container_base12@2@XZ
pdata	ENDS
;	COMDAT pdata
pdata	SEGMENT
$pdata$?_Assign_unlocked@_Iterator_base12@std@@AEAAXAEBU12@@Z DD imagerel $LN6
	DD	imagerel $LN6+96
	DD	imagerel $unwind$?_Assign_unlocked@_Iterator_base12@std@@AEAAXAEBU12@@Z
pdata	ENDS
;	COMDAT pdata
pdata	SEGMENT
$pdata$?_Assign_locked@_Iterator_base12@std@@AEAAXAEBU12@@Z DD imagerel $LN3
	DD	imagerel $LN3+76
	DD	imagerel $unwind$?_Assign_locked@_Iterator_base12@std@@AEAAXAEBU12@@Z
pdata	ENDS
;	COMDAT pdata
pdata	SEGMENT
$pdata$?_Adopt_unlocked@_Iterator_base12@std@@AEAAXPEBU_Container_base12@2@@Z DD imagerel $LN6
	DD	imagerel $LN6+138
	DD	imagerel $unwind$?_Adopt_unlocked@_Iterator_base12@std@@AEAAXPEBU_Container_base12@2@@Z
pdata	ENDS
;	COMDAT pdata
pdata	SEGMENT
$pdata$?_Adopt_locked@_Iterator_base12@std@@AEAAXPEBU_Container_base12@2@@Z DD imagerel $LN3
	DD	imagerel $LN3+76
	DD	imagerel $unwind$?_Adopt_locked@_Iterator_base12@std@@AEAAXPEBU_Container_base12@2@@Z
pdata	ENDS
;	COMDAT pdata
pdata	SEGMENT
$pdata$?_Orphan_me_unlocked_v3@_Iterator_base12@std@@AEAAXXZ DD imagerel $LN15
	DD	imagerel $LN15+257
	DD	imagerel $unwind$?_Orphan_me_unlocked_v3@_Iterator_base12@std@@AEAAXXZ
pdata	ENDS
;	COMDAT pdata
pdata	SEGMENT
$pdata$?_Orphan_me_locked_v3@_Iterator_base12@std@@AEAAXXZ DD imagerel $LN3
	DD	imagerel $LN3+67
	DD	imagerel $unwind$?_Orphan_me_locked_v3@_Iterator_base12@std@@AEAAXXZ
pdata	ENDS
;	COMDAT pdata
pdata	SEGMENT
$pdata$??$exchange@PEAU_Iterator_base12@std@@$$T@std@@YAPEAU_Iterator_base12@0@AEAPEAU10@$$QEA$$T@Z DD imagerel $LN3
	DD	imagerel $LN3+67
	DD	imagerel $unwind$??$exchange@PEAU_Iterator_base12@std@@$$T@std@@YAPEAU_Iterator_base12@0@AEAPEAU10@$$QEA$$T@Z
pdata	ENDS
;	COMDAT pdata
pdata	SEGMENT
$pdata$?deallocate@?$allocator@PEAVD3D12Model@@@std@@QEAAXQEAPEAVD3D12Model@@_K@Z DD imagerel $LN13
	DD	imagerel $LN13+196
	DD	imagerel $unwind$?deallocate@?$allocator@PEAVD3D12Model@@@std@@QEAAXQEAPEAVD3D12Model@@_K@Z
pdata	ENDS
;	COMDAT pdata
pdata	SEGMENT
$pdata$?allocate@?$allocator@PEAVD3D12Model@@@std@@QEAAPEAPEAVD3D12Model@@_K@Z DD imagerel $LN3
	DD	imagerel $LN3+55
	DD	imagerel $unwind$?allocate@?$allocator@PEAVD3D12Model@@@std@@QEAAPEAPEAVD3D12Model@@_K@Z
pdata	ENDS
;	COMDAT pdata
pdata	SEGMENT
$pdata$?max_size@?$_Default_allocator_traits@V?$allocator@PEAVD3D12Model@@@std@@@std@@SA_KAEBV?$allocator@PEAVD3D12Model@@@2@@Z DD imagerel $LN3
	DD	imagerel $LN3+43
	DD	imagerel $unwind$?max_size@?$_Default_allocator_traits@V?$allocator@PEAVD3D12Model@@@std@@@std@@SA_KAEBV?$allocator@PEAVD3D12Model@@@2@@Z
pdata	ENDS
;	COMDAT pdata
pdata	SEGMENT
$pdata$??1?$vector@PEAVD3D12Model@@V?$allocator@PEAVD3D12Model@@@std@@@std@@QEAA@XZ DD imagerel $LN3
	DD	imagerel $LN3+110
	DD	imagerel $unwind$??1?$vector@PEAVD3D12Model@@V?$allocator@PEAVD3D12Model@@@std@@@std@@QEAA@XZ
pdata	ENDS
;	COMDAT pdata
pdata	SEGMENT
$pdata$?push_back@?$vector@PEAVD3D12Model@@V?$allocator@PEAVD3D12Model@@@std@@@std@@QEAAXAEBQEAVD3D12Model@@@Z DD imagerel $LN3
	DD	imagerel $LN3+51
	DD	imagerel $unwind$?push_back@?$vector@PEAVD3D12Model@@V?$allocator@PEAVD3D12Model@@@std@@@std@@QEAAXAEBQEAVD3D12Model@@@Z
pdata	ENDS
;	COMDAT pdata
pdata	SEGMENT
$pdata$??4?$vector@PEAVD3D12Model@@V?$allocator@PEAVD3D12Model@@@std@@@std@@QEAAAEAV01@AEBV01@@Z DD imagerel $LN4
	DD	imagerel $LN4+156
	DD	imagerel $unwind$??4?$vector@PEAVD3D12Model@@V?$allocator@PEAVD3D12Model@@@std@@@std@@QEAAAEAV01@AEBV01@@Z
pdata	ENDS
;	COMDAT pdata
pdata	SEGMENT
$pdata$?_Clear_and_reserve_geometric@?$vector@PEAVD3D12Model@@V?$allocator@PEAVD3D12Model@@@std@@@std@@AEAAX_K@Z DD imagerel $LN5
	DD	imagerel $LN5+275
	DD	imagerel $unwind$?_Clear_and_reserve_geometric@?$vector@PEAVD3D12Model@@V?$allocator@PEAVD3D12Model@@@std@@@std@@AEAAX_K@Z
pdata	ENDS
;	COMDAT pdata
pdata	SEGMENT
$pdata$?clear@?$vector@PEAVD3D12Model@@V?$allocator@PEAVD3D12Model@@@std@@@std@@QEAAXXZ DD imagerel $LN4
	DD	imagerel $LN4+167
	DD	imagerel $unwind$?clear@?$vector@PEAVD3D12Model@@V?$allocator@PEAVD3D12Model@@@std@@@std@@QEAAXXZ
pdata	ENDS
;	COMDAT pdata
pdata	SEGMENT
$pdata$?begin@?$vector@PEAVD3D12Model@@V?$allocator@PEAVD3D12Model@@@std@@@std@@QEAA?AV?$_Vector_iterator@V?$_Vector_val@U?$_Simple_types@PEAVD3D12Model@@@std@@@std@@@2@XZ DD imagerel $LN3
	DD	imagerel $LN3+95
	DD	imagerel $unwind$?begin@?$vector@PEAVD3D12Model@@V?$allocator@PEAVD3D12Model@@@std@@@std@@QEAA?AV?$_Vector_iterator@V?$_Vector_val@U?$_Simple_types@PEAVD3D12Model@@@std@@@std@@@2@XZ
pdata	ENDS
;	COMDAT pdata
pdata	SEGMENT
$pdata$?end@?$vector@PEAVD3D12Model@@V?$allocator@PEAVD3D12Model@@@std@@@std@@QEAA?AV?$_Vector_iterator@V?$_Vector_val@U?$_Simple_types@PEAVD3D12Model@@@std@@@std@@@2@XZ DD imagerel $LN3
	DD	imagerel $LN3+95
	DD	imagerel $unwind$?end@?$vector@PEAVD3D12Model@@V?$allocator@PEAVD3D12Model@@@std@@@std@@QEAA?AV?$_Vector_iterator@V?$_Vector_val@U?$_Simple_types@PEAVD3D12Model@@@std@@@std@@@2@XZ
pdata	ENDS
;	COMDAT pdata
pdata	SEGMENT
$pdata$?max_size@?$vector@PEAVD3D12Model@@V?$allocator@PEAVD3D12Model@@@std@@@std@@QEBA_KXZ DD imagerel $LN3
	DD	imagerel $LN3+79
	DD	imagerel $unwind$?max_size@?$vector@PEAVD3D12Model@@V?$allocator@PEAVD3D12Model@@@std@@@std@@QEBA_KXZ
pdata	ENDS
;	COMDAT pdata
pdata	SEGMENT
$pdata$?capacity@?$vector@PEAVD3D12Model@@V?$allocator@PEAVD3D12Model@@@std@@@std@@QEBA_KXZ DD imagerel $LN3
	DD	imagerel $LN3+64
	DD	imagerel $unwind$?capacity@?$vector@PEAVD3D12Model@@V?$allocator@PEAVD3D12Model@@@std@@@std@@QEBA_KXZ
pdata	ENDS
;	COMDAT pdata
pdata	SEGMENT
$pdata$?_Calculate_growth@?$vector@PEAVD3D12Model@@V?$allocator@PEAVD3D12Model@@@std@@@std@@AEBA_K_K@Z DD imagerel $LN5
	DD	imagerel $LN5+151
	DD	imagerel $unwind$?_Calculate_growth@?$vector@PEAVD3D12Model@@V?$allocator@PEAVD3D12Model@@@std@@@std@@AEBA_K_K@Z
pdata	ENDS
;	COMDAT pdata
pdata	SEGMENT
$pdata$?_Buy_raw@?$vector@PEAVD3D12Model@@V?$allocator@PEAVD3D12Model@@@std@@@std@@AEAAX_K@Z DD imagerel $LN3
	DD	imagerel $LN3+163
	DD	imagerel $unwind$?_Buy_raw@?$vector@PEAVD3D12Model@@V?$allocator@PEAVD3D12Model@@@std@@@std@@AEAAX_K@Z
pdata	ENDS
;	COMDAT pdata
pdata	SEGMENT
$pdata$?_Change_array@?$vector@PEAVD3D12Model@@V?$allocator@PEAVD3D12Model@@@std@@@std@@AEAAXQEAPEAVD3D12Model@@_K1@Z DD imagerel $LN4
	DD	imagerel $LN4+260
	DD	imagerel $unwind$?_Change_array@?$vector@PEAVD3D12Model@@V?$allocator@PEAVD3D12Model@@@std@@@std@@AEAAXQEAPEAVD3D12Model@@_K1@Z
pdata	ENDS
;	COMDAT pdata
pdata	SEGMENT
$pdata$?_Tidy@?$vector@PEAVD3D12Model@@V?$allocator@PEAVD3D12Model@@@std@@@std@@AEAAXXZ DD imagerel $LN4
	DD	imagerel $LN4+214
	DD	imagerel $unwind$?_Tidy@?$vector@PEAVD3D12Model@@V?$allocator@PEAVD3D12Model@@@std@@@std@@AEAAXXZ
pdata	ENDS
;	COMDAT pdata
pdata	SEGMENT
$pdata$?_Xlength@?$vector@PEAVD3D12Model@@V?$allocator@PEAVD3D12Model@@@std@@@std@@CAXXZ DD imagerel $LN3
	DD	imagerel $LN3+41
	DD	imagerel $unwind$?_Xlength@?$vector@PEAVD3D12Model@@V?$allocator@PEAVD3D12Model@@@std@@@std@@CAXXZ
pdata	ENDS
;	COMDAT pdata
pdata	SEGMENT
$pdata$?_Orphan_range_unlocked@?$vector@PEAVD3D12Model@@V?$allocator@PEAVD3D12Model@@@std@@@std@@AEBAXPEAPEAVD3D12Model@@0@Z DD imagerel $LN8
	DD	imagerel $LN8+162
	DD	imagerel $unwind$?_Orphan_range_unlocked@?$vector@PEAVD3D12Model@@V?$allocator@PEAVD3D12Model@@@std@@@std@@AEBAXPEAPEAVD3D12Model@@0@Z
pdata	ENDS
;	COMDAT pdata
pdata	SEGMENT
$pdata$?_Orphan_range_locked@?$vector@PEAVD3D12Model@@V?$allocator@PEAVD3D12Model@@@std@@@std@@AEBAXPEAPEAVD3D12Model@@0@Z DD imagerel $LN4
	DD	imagerel $LN4+87
	DD	imagerel $unwind$?_Orphan_range_locked@?$vector@PEAVD3D12Model@@V?$allocator@PEAVD3D12Model@@@std@@@std@@AEBAXPEAPEAVD3D12Model@@0@Z
pdata	ENDS
;	COMDAT pdata
pdata	SEGMENT
$pdata$?dtor$0@?0??_Orphan_range_locked@?$vector@PEAVD3D12Model@@V?$allocator@PEAVD3D12Model@@@std@@@std@@AEBAXPEAPEAVD3D12Model@@0@Z@4HA DD imagerel ?dtor$0@?0??_Orphan_range_locked@?$vector@PEAVD3D12Model@@V?$allocator@PEAVD3D12Model@@@std@@@std@@AEBAXPEAPEAVD3D12Model@@0@Z@4HA
	DD	imagerel ?dtor$0@?0??_Orphan_range_locked@?$vector@PEAVD3D12Model@@V?$allocator@PEAVD3D12Model@@@std@@@std@@AEBAXPEAPEAVD3D12Model@@0@Z@4HA+26
	DD	imagerel $unwind$?dtor$0@?0??_Orphan_range_locked@?$vector@PEAVD3D12Model@@V?$allocator@PEAVD3D12Model@@@std@@@std@@AEBAXPEAPEAVD3D12Model@@0@Z@4HA
pdata	ENDS
;	COMDAT pdata
pdata	SEGMENT
$pdata$?_Orphan_range@?$vector@PEAVD3D12Model@@V?$allocator@PEAVD3D12Model@@@std@@@std@@AEBAXPEAPEAVD3D12Model@@0@Z DD imagerel $LN5
	DD	imagerel $LN5+91
	DD	imagerel $unwind$?_Orphan_range@?$vector@PEAVD3D12Model@@V?$allocator@PEAVD3D12Model@@@std@@@std@@AEBAXPEAPEAVD3D12Model@@0@Z
pdata	ENDS
;	COMDAT pdata
pdata	SEGMENT
$pdata$?_Getal@?$vector@PEAVD3D12Model@@V?$allocator@PEAVD3D12Model@@@std@@@std@@AEAAAEAV?$allocator@PEAVD3D12Model@@@2@XZ DD imagerel $LN3
	DD	imagerel $LN3+45
	DD	imagerel $unwind$?_Getal@?$vector@PEAVD3D12Model@@V?$allocator@PEAVD3D12Model@@@std@@@std@@AEAAAEAV?$allocator@PEAVD3D12Model@@@2@XZ
pdata	ENDS
;	COMDAT pdata
pdata	SEGMENT
$pdata$?_Getal@?$vector@PEAVD3D12Model@@V?$allocator@PEAVD3D12Model@@@std@@@std@@AEBAAEBV?$allocator@PEAVD3D12Model@@@2@XZ DD imagerel $LN3
	DD	imagerel $LN3+45
	DD	imagerel $unwind$?_Getal@?$vector@PEAVD3D12Model@@V?$allocator@PEAVD3D12Model@@@std@@@std@@AEBAAEBV?$allocator@PEAVD3D12Model@@@2@XZ
pdata	ENDS
;	COMDAT pdata
pdata	SEGMENT
$pdata$?_Make_iterator_offset@?$vector@PEAVD3D12Model@@V?$allocator@PEAVD3D12Model@@@std@@@std@@AEAA?AV?$_Vector_iterator@V?$_Vector_val@U?$_Simple_types@PEAVD3D12Model@@@std@@@std@@@2@_K@Z DD imagerel $LN3
	DD	imagerel $LN3+111
	DD	imagerel $unwind$?_Make_iterator_offset@?$vector@PEAVD3D12Model@@V?$allocator@PEAVD3D12Model@@@std@@@std@@AEAA?AV?$_Vector_iterator@V?$_Vector_val@U?$_Simple_types@PEAVD3D12Model@@@std@@@std@@@2@_K@Z
pdata	ENDS
;	COMDAT pdata
pdata	SEGMENT
$pdata$?_Get_first@?$_Compressed_pair@V?$allocator@PEAVD3D12Model@@@std@@V?$_Vector_val@U?$_Simple_types@PEAVD3D12Model@@@std@@@2@$00@std@@QEAAAEAV?$allocator@PEAVD3D12Model@@@2@XZ DD imagerel $LN3
	DD	imagerel $LN3+37
	DD	imagerel $unwind$?_Get_first@?$_Compressed_pair@V?$allocator@PEAVD3D12Model@@@std@@V?$_Vector_val@U?$_Simple_types@PEAVD3D12Model@@@std@@@2@$00@std@@QEAAAEAV?$allocator@PEAVD3D12Model@@@2@XZ
pdata	ENDS
;	COMDAT pdata
pdata	SEGMENT
$pdata$?_Get_first@?$_Compressed_pair@V?$allocator@PEAVD3D12Model@@@std@@V?$_Vector_val@U?$_Simple_types@PEAVD3D12Model@@@std@@@2@$00@std@@QEBAAEBV?$allocator@PEAVD3D12Model@@@2@XZ DD imagerel $LN3
	DD	imagerel $LN3+37
	DD	imagerel $unwind$?_Get_first@?$_Compressed_pair@V?$allocator@PEAVD3D12Model@@@std@@V?$_Vector_val@U?$_Simple_types@PEAVD3D12Model@@@std@@@2@$00@std@@QEBAAEBV?$allocator@PEAVD3D12Model@@@2@XZ
pdata	ENDS
;	COMDAT pdata
pdata	SEGMENT
$pdata$?SetCamera@D3D12Scene@@QEAAXUD3D12Camera@@@Z DD imagerel $LN3
	DD	imagerel $LN3+61
	DD	imagerel $unwind$?SetCamera@D3D12Scene@@QEAAXUD3D12Camera@@@Z
pdata	ENDS
;	COMDAT pdata
pdata	SEGMENT
$pdata$?AddModel@D3D12Scene@@QEAAXPEAVD3D12Model@@@Z DD imagerel $LN4
	DD	imagerel $LN4+66
	DD	imagerel $unwind$?AddModel@D3D12Scene@@QEAAXPEAVD3D12Model@@@Z
pdata	ENDS
;	COMDAT pdata
pdata	SEGMENT
$pdata$?AddModels@D3D12Scene@@QEAAXV?$vector@PEAVD3D12Model@@V?$allocator@PEAVD3D12Model@@@std@@@std@@@Z DD imagerel $LN9
	DD	imagerel $LN9+325
	DD	imagerel $unwind$?AddModels@D3D12Scene@@QEAAXV?$vector@PEAVD3D12Model@@V?$allocator@PEAVD3D12Model@@@std@@@std@@@Z
pdata	ENDS
;	COMDAT pdata
pdata	SEGMENT
$pdata$?dtor$0@?0??AddModels@D3D12Scene@@QEAAXV?$vector@PEAVD3D12Model@@V?$allocator@PEAVD3D12Model@@@std@@@std@@@Z@4HA DD imagerel ?dtor$0@?0??AddModels@D3D12Scene@@QEAAXV?$vector@PEAVD3D12Model@@V?$allocator@PEAVD3D12Model@@@std@@@std@@@Z@4HA
	DD	imagerel ?dtor$0@?0??AddModels@D3D12Scene@@QEAAXV?$vector@PEAVD3D12Model@@V?$allocator@PEAVD3D12Model@@@std@@@std@@@Z@4HA+28
	DD	imagerel $unwind$?dtor$0@?0??AddModels@D3D12Scene@@QEAAXV?$vector@PEAVD3D12Model@@V?$allocator@PEAVD3D12Model@@@std@@@std@@@Z@4HA
pdata	ENDS
;	COMDAT pdata
pdata	SEGMENT
$pdata$?dtor$3@?0??AddModels@D3D12Scene@@QEAAXV?$vector@PEAVD3D12Model@@V?$allocator@PEAVD3D12Model@@@std@@@std@@@Z@4HA DD imagerel ?dtor$3@?0??AddModels@D3D12Scene@@QEAAXV?$vector@PEAVD3D12Model@@V?$allocator@PEAVD3D12Model@@@std@@@std@@@Z@4HA
	DD	imagerel ?dtor$3@?0??AddModels@D3D12Scene@@QEAAXV?$vector@PEAVD3D12Model@@V?$allocator@PEAVD3D12Model@@@std@@@std@@@Z@4HA+28
	DD	imagerel $unwind$?dtor$3@?0??AddModels@D3D12Scene@@QEAAXV?$vector@PEAVD3D12Model@@V?$allocator@PEAVD3D12Model@@@std@@@std@@@Z@4HA
pdata	ENDS
;	COMDAT pdata
pdata	SEGMENT
$pdata$?SetModels@D3D12Scene@@QEAAXV?$vector@PEAVD3D12Model@@V?$allocator@PEAVD3D12Model@@@std@@@std@@@Z DD imagerel $LN4
	DD	imagerel $LN4+64
	DD	imagerel $unwind$?SetModels@D3D12Scene@@QEAAXV?$vector@PEAVD3D12Model@@V?$allocator@PEAVD3D12Model@@@std@@@std@@@Z
pdata	ENDS
;	COMDAT pdata
pdata	SEGMENT
$pdata$?dtor$0@?0??SetModels@D3D12Scene@@QEAAXV?$vector@PEAVD3D12Model@@V?$allocator@PEAVD3D12Model@@@std@@@std@@@Z@4HA DD imagerel ?dtor$0@?0??SetModels@D3D12Scene@@QEAAXV?$vector@PEAVD3D12Model@@V?$allocator@PEAVD3D12Model@@@std@@@std@@@Z@4HA
	DD	imagerel ?dtor$0@?0??SetModels@D3D12Scene@@QEAAXV?$vector@PEAVD3D12Model@@V?$allocator@PEAVD3D12Model@@@std@@@std@@@Z@4HA+25
	DD	imagerel $unwind$?dtor$0@?0??SetModels@D3D12Scene@@QEAAXV?$vector@PEAVD3D12Model@@V?$allocator@PEAVD3D12Model@@@std@@@std@@@Z@4HA
pdata	ENDS
;	COMDAT pdata
pdata	SEGMENT
$pdata$?ResetModels@D3D12Scene@@QEAAXXZ DD imagerel $LN3
	DD	imagerel $LN3+45
	DD	imagerel $unwind$?ResetModels@D3D12Scene@@QEAAXXZ
pdata	ENDS
;	COMDAT pdata
pdata	SEGMENT
$pdata$??0?$_Vector_const_iterator@V?$_Vector_val@U?$_Simple_types@PEAVD3D12Model@@@std@@@std@@@std@@QEAA@PEAPEAVD3D12Model@@PEBU_Container_base12@1@@Z DD imagerel $LN3
	DD	imagerel $LN3+81
	DD	imagerel $unwind$??0?$_Vector_const_iterator@V?$_Vector_val@U?$_Simple_types@PEAVD3D12Model@@@std@@@std@@@std@@QEAA@PEAPEAVD3D12Model@@PEBU_Container_base12@1@@Z
pdata	ENDS
;	COMDAT pdata
pdata	SEGMENT
$pdata$?_Verify_range@std@@YAXAEBV?$_Vector_const_iterator@V?$_Vector_val@U?$_Simple_types@PEAVD3D12Model@@@std@@@std@@@1@0@Z DD imagerel $LN21
	DD	imagerel $LN21+328
	DD	imagerel $unwind$?_Verify_range@std@@YAXAEBV?$_Vector_const_iterator@V?$_Vector_val@U?$_Simple_types@PEAVD3D12Model@@@std@@@std@@@1@0@Z
pdata	ENDS
;	COMDAT pdata
pdata	SEGMENT
$pdata$??1?$_Vector_const_iterator@V?$_Vector_val@U?$_Simple_types@PEAVD3D12Model@@@std@@@std@@@std@@QEAA@XZ DD imagerel $LN3
	DD	imagerel $LN3+30
	DD	imagerel $unwind$??1?$_Vector_const_iterator@V?$_Vector_val@U?$_Simple_types@PEAVD3D12Model@@@std@@@std@@@std@@QEAA@XZ
pdata	ENDS
;	COMDAT pdata
pdata	SEGMENT
$pdata$??0?$_Vector_const_iterator@V?$_Vector_val@U?$_Simple_types@PEAVD3D12Model@@@std@@@std@@@std@@QEAA@AEBV01@@Z DD imagerel $LN3
	DD	imagerel $LN3+59
	DD	imagerel $unwind$??0?$_Vector_const_iterator@V?$_Vector_val@U?$_Simple_types@PEAVD3D12Model@@@std@@@std@@@std@@QEAA@AEBV01@@Z
pdata	ENDS
;	COMDAT pdata
pdata	SEGMENT
$pdata$??0?$_Vector_const_iterator@V?$_Vector_val@U?$_Simple_types@PEAVD3D12Model@@@std@@@std@@@std@@QEAA@$$QEAV01@@Z DD imagerel $LN3
	DD	imagerel $LN3+59
	DD	imagerel $unwind$??0?$_Vector_const_iterator@V?$_Vector_val@U?$_Simple_types@PEAVD3D12Model@@@std@@@std@@@std@@QEAA@$$QEAV01@@Z
pdata	ENDS
;	COMDAT pdata
pdata	SEGMENT
$pdata$?_Unwrapped@?$_Vector_iterator@V?$_Vector_val@U?$_Simple_types@PEAVD3D12Model@@@std@@@std@@@std@@QEBAPEAPEAVD3D12Model@@XZ DD imagerel $LN3
	DD	imagerel $LN3+46
	DD	imagerel $unwind$?_Unwrapped@?$_Vector_iterator@V?$_Vector_val@U?$_Simple_types@PEAVD3D12Model@@@std@@@std@@@std@@QEBAPEAPEAVD3D12Model@@XZ
pdata	ENDS
;	COMDAT pdata
pdata	SEGMENT
$pdata$??1?$_Vector_iterator@V?$_Vector_val@U?$_Simple_types@PEAVD3D12Model@@@std@@@std@@@std@@QEAA@XZ DD imagerel $LN3
	DD	imagerel $LN3+30
	DD	imagerel $unwind$??1?$_Vector_iterator@V?$_Vector_val@U?$_Simple_types@PEAVD3D12Model@@@std@@@std@@@std@@QEAA@XZ
pdata	ENDS
;	COMDAT pdata
pdata	SEGMENT
$pdata$??0?$_Vector_iterator@V?$_Vector_val@U?$_Simple_types@PEAVD3D12Model@@@std@@@std@@@std@@QEAA@PEAPEAVD3D12Model@@PEBU_Container_base12@1@@Z DD imagerel $LN3
	DD	imagerel $LN3+52
	DD	imagerel $unwind$??0?$_Vector_iterator@V?$_Vector_val@U?$_Simple_types@PEAVD3D12Model@@@std@@@std@@@std@@QEAA@PEAPEAVD3D12Model@@PEBU_Container_base12@1@@Z
pdata	ENDS
;	COMDAT pdata
pdata	SEGMENT
$pdata$??$insert@V?$_Vector_iterator@V?$_Vector_val@U?$_Simple_types@PEAVD3D12Model@@@std@@@std@@@std@@$0A@@?$vector@PEAVD3D12Model@@V?$allocator@PEAVD3D12Model@@@std@@@std@@QEAA?AV?$_Vector_iterator@V?$_Vector_val@U?$_Simple_types@PEAVD3D12Model@@@std@@@std@@@1@V?$_Vector_const_iterator@V?$_Vector_val@U?$_Simple_types@PEAVD3D12Model@@@std@@@std@@@1@V21@1@Z DD imagerel $LN18
	DD	imagerel $LN18+538
	DD	imagerel $unwind$??$insert@V?$_Vector_iterator@V?$_Vector_val@U?$_Simple_types@PEAVD3D12Model@@@std@@@std@@@std@@$0A@@?$vector@PEAVD3D12Model@@V?$allocator@PEAVD3D12Model@@@std@@@std@@QEAA?AV?$_Vector_iterator@V?$_Vector_val@U?$_Simple_types@PEAVD3D12Model@@@std@@@std@@@1@V?$_Vector_const_iterator@V?$_Vector_val@U?$_Simple_types@PEAVD3D12Model@@@std@@@std@@@1@V21@1@Z
pdata	ENDS
;	COMDAT pdata
pdata	SEGMENT
$pdata$?dtor$0@?0???$insert@V?$_Vector_iterator@V?$_Vector_val@U?$_Simple_types@PEAVD3D12Model@@@std@@@std@@@std@@$0A@@?$vector@PEAVD3D12Model@@V?$allocator@PEAVD3D12Model@@@std@@@std@@QEAA?AV?$_Vector_iterator@V?$_Vector_val@U?$_Simple_types@PEAVD3D12Model@@@std@@@std@@@1@V?$_Vector_const_iterator@V?$_Vector_val@U?$_Simple_types@PEAVD3D12Model@@@std@@@std@@@1@V21@1@Z@4HA DD imagerel ?dtor$0@?0???$insert@V?$_Vector_iterator@V?$_Vector_val@U?$_Simple_types@PEAVD3D12Model@@@std@@@std@@@std@@$0A@@?$vector@PEAVD3D12Model@@V?$allocator@PEAVD3D12Model@@@std@@@std@@QEAA?AV?$_Vector_iterator@V?$_Vector_val@U?$_Simple_types@PEAVD3D12Model@@@std@@@std@@@1@V?$_Vector_const_iterator@V?$_Vector_val@U?$_Simple_types@PEAVD3D12Model@@@std@@@std@@@1@V21@1@Z@4HA
	DD	imagerel ?dtor$0@?0???$insert@V?$_Vector_iterator@V?$_Vector_val@U?$_Simple_types@PEAVD3D12Model@@@std@@@std@@@std@@$0A@@?$vector@PEAVD3D12Model@@V?$allocator@PEAVD3D12Model@@@std@@@std@@QEAA?AV?$_Vector_iterator@V?$_Vector_val@U?$_Simple_types@PEAVD3D12Model@@@std@@@std@@@1@V?$_Vector_const_iterator@V?$_Vector_val@U?$_Simple_types@PEAVD3D12Model@@@std@@@std@@@1@V21@1@Z@4HA+28
	DD	imagerel $unwind$?dtor$0@?0???$insert@V?$_Vector_iterator@V?$_Vector_val@U?$_Simple_types@PEAVD3D12Model@@@std@@@std@@@std@@$0A@@?$vector@PEAVD3D12Model@@V?$allocator@PEAVD3D12Model@@@std@@@std@@QEAA?AV?$_Vector_iterator@V?$_Vector_val@U?$_Simple_types@PEAVD3D12Model@@@std@@@std@@@1@V?$_Vector_const_iterator@V?$_Vector_val@U?$_Simple_types@PEAVD3D12Model@@@std@@@std@@@1@V21@1@Z@4HA
pdata	ENDS
;	COMDAT pdata
pdata	SEGMENT
$pdata$?dtor$1@?0???$insert@V?$_Vector_iterator@V?$_Vector_val@U?$_Simple_types@PEAVD3D12Model@@@std@@@std@@@std@@$0A@@?$vector@PEAVD3D12Model@@V?$allocator@PEAVD3D12Model@@@std@@@std@@QEAA?AV?$_Vector_iterator@V?$_Vector_val@U?$_Simple_types@PEAVD3D12Model@@@std@@@std@@@1@V?$_Vector_const_iterator@V?$_Vector_val@U?$_Simple_types@PEAVD3D12Model@@@std@@@std@@@1@V21@1@Z@4HA DD imagerel ?dtor$1@?0???$insert@V?$_Vector_iterator@V?$_Vector_val@U?$_Simple_types@PEAVD3D12Model@@@std@@@std@@@std@@$0A@@?$vector@PEAVD3D12Model@@V?$allocator@PEAVD3D12Model@@@std@@@std@@QEAA?AV?$_Vector_iterator@V?$_Vector_val@U?$_Simple_types@PEAVD3D12Model@@@std@@@std@@@1@V?$_Vector_const_iterator@V?$_Vector_val@U?$_Simple_types@PEAVD3D12Model@@@std@@@std@@@1@V21@1@Z@4HA
	DD	imagerel ?dtor$1@?0???$insert@V?$_Vector_iterator@V?$_Vector_val@U?$_Simple_types@PEAVD3D12Model@@@std@@@std@@@std@@$0A@@?$vector@PEAVD3D12Model@@V?$allocator@PEAVD3D12Model@@@std@@@std@@QEAA?AV?$_Vector_iterator@V?$_Vector_val@U?$_Simple_types@PEAVD3D12Model@@@std@@@std@@@1@V?$_Vector_const_iterator@V?$_Vector_val@U?$_Simple_types@PEAVD3D12Model@@@std@@@std@@@1@V21@1@Z@4HA+28
	DD	imagerel $unwind$?dtor$1@?0???$insert@V?$_Vector_iterator@V?$_Vector_val@U?$_Simple_types@PEAVD3D12Model@@@std@@@std@@@std@@$0A@@?$vector@PEAVD3D12Model@@V?$allocator@PEAVD3D12Model@@@std@@@std@@QEAA?AV?$_Vector_iterator@V?$_Vector_val@U?$_Simple_types@PEAVD3D12Model@@@std@@@std@@@1@V?$_Vector_const_iterator@V?$_Vector_val@U?$_Simple_types@PEAVD3D12Model@@@std@@@std@@@1@V21@1@Z@4HA
pdata	ENDS
;	COMDAT pdata
pdata	SEGMENT
$pdata$?dtor$2@?0???$insert@V?$_Vector_iterator@V?$_Vector_val@U?$_Simple_types@PEAVD3D12Model@@@std@@@std@@@std@@$0A@@?$vector@PEAVD3D12Model@@V?$allocator@PEAVD3D12Model@@@std@@@std@@QEAA?AV?$_Vector_iterator@V?$_Vector_val@U?$_Simple_types@PEAVD3D12Model@@@std@@@std@@@1@V?$_Vector_const_iterator@V?$_Vector_val@U?$_Simple_types@PEAVD3D12Model@@@std@@@std@@@1@V21@1@Z@4HA DD imagerel ?dtor$2@?0???$insert@V?$_Vector_iterator@V?$_Vector_val@U?$_Simple_types@PEAVD3D12Model@@@std@@@std@@@std@@$0A@@?$vector@PEAVD3D12Model@@V?$allocator@PEAVD3D12Model@@@std@@@std@@QEAA?AV?$_Vector_iterator@V?$_Vector_val@U?$_Simple_types@PEAVD3D12Model@@@std@@@std@@@1@V?$_Vector_const_iterator@V?$_Vector_val@U?$_Simple_types@PEAVD3D12Model@@@std@@@std@@@1@V21@1@Z@4HA
	DD	imagerel ?dtor$2@?0???$insert@V?$_Vector_iterator@V?$_Vector_val@U?$_Simple_types@PEAVD3D12Model@@@std@@@std@@@std@@$0A@@?$vector@PEAVD3D12Model@@V?$allocator@PEAVD3D12Model@@@std@@@std@@QEAA?AV?$_Vector_iterator@V?$_Vector_val@U?$_Simple_types@PEAVD3D12Model@@@std@@@std@@@1@V?$_Vector_const_iterator@V?$_Vector_val@U?$_Simple_types@PEAVD3D12Model@@@std@@@std@@@1@V21@1@Z@4HA+28
	DD	imagerel $unwind$?dtor$2@?0???$insert@V?$_Vector_iterator@V?$_Vector_val@U?$_Simple_types@PEAVD3D12Model@@@std@@@std@@@std@@$0A@@?$vector@PEAVD3D12Model@@V?$allocator@PEAVD3D12Model@@@std@@@std@@QEAA?AV?$_Vector_iterator@V?$_Vector_val@U?$_Simple_types@PEAVD3D12Model@@@std@@@std@@@1@V?$_Vector_const_iterator@V?$_Vector_val@U?$_Simple_types@PEAVD3D12Model@@@std@@@std@@@1@V21@1@Z@4HA
pdata	ENDS
;	COMDAT pdata
pdata	SEGMENT
$pdata$??$addressof@V?$_Vector_val@U?$_Simple_types@PEAVD3D12Model@@@std@@@std@@@std@@YAPEAV?$_Vector_val@U?$_Simple_types@PEAVD3D12Model@@@std@@@0@AEAV10@@Z DD imagerel $LN3
	DD	imagerel $LN3+37
	DD	imagerel $unwind$??$addressof@V?$_Vector_val@U?$_Simple_types@PEAVD3D12Model@@@std@@@std@@@std@@YAPEAV?$_Vector_val@U?$_Simple_types@PEAVD3D12Model@@@std@@@0@AEAV10@@Z
pdata	ENDS
;	COMDAT pdata
pdata	SEGMENT
$pdata$??$_Destroy_range@V?$allocator@PEAVD3D12Model@@@std@@@std@@YAXPEAPEAVD3D12Model@@QEAPEAV1@AEAV?$allocator@PEAVD3D12Model@@@0@@Z DD imagerel $LN3
	DD	imagerel $LN3+43
	DD	imagerel $unwind$??$_Destroy_range@V?$allocator@PEAVD3D12Model@@@std@@@std@@YAXPEAPEAVD3D12Model@@QEAPEAV1@AEAV?$allocator@PEAVD3D12Model@@@0@@Z
pdata	ENDS
;	COMDAT pdata
pdata	SEGMENT
$pdata$??$addressof@$$CBV?$vector@PEAVD3D12Model@@V?$allocator@PEAVD3D12Model@@@std@@@std@@@std@@YAPEBV?$vector@PEAVD3D12Model@@V?$allocator@PEAVD3D12Model@@@std@@@0@AEBV10@@Z DD imagerel $LN3
	DD	imagerel $LN3+37
	DD	imagerel $unwind$??$addressof@$$CBV?$vector@PEAVD3D12Model@@V?$allocator@PEAVD3D12Model@@@std@@@std@@@std@@YAPEBV?$vector@PEAVD3D12Model@@V?$allocator@PEAVD3D12Model@@@std@@@0@AEBV10@@Z
pdata	ENDS
;	COMDAT pdata
pdata	SEGMENT
$pdata$??$_Pocca@V?$allocator@PEAVD3D12Model@@@std@@@std@@YAXAEAV?$allocator@PEAVD3D12Model@@@0@AEBV10@@Z DD imagerel $LN3
	DD	imagerel $LN3+38
	DD	imagerel $unwind$??$_Pocca@V?$allocator@PEAVD3D12Model@@@std@@@std@@YAXAEAV?$allocator@PEAVD3D12Model@@@0@AEBV10@@Z
pdata	ENDS
;	COMDAT pdata
pdata	SEGMENT
$pdata$??$_Assign_counted_range@PEAPEAVD3D12Model@@@?$vector@PEAVD3D12Model@@V?$allocator@PEAVD3D12Model@@@std@@@std@@AEAAXPEAPEAVD3D12Model@@_K@Z DD imagerel $LN11
	DD	imagerel $LN11+545
	DD	imagerel $unwind$??$_Assign_counted_range@PEAPEAVD3D12Model@@@?$vector@PEAVD3D12Model@@V?$allocator@PEAVD3D12Model@@@std@@@std@@AEAAXPEAPEAVD3D12Model@@_K@Z
pdata	ENDS
;	COMDAT pdata
pdata	SEGMENT
$pdata$??$_Emplace_one_at_back@AEBQEAVD3D12Model@@@?$vector@PEAVD3D12Model@@V?$allocator@PEAVD3D12Model@@@std@@@std@@AEAAAEAPEAVD3D12Model@@AEBQEAV2@@Z DD imagerel $LN4
	DD	imagerel $LN4+110
	DD	imagerel $unwind$??$_Emplace_one_at_back@AEBQEAVD3D12Model@@@?$vector@PEAVD3D12Model@@V?$allocator@PEAVD3D12Model@@@std@@@std@@AEAAAEAPEAVD3D12Model@@AEBQEAV2@@Z
pdata	ENDS
;	COMDAT pdata
pdata	SEGMENT
$pdata$?deallocate@?$allocator@U_Container_proxy@std@@@std@@QEAAXQEAU_Container_proxy@2@_K@Z DD imagerel $LN13
	DD	imagerel $LN13+193
	DD	imagerel $unwind$?deallocate@?$allocator@U_Container_proxy@std@@@std@@QEAAXQEAU_Container_proxy@2@_K@Z
pdata	ENDS
;	COMDAT pdata
pdata	SEGMENT
$pdata$??$?0PEAVD3D12Model@@@?$allocator@U_Container_proxy@std@@@std@@QEAA@AEBV?$allocator@PEAVD3D12Model@@@1@@Z DD imagerel $LN3
	DD	imagerel $LN3+42
	DD	imagerel $unwind$??$?0PEAVD3D12Model@@@?$allocator@U_Container_proxy@std@@@std@@QEAA@AEBV?$allocator@PEAVD3D12Model@@@1@@Z
pdata	ENDS
;	COMDAT pdata
pdata	SEGMENT
$pdata$??$exchange@PEAU_Container_proxy@std@@$$T@std@@YAPEAU_Container_proxy@0@AEAPEAU10@$$QEA$$T@Z DD imagerel $LN3
	DD	imagerel $LN3+67
	DD	imagerel $unwind$??$exchange@PEAU_Container_proxy@std@@$$T@std@@YAPEAU_Container_proxy@0@AEAPEAU10@$$QEA$$T@Z
pdata	ENDS
;	COMDAT pdata
pdata	SEGMENT
$pdata$??$_Delete_plain_internal@V?$allocator@U_Container_proxy@std@@@std@@@std@@YAXAEAV?$allocator@U_Container_proxy@std@@@0@QEAU_Container_proxy@0@@Z DD imagerel $LN3
	DD	imagerel $LN3+51
	DD	imagerel $unwind$??$_Delete_plain_internal@V?$allocator@U_Container_proxy@std@@@std@@@std@@YAXAEAV?$allocator@U_Container_proxy@std@@@0@QEAU_Container_proxy@0@@Z
pdata	ENDS
;	COMDAT pdata
pdata	SEGMENT
$pdata$??$_Deallocate@$0BA@$0A@@std@@YAXPEAX_K@Z DD imagerel $LN6
	DD	imagerel $LN6+98
	DD	imagerel $unwind$??$_Deallocate@$0BA@$0A@@std@@YAXPEAX_K@Z
pdata	ENDS
;	COMDAT pdata
pdata	SEGMENT
$pdata$??$_Adl_verify_range@V?$_Vector_iterator@V?$_Vector_val@U?$_Simple_types@PEAVD3D12Model@@@std@@@std@@@std@@V12@@std@@YAXAEBV?$_Vector_iterator@V?$_Vector_val@U?$_Simple_types@PEAVD3D12Model@@@std@@@std@@@0@0@Z DD imagerel $LN3
	DD	imagerel $LN3+51
	DD	imagerel $unwind$??$_Adl_verify_range@V?$_Vector_iterator@V?$_Vector_val@U?$_Simple_types@PEAVD3D12Model@@@std@@@std@@@std@@V12@@std@@YAXAEBV?$_Vector_iterator@V?$_Vector_val@U?$_Simple_types@PEAVD3D12Model@@@std@@@std@@@0@0@Z
pdata	ENDS
;	COMDAT pdata
pdata	SEGMENT
$pdata$??$_Get_unwrapped@AEAV?$_Vector_iterator@V?$_Vector_val@U?$_Simple_types@PEAVD3D12Model@@@std@@@std@@@std@@@std@@YA?A_TAEAV?$_Vector_iterator@V?$_Vector_val@U?$_Simple_types@PEAVD3D12Model@@@std@@@std@@@0@@Z DD imagerel $LN3
	DD	imagerel $LN3+42
	DD	imagerel $unwind$??$_Get_unwrapped@AEAV?$_Vector_iterator@V?$_Vector_val@U?$_Simple_types@PEAVD3D12Model@@@std@@@std@@@std@@@std@@YA?A_TAEAV?$_Vector_iterator@V?$_Vector_val@U?$_Simple_types@PEAVD3D12Model@@@std@@@std@@@0@@Z
pdata	ENDS
;	COMDAT pdata
pdata	SEGMENT
$pdata$??$distance@PEAPEAVD3D12Model@@@std@@YA_JPEAPEAVD3D12Model@@0@Z DD imagerel $LN3
	DD	imagerel $LN3+56
	DD	imagerel $unwind$??$distance@PEAPEAVD3D12Model@@@std@@YA_JPEAPEAVD3D12Model@@0@Z
pdata	ENDS
;	COMDAT pdata
pdata	SEGMENT
$pdata$??$_Convert_size@_K_K@std@@YA_K_K@Z DD imagerel $LN3
	DD	imagerel $LN3+37
	DD	imagerel $unwind$??$_Convert_size@_K_K@std@@YA_K_K@Z
pdata	ENDS
;	COMDAT pdata
pdata	SEGMENT
$pdata$??$_Insert_counted_range@PEAPEAVD3D12Model@@@?$vector@PEAVD3D12Model@@V?$allocator@PEAVD3D12Model@@@std@@@std@@AEAAXV?$_Vector_const_iterator@V?$_Vector_val@U?$_Simple_types@PEAVD3D12Model@@@std@@@std@@@1@PEAPEAVD3D12Model@@_K@Z DD imagerel $LN44
	DD	imagerel $LN44+870
	DD	imagerel $unwind$??$_Insert_counted_range@PEAPEAVD3D12Model@@@?$vector@PEAVD3D12Model@@V?$allocator@PEAVD3D12Model@@@std@@@std@@AEAAXV?$_Vector_const_iterator@V?$_Vector_val@U?$_Simple_types@PEAVD3D12Model@@@std@@@std@@@1@PEAPEAVD3D12Model@@_K@Z
pdata	ENDS
;	COMDAT pdata
pdata	SEGMENT
$pdata$?dtor$0@?0???$_Insert_counted_range@PEAPEAVD3D12Model@@@?$vector@PEAVD3D12Model@@V?$allocator@PEAVD3D12Model@@@std@@@std@@AEAAXV?$_Vector_const_iterator@V?$_Vector_val@U?$_Simple_types@PEAVD3D12Model@@@std@@@std@@@1@PEAPEAVD3D12Model@@_K@Z@4HA DD imagerel ?dtor$0@?0???$_Insert_counted_range@PEAPEAVD3D12Model@@@?$vector@PEAVD3D12Model@@V?$allocator@PEAVD3D12Model@@@std@@@std@@AEAAXV?$_Vector_const_iterator@V?$_Vector_val@U?$_Simple_types@PEAVD3D12Model@@@std@@@std@@@1@PEAPEAVD3D12Model@@_K@Z@4HA
	DD	imagerel ?dtor$0@?0???$_Insert_counted_range@PEAPEAVD3D12Model@@@?$vector@PEAVD3D12Model@@V?$allocator@PEAVD3D12Model@@@std@@@std@@AEAAXV?$_Vector_const_iterator@V?$_Vector_val@U?$_Simple_types@PEAVD3D12Model@@@std@@@std@@@1@PEAPEAVD3D12Model@@_K@Z@4HA+28
	DD	imagerel $unwind$?dtor$0@?0???$_Insert_counted_range@PEAPEAVD3D12Model@@@?$vector@PEAVD3D12Model@@V?$allocator@PEAVD3D12Model@@@std@@@std@@AEAAXV?$_Vector_const_iterator@V?$_Vector_val@U?$_Simple_types@PEAVD3D12Model@@@std@@@std@@@1@PEAPEAVD3D12Model@@_K@Z@4HA
pdata	ENDS
;	COMDAT pdata
pdata	SEGMENT
$pdata$?catch$1@?0???$_Insert_counted_range@PEAPEAVD3D12Model@@@?$vector@PEAVD3D12Model@@V?$allocator@PEAVD3D12Model@@@std@@@std@@AEAAXV?$_Vector_const_iterator@V?$_Vector_val@U?$_Simple_types@PEAVD3D12Model@@@std@@@std@@@1@PEAPEAVD3D12Model@@_K@Z@4HA DD imagerel ?catch$1@?0???$_Insert_counted_range@PEAPEAVD3D12Model@@@?$vector@PEAVD3D12Model@@V?$allocator@PEAVD3D12Model@@@std@@@std@@AEAAXV?$_Vector_const_iterator@V?$_Vector_val@U?$_Simple_types@PEAVD3D12Model@@@std@@@std@@@1@PEAPEAVD3D12Model@@_K@Z@4HA
	DD	imagerel ?catch$1@?0???$_Insert_counted_range@PEAPEAVD3D12Model@@@?$vector@PEAVD3D12Model@@V?$allocator@PEAVD3D12Model@@@std@@@std@@AEAAXV?$_Vector_const_iterator@V?$_Vector_val@U?$_Simple_types@PEAVD3D12Model@@@std@@@std@@@1@PEAPEAVD3D12Model@@_K@Z@4HA+72
	DD	imagerel $unwind$?catch$1@?0???$_Insert_counted_range@PEAPEAVD3D12Model@@@?$vector@PEAVD3D12Model@@V?$allocator@PEAVD3D12Model@@@std@@@std@@AEAAXV?$_Vector_const_iterator@V?$_Vector_val@U?$_Simple_types@PEAVD3D12Model@@@std@@@std@@@1@PEAPEAVD3D12Model@@_K@Z@4HA
pdata	ENDS
;	COMDAT pdata
pdata	SEGMENT
$pdata$?catch$3@?0???$_Insert_counted_range@PEAPEAVD3D12Model@@@?$vector@PEAVD3D12Model@@V?$allocator@PEAVD3D12Model@@@std@@@std@@AEAAXV?$_Vector_const_iterator@V?$_Vector_val@U?$_Simple_types@PEAVD3D12Model@@@std@@@std@@@1@PEAPEAVD3D12Model@@_K@Z@4HA DD imagerel ?catch$3@?0???$_Insert_counted_range@PEAPEAVD3D12Model@@@?$vector@PEAVD3D12Model@@V?$allocator@PEAVD3D12Model@@@std@@@std@@AEAAXV?$_Vector_const_iterator@V?$_Vector_val@U?$_Simple_types@PEAVD3D12Model@@@std@@@std@@@1@PEAPEAVD3D12Model@@_K@Z@4HA
	DD	imagerel ?catch$3@?0???$_Insert_counted_range@PEAPEAVD3D12Model@@@?$vector@PEAVD3D12Model@@V?$allocator@PEAVD3D12Model@@@std@@@std@@AEAAXV?$_Vector_const_iterator@V?$_Vector_val@U?$_Simple_types@PEAVD3D12Model@@@std@@@std@@@1@PEAPEAVD3D12Model@@_K@Z@4HA+169
	DD	imagerel $unwind$?catch$3@?0???$_Insert_counted_range@PEAPEAVD3D12Model@@@?$vector@PEAVD3D12Model@@V?$allocator@PEAVD3D12Model@@@std@@@std@@AEAAXV?$_Vector_const_iterator@V?$_Vector_val@U?$_Simple_types@PEAVD3D12Model@@@std@@@std@@@1@PEAPEAVD3D12Model@@_K@Z@4HA
pdata	ENDS
;	COMDAT pdata
pdata	SEGMENT
$pdata$?catch$2@?0???$_Insert_counted_range@PEAPEAVD3D12Model@@@?$vector@PEAVD3D12Model@@V?$allocator@PEAVD3D12Model@@@std@@@std@@AEAAXV?$_Vector_const_iterator@V?$_Vector_val@U?$_Simple_types@PEAVD3D12Model@@@std@@@std@@@1@PEAPEAVD3D12Model@@_K@Z@4HA DD imagerel ?catch$2@?0???$_Insert_counted_range@PEAPEAVD3D12Model@@@?$vector@PEAVD3D12Model@@V?$allocator@PEAVD3D12Model@@@std@@@std@@AEAAXV?$_Vector_const_iterator@V?$_Vector_val@U?$_Simple_types@PEAVD3D12Model@@@std@@@std@@@1@PEAPEAVD3D12Model@@_K@Z@4HA
	DD	imagerel ?catch$2@?0???$_Insert_counted_range@PEAPEAVD3D12Model@@@?$vector@PEAVD3D12Model@@V?$allocator@PEAVD3D12Model@@@std@@@std@@AEAAXV?$_Vector_const_iterator@V?$_Vector_val@U?$_Simple_types@PEAVD3D12Model@@@std@@@std@@@1@PEAPEAVD3D12Model@@_K@Z@4HA+103
	DD	imagerel $unwind$?catch$2@?0???$_Insert_counted_range@PEAPEAVD3D12Model@@@?$vector@PEAVD3D12Model@@V?$allocator@PEAVD3D12Model@@@std@@@std@@AEAAXV?$_Vector_const_iterator@V?$_Vector_val@U?$_Simple_types@PEAVD3D12Model@@@std@@@std@@@1@PEAPEAVD3D12Model@@_K@Z@4HA
pdata	ENDS
;	COMDAT pdata
pdata	SEGMENT
$pdata$?catch$5@?0???$_Insert_counted_range@PEAPEAVD3D12Model@@@?$vector@PEAVD3D12Model@@V?$allocator@PEAVD3D12Model@@@std@@@std@@AEAAXV?$_Vector_const_iterator@V?$_Vector_val@U?$_Simple_types@PEAVD3D12Model@@@std@@@std@@@1@PEAPEAVD3D12Model@@_K@Z@4HA DD imagerel ?catch$5@?0???$_Insert_counted_range@PEAPEAVD3D12Model@@@?$vector@PEAVD3D12Model@@V?$allocator@PEAVD3D12Model@@@std@@@std@@AEAAXV?$_Vector_const_iterator@V?$_Vector_val@U?$_Simple_types@PEAVD3D12Model@@@std@@@std@@@1@PEAPEAVD3D12Model@@_K@Z@4HA
	DD	imagerel ?catch$5@?0???$_Insert_counted_range@PEAPEAVD3D12Model@@@?$vector@PEAVD3D12Model@@V?$allocator@PEAVD3D12Model@@@std@@@std@@AEAAXV?$_Vector_const_iterator@V?$_Vector_val@U?$_Simple_types@PEAVD3D12Model@@@std@@@std@@@1@PEAPEAVD3D12Model@@_K@Z@4HA+96
	DD	imagerel $unwind$?catch$5@?0???$_Insert_counted_range@PEAPEAVD3D12Model@@@?$vector@PEAVD3D12Model@@V?$allocator@PEAVD3D12Model@@@std@@@std@@AEAAXV?$_Vector_const_iterator@V?$_Vector_val@U?$_Simple_types@PEAVD3D12Model@@@std@@@std@@@1@PEAPEAVD3D12Model@@_K@Z@4HA
pdata	ENDS
;	COMDAT pdata
pdata	SEGMENT
$pdata$?catch$4@?0???$_Insert_counted_range@PEAPEAVD3D12Model@@@?$vector@PEAVD3D12Model@@V?$allocator@PEAVD3D12Model@@@std@@@std@@AEAAXV?$_Vector_const_iterator@V?$_Vector_val@U?$_Simple_types@PEAVD3D12Model@@@std@@@std@@@1@PEAPEAVD3D12Model@@_K@Z@4HA DD imagerel ?catch$4@?0???$_Insert_counted_range@PEAPEAVD3D12Model@@@?$vector@PEAVD3D12Model@@V?$allocator@PEAVD3D12Model@@@std@@@std@@AEAAXV?$_Vector_const_iterator@V?$_Vector_val@U?$_Simple_types@PEAVD3D12Model@@@std@@@std@@@1@PEAPEAVD3D12Model@@_K@Z@4HA
	DD	imagerel ?catch$4@?0???$_Insert_counted_range@PEAPEAVD3D12Model@@@?$vector@PEAVD3D12Model@@V?$allocator@PEAVD3D12Model@@@std@@@std@@AEAAXV?$_Vector_const_iterator@V?$_Vector_val@U?$_Simple_types@PEAVD3D12Model@@@std@@@std@@@1@PEAPEAVD3D12Model@@_K@Z@4HA+89
	DD	imagerel $unwind$?catch$4@?0???$_Insert_counted_range@PEAPEAVD3D12Model@@@?$vector@PEAVD3D12Model@@V?$allocator@PEAVD3D12Model@@@std@@@std@@AEAAXV?$_Vector_const_iterator@V?$_Vector_val@U?$_Simple_types@PEAVD3D12Model@@@std@@@std@@@1@PEAPEAVD3D12Model@@_K@Z@4HA
pdata	ENDS
;	COMDAT pdata
pdata	SEGMENT
$pdata$??$_Uninitialized_copy_n@PEAPEAVD3D12Model@@V?$allocator@PEAVD3D12Model@@@std@@@std@@YAPEAPEAVD3D12Model@@PEAPEAV1@_K0AEAV?$allocator@PEAVD3D12Model@@@0@@Z DD imagerel $LN8
	DD	imagerel $LN8+254
	DD	imagerel $unwind$??$_Uninitialized_copy_n@PEAPEAVD3D12Model@@V?$allocator@PEAVD3D12Model@@@std@@@std@@YAPEAPEAVD3D12Model@@PEAPEAV1@_K0AEAV?$allocator@PEAVD3D12Model@@@0@@Z
pdata	ENDS
;	COMDAT pdata
pdata	SEGMENT
$pdata$?dtor$0@?0???$_Uninitialized_copy_n@PEAPEAVD3D12Model@@V?$allocator@PEAVD3D12Model@@@std@@@std@@YAPEAPEAVD3D12Model@@PEAPEAV1@_K0AEAV?$allocator@PEAVD3D12Model@@@0@@Z@4HA DD imagerel ?dtor$0@?0???$_Uninitialized_copy_n@PEAPEAVD3D12Model@@V?$allocator@PEAVD3D12Model@@@std@@@std@@YAPEAPEAVD3D12Model@@PEAPEAV1@_K0AEAV?$allocator@PEAVD3D12Model@@@0@@Z@4HA
	DD	imagerel ?dtor$0@?0???$_Uninitialized_copy_n@PEAPEAVD3D12Model@@V?$allocator@PEAVD3D12Model@@@std@@@std@@YAPEAPEAVD3D12Model@@PEAPEAV1@_K0AEAV?$allocator@PEAVD3D12Model@@@0@@Z@4HA+25
	DD	imagerel $unwind$?dtor$0@?0???$_Uninitialized_copy_n@PEAPEAVD3D12Model@@V?$allocator@PEAVD3D12Model@@@std@@@std@@YAPEAPEAVD3D12Model@@PEAPEAV1@_K0AEAV?$allocator@PEAVD3D12Model@@@0@@Z@4HA
pdata	ENDS
;	COMDAT pdata
pdata	SEGMENT
$pdata$??$_Copy_memmove_n@PEAPEAVD3D12Model@@PEAPEAV1@@std@@YAPEAPEAVD3D12Model@@PEAPEAV1@_K0@Z DD imagerel $LN3
	DD	imagerel $LN3+79
	DD	imagerel $unwind$??$_Copy_memmove_n@PEAPEAVD3D12Model@@PEAPEAV1@@std@@YAPEAPEAVD3D12Model@@PEAPEAV1@_K0@Z
pdata	ENDS
;	COMDAT pdata
pdata	SEGMENT
$pdata$??$_Copy_n_unchecked4@PEAPEAVD3D12Model@@_KPEAPEAV1@@std@@YAPEAPEAVD3D12Model@@PEAPEAV1@_K0@Z DD imagerel $LN7
	DD	imagerel $LN7+138
	DD	imagerel $unwind$??$_Copy_n_unchecked4@PEAPEAVD3D12Model@@_KPEAPEAV1@@std@@YAPEAPEAVD3D12Model@@PEAPEAV1@_K0@Z
pdata	ENDS
;	COMDAT pdata
pdata	SEGMENT
$pdata$??$_Emplace_back_with_unused_capacity@AEBQEAVD3D12Model@@@?$vector@PEAVD3D12Model@@V?$allocator@PEAVD3D12Model@@@std@@@std@@AEAAAEAPEAVD3D12Model@@AEBQEAV2@@Z DD imagerel $LN3
	DD	imagerel $LN3+133
	DD	imagerel $unwind$??$_Emplace_back_with_unused_capacity@AEBQEAVD3D12Model@@@?$vector@PEAVD3D12Model@@V?$allocator@PEAVD3D12Model@@@std@@@std@@AEAAAEAPEAVD3D12Model@@AEBQEAV2@@Z
pdata	ENDS
;	COMDAT pdata
pdata	SEGMENT
$pdata$??$_Emplace_reallocate@AEBQEAVD3D12Model@@@?$vector@PEAVD3D12Model@@V?$allocator@PEAVD3D12Model@@@std@@@std@@AEAAPEAPEAVD3D12Model@@QEAPEAV2@AEBQEAV2@@Z DD imagerel $LN13
	DD	imagerel $LN13+462
	DD	imagerel $unwind$??$_Emplace_reallocate@AEBQEAVD3D12Model@@@?$vector@PEAVD3D12Model@@V?$allocator@PEAVD3D12Model@@@std@@@std@@AEAAPEAPEAVD3D12Model@@QEAPEAV2@AEBQEAV2@@Z
pdata	ENDS
;	COMDAT pdata
pdata	SEGMENT
$pdata$?catch$0@?0???$_Emplace_reallocate@AEBQEAVD3D12Model@@@?$vector@PEAVD3D12Model@@V?$allocator@PEAVD3D12Model@@@std@@@std@@AEAAPEAPEAVD3D12Model@@QEAPEAV2@AEBQEAV2@@Z@4HA DD imagerel ?catch$0@?0???$_Emplace_reallocate@AEBQEAVD3D12Model@@@?$vector@PEAVD3D12Model@@V?$allocator@PEAVD3D12Model@@@std@@@std@@AEAAPEAPEAVD3D12Model@@QEAPEAV2@AEBQEAV2@@Z@4HA
	DD	imagerel ?catch$0@?0???$_Emplace_reallocate@AEBQEAVD3D12Model@@@?$vector@PEAVD3D12Model@@V?$allocator@PEAVD3D12Model@@@std@@@std@@AEAAPEAPEAVD3D12Model@@QEAPEAV2@AEBQEAV2@@Z@4HA+72
	DD	imagerel $unwind$?catch$0@?0???$_Emplace_reallocate@AEBQEAVD3D12Model@@@?$vector@PEAVD3D12Model@@V?$allocator@PEAVD3D12Model@@@std@@@std@@AEAAPEAPEAVD3D12Model@@QEAPEAV2@AEBQEAV2@@Z@4HA
pdata	ENDS
;	COMDAT pdata
pdata	SEGMENT
$pdata$??$_Deallocate_plain@V?$allocator@U_Container_proxy@std@@@std@@@std@@YAXAEAV?$allocator@U_Container_proxy@std@@@0@QEAU_Container_proxy@0@@Z DD imagerel $LN3
	DD	imagerel $LN3+58
	DD	imagerel $unwind$??$_Deallocate_plain@V?$allocator@U_Container_proxy@std@@@std@@@std@@YAXAEAV?$allocator@U_Container_proxy@std@@@0@QEAU_Container_proxy@0@@Z
pdata	ENDS
;	COMDAT pdata
pdata	SEGMENT
$pdata$??$_Allocate@$0BA@U_Default_allocate_traits@std@@$0A@@std@@YAPEAX_K@Z DD imagerel $LN6
	DD	imagerel $LN6+86
	DD	imagerel $unwind$??$_Allocate@$0BA@U_Default_allocate_traits@std@@$0A@@std@@YAPEAX_K@Z
pdata	ENDS
;	COMDAT pdata
pdata	SEGMENT
$pdata$??$_Unfancy@PEAVD3D12Model@@@std@@YAPEAPEAVD3D12Model@@PEAPEAV1@@Z DD imagerel $LN3
	DD	imagerel $LN3+37
	DD	imagerel $unwind$??$_Unfancy@PEAVD3D12Model@@@std@@YAPEAPEAVD3D12Model@@PEAPEAV1@@Z
pdata	ENDS
;	COMDAT pdata
pdata	SEGMENT
$pdata$??$min@_K@std@@YAAEB_KAEB_K0@Z DD imagerel $LN5
	DD	imagerel $LN5+84
	DD	imagerel $unwind$??$min@_K@std@@YAAEB_KAEB_K0@Z
pdata	ENDS
;	COMDAT pdata
pdata	SEGMENT
$pdata$??$_Allocate_at_least_helper@V?$allocator@PEAVD3D12Model@@@std@@@std@@YAPEAPEAVD3D12Model@@AEAV?$allocator@PEAVD3D12Model@@@0@AEA_K@Z DD imagerel $LN3
	DD	imagerel $LN3+54
	DD	imagerel $unwind$??$_Allocate_at_least_helper@V?$allocator@PEAVD3D12Model@@@std@@@std@@YAPEAPEAVD3D12Model@@AEAV?$allocator@PEAVD3D12Model@@@0@AEA_K@Z
pdata	ENDS
;	COMDAT pdata
pdata	SEGMENT
$pdata$??$_Uninitialized_move@PEAPEAVD3D12Model@@V?$allocator@PEAVD3D12Model@@@std@@@std@@YAPEAPEAVD3D12Model@@QEAPEAV1@0PEAPEAV1@AEAV?$allocator@PEAVD3D12Model@@@0@@Z DD imagerel $LN8
	DD	imagerel $LN8+243
	DD	imagerel $unwind$??$_Uninitialized_move@PEAPEAVD3D12Model@@V?$allocator@PEAVD3D12Model@@@std@@@std@@YAPEAPEAVD3D12Model@@QEAPEAV1@0PEAPEAV1@AEAV?$allocator@PEAVD3D12Model@@@0@@Z
pdata	ENDS
;	COMDAT pdata
pdata	SEGMENT
$pdata$?dtor$0@?0???$_Uninitialized_move@PEAPEAVD3D12Model@@V?$allocator@PEAVD3D12Model@@@std@@@std@@YAPEAPEAVD3D12Model@@QEAPEAV1@0PEAPEAV1@AEAV?$allocator@PEAVD3D12Model@@@0@@Z@4HA DD imagerel ?dtor$0@?0???$_Uninitialized_move@PEAPEAVD3D12Model@@V?$allocator@PEAVD3D12Model@@@std@@@std@@YAPEAPEAVD3D12Model@@QEAPEAV1@0PEAPEAV1@AEAV?$allocator@PEAVD3D12Model@@@0@@Z@4HA
	DD	imagerel ?dtor$0@?0???$_Uninitialized_move@PEAPEAVD3D12Model@@V?$allocator@PEAVD3D12Model@@@std@@@std@@YAPEAPEAVD3D12Model@@QEAPEAV1@0PEAPEAV1@AEAV?$allocator@PEAVD3D12Model@@@0@@Z@4HA+25
	DD	imagerel $unwind$?dtor$0@?0???$_Uninitialized_move@PEAPEAVD3D12Model@@V?$allocator@PEAVD3D12Model@@@std@@@std@@YAPEAPEAVD3D12Model@@QEAPEAV1@0PEAPEAV1@AEAV?$allocator@PEAVD3D12Model@@@0@@Z@4HA
pdata	ENDS
;	COMDAT pdata
pdata	SEGMENT
$pdata$??$_Move_backward_unchecked@PEAPEAVD3D12Model@@PEAPEAV1@@std@@YAPEAPEAVD3D12Model@@PEAPEAV1@00@Z DD imagerel $LN6
	DD	imagerel $LN6+128
	DD	imagerel $unwind$??$_Move_backward_unchecked@PEAPEAVD3D12Model@@PEAPEAV1@@std@@YAPEAPEAVD3D12Model@@PEAPEAV1@00@Z
pdata	ENDS
;	COMDAT pdata
pdata	SEGMENT
$pdata$??$_Move_unchecked@PEAPEAVD3D12Model@@PEAPEAV1@@std@@YAPEAPEAVD3D12Model@@PEAPEAV1@00@Z DD imagerel $LN7
	DD	imagerel $LN7+130
	DD	imagerel $unwind$??$_Move_unchecked@PEAPEAVD3D12Model@@PEAPEAV1@@std@@YAPEAPEAVD3D12Model@@PEAPEAV1@00@Z
pdata	ENDS
;	COMDAT pdata
pdata	SEGMENT
$pdata$??$_Get_unwrapped@PEAPEAVD3D12Model@@@std@@YA?A_T$$QEAPEAPEAVD3D12Model@@@Z DD imagerel $LN3
	DD	imagerel $LN3+40
	DD	imagerel $unwind$??$_Get_unwrapped@PEAPEAVD3D12Model@@@std@@YA?A_T$$QEAPEAPEAVD3D12Model@@@Z
pdata	ENDS
;	COMDAT pdata
pdata	SEGMENT
$pdata$??0?$_Uninitialized_backout_al@V?$allocator@PEAVD3D12Model@@@std@@@std@@QEAA@PEAPEAVD3D12Model@@AEAV?$allocator@PEAVD3D12Model@@@1@@Z DD imagerel $LN3
	DD	imagerel $LN3+82
	DD	imagerel $unwind$??0?$_Uninitialized_backout_al@V?$allocator@PEAVD3D12Model@@@std@@@std@@QEAA@PEAPEAVD3D12Model@@AEAV?$allocator@PEAVD3D12Model@@@1@@Z
pdata	ENDS
;	COMDAT pdata
pdata	SEGMENT
$pdata$??1?$_Uninitialized_backout_al@V?$allocator@PEAVD3D12Model@@@std@@@std@@QEAA@XZ DD imagerel $LN3
	DD	imagerel $LN3+61
	DD	imagerel $unwind$??1?$_Uninitialized_backout_al@V?$allocator@PEAVD3D12Model@@@std@@@std@@QEAA@XZ
pdata	ENDS
;	COMDAT pdata
pdata	SEGMENT
$pdata$?_Release@?$_Uninitialized_backout_al@V?$allocator@PEAVD3D12Model@@@std@@@std@@QEAAPEAPEAVD3D12Model@@XZ DD imagerel $LN3
	DD	imagerel $LN3+56
	DD	imagerel $unwind$?_Release@?$_Uninitialized_backout_al@V?$allocator@PEAVD3D12Model@@@std@@@std@@QEAAPEAPEAVD3D12Model@@XZ
pdata	ENDS
;	COMDAT pdata
pdata	SEGMENT
$pdata$??$_Emplace_back@AEAPEAVD3D12Model@@@?$_Uninitialized_backout_al@V?$allocator@PEAVD3D12Model@@@std@@@std@@QEAAXAEAPEAVD3D12Model@@@Z DD imagerel $LN3
	DD	imagerel $LN3+104
	DD	imagerel $unwind$??$_Emplace_back@AEAPEAVD3D12Model@@@?$_Uninitialized_backout_al@V?$allocator@PEAVD3D12Model@@@std@@@std@@QEAAXAEAPEAVD3D12Model@@@Z
pdata	ENDS
;	COMDAT pdata
pdata	SEGMENT
$pdata$??$_Copy_memmove@PEAPEAVD3D12Model@@PEAPEAV1@@std@@YAPEAPEAVD3D12Model@@PEAPEAV1@00@Z DD imagerel $LN3
	DD	imagerel $LN3+170
	DD	imagerel $unwind$??$_Copy_memmove@PEAPEAVD3D12Model@@PEAPEAV1@@std@@YAPEAPEAVD3D12Model@@PEAPEAV1@00@Z
pdata	ENDS
;	COMDAT pdata
pdata	SEGMENT
$pdata$??$_Construct_in_place@PEAVD3D12Model@@AEBQEAV1@@std@@YAXAEAPEAVD3D12Model@@AEBQEAV1@@Z DD imagerel $LN5
	DD	imagerel $LN5+113
	DD	imagerel $unwind$??$_Construct_in_place@PEAVD3D12Model@@AEBQEAV1@@std@@YAXAEAPEAVD3D12Model@@AEBQEAV1@@Z
pdata	ENDS
;	COMDAT pdata
pdata	SEGMENT
$pdata$??$construct@PEAVD3D12Model@@AEBQEAV1@@?$_Default_allocator_traits@V?$allocator@PEAVD3D12Model@@@std@@@std@@SAXAEAV?$allocator@PEAVD3D12Model@@@1@QEAPEAVD3D12Model@@AEBQEAV3@@Z DD imagerel $LN3
	DD	imagerel $LN3+56
	DD	imagerel $unwind$??$construct@PEAVD3D12Model@@AEBQEAV1@@?$_Default_allocator_traits@V?$allocator@PEAVD3D12Model@@@std@@@std@@SAXAEAV?$allocator@PEAVD3D12Model@@@1@QEAPEAVD3D12Model@@AEBQEAV3@@Z
pdata	ENDS
;	COMDAT pdata
pdata	SEGMENT
$pdata$?deallocate@?$_Default_allocator_traits@V?$allocator@U_Container_proxy@std@@@std@@@std@@SAXAEAV?$allocator@U_Container_proxy@std@@@2@QEAU_Container_proxy@2@_K@Z DD imagerel $LN5
	DD	imagerel $LN5+91
	DD	imagerel $unwind$?deallocate@?$_Default_allocator_traits@V?$allocator@U_Container_proxy@std@@@std@@@std@@SAXAEAV?$allocator@U_Container_proxy@std@@@2@QEAU_Container_proxy@2@_K@Z
pdata	ENDS
;	COMDAT pdata
pdata	SEGMENT
$pdata$??$_To_address@PEAPEAVD3D12Model@@@std@@YA?A_PAEBQEAPEAVD3D12Model@@@Z DD imagerel $LN3
	DD	imagerel $LN3+45
	DD	imagerel $unwind$??$_To_address@PEAPEAVD3D12Model@@@std@@YA?A_PAEBQEAPEAVD3D12Model@@@Z
pdata	ENDS
;	COMDAT pdata
pdata	SEGMENT
$pdata$??$to_address@PEAVD3D12Model@@@std@@YAPEAPEAVD3D12Model@@QEAPEAV1@@Z DD imagerel $LN3
	DD	imagerel $LN3+37
	DD	imagerel $unwind$??$to_address@PEAVD3D12Model@@@std@@YAPEAPEAVD3D12Model@@QEAPEAV1@@Z
pdata	ENDS
;	COMDAT pdata
pdata	SEGMENT
$pdata$??$_Allocate_manually_vector_aligned@U_Default_allocate_traits@std@@@std@@YAPEAX_K@Z DD imagerel $LN13
	DD	imagerel $LN13+266
	DD	imagerel $unwind$??$_Allocate_manually_vector_aligned@U_Default_allocate_traits@std@@@std@@YAPEAX_K@Z
pdata	ENDS
;	COMDAT pdata
pdata	SEGMENT
$pdata$??$_Get_size_of_n@$07@std@@YA_K_K@Z DD imagerel $LN4
	DD	imagerel $LN4+80
	DD	imagerel $unwind$??$_Get_size_of_n@$07@std@@YA_K_K@Z
pdata	ENDS
;	COMDAT pdata
pdata	SEGMENT
$pdata$??$_Get_unwrapped@AEBQEAPEAVD3D12Model@@@std@@YA?A_TAEBQEAPEAVD3D12Model@@@Z DD imagerel $LN3
	DD	imagerel $LN3+40
	DD	imagerel $unwind$??$_Get_unwrapped@AEBQEAPEAVD3D12Model@@@std@@YA?A_TAEBQEAPEAVD3D12Model@@@Z
pdata	ENDS
;	COMDAT pdata
pdata	SEGMENT
$pdata$??$_Emplace_back@PEAVD3D12Model@@@?$_Uninitialized_backout_al@V?$allocator@PEAVD3D12Model@@@std@@@std@@QEAAX$$QEAPEAVD3D12Model@@@Z DD imagerel $LN3
	DD	imagerel $LN3+104
	DD	imagerel $unwind$??$_Emplace_back@PEAVD3D12Model@@@?$_Uninitialized_backout_al@V?$allocator@PEAVD3D12Model@@@std@@@std@@QEAAX$$QEAPEAVD3D12Model@@@Z
pdata	ENDS
;	COMDAT pdata
pdata	SEGMENT
$pdata$??$_Copy_backward_memmove@PEAPEAVD3D12Model@@PEAPEAV1@@std@@YAPEAPEAVD3D12Model@@PEAPEAV1@00@Z DD imagerel $LN3
	DD	imagerel $LN3+177
	DD	imagerel $unwind$??$_Copy_backward_memmove@PEAPEAVD3D12Model@@PEAPEAV1@@std@@YAPEAPEAVD3D12Model@@PEAPEAV1@00@Z
pdata	ENDS
;	COMDAT pdata
pdata	SEGMENT
$pdata$??$construct@PEAVD3D12Model@@AEAPEAV1@@?$_Default_allocator_traits@V?$allocator@PEAVD3D12Model@@@std@@@std@@SAXAEAV?$allocator@PEAVD3D12Model@@@1@QEAPEAVD3D12Model@@AEAPEAV3@@Z DD imagerel $LN3
	DD	imagerel $LN3+56
	DD	imagerel $unwind$??$construct@PEAVD3D12Model@@AEAPEAV1@@?$_Default_allocator_traits@V?$allocator@PEAVD3D12Model@@@std@@@std@@SAXAEAV?$allocator@PEAVD3D12Model@@@1@QEAPEAVD3D12Model@@AEAPEAV3@@Z
pdata	ENDS
;	COMDAT pdata
pdata	SEGMENT
$pdata$??$addressof@PEAVD3D12Model@@@std@@YAPEAPEAVD3D12Model@@AEAPEAV1@@Z DD imagerel $LN3
	DD	imagerel $LN3+37
	DD	imagerel $unwind$??$addressof@PEAVD3D12Model@@@std@@YAPEAPEAVD3D12Model@@AEAPEAV1@@Z
pdata	ENDS
;	COMDAT pdata
pdata	SEGMENT
$pdata$??$construct_at@PEAVD3D12Model@@AEBQEAV1@$0A@@std@@YAPEAPEAVD3D12Model@@QEAPEAV1@AEBQEAV1@@Z DD imagerel $LN3
	DD	imagerel $LN3+74
	DD	imagerel $unwind$??$construct_at@PEAVD3D12Model@@AEBQEAV1@$0A@@std@@YAPEAPEAVD3D12Model@@QEAPEAV1@AEBQEAV1@@Z
pdata	ENDS
;	COMDAT pdata
pdata	SEGMENT
$pdata$??$construct@PEAVD3D12Model@@PEAV1@@?$_Default_allocator_traits@V?$allocator@PEAVD3D12Model@@@std@@@std@@SAXAEAV?$allocator@PEAVD3D12Model@@@1@QEAPEAVD3D12Model@@$$QEAPEAV3@@Z DD imagerel $LN3
	DD	imagerel $LN3+56
	DD	imagerel $unwind$??$construct@PEAVD3D12Model@@PEAV1@@?$_Default_allocator_traits@V?$allocator@PEAVD3D12Model@@@std@@@std@@SAXAEAV?$allocator@PEAVD3D12Model@@@1@QEAPEAVD3D12Model@@$$QEAPEAV3@@Z
pdata	ENDS
;	COMDAT pdata
pdata	SEGMENT
$pdata$??$construct_at@PEAVD3D12Model@@AEAPEAV1@$0A@@std@@YAPEAPEAVD3D12Model@@QEAPEAV1@AEAPEAV1@@Z DD imagerel $LN3
	DD	imagerel $LN3+74
	DD	imagerel $unwind$??$construct_at@PEAVD3D12Model@@AEAPEAV1@$0A@@std@@YAPEAPEAVD3D12Model@@QEAPEAV1@AEAPEAV1@@Z
pdata	ENDS
;	COMDAT pdata
pdata	SEGMENT
$pdata$??$construct_at@PEAVD3D12Model@@PEAV1@$0A@@std@@YAPEAPEAVD3D12Model@@QEAPEAV1@$$QEAPEAV1@@Z DD imagerel $LN3
	DD	imagerel $LN3+74
	DD	imagerel $unwind$??$construct_at@PEAVD3D12Model@@PEAV1@$0A@@std@@YAPEAPEAVD3D12Model@@QEAPEAV1@$$QEAPEAV1@@Z
pdata	ENDS
;	COMDAT ??_R1A@?0A@EA@bad_array_new_length@std@@8
rdata$r	SEGMENT
??_R1A@?0A@EA@bad_array_new_length@std@@8 DD imagerel ??_R0?AVbad_array_new_length@std@@@8 ; std::bad_array_new_length::`RTTI Base Class Descriptor at (0,-1,0,64)'
	DD	02H
	DD	00H
	DD	0ffffffffH
	DD	00H
	DD	040H
	DD	imagerel ??_R3bad_array_new_length@std@@8
rdata$r	ENDS
;	COMDAT ??_R2bad_array_new_length@std@@8
rdata$r	SEGMENT
??_R2bad_array_new_length@std@@8 DD imagerel ??_R1A@?0A@EA@bad_array_new_length@std@@8 ; std::bad_array_new_length::`RTTI Base Class Array'
	DD	imagerel ??_R1A@?0A@EA@bad_alloc@std@@8
	DD	imagerel ??_R1A@?0A@EA@exception@std@@8
	ORG $+3
rdata$r	ENDS
;	COMDAT ??_R3bad_array_new_length@std@@8
rdata$r	SEGMENT
??_R3bad_array_new_length@std@@8 DD 00H			; std::bad_array_new_length::`RTTI Class Hierarchy Descriptor'
	DD	00H
	DD	03H
	DD	imagerel ??_R2bad_array_new_length@std@@8
rdata$r	ENDS
;	COMDAT ??_R4bad_array_new_length@std@@6B@
rdata$r	SEGMENT
??_R4bad_array_new_length@std@@6B@ DD 01H		; std::bad_array_new_length::`RTTI Complete Object Locator'
	DD	00H
	DD	00H
	DD	imagerel ??_R0?AVbad_array_new_length@std@@@8
	DD	imagerel ??_R3bad_array_new_length@std@@8
	DD	imagerel ??_R4bad_array_new_length@std@@6B@
rdata$r	ENDS
;	COMDAT ??_R1A@?0A@EA@bad_alloc@std@@8
rdata$r	SEGMENT
??_R1A@?0A@EA@bad_alloc@std@@8 DD imagerel ??_R0?AVbad_alloc@std@@@8 ; std::bad_alloc::`RTTI Base Class Descriptor at (0,-1,0,64)'
	DD	01H
	DD	00H
	DD	0ffffffffH
	DD	00H
	DD	040H
	DD	imagerel ??_R3bad_alloc@std@@8
rdata$r	ENDS
;	COMDAT ??_R2bad_alloc@std@@8
rdata$r	SEGMENT
??_R2bad_alloc@std@@8 DD imagerel ??_R1A@?0A@EA@bad_alloc@std@@8 ; std::bad_alloc::`RTTI Base Class Array'
	DD	imagerel ??_R1A@?0A@EA@exception@std@@8
	ORG $+3
rdata$r	ENDS
;	COMDAT ??_R3bad_alloc@std@@8
rdata$r	SEGMENT
??_R3bad_alloc@std@@8 DD 00H				; std::bad_alloc::`RTTI Class Hierarchy Descriptor'
	DD	00H
	DD	02H
	DD	imagerel ??_R2bad_alloc@std@@8
rdata$r	ENDS
;	COMDAT ??_R4bad_alloc@std@@6B@
rdata$r	SEGMENT
??_R4bad_alloc@std@@6B@ DD 01H				; std::bad_alloc::`RTTI Complete Object Locator'
	DD	00H
	DD	00H
	DD	imagerel ??_R0?AVbad_alloc@std@@@8
	DD	imagerel ??_R3bad_alloc@std@@8
	DD	imagerel ??_R4bad_alloc@std@@6B@
rdata$r	ENDS
;	COMDAT ??_R1A@?0A@EA@exception@std@@8
rdata$r	SEGMENT
??_R1A@?0A@EA@exception@std@@8 DD imagerel ??_R0?AVexception@std@@@8 ; std::exception::`RTTI Base Class Descriptor at (0,-1,0,64)'
	DD	00H
	DD	00H
	DD	0ffffffffH
	DD	00H
	DD	040H
	DD	imagerel ??_R3exception@std@@8
rdata$r	ENDS
;	COMDAT ??_R2exception@std@@8
rdata$r	SEGMENT
??_R2exception@std@@8 DD imagerel ??_R1A@?0A@EA@exception@std@@8 ; std::exception::`RTTI Base Class Array'
	ORG $+3
rdata$r	ENDS
;	COMDAT ??_R3exception@std@@8
rdata$r	SEGMENT
??_R3exception@std@@8 DD 00H				; std::exception::`RTTI Class Hierarchy Descriptor'
	DD	00H
	DD	01H
	DD	imagerel ??_R2exception@std@@8
rdata$r	ENDS
;	COMDAT ??_R4exception@std@@6B@
rdata$r	SEGMENT
??_R4exception@std@@6B@ DD 01H				; std::exception::`RTTI Complete Object Locator'
	DD	00H
	DD	00H
	DD	imagerel ??_R0?AVexception@std@@@8
	DD	imagerel ??_R3exception@std@@8
	DD	imagerel ??_R4exception@std@@6B@
rdata$r	ENDS
;	COMDAT ??_C@_1EG@ODKBEHFN@?$AA?$CC?$AAv?$AAe?$AAc?$AAt?$AAo?$AAr?$AA?5?$AAi?$AAt?$AAe?$AAr?$AAa?$AAt?$AAo@
CONST	SEGMENT
??_C@_1EG@ODKBEHFN@?$AA?$CC?$AAv?$AAe?$AAc?$AAt?$AAo?$AAr?$AA?5?$AAi?$AAt?$AAe?$AAr?$AAa?$AAt?$AAo@ DB '"'
	DB	00H, 'v', 00H, 'e', 00H, 'c', 00H, 't', 00H, 'o', 00H, 'r', 00H
	DB	' ', 00H, 'i', 00H, 't', 00H, 'e', 00H, 'r', 00H, 'a', 00H, 't'
	DB	00H, 'o', 00H, 'r', 00H, ' ', 00H, 'r', 00H, 'a', 00H, 'n', 00H
	DB	'g', 00H, 'e', 00H, ' ', 00H, 't', 00H, 'r', 00H, 'a', 00H, 'n'
	DB	00H, 's', 00H, 'p', 00H, 'o', 00H, 's', 00H, 'e', 00H, 'd', 00H
	DB	'"', 00H, 00H, 00H				; `string'
CONST	ENDS
;	COMDAT ??_C@_0CB@LIAHLBAO@vector?5iterator?5range?5transpose@
CONST	SEGMENT
??_C@_0CB@LIAHLBAO@vector?5iterator?5range?5transpose@ DB 'vector iterato'
	DB	'r range transposed', 00H			; `string'
CONST	ENDS
;	COMDAT ??_C@_1HE@KBMFDAFB@?$AA?$CC?$AAv?$AAe?$AAc?$AAt?$AAo?$AAr?$AA?5?$AAi?$AAt?$AAe?$AAr?$AAa?$AAt?$AAo@
CONST	SEGMENT
??_C@_1HE@KBMFDAFB@?$AA?$CC?$AAv?$AAe?$AAc?$AAt?$AAo?$AAr?$AA?5?$AAi?$AAt?$AAe?$AAr?$AAa?$AAt?$AAo@ DB '"'
	DB	00H, 'v', 00H, 'e', 00H, 'c', 00H, 't', 00H, 'o', 00H, 'r', 00H
	DB	' ', 00H, 'i', 00H, 't', 00H, 'e', 00H, 'r', 00H, 'a', 00H, 't'
	DB	00H, 'o', 00H, 'r', 00H, 's', 00H, ' ', 00H, 'i', 00H, 'n', 00H
	DB	' ', 00H, 'r', 00H, 'a', 00H, 'n', 00H, 'g', 00H, 'e', 00H, ' '
	DB	00H, 'a', 00H, 'r', 00H, 'e', 00H, ' ', 00H, 'f', 00H, 'r', 00H
	DB	'o', 00H, 'm', 00H, ' ', 00H, 'd', 00H, 'i', 00H, 'f', 00H, 'f'
	DB	00H, 'e', 00H, 'r', 00H, 'e', 00H, 'n', 00H, 't', 00H, ' ', 00H
	DB	'c', 00H, 'o', 00H, 'n', 00H, 't', 00H, 'a', 00H, 'i', 00H, 'n'
	DB	00H, 'e', 00H, 'r', 00H, 's', 00H, '"', 00H, 00H, 00H ; `string'
CONST	ENDS
;	COMDAT ??_C@_0DI@PBEELKIF@vector?5iterators?5in?5range?5are?5f@
CONST	SEGMENT
??_C@_0DI@PBEELKIF@vector?5iterators?5in?5range?5are?5f@ DB 'vector itera'
	DB	'tors in range are from different containers', 00H ; `string'
CONST	ENDS
;	COMDAT ??_C@_0BA@FOIKENOD@vector?5too?5long@
CONST	SEGMENT
??_C@_0BA@FOIKENOD@vector?5too?5long@ DB 'vector too long', 00H ; `string'
CONST	ENDS
;	COMDAT ??_C@_1EO@HCJPCNBE@?$AA?$CC?$AAv?$AAe?$AAc?$AAt?$AAo?$AAr?$AA?5?$AAi?$AAn?$AAs?$AAe?$AAr?$AAt?$AA?5@
CONST	SEGMENT
??_C@_1EO@HCJPCNBE@?$AA?$CC?$AAv?$AAe?$AAc?$AAt?$AAo?$AAr?$AA?5?$AAi?$AAn?$AAs?$AAe?$AAr?$AAt?$AA?5@ DB '"'
	DB	00H, 'v', 00H, 'e', 00H, 'c', 00H, 't', 00H, 'o', 00H, 'r', 00H
	DB	' ', 00H, 'i', 00H, 'n', 00H, 's', 00H, 'e', 00H, 'r', 00H, 't'
	DB	00H, ' ', 00H, 'i', 00H, 't', 00H, 'e', 00H, 'r', 00H, 'a', 00H
	DB	't', 00H, 'o', 00H, 'r', 00H, ' ', 00H, 'o', 00H, 'u', 00H, 't'
	DB	00H, 's', 00H, 'i', 00H, 'd', 00H, 'e', 00H, ' ', 00H, 'r', 00H
	DB	'a', 00H, 'n', 00H, 'g', 00H, 'e', 00H, '"', 00H, 00H, 00H ; `string'
CONST	ENDS
;	COMDAT ??_C@_1LO@DMIPLFD@?$AAC?$AA?3?$AA?2?$AAP?$AAr?$AAo?$AAg?$AAr?$AAa?$AAm?$AA?5?$AAF?$AAi?$AAl?$AAe@
CONST	SEGMENT
??_C@_1LO@DMIPLFD@?$AAC?$AA?3?$AA?2?$AAP?$AAr?$AAo?$AAg?$AAr?$AAa?$AAm?$AA?5?$AAF?$AAi?$AAl?$AAe@ DB 'C'
	DB	00H, ':', 00H, '\', 00H, 'P', 00H, 'r', 00H, 'o', 00H, 'g', 00H
	DB	'r', 00H, 'a', 00H, 'm', 00H, ' ', 00H, 'F', 00H, 'i', 00H, 'l'
	DB	00H, 'e', 00H, 's', 00H, '\', 00H, 'M', 00H, 'i', 00H, 'c', 00H
	DB	'r', 00H, 'o', 00H, 's', 00H, 'o', 00H, 'f', 00H, 't', 00H, ' '
	DB	00H, 'V', 00H, 'i', 00H, 's', 00H, 'u', 00H, 'a', 00H, 'l', 00H
	DB	' ', 00H, 'S', 00H, 't', 00H, 'u', 00H, 'd', 00H, 'i', 00H, 'o'
	DB	00H, '\', 00H, '2', 00H, '0', 00H, '2', 00H, '2', 00H, '\', 00H
	DB	'P', 00H, 'r', 00H, 'e', 00H, 'v', 00H, 'i', 00H, 'e', 00H, 'w'
	DB	00H, '\', 00H, 'V', 00H, 'C', 00H, '\', 00H, 'T', 00H, 'o', 00H
	DB	'o', 00H, 'l', 00H, 's', 00H, '\', 00H, 'M', 00H, 'S', 00H, 'V'
	DB	00H, 'C', 00H, '\', 00H, '1', 00H, '4', 00H, '.', 00H, '3', 00H
	DB	'8', 00H, '.', 00H, '3', 00H, '3', 00H, '0', 00H, '3', 00H, '0'
	DB	00H, '\', 00H, 'i', 00H, 'n', 00H, 'c', 00H, 'l', 00H, 'u', 00H
	DB	'd', 00H, 'e', 00H, '\', 00H, 'v', 00H, 'e', 00H, 'c', 00H, 't'
	DB	00H, 'o', 00H, 'r', 00H, 00H, 00H		; `string'
CONST	ENDS
;	COMDAT ??_C@_0FP@IENHKCNK@C?3?2Program?5Files?2Microsoft?5Visu@
CONST	SEGMENT
??_C@_0FP@IENHKCNK@C?3?2Program?5Files?2Microsoft?5Visu@ DB 'C:\Program F'
	DB	'iles\Microsoft Visual Studio\2022\Preview\VC\Tools\MSVC\14.38'
	DB	'.33030\include\vector', 00H			; `string'
CONST	ENDS
;	COMDAT ??_C@_0CF@NNBLLPGF@vector?5insert?5iterator?5outside?5@
CONST	SEGMENT
??_C@_0CF@NNBLLPGF@vector?5insert?5iterator?5outside?5@ DB 'vector insert'
	DB	' iterator outside range', 00H		; `string'
CONST	ENDS
;	COMDAT ??_C@_1HA@FACCKGGH@?$AA?$CC?$AAn?$AAu?$AAl?$AAl?$AA?5?$AAp?$AAo?$AAi?$AAn?$AAt?$AAe?$AAr?$AA?5?$AAc@
CONST	SEGMENT
??_C@_1HA@FACCKGGH@?$AA?$CC?$AAn?$AAu?$AAl?$AAl?$AA?5?$AAp?$AAo?$AAi?$AAn?$AAt?$AAe?$AAr?$AA?5?$AAc@ DB '"'
	DB	00H, 'n', 00H, 'u', 00H, 'l', 00H, 'l', 00H, ' ', 00H, 'p', 00H
	DB	'o', 00H, 'i', 00H, 'n', 00H, 't', 00H, 'e', 00H, 'r', 00H, ' '
	DB	00H, 'c', 00H, 'a', 00H, 'n', 00H, 'n', 00H, 'o', 00H, 't', 00H
	DB	' ', 00H, 'p', 00H, 'o', 00H, 'i', 00H, 'n', 00H, 't', 00H, ' '
	DB	00H, 't', 00H, 'o', 00H, ' ', 00H, 'a', 00H, ' ', 00H, 'b', 00H
	DB	'l', 00H, 'o', 00H, 'c', 00H, 'k', 00H, ' ', 00H, 'o', 00H, 'f'
	DB	00H, ' ', 00H, 'n', 00H, 'o', 00H, 'n', 00H, '-', 00H, 'z', 00H
	DB	'e', 00H, 'r', 00H, 'o', 00H, ' ', 00H, 's', 00H, 'i', 00H, 'z'
	DB	00H, 'e', 00H, '"', 00H, 00H, 00H		; `string'
CONST	ENDS
;	COMDAT ??_C@_0DG@KGHKKGBC@null?5pointer?5cannot?5point?5to?5a?5@
CONST	SEGMENT
??_C@_0DG@KGHKKGBC@null?5pointer?5cannot?5point?5to?5a?5@ DB 'null pointe'
	DB	'r cannot point to a block of non-zero size', 00H ; `string'
CONST	ENDS
;	COMDAT ??_C@_1DG@PLBPCAEM@?$AA?$CC?$AAI?$AAT?$AAE?$AAR?$AAA?$AAT?$AAO?$AAR?$AA?5?$AAL?$AAI?$AAS?$AAT?$AA?5@
CONST	SEGMENT
??_C@_1DG@PLBPCAEM@?$AA?$CC?$AAI?$AAT?$AAE?$AAR?$AAA?$AAT?$AAO?$AAR?$AA?5?$AAL?$AAI?$AAS?$AAT?$AA?5@ DB '"'
	DB	00H, 'I', 00H, 'T', 00H, 'E', 00H, 'R', 00H, 'A', 00H, 'T', 00H
	DB	'O', 00H, 'R', 00H, ' ', 00H, 'L', 00H, 'I', 00H, 'S', 00H, 'T'
	DB	00H, ' ', 00H, 'C', 00H, 'O', 00H, 'R', 00H, 'R', 00H, 'U', 00H
	DB	'P', 00H, 'T', 00H, 'E', 00H, 'D', 00H, '!', 00H, '"', 00H, 00H
	DB	00H						; `string'
CONST	ENDS
;	COMDAT ??_C@_0BJ@LFDBABJJ@ITERATOR?5LIST?5CORRUPTED?$CB@
CONST	SEGMENT
??_C@_0BJ@LFDBABJJ@ITERATOR?5LIST?5CORRUPTED?$CB@ DB 'ITERATOR LIST CORRU'
	DB	'PTED!', 00H					; `string'
CONST	ENDS
;	COMDAT ??_C@_1CG@JNLFBNGN@?$AA?$CC?$AAi?$AAn?$AAv?$AAa?$AAl?$AAi?$AAd?$AA?5?$AAa?$AAr?$AAg?$AAu?$AAm?$AAe@
CONST	SEGMENT
??_C@_1CG@JNLFBNGN@?$AA?$CC?$AAi?$AAn?$AAv?$AAa?$AAl?$AAi?$AAd?$AA?5?$AAa?$AAr?$AAg?$AAu?$AAm?$AAe@ DB '"'
	DB	00H, 'i', 00H, 'n', 00H, 'v', 00H, 'a', 00H, 'l', 00H, 'i', 00H
	DB	'd', 00H, ' ', 00H, 'a', 00H, 'r', 00H, 'g', 00H, 'u', 00H, 'm'
	DB	00H, 'e', 00H, 'n', 00H, 't', 00H, '"', 00H, 00H, 00H ; `string'
CONST	ENDS
;	COMDAT ??_C@_11LOCGONAA@@
CONST	SEGMENT
??_C@_11LOCGONAA@@ DB 00H, 00H				; `string'
CONST	ENDS
;	COMDAT ??_C@_1MA@IKJDCOIC@?$AAC?$AA?3?$AA?2?$AAP?$AAr?$AAo?$AAg?$AAr?$AAa?$AAm?$AA?5?$AAF?$AAi?$AAl?$AAe@
CONST	SEGMENT
??_C@_1MA@IKJDCOIC@?$AAC?$AA?3?$AA?2?$AAP?$AAr?$AAo?$AAg?$AAr?$AAa?$AAm?$AA?5?$AAF?$AAi?$AAl?$AAe@ DB 'C'
	DB	00H, ':', 00H, '\', 00H, 'P', 00H, 'r', 00H, 'o', 00H, 'g', 00H
	DB	'r', 00H, 'a', 00H, 'm', 00H, ' ', 00H, 'F', 00H, 'i', 00H, 'l'
	DB	00H, 'e', 00H, 's', 00H, '\', 00H, 'M', 00H, 'i', 00H, 'c', 00H
	DB	'r', 00H, 'o', 00H, 's', 00H, 'o', 00H, 'f', 00H, 't', 00H, ' '
	DB	00H, 'V', 00H, 'i', 00H, 's', 00H, 'u', 00H, 'a', 00H, 'l', 00H
	DB	' ', 00H, 'S', 00H, 't', 00H, 'u', 00H, 'd', 00H, 'i', 00H, 'o'
	DB	00H, '\', 00H, '2', 00H, '0', 00H, '2', 00H, '2', 00H, '\', 00H
	DB	'P', 00H, 'r', 00H, 'e', 00H, 'v', 00H, 'i', 00H, 'e', 00H, 'w'
	DB	00H, '\', 00H, 'V', 00H, 'C', 00H, '\', 00H, 'T', 00H, 'o', 00H
	DB	'o', 00H, 'l', 00H, 's', 00H, '\', 00H, 'M', 00H, 'S', 00H, 'V'
	DB	00H, 'C', 00H, '\', 00H, '1', 00H, '4', 00H, '.', 00H, '3', 00H
	DB	'8', 00H, '.', 00H, '3', 00H, '3', 00H, '0', 00H, '3', 00H, '0'
	DB	00H, '\', 00H, 'i', 00H, 'n', 00H, 'c', 00H, 'l', 00H, 'u', 00H
	DB	'd', 00H, 'e', 00H, '\', 00H, 'x', 00H, 'm', 00H, 'e', 00H, 'm'
	DB	00H, 'o', 00H, 'r', 00H, 'y', 00H, 00H, 00H	; `string'
CONST	ENDS
;	COMDAT ??_C@_0GA@FLDGEGM@C?3?2Program?5Files?2Microsoft?5Visu@
CONST	SEGMENT
??_C@_0GA@FLDGEGM@C?3?2Program?5Files?2Microsoft?5Visu@ DB 'C:\Program Fi'
	DB	'les\Microsoft Visual Studio\2022\Preview\VC\Tools\MSVC\14.38.'
	DB	'33030\include\xmemory', 00H			; `string'
CONST	ENDS
;	COMDAT ??_C@_02DKCKIIND@?$CFs@
CONST	SEGMENT
??_C@_02DKCKIIND@?$CFs@ DB '%s', 00H			; `string'
CONST	ENDS
;	COMDAT ??_C@_0BB@FCMFBGOM@invalid?5argument@
CONST	SEGMENT
??_C@_0BB@FCMFBGOM@invalid?5argument@ DB 'invalid argument', 00H ; `string'
CONST	ENDS
;	COMDAT ?__LINE__Var@?0??_Adjust_manually_vector_aligned@std@@YAXAEAPEAXAEA_K@Z@4JA
_DATA	SEGMENT
?__LINE__Var@?0??_Adjust_manually_vector_aligned@std@@YAXAEAPEAXAEA_K@Z@4JA DD 09aH ; `std::_Adjust_manually_vector_aligned'::`1'::__LINE__Var
_DATA	ENDS
;	COMDAT _CT??_R0?AVexception@std@@@8??0exception@std@@QEAA@AEBV01@@Z24
xdata$x	SEGMENT
_CT??_R0?AVexception@std@@@8??0exception@std@@QEAA@AEBV01@@Z24 DD 00H
	DD	imagerel ??_R0?AVexception@std@@@8
	DD	00H
	DD	0ffffffffH
	ORG $+4
	DD	018H
	DD	imagerel ??0exception@std@@QEAA@AEBV01@@Z
xdata$x	ENDS
;	COMDAT ??_R0?AVexception@std@@@8
data$r	SEGMENT
??_R0?AVexception@std@@@8 DQ FLAT:??_7type_info@@6B@	; std::exception `RTTI Type Descriptor'
	DQ	0000000000000000H
	DB	'.?AVexception@std@@', 00H
data$r	ENDS
;	COMDAT _CT??_R0?AVbad_alloc@std@@@8??0bad_alloc@std@@QEAA@AEBV01@@Z24
xdata$x	SEGMENT
_CT??_R0?AVbad_alloc@std@@@8??0bad_alloc@std@@QEAA@AEBV01@@Z24 DD 010H
	DD	imagerel ??_R0?AVbad_alloc@std@@@8
	DD	00H
	DD	0ffffffffH
	ORG $+4
	DD	018H
	DD	imagerel ??0bad_alloc@std@@QEAA@AEBV01@@Z
xdata$x	ENDS
;	COMDAT ??_R0?AVbad_alloc@std@@@8
data$r	SEGMENT
??_R0?AVbad_alloc@std@@@8 DQ FLAT:??_7type_info@@6B@	; std::bad_alloc `RTTI Type Descriptor'
	DQ	0000000000000000H
	DB	'.?AVbad_alloc@std@@', 00H
data$r	ENDS
;	COMDAT _CT??_R0?AVbad_array_new_length@std@@@8??0bad_array_new_length@std@@QEAA@AEBV01@@Z24
xdata$x	SEGMENT
_CT??_R0?AVbad_array_new_length@std@@@8??0bad_array_new_length@std@@QEAA@AEBV01@@Z24 DD 00H
	DD	imagerel ??_R0?AVbad_array_new_length@std@@@8
	DD	00H
	DD	0ffffffffH
	ORG $+4
	DD	018H
	DD	imagerel ??0bad_array_new_length@std@@QEAA@AEBV01@@Z
xdata$x	ENDS
;	COMDAT ??_R0?AVbad_array_new_length@std@@@8
data$r	SEGMENT
??_R0?AVbad_array_new_length@std@@@8 DQ FLAT:??_7type_info@@6B@ ; std::bad_array_new_length `RTTI Type Descriptor'
	DQ	0000000000000000H
	DB	'.?AVbad_array_new_length@std@@', 00H
data$r	ENDS
;	COMDAT _CTA3?AVbad_array_new_length@std@@
xdata$x	SEGMENT
_CTA3?AVbad_array_new_length@std@@ DD 03H
	DD	imagerel _CT??_R0?AVbad_array_new_length@std@@@8??0bad_array_new_length@std@@QEAA@AEBV01@@Z24
	DD	imagerel _CT??_R0?AVbad_alloc@std@@@8??0bad_alloc@std@@QEAA@AEBV01@@Z24
	DD	imagerel _CT??_R0?AVexception@std@@@8??0exception@std@@QEAA@AEBV01@@Z24
xdata$x	ENDS
;	COMDAT _TI3?AVbad_array_new_length@std@@
xdata$x	SEGMENT
_TI3?AVbad_array_new_length@std@@ DD 00H
	DD	imagerel ??1bad_array_new_length@std@@UEAA@XZ
	DD	00H
	DD	imagerel _CTA3?AVbad_array_new_length@std@@
xdata$x	ENDS
;	COMDAT ??_C@_0BF@KINCDENJ@bad?5array?5new?5length@
CONST	SEGMENT
??_C@_0BF@KINCDENJ@bad?5array?5new?5length@ DB 'bad array new length', 00H ; `string'
CONST	ENDS
;	COMDAT ??_7bad_array_new_length@std@@6B@
CONST	SEGMENT
??_7bad_array_new_length@std@@6B@ DQ FLAT:??_R4bad_array_new_length@std@@6B@ ; std::bad_array_new_length::`vftable'
	DQ	FLAT:??_Ebad_array_new_length@std@@UEAAPEAXI@Z
	DQ	FLAT:?what@exception@std@@UEBAPEBDXZ
CONST	ENDS
;	COMDAT ??_7bad_alloc@std@@6B@
CONST	SEGMENT
??_7bad_alloc@std@@6B@ DQ FLAT:??_R4bad_alloc@std@@6B@	; std::bad_alloc::`vftable'
	DQ	FLAT:??_Ebad_alloc@std@@UEAAPEAXI@Z
	DQ	FLAT:?what@exception@std@@UEBAPEBDXZ
CONST	ENDS
;	COMDAT ??_C@_0BC@EOODALEL@Unknown?5exception@
CONST	SEGMENT
??_C@_0BC@EOODALEL@Unknown?5exception@ DB 'Unknown exception', 00H ; `string'
CONST	ENDS
;	COMDAT ??_7exception@std@@6B@
CONST	SEGMENT
??_7exception@std@@6B@ DQ FLAT:??_R4exception@std@@6B@	; std::exception::`vftable'
	DQ	FLAT:??_Eexception@std@@UEAAPEAXI@Z
	DQ	FLAT:?what@exception@std@@UEBAPEBDXZ
CONST	ENDS
;	COMDAT xdata
xdata	SEGMENT
$unwind$??$construct_at@PEAVD3D12Model@@PEAV1@$0A@@std@@YAPEAPEAVD3D12Model@@QEAPEAV1@$$QEAPEAV1@@Z DD 025031401H
	DD	0d20f2314H
	DD	0500bH
xdata	ENDS
;	COMDAT xdata
xdata	SEGMENT
$unwind$??$construct_at@PEAVD3D12Model@@AEAPEAV1@$0A@@std@@YAPEAPEAVD3D12Model@@QEAPEAV1@AEAPEAV1@@Z DD 025031401H
	DD	0d20f2314H
	DD	0500bH
xdata	ENDS
;	COMDAT xdata
xdata	SEGMENT
$unwind$??$construct@PEAVD3D12Model@@PEAV1@@?$_Default_allocator_traits@V?$allocator@PEAVD3D12Model@@@std@@@std@@SAXAEAV?$allocator@PEAVD3D12Model@@@1@QEAPEAVD3D12Model@@$$QEAPEAV3@@Z DD 025031901H
	DD	0b2142319H
	DD	05010H
xdata	ENDS
;	COMDAT xdata
xdata	SEGMENT
$unwind$??$construct_at@PEAVD3D12Model@@AEBQEAV1@$0A@@std@@YAPEAPEAVD3D12Model@@QEAPEAV1@AEBQEAV1@@Z DD 025031401H
	DD	0d20f2314H
	DD	0500bH
xdata	ENDS
;	COMDAT xdata
xdata	SEGMENT
$unwind$??$addressof@PEAVD3D12Model@@@std@@YAPEAPEAVD3D12Model@@AEAPEAV1@@Z DD 025030f01H
	DD	0b20a230fH
	DD	05006H
xdata	ENDS
;	COMDAT xdata
xdata	SEGMENT
$unwind$??$construct@PEAVD3D12Model@@AEAPEAV1@@?$_Default_allocator_traits@V?$allocator@PEAVD3D12Model@@@std@@@std@@SAXAEAV?$allocator@PEAVD3D12Model@@@1@QEAPEAVD3D12Model@@AEAPEAV3@@Z DD 025031901H
	DD	0b2142319H
	DD	05010H
xdata	ENDS
;	COMDAT xdata
xdata	SEGMENT
$unwind$??$_Copy_backward_memmove@PEAPEAVD3D12Model@@PEAPEAV1@@std@@YAPEAPEAVD3D12Model@@PEAPEAV1@00@Z DD 025041c01H
	DD	0117231cH
	DD	050100014H
xdata	ENDS
;	COMDAT xdata
xdata	SEGMENT
$unwind$??$_Emplace_back@PEAVD3D12Model@@@?$_Uninitialized_backout_al@V?$allocator@PEAVD3D12Model@@@std@@@std@@QEAAX$$QEAPEAVD3D12Model@@@Z DD 025031401H
	DD	0d20f2314H
	DD	0500bH
xdata	ENDS
;	COMDAT xdata
xdata	SEGMENT
$unwind$??$_Get_unwrapped@AEBQEAPEAVD3D12Model@@@std@@YA?A_TAEBQEAPEAVD3D12Model@@@Z DD 025030f01H
	DD	0b20a230fH
	DD	05006H
xdata	ENDS
;	COMDAT xdata
xdata	SEGMENT
$unwind$??$_Get_size_of_n@$07@std@@YA_K_K@Z DD 025030f01H
	DD	0d20a230fH
	DD	05006H
xdata	ENDS
;	COMDAT xdata
xdata	SEGMENT
$unwind$??$_Allocate_manually_vector_aligned@U_Default_allocate_traits@std@@@std@@YAPEAX_K@Z DD 035041201H
	DD	010d3312H
	DD	050060012H
xdata	ENDS
;	COMDAT xdata
xdata	SEGMENT
$unwind$??$to_address@PEAVD3D12Model@@@std@@YAPEAPEAVD3D12Model@@QEAPEAV1@@Z DD 025030f01H
	DD	0b20a230fH
	DD	05006H
xdata	ENDS
;	COMDAT xdata
xdata	SEGMENT
$unwind$??$_To_address@PEAPEAVD3D12Model@@@std@@YA?A_PAEBQEAPEAVD3D12Model@@@Z DD 025030f01H
	DD	0b20a230fH
	DD	05006H
xdata	ENDS
;	COMDAT xdata
xdata	SEGMENT
$unwind$?deallocate@?$_Default_allocator_traits@V?$allocator@U_Container_proxy@std@@@std@@@std@@SAXAEAV?$allocator@U_Container_proxy@std@@@2@QEAU_Container_proxy@2@_K@Z DD 025031901H
	DD	0b2142319H
	DD	05010H
xdata	ENDS
;	COMDAT xdata
xdata	SEGMENT
$unwind$??$construct@PEAVD3D12Model@@AEBQEAV1@@?$_Default_allocator_traits@V?$allocator@PEAVD3D12Model@@@std@@@std@@SAXAEAV?$allocator@PEAVD3D12Model@@@1@QEAPEAVD3D12Model@@AEBQEAV3@@Z DD 025031901H
	DD	0b2142319H
	DD	05010H
xdata	ENDS
;	COMDAT xdata
xdata	SEGMENT
$unwind$??$_Construct_in_place@PEAVD3D12Model@@AEBQEAV1@@std@@YAXAEAPEAVD3D12Model@@AEBQEAV1@@Z DD 025031401H
	DD	0d20f2314H
	DD	0500bH
xdata	ENDS
;	COMDAT xdata
xdata	SEGMENT
$unwind$??$_Copy_memmove@PEAPEAVD3D12Model@@PEAPEAV1@@std@@YAPEAPEAVD3D12Model@@PEAPEAV1@00@Z DD 025041c01H
	DD	0117231cH
	DD	050100014H
xdata	ENDS
;	COMDAT xdata
xdata	SEGMENT
$unwind$??$_Emplace_back@AEAPEAVD3D12Model@@@?$_Uninitialized_backout_al@V?$allocator@PEAVD3D12Model@@@std@@@std@@QEAAXAEAPEAVD3D12Model@@@Z DD 025031401H
	DD	0d20f2314H
	DD	0500bH
xdata	ENDS
;	COMDAT xdata
xdata	SEGMENT
$unwind$?_Release@?$_Uninitialized_backout_al@V?$allocator@PEAVD3D12Model@@@std@@@std@@QEAAPEAPEAVD3D12Model@@XZ DD 025030f01H
	DD	0b20a230fH
	DD	05006H
xdata	ENDS
;	COMDAT xdata
xdata	SEGMENT
$unwind$??1?$_Uninitialized_backout_al@V?$allocator@PEAVD3D12Model@@@std@@@std@@QEAA@XZ DD 025030f01H
	DD	0b20a230fH
	DD	05006H
xdata	ENDS
;	COMDAT xdata
xdata	SEGMENT
$unwind$??0?$_Uninitialized_backout_al@V?$allocator@PEAVD3D12Model@@@std@@@std@@QEAA@PEAPEAVD3D12Model@@AEAV?$allocator@PEAVD3D12Model@@@1@@Z DD 025031901H
	DD	0b2142319H
	DD	05010H
xdata	ENDS
;	COMDAT xdata
xdata	SEGMENT
$unwind$??$_Get_unwrapped@PEAPEAVD3D12Model@@@std@@YA?A_T$$QEAPEAPEAVD3D12Model@@@Z DD 025030f01H
	DD	0b20a230fH
	DD	05006H
xdata	ENDS
;	COMDAT xdata
xdata	SEGMENT
$unwind$??$_Move_unchecked@PEAPEAVD3D12Model@@PEAPEAV1@@std@@YAPEAPEAVD3D12Model@@PEAPEAV1@00@Z DD 025031901H
	DD	0b2142319H
	DD	05010H
xdata	ENDS
;	COMDAT xdata
xdata	SEGMENT
$unwind$??$_Move_backward_unchecked@PEAPEAVD3D12Model@@PEAPEAV1@@std@@YAPEAPEAVD3D12Model@@PEAPEAV1@00@Z DD 025031901H
	DD	0b2142319H
	DD	05010H
xdata	ENDS
;	COMDAT xdata
xdata	SEGMENT
$unwind$?dtor$0@?0???$_Uninitialized_move@PEAPEAVD3D12Model@@V?$allocator@PEAVD3D12Model@@@std@@@std@@YAPEAPEAVD3D12Model@@QEAPEAV1@0PEAPEAV1@AEAV?$allocator@PEAVD3D12Model@@@0@@Z@4HA DD 020601H
	DD	050023206H
xdata	ENDS
;	COMDAT xdata
xdata	SEGMENT
$ip2state$??$_Uninitialized_move@PEAPEAVD3D12Model@@V?$allocator@PEAVD3D12Model@@@std@@@std@@YAPEAPEAVD3D12Model@@QEAPEAV1@0PEAPEAV1@AEAV?$allocator@PEAVD3D12Model@@@0@@Z DB 06H
	DB	00H
	DB	00H
	DB	0b1H, 02H
	DB	02H
	DB	'h'
	DB	00H
xdata	ENDS
;	COMDAT xdata
xdata	SEGMENT
$stateUnwindMap$??$_Uninitialized_move@PEAPEAVD3D12Model@@V?$allocator@PEAVD3D12Model@@@std@@@std@@YAPEAPEAVD3D12Model@@QEAPEAV1@0PEAPEAV1@AEAV?$allocator@PEAVD3D12Model@@@0@@Z DB 02H
	DB	0eH
	DD	imagerel ?dtor$0@?0???$_Uninitialized_move@PEAPEAVD3D12Model@@V?$allocator@PEAVD3D12Model@@@std@@@std@@YAPEAPEAVD3D12Model@@QEAPEAV1@0PEAPEAV1@AEAV?$allocator@PEAVD3D12Model@@@0@@Z@4HA
xdata	ENDS
;	COMDAT xdata
xdata	SEGMENT
$cppxdata$??$_Uninitialized_move@PEAPEAVD3D12Model@@V?$allocator@PEAVD3D12Model@@@std@@@std@@YAPEAPEAVD3D12Model@@QEAPEAV1@0PEAPEAV1@AEAV?$allocator@PEAVD3D12Model@@@0@@Z DB 028H
	DD	imagerel $stateUnwindMap$??$_Uninitialized_move@PEAPEAVD3D12Model@@V?$allocator@PEAVD3D12Model@@@std@@@std@@YAPEAPEAVD3D12Model@@QEAPEAV1@0PEAPEAV1@AEAV?$allocator@PEAVD3D12Model@@@0@@Z
	DD	imagerel $ip2state$??$_Uninitialized_move@PEAPEAVD3D12Model@@V?$allocator@PEAVD3D12Model@@@std@@@std@@YAPEAPEAVD3D12Model@@QEAPEAV1@0PEAPEAV1@AEAV?$allocator@PEAVD3D12Model@@@0@@Z
xdata	ENDS
;	COMDAT xdata
xdata	SEGMENT
$unwind$??$_Uninitialized_move@PEAPEAVD3D12Model@@V?$allocator@PEAVD3D12Model@@@std@@@std@@YAPEAPEAVD3D12Model@@QEAPEAV1@0PEAPEAV1@AEAV?$allocator@PEAVD3D12Model@@@0@@Z DD 025042111H
	DD	011c2321H
	DD	050150012H
	DD	imagerel __CxxFrameHandler4
	DD	imagerel $cppxdata$??$_Uninitialized_move@PEAPEAVD3D12Model@@V?$allocator@PEAVD3D12Model@@@std@@@std@@YAPEAPEAVD3D12Model@@QEAPEAV1@0PEAPEAV1@AEAV?$allocator@PEAVD3D12Model@@@0@@Z
xdata	ENDS
;	COMDAT xdata
xdata	SEGMENT
$unwind$??$_Allocate_at_least_helper@V?$allocator@PEAVD3D12Model@@@std@@@std@@YAPEAPEAVD3D12Model@@AEAV?$allocator@PEAVD3D12Model@@@0@AEA_K@Z DD 025031401H
	DD	0b20f2314H
	DD	0500bH
xdata	ENDS
;	COMDAT xdata
xdata	SEGMENT
$unwind$??$min@_K@std@@YAAEB_KAEB_K0@Z DD 025031401H
	DD	0d20f2314H
	DD	0500bH
xdata	ENDS
;	COMDAT xdata
xdata	SEGMENT
$unwind$??$_Unfancy@PEAVD3D12Model@@@std@@YAPEAPEAVD3D12Model@@PEAPEAV1@@Z DD 025030f01H
	DD	0b20a230fH
	DD	05006H
xdata	ENDS
;	COMDAT xdata
xdata	SEGMENT
$unwind$??$_Allocate@$0BA@U_Default_allocate_traits@std@@$0A@@std@@YAPEAX_K@Z DD 025030f01H
	DD	0b20a230fH
	DD	05006H
xdata	ENDS
;	COMDAT xdata
xdata	SEGMENT
$ip2state$??$_Deallocate_plain@V?$allocator@U_Container_proxy@std@@@std@@@std@@YAXAEAV?$allocator@U_Container_proxy@std@@@0@QEAU_Container_proxy@0@@Z DB 02H
	DB	00H
	DB	00H
xdata	ENDS
;	COMDAT xdata
xdata	SEGMENT
$cppxdata$??$_Deallocate_plain@V?$allocator@U_Container_proxy@std@@@std@@@std@@YAXAEAV?$allocator@U_Container_proxy@std@@@0@QEAU_Container_proxy@0@@Z DB 060H
	DD	imagerel $ip2state$??$_Deallocate_plain@V?$allocator@U_Container_proxy@std@@@std@@@std@@YAXAEAV?$allocator@U_Container_proxy@std@@@0@QEAU_Container_proxy@0@@Z
xdata	ENDS
;	COMDAT xdata
xdata	SEGMENT
$unwind$??$_Deallocate_plain@V?$allocator@U_Container_proxy@std@@@std@@@std@@YAXAEAV?$allocator@U_Container_proxy@std@@@0@QEAU_Container_proxy@0@@Z DD 025031419H
	DD	0b20f2314H
	DD	0500bH
	DD	imagerel __CxxFrameHandler4
	DD	imagerel $cppxdata$??$_Deallocate_plain@V?$allocator@U_Container_proxy@std@@@std@@@std@@YAXAEAV?$allocator@U_Container_proxy@std@@@0@QEAU_Container_proxy@0@@Z
xdata	ENDS
;	COMDAT voltbl
voltbl	SEGMENT
_volmd	DB	00H
voltbl	ENDS
;	COMDAT xdata
xdata	SEGMENT
$unwind$?catch$0@?0???$_Emplace_reallocate@AEBQEAVD3D12Model@@@?$vector@PEAVD3D12Model@@V?$allocator@PEAVD3D12Model@@@std@@@std@@AEAAPEAPEAVD3D12Model@@QEAPEAV2@AEBQEAV2@@Z@4HA DD 020a01H
	DD	05006320aH
xdata	ENDS
;	COMDAT xdata
xdata	SEGMENT
$ip2state$??$_Emplace_reallocate@AEBQEAVD3D12Model@@@?$vector@PEAVD3D12Model@@V?$allocator@PEAVD3D12Model@@@std@@@std@@AEAAPEAPEAVD3D12Model@@QEAPEAV2@AEBQEAV2@@Z DB 06H
	DB	00H
	DB	00H
	DB	0c1H, 03H
	DB	02H
	DB	0bdH, 02H
	DB	00H
xdata	ENDS
;	COMDAT xdata
xdata	SEGMENT
$handlerMap$??$_Emplace_reallocate@AEBQEAVD3D12Model@@@?$vector@PEAVD3D12Model@@V?$allocator@PEAVD3D12Model@@@std@@@std@@AEAAPEAPEAVD3D12Model@@QEAPEAV2@AEBQEAV2@@Z DB 02H
	DB	01H
	DB	080H
	DD	imagerel ?catch$0@?0???$_Emplace_reallocate@AEBQEAVD3D12Model@@@?$vector@PEAVD3D12Model@@V?$allocator@PEAVD3D12Model@@@std@@@std@@AEAAPEAPEAVD3D12Model@@QEAPEAV2@AEBQEAV2@@Z@4HA
xdata	ENDS
;	COMDAT xdata
xdata	SEGMENT
$tryMap$??$_Emplace_reallocate@AEBQEAVD3D12Model@@@?$vector@PEAVD3D12Model@@V?$allocator@PEAVD3D12Model@@@std@@@std@@AEAAPEAPEAVD3D12Model@@QEAPEAV2@AEBQEAV2@@Z DB 02H
	DB	00H
	DB	00H
	DB	02H
	DD	imagerel $handlerMap$??$_Emplace_reallocate@AEBQEAVD3D12Model@@@?$vector@PEAVD3D12Model@@V?$allocator@PEAVD3D12Model@@@std@@@std@@AEAAPEAPEAVD3D12Model@@QEAPEAV2@AEBQEAV2@@Z
xdata	ENDS
;	COMDAT xdata
xdata	SEGMENT
$stateUnwindMap$??$_Emplace_reallocate@AEBQEAVD3D12Model@@@?$vector@PEAVD3D12Model@@V?$allocator@PEAVD3D12Model@@@std@@@std@@AEAAPEAPEAVD3D12Model@@QEAPEAV2@AEBQEAV2@@Z DB 04H
	DB	08H
	DB	010H
xdata	ENDS
;	COMDAT xdata
xdata	SEGMENT
$cppxdata$??$_Emplace_reallocate@AEBQEAVD3D12Model@@@?$vector@PEAVD3D12Model@@V?$allocator@PEAVD3D12Model@@@std@@@std@@AEAAPEAPEAVD3D12Model@@QEAPEAV2@AEBQEAV2@@Z DB 038H
	DD	imagerel $stateUnwindMap$??$_Emplace_reallocate@AEBQEAVD3D12Model@@@?$vector@PEAVD3D12Model@@V?$allocator@PEAVD3D12Model@@@std@@@std@@AEAAPEAPEAVD3D12Model@@QEAPEAV2@AEBQEAV2@@Z
	DD	imagerel $tryMap$??$_Emplace_reallocate@AEBQEAVD3D12Model@@@?$vector@PEAVD3D12Model@@V?$allocator@PEAVD3D12Model@@@std@@@std@@AEAAPEAPEAVD3D12Model@@QEAPEAV2@AEBQEAV2@@Z
	DD	imagerel $ip2state$??$_Emplace_reallocate@AEBQEAVD3D12Model@@@?$vector@PEAVD3D12Model@@V?$allocator@PEAVD3D12Model@@@std@@@std@@AEAAPEAPEAVD3D12Model@@QEAPEAV2@AEBQEAV2@@Z
xdata	ENDS
;	COMDAT xdata
xdata	SEGMENT
$unwind$??$_Emplace_reallocate@AEBQEAVD3D12Model@@@?$vector@PEAVD3D12Model@@V?$allocator@PEAVD3D12Model@@@std@@@std@@AEAAPEAPEAVD3D12Model@@QEAPEAV2@AEBQEAV2@@Z DD 025041c19H
	DD	0117231cH
	DD	050100018H
	DD	imagerel __CxxFrameHandler4
	DD	imagerel $cppxdata$??$_Emplace_reallocate@AEBQEAVD3D12Model@@@?$vector@PEAVD3D12Model@@V?$allocator@PEAVD3D12Model@@@std@@@std@@AEAAPEAPEAVD3D12Model@@QEAPEAV2@AEBQEAV2@@Z
xdata	ENDS
;	COMDAT xdata
xdata	SEGMENT
$unwind$??$_Emplace_back_with_unused_capacity@AEBQEAVD3D12Model@@@?$vector@PEAVD3D12Model@@V?$allocator@PEAVD3D12Model@@@std@@@std@@AEAAAEAPEAVD3D12Model@@AEBQEAV2@@Z DD 025031701H
	DD	0f2122317H
	DD	0500bH
xdata	ENDS
;	COMDAT xdata
xdata	SEGMENT
$unwind$??$_Copy_n_unchecked4@PEAPEAVD3D12Model@@_KPEAPEAV1@@std@@YAPEAPEAVD3D12Model@@PEAPEAV1@_K0@Z DD 025031901H
	DD	0b2142319H
	DD	05010H
xdata	ENDS
;	COMDAT xdata
xdata	SEGMENT
$unwind$??$_Copy_memmove_n@PEAPEAVD3D12Model@@PEAPEAV1@@std@@YAPEAPEAVD3D12Model@@PEAPEAV1@_K0@Z DD 025031901H
	DD	0d2142319H
	DD	05010H
xdata	ENDS
;	COMDAT xdata
xdata	SEGMENT
$unwind$?dtor$0@?0???$_Uninitialized_copy_n@PEAPEAVD3D12Model@@V?$allocator@PEAVD3D12Model@@@std@@@std@@YAPEAPEAVD3D12Model@@PEAPEAV1@_K0AEAV?$allocator@PEAVD3D12Model@@@0@@Z@4HA DD 020601H
	DD	050023206H
xdata	ENDS
;	COMDAT xdata
xdata	SEGMENT
$ip2state$??$_Uninitialized_copy_n@PEAPEAVD3D12Model@@V?$allocator@PEAVD3D12Model@@@std@@@std@@YAPEAPEAVD3D12Model@@PEAPEAV1@_K0AEAV?$allocator@PEAVD3D12Model@@@0@@Z DB 06H
	DB	00H
	DB	00H
	DB	099H, 02H
	DB	02H
	DB	08aH
	DB	00H
xdata	ENDS
;	COMDAT xdata
xdata	SEGMENT
$stateUnwindMap$??$_Uninitialized_copy_n@PEAPEAVD3D12Model@@V?$allocator@PEAVD3D12Model@@@std@@@std@@YAPEAPEAVD3D12Model@@PEAPEAV1@_K0AEAV?$allocator@PEAVD3D12Model@@@0@@Z DB 02H
	DB	0eH
	DD	imagerel ?dtor$0@?0???$_Uninitialized_copy_n@PEAPEAVD3D12Model@@V?$allocator@PEAVD3D12Model@@@std@@@std@@YAPEAPEAVD3D12Model@@PEAPEAV1@_K0AEAV?$allocator@PEAVD3D12Model@@@0@@Z@4HA
xdata	ENDS
;	COMDAT xdata
xdata	SEGMENT
$cppxdata$??$_Uninitialized_copy_n@PEAPEAVD3D12Model@@V?$allocator@PEAVD3D12Model@@@std@@@std@@YAPEAPEAVD3D12Model@@PEAPEAV1@_K0AEAV?$allocator@PEAVD3D12Model@@@0@@Z DB 028H
	DD	imagerel $stateUnwindMap$??$_Uninitialized_copy_n@PEAPEAVD3D12Model@@V?$allocator@PEAVD3D12Model@@@std@@@std@@YAPEAPEAVD3D12Model@@PEAPEAV1@_K0AEAV?$allocator@PEAVD3D12Model@@@0@@Z
	DD	imagerel $ip2state$??$_Uninitialized_copy_n@PEAPEAVD3D12Model@@V?$allocator@PEAVD3D12Model@@@std@@@std@@YAPEAPEAVD3D12Model@@PEAPEAV1@_K0AEAV?$allocator@PEAVD3D12Model@@@0@@Z
xdata	ENDS
;	COMDAT xdata
xdata	SEGMENT
$unwind$??$_Uninitialized_copy_n@PEAPEAVD3D12Model@@V?$allocator@PEAVD3D12Model@@@std@@@std@@YAPEAPEAVD3D12Model@@PEAPEAV1@_K0AEAV?$allocator@PEAVD3D12Model@@@0@@Z DD 025042111H
	DD	011c2321H
	DD	050150012H
	DD	imagerel __CxxFrameHandler4
	DD	imagerel $cppxdata$??$_Uninitialized_copy_n@PEAPEAVD3D12Model@@V?$allocator@PEAVD3D12Model@@@std@@@std@@YAPEAPEAVD3D12Model@@PEAPEAV1@_K0AEAV?$allocator@PEAVD3D12Model@@@0@@Z
xdata	ENDS
;	COMDAT voltbl
voltbl	SEGMENT
_volmd	DB	00H
voltbl	ENDS
;	COMDAT voltbl
voltbl	SEGMENT
_volmd	DB	00H
voltbl	ENDS
;	COMDAT voltbl
voltbl	SEGMENT
_volmd	DB	00H
voltbl	ENDS
;	COMDAT voltbl
voltbl	SEGMENT
_volmd	DB	00H
voltbl	ENDS
;	COMDAT voltbl
voltbl	SEGMENT
_volmd	DB	00H
voltbl	ENDS
;	COMDAT xdata
xdata	SEGMENT
$unwind$?catch$4@?0???$_Insert_counted_range@PEAPEAVD3D12Model@@@?$vector@PEAVD3D12Model@@V?$allocator@PEAVD3D12Model@@@std@@@std@@AEAAXV?$_Vector_const_iterator@V?$_Vector_val@U?$_Simple_types@PEAVD3D12Model@@@std@@@std@@@1@PEAPEAVD3D12Model@@_K@Z@4HA DD 020a01H
	DD	05006320aH
xdata	ENDS
;	COMDAT xdata
xdata	SEGMENT
$ip2state$?catch$5@?0???$_Insert_counted_range@PEAPEAVD3D12Model@@@?$vector@PEAVD3D12Model@@V?$allocator@PEAVD3D12Model@@@std@@@std@@AEAAXV?$_Vector_const_iterator@V?$_Vector_val@U?$_Simple_types@PEAVD3D12Model@@@std@@@std@@@1@PEAPEAVD3D12Model@@_K@Z@4HA DB 08H
	DB	00H
	DB	02H
	DB	01cH
	DB	04H
	DB	'2'
	DB	02H
	DB	'V'
	DB	02H
xdata	ENDS
;	COMDAT xdata
xdata	SEGMENT
$handlerMap$?catch$5@?0???$_Insert_counted_range@PEAPEAVD3D12Model@@@?$vector@PEAVD3D12Model@@V?$allocator@PEAVD3D12Model@@@std@@@std@@AEAAXV?$_Vector_const_iterator@V?$_Vector_val@U?$_Simple_types@PEAVD3D12Model@@@std@@@std@@@1@PEAPEAVD3D12Model@@_K@Z@4HA DB 02H
	DB	01H
	DB	080H
	DD	imagerel ?catch$4@?0???$_Insert_counted_range@PEAPEAVD3D12Model@@@?$vector@PEAVD3D12Model@@V?$allocator@PEAVD3D12Model@@@std@@@std@@AEAAXV?$_Vector_const_iterator@V?$_Vector_val@U?$_Simple_types@PEAVD3D12Model@@@std@@@std@@@1@PEAPEAVD3D12Model@@_K@Z@4HA
xdata	ENDS
;	COMDAT xdata
xdata	SEGMENT
$tryMap$?catch$5@?0???$_Insert_counted_range@PEAPEAVD3D12Model@@@?$vector@PEAVD3D12Model@@V?$allocator@PEAVD3D12Model@@@std@@@std@@AEAAXV?$_Vector_const_iterator@V?$_Vector_val@U?$_Simple_types@PEAVD3D12Model@@@std@@@std@@@1@PEAPEAVD3D12Model@@_K@Z@4HA DB 02H
	DB	02H
	DB	02H
	DB	04H
	DD	imagerel $handlerMap$?catch$5@?0???$_Insert_counted_range@PEAPEAVD3D12Model@@@?$vector@PEAVD3D12Model@@V?$allocator@PEAVD3D12Model@@@std@@@std@@AEAAXV?$_Vector_const_iterator@V?$_Vector_val@U?$_Simple_types@PEAVD3D12Model@@@std@@@std@@@1@PEAPEAVD3D12Model@@_K@Z@4HA
xdata	ENDS
;	COMDAT xdata
xdata	SEGMENT
$stateUnwindMap$?catch$5@?0???$_Insert_counted_range@PEAPEAVD3D12Model@@@?$vector@PEAVD3D12Model@@V?$allocator@PEAVD3D12Model@@@std@@@std@@AEAAXV?$_Vector_const_iterator@V?$_Vector_val@U?$_Simple_types@PEAVD3D12Model@@@std@@@std@@@1@PEAPEAVD3D12Model@@_K@Z@4HA DB 06H
	DB	08H
	DB	08H
	DB	010H
xdata	ENDS
;	COMDAT xdata
xdata	SEGMENT
$cppxdata$?catch$5@?0???$_Insert_counted_range@PEAPEAVD3D12Model@@@?$vector@PEAVD3D12Model@@V?$allocator@PEAVD3D12Model@@@std@@@std@@AEAAXV?$_Vector_const_iterator@V?$_Vector_val@U?$_Simple_types@PEAVD3D12Model@@@std@@@std@@@1@PEAPEAVD3D12Model@@_K@Z@4HA DB 039H
	DD	imagerel $stateUnwindMap$?catch$5@?0???$_Insert_counted_range@PEAPEAVD3D12Model@@@?$vector@PEAVD3D12Model@@V?$allocator@PEAVD3D12Model@@@std@@@std@@AEAAXV?$_Vector_const_iterator@V?$_Vector_val@U?$_Simple_types@PEAVD3D12Model@@@std@@@std@@@1@PEAPEAVD3D12Model@@_K@Z@4HA
	DD	imagerel $tryMap$?catch$5@?0???$_Insert_counted_range@PEAPEAVD3D12Model@@@?$vector@PEAVD3D12Model@@V?$allocator@PEAVD3D12Model@@@std@@@std@@AEAAXV?$_Vector_const_iterator@V?$_Vector_val@U?$_Simple_types@PEAVD3D12Model@@@std@@@std@@@1@PEAPEAVD3D12Model@@_K@Z@4HA
	DD	imagerel $ip2state$?catch$5@?0???$_Insert_counted_range@PEAPEAVD3D12Model@@@?$vector@PEAVD3D12Model@@V?$allocator@PEAVD3D12Model@@@std@@@std@@AEAAXV?$_Vector_const_iterator@V?$_Vector_val@U?$_Simple_types@PEAVD3D12Model@@@std@@@std@@@1@PEAPEAVD3D12Model@@_K@Z@4HA
	DB	'p'
xdata	ENDS
;	COMDAT xdata
xdata	SEGMENT
$unwind$?catch$5@?0???$_Insert_counted_range@PEAPEAVD3D12Model@@@?$vector@PEAVD3D12Model@@V?$allocator@PEAVD3D12Model@@@std@@@std@@AEAAXV?$_Vector_const_iterator@V?$_Vector_val@U?$_Simple_types@PEAVD3D12Model@@@std@@@std@@@1@PEAPEAVD3D12Model@@_K@Z@4HA DD 020a19H
	DD	05006320aH
	DD	imagerel __CxxFrameHandler4
	DD	imagerel $cppxdata$?catch$5@?0???$_Insert_counted_range@PEAPEAVD3D12Model@@@?$vector@PEAVD3D12Model@@V?$allocator@PEAVD3D12Model@@@std@@@std@@AEAAXV?$_Vector_const_iterator@V?$_Vector_val@U?$_Simple_types@PEAVD3D12Model@@@std@@@std@@@1@PEAPEAVD3D12Model@@_K@Z@4HA
xdata	ENDS
;	COMDAT xdata
xdata	SEGMENT
$unwind$?catch$2@?0???$_Insert_counted_range@PEAPEAVD3D12Model@@@?$vector@PEAVD3D12Model@@V?$allocator@PEAVD3D12Model@@@std@@@std@@AEAAXV?$_Vector_const_iterator@V?$_Vector_val@U?$_Simple_types@PEAVD3D12Model@@@std@@@std@@@1@PEAPEAVD3D12Model@@_K@Z@4HA DD 020a01H
	DD	05006320aH
xdata	ENDS
;	COMDAT xdata
xdata	SEGMENT
$ip2state$?catch$3@?0???$_Insert_counted_range@PEAPEAVD3D12Model@@@?$vector@PEAVD3D12Model@@V?$allocator@PEAVD3D12Model@@@std@@@std@@AEAAXV?$_Vector_const_iterator@V?$_Vector_val@U?$_Simple_types@PEAVD3D12Model@@@std@@@std@@@1@PEAPEAVD3D12Model@@_K@Z@4HA DB 08H
	DB	00H
	DB	02H
	DB	01cH
	DB	04H
	DB	'd'
	DB	02H
	DB	0b6H
	DB	02H
xdata	ENDS
;	COMDAT xdata
xdata	SEGMENT
$handlerMap$?catch$3@?0???$_Insert_counted_range@PEAPEAVD3D12Model@@@?$vector@PEAVD3D12Model@@V?$allocator@PEAVD3D12Model@@@std@@@std@@AEAAXV?$_Vector_const_iterator@V?$_Vector_val@U?$_Simple_types@PEAVD3D12Model@@@std@@@std@@@1@PEAPEAVD3D12Model@@_K@Z@4HA DB 02H
	DB	01H
	DB	080H
	DD	imagerel ?catch$2@?0???$_Insert_counted_range@PEAPEAVD3D12Model@@@?$vector@PEAVD3D12Model@@V?$allocator@PEAVD3D12Model@@@std@@@std@@AEAAXV?$_Vector_const_iterator@V?$_Vector_val@U?$_Simple_types@PEAVD3D12Model@@@std@@@std@@@1@PEAPEAVD3D12Model@@_K@Z@4HA
xdata	ENDS
;	COMDAT xdata
xdata	SEGMENT
$tryMap$?catch$3@?0???$_Insert_counted_range@PEAPEAVD3D12Model@@@?$vector@PEAVD3D12Model@@V?$allocator@PEAVD3D12Model@@@std@@@std@@AEAAXV?$_Vector_const_iterator@V?$_Vector_val@U?$_Simple_types@PEAVD3D12Model@@@std@@@std@@@1@PEAPEAVD3D12Model@@_K@Z@4HA DB 02H
	DB	02H
	DB	02H
	DB	04H
	DD	imagerel $handlerMap$?catch$3@?0???$_Insert_counted_range@PEAPEAVD3D12Model@@@?$vector@PEAVD3D12Model@@V?$allocator@PEAVD3D12Model@@@std@@@std@@AEAAXV?$_Vector_const_iterator@V?$_Vector_val@U?$_Simple_types@PEAVD3D12Model@@@std@@@std@@@1@PEAPEAVD3D12Model@@_K@Z@4HA
xdata	ENDS
;	COMDAT xdata
xdata	SEGMENT
$stateUnwindMap$?catch$3@?0???$_Insert_counted_range@PEAPEAVD3D12Model@@@?$vector@PEAVD3D12Model@@V?$allocator@PEAVD3D12Model@@@std@@@std@@AEAAXV?$_Vector_const_iterator@V?$_Vector_val@U?$_Simple_types@PEAVD3D12Model@@@std@@@std@@@1@PEAPEAVD3D12Model@@_K@Z@4HA DB 06H
	DB	08H
	DB	08H
	DB	010H
xdata	ENDS
;	COMDAT xdata
xdata	SEGMENT
$cppxdata$?catch$3@?0???$_Insert_counted_range@PEAPEAVD3D12Model@@@?$vector@PEAVD3D12Model@@V?$allocator@PEAVD3D12Model@@@std@@@std@@AEAAXV?$_Vector_const_iterator@V?$_Vector_val@U?$_Simple_types@PEAVD3D12Model@@@std@@@std@@@1@PEAPEAVD3D12Model@@_K@Z@4HA DB 039H
	DD	imagerel $stateUnwindMap$?catch$3@?0???$_Insert_counted_range@PEAPEAVD3D12Model@@@?$vector@PEAVD3D12Model@@V?$allocator@PEAVD3D12Model@@@std@@@std@@AEAAXV?$_Vector_const_iterator@V?$_Vector_val@U?$_Simple_types@PEAVD3D12Model@@@std@@@std@@@1@PEAPEAVD3D12Model@@_K@Z@4HA
	DD	imagerel $tryMap$?catch$3@?0???$_Insert_counted_range@PEAPEAVD3D12Model@@@?$vector@PEAVD3D12Model@@V?$allocator@PEAVD3D12Model@@@std@@@std@@AEAAXV?$_Vector_const_iterator@V?$_Vector_val@U?$_Simple_types@PEAVD3D12Model@@@std@@@std@@@1@PEAPEAVD3D12Model@@_K@Z@4HA
	DD	imagerel $ip2state$?catch$3@?0???$_Insert_counted_range@PEAPEAVD3D12Model@@@?$vector@PEAVD3D12Model@@V?$allocator@PEAVD3D12Model@@@std@@@std@@AEAAXV?$_Vector_const_iterator@V?$_Vector_val@U?$_Simple_types@PEAVD3D12Model@@@std@@@std@@@1@PEAPEAVD3D12Model@@_K@Z@4HA
	DB	'p'
xdata	ENDS
;	COMDAT xdata
xdata	SEGMENT
$unwind$?catch$3@?0???$_Insert_counted_range@PEAPEAVD3D12Model@@@?$vector@PEAVD3D12Model@@V?$allocator@PEAVD3D12Model@@@std@@@std@@AEAAXV?$_Vector_const_iterator@V?$_Vector_val@U?$_Simple_types@PEAVD3D12Model@@@std@@@std@@@1@PEAPEAVD3D12Model@@_K@Z@4HA DD 020a19H
	DD	05006320aH
	DD	imagerel __CxxFrameHandler4
	DD	imagerel $cppxdata$?catch$3@?0???$_Insert_counted_range@PEAPEAVD3D12Model@@@?$vector@PEAVD3D12Model@@V?$allocator@PEAVD3D12Model@@@std@@@std@@AEAAXV?$_Vector_const_iterator@V?$_Vector_val@U?$_Simple_types@PEAVD3D12Model@@@std@@@std@@@1@PEAPEAVD3D12Model@@_K@Z@4HA
xdata	ENDS
;	COMDAT xdata
xdata	SEGMENT
$unwind$?catch$1@?0???$_Insert_counted_range@PEAPEAVD3D12Model@@@?$vector@PEAVD3D12Model@@V?$allocator@PEAVD3D12Model@@@std@@@std@@AEAAXV?$_Vector_const_iterator@V?$_Vector_val@U?$_Simple_types@PEAVD3D12Model@@@std@@@std@@@1@PEAPEAVD3D12Model@@_K@Z@4HA DD 020a01H
	DD	05006320aH
xdata	ENDS
;	COMDAT xdata
xdata	SEGMENT
$unwind$?dtor$0@?0???$_Insert_counted_range@PEAPEAVD3D12Model@@@?$vector@PEAVD3D12Model@@V?$allocator@PEAVD3D12Model@@@std@@@std@@AEAAXV?$_Vector_const_iterator@V?$_Vector_val@U?$_Simple_types@PEAVD3D12Model@@@std@@@std@@@1@PEAPEAVD3D12Model@@_K@Z@4HA DD 020601H
	DD	050023206H
xdata	ENDS
;	COMDAT xdata
xdata	SEGMENT
$ip2state$??$_Insert_counted_range@PEAPEAVD3D12Model@@@?$vector@PEAVD3D12Model@@V?$allocator@PEAVD3D12Model@@@std@@@std@@AEAAXV?$_Vector_const_iterator@V?$_Vector_val@U?$_Simple_types@PEAVD3D12Model@@@std@@@std@@@1@PEAPEAVD3D12Model@@_K@Z DB 012H
	DB	00H
	DB	00H
	DB	'B'
	DB	02H
	DB	0ddH, 04H
	DB	04H
	DB	0a9H, 02H
	DB	02H
	DB	0edH, 02H
	DB	08H
	DB	'8'
	DB	02H
	DB	08aH
	DB	0cH
	DB	'8'
	DB	02H
	DB	'.'
	DB	00H
xdata	ENDS
;	COMDAT xdata
xdata	SEGMENT
$handlerMap$1$??$_Insert_counted_range@PEAPEAVD3D12Model@@@?$vector@PEAVD3D12Model@@V?$allocator@PEAVD3D12Model@@@std@@@std@@AEAAXV?$_Vector_const_iterator@V?$_Vector_val@U?$_Simple_types@PEAVD3D12Model@@@std@@@std@@@1@PEAPEAVD3D12Model@@_K@Z DB 02H
	DB	01H
	DB	080H
	DD	imagerel ?catch$5@?0???$_Insert_counted_range@PEAPEAVD3D12Model@@@?$vector@PEAVD3D12Model@@V?$allocator@PEAVD3D12Model@@@std@@@std@@AEAAXV?$_Vector_const_iterator@V?$_Vector_val@U?$_Simple_types@PEAVD3D12Model@@@std@@@std@@@1@PEAPEAVD3D12Model@@_K@Z@4HA
xdata	ENDS
;	COMDAT xdata
xdata	SEGMENT
$handlerMap$0$??$_Insert_counted_range@PEAPEAVD3D12Model@@@?$vector@PEAVD3D12Model@@V?$allocator@PEAVD3D12Model@@@std@@@std@@AEAAXV?$_Vector_const_iterator@V?$_Vector_val@U?$_Simple_types@PEAVD3D12Model@@@std@@@std@@@1@PEAPEAVD3D12Model@@_K@Z DB 02H
	DB	01H
	DB	080H
	DD	imagerel ?catch$3@?0???$_Insert_counted_range@PEAPEAVD3D12Model@@@?$vector@PEAVD3D12Model@@V?$allocator@PEAVD3D12Model@@@std@@@std@@AEAAXV?$_Vector_const_iterator@V?$_Vector_val@U?$_Simple_types@PEAVD3D12Model@@@std@@@std@@@1@PEAPEAVD3D12Model@@_K@Z@4HA
xdata	ENDS
;	COMDAT xdata
xdata	SEGMENT
$handlerMap$??$_Insert_counted_range@PEAPEAVD3D12Model@@@?$vector@PEAVD3D12Model@@V?$allocator@PEAVD3D12Model@@@std@@@std@@AEAAXV?$_Vector_const_iterator@V?$_Vector_val@U?$_Simple_types@PEAVD3D12Model@@@std@@@std@@@1@PEAPEAVD3D12Model@@_K@Z DB 02H
	DB	01H
	DB	080H
	DD	imagerel ?catch$1@?0???$_Insert_counted_range@PEAPEAVD3D12Model@@@?$vector@PEAVD3D12Model@@V?$allocator@PEAVD3D12Model@@@std@@@std@@AEAAXV?$_Vector_const_iterator@V?$_Vector_val@U?$_Simple_types@PEAVD3D12Model@@@std@@@std@@@1@PEAPEAVD3D12Model@@_K@Z@4HA
xdata	ENDS
;	COMDAT xdata
xdata	SEGMENT
$tryMap$??$_Insert_counted_range@PEAPEAVD3D12Model@@@?$vector@PEAVD3D12Model@@V?$allocator@PEAVD3D12Model@@@std@@@std@@AEAAXV?$_Vector_const_iterator@V?$_Vector_val@U?$_Simple_types@PEAVD3D12Model@@@std@@@std@@@1@PEAPEAVD3D12Model@@_K@Z DB 06H
	DB	02H
	DB	02H
	DB	04H
	DD	imagerel $handlerMap$??$_Insert_counted_range@PEAPEAVD3D12Model@@@?$vector@PEAVD3D12Model@@V?$allocator@PEAVD3D12Model@@@std@@@std@@AEAAXV?$_Vector_const_iterator@V?$_Vector_val@U?$_Simple_types@PEAVD3D12Model@@@std@@@std@@@1@PEAPEAVD3D12Model@@_K@Z
	DB	06H
	DB	06H
	DB	08H
	DD	imagerel $handlerMap$0$??$_Insert_counted_range@PEAPEAVD3D12Model@@@?$vector@PEAVD3D12Model@@V?$allocator@PEAVD3D12Model@@@std@@@std@@AEAAXV?$_Vector_const_iterator@V?$_Vector_val@U?$_Simple_types@PEAVD3D12Model@@@std@@@std@@@1@PEAPEAVD3D12Model@@_K@Z
	DB	0aH
	DB	0aH
	DB	0cH
	DD	imagerel $handlerMap$1$??$_Insert_counted_range@PEAPEAVD3D12Model@@@?$vector@PEAVD3D12Model@@V?$allocator@PEAVD3D12Model@@@std@@@std@@AEAAXV?$_Vector_const_iterator@V?$_Vector_val@U?$_Simple_types@PEAVD3D12Model@@@std@@@std@@@1@PEAPEAVD3D12Model@@_K@Z
xdata	ENDS
;	COMDAT xdata
xdata	SEGMENT
$stateUnwindMap$??$_Insert_counted_range@PEAPEAVD3D12Model@@@?$vector@PEAVD3D12Model@@V?$allocator@PEAVD3D12Model@@@std@@@std@@AEAAXV?$_Vector_const_iterator@V?$_Vector_val@U?$_Simple_types@PEAVD3D12Model@@@std@@@std@@@1@PEAPEAVD3D12Model@@_K@Z DB 0eH
	DB	0eH
	DD	imagerel ?dtor$0@?0???$_Insert_counted_range@PEAPEAVD3D12Model@@@?$vector@PEAVD3D12Model@@V?$allocator@PEAVD3D12Model@@@std@@@std@@AEAAXV?$_Vector_const_iterator@V?$_Vector_val@U?$_Simple_types@PEAVD3D12Model@@@std@@@std@@@1@PEAPEAVD3D12Model@@_K@Z@4HA
	DB	028H
	DB	030H
	DB	038H
	DB	048H
	DB	048H
	DB	058H
xdata	ENDS
;	COMDAT xdata
xdata	SEGMENT
$cppxdata$??$_Insert_counted_range@PEAPEAVD3D12Model@@@?$vector@PEAVD3D12Model@@V?$allocator@PEAVD3D12Model@@@std@@@std@@AEAAXV?$_Vector_const_iterator@V?$_Vector_val@U?$_Simple_types@PEAVD3D12Model@@@std@@@std@@@1@PEAPEAVD3D12Model@@_K@Z DB 038H
	DD	imagerel $stateUnwindMap$??$_Insert_counted_range@PEAPEAVD3D12Model@@@?$vector@PEAVD3D12Model@@V?$allocator@PEAVD3D12Model@@@std@@@std@@AEAAXV?$_Vector_const_iterator@V?$_Vector_val@U?$_Simple_types@PEAVD3D12Model@@@std@@@std@@@1@PEAPEAVD3D12Model@@_K@Z
	DD	imagerel $tryMap$??$_Insert_counted_range@PEAPEAVD3D12Model@@@?$vector@PEAVD3D12Model@@V?$allocator@PEAVD3D12Model@@@std@@@std@@AEAAXV?$_Vector_const_iterator@V?$_Vector_val@U?$_Simple_types@PEAVD3D12Model@@@std@@@std@@@1@PEAPEAVD3D12Model@@_K@Z
	DD	imagerel $ip2state$??$_Insert_counted_range@PEAPEAVD3D12Model@@@?$vector@PEAVD3D12Model@@V?$allocator@PEAVD3D12Model@@@std@@@std@@AEAAXV?$_Vector_const_iterator@V?$_Vector_val@U?$_Simple_types@PEAVD3D12Model@@@std@@@std@@@1@PEAPEAVD3D12Model@@_K@Z
xdata	ENDS
;	COMDAT xdata
xdata	SEGMENT
$unwind$??$_Insert_counted_range@PEAPEAVD3D12Model@@@?$vector@PEAVD3D12Model@@V?$allocator@PEAVD3D12Model@@@std@@@std@@AEAAXV?$_Vector_const_iterator@V?$_Vector_val@U?$_Simple_types@PEAVD3D12Model@@@std@@@std@@@1@PEAPEAVD3D12Model@@_K@Z DD 025042119H
	DD	011c2321H
	DD	05015001cH
	DD	imagerel __CxxFrameHandler4
	DD	imagerel $cppxdata$??$_Insert_counted_range@PEAPEAVD3D12Model@@@?$vector@PEAVD3D12Model@@V?$allocator@PEAVD3D12Model@@@std@@@std@@AEAAXV?$_Vector_const_iterator@V?$_Vector_val@U?$_Simple_types@PEAVD3D12Model@@@std@@@std@@@1@PEAPEAVD3D12Model@@_K@Z
xdata	ENDS
;	COMDAT xdata
xdata	SEGMENT
$unwind$??$_Convert_size@_K_K@std@@YA_K_K@Z DD 025030f01H
	DD	0b20a230fH
	DD	05006H
xdata	ENDS
;	COMDAT xdata
xdata	SEGMENT
$unwind$??$distance@PEAPEAVD3D12Model@@@std@@YA_JPEAPEAVD3D12Model@@0@Z DD 025031401H
	DD	0b20f2314H
	DD	0500bH
xdata	ENDS
;	COMDAT xdata
xdata	SEGMENT
$unwind$??$_Get_unwrapped@AEAV?$_Vector_iterator@V?$_Vector_val@U?$_Simple_types@PEAVD3D12Model@@@std@@@std@@@std@@@std@@YA?A_TAEAV?$_Vector_iterator@V?$_Vector_val@U?$_Simple_types@PEAVD3D12Model@@@std@@@std@@@0@@Z DD 025030f01H
	DD	0b20a230fH
	DD	05006H
xdata	ENDS
;	COMDAT xdata
xdata	SEGMENT
$unwind$??$_Adl_verify_range@V?$_Vector_iterator@V?$_Vector_val@U?$_Simple_types@PEAVD3D12Model@@@std@@@std@@@std@@V12@@std@@YAXAEBV?$_Vector_iterator@V?$_Vector_val@U?$_Simple_types@PEAVD3D12Model@@@std@@@std@@@0@0@Z DD 025031401H
	DD	0b20f2314H
	DD	0500bH
xdata	ENDS
;	COMDAT xdata
xdata	SEGMENT
$ip2state$??$_Deallocate@$0BA@$0A@@std@@YAXPEAX_K@Z DB 02H
	DB	00H
	DB	00H
xdata	ENDS
;	COMDAT xdata
xdata	SEGMENT
$cppxdata$??$_Deallocate@$0BA@$0A@@std@@YAXPEAX_K@Z DB 060H
	DD	imagerel $ip2state$??$_Deallocate@$0BA@$0A@@std@@YAXPEAX_K@Z
xdata	ENDS
;	COMDAT xdata
xdata	SEGMENT
$unwind$??$_Deallocate@$0BA@$0A@@std@@YAXPEAX_K@Z DD 025031419H
	DD	0b20f2314H
	DD	0500bH
	DD	imagerel __CxxFrameHandler4
	DD	imagerel $cppxdata$??$_Deallocate@$0BA@$0A@@std@@YAXPEAX_K@Z
xdata	ENDS
;	COMDAT xdata
xdata	SEGMENT
$unwind$??$_Delete_plain_internal@V?$allocator@U_Container_proxy@std@@@std@@@std@@YAXAEAV?$allocator@U_Container_proxy@std@@@0@QEAU_Container_proxy@0@@Z DD 025031401H
	DD	0b20f2314H
	DD	0500bH
xdata	ENDS
;	COMDAT xdata
xdata	SEGMENT
$unwind$??$exchange@PEAU_Container_proxy@std@@$$T@std@@YAPEAU_Container_proxy@0@AEAPEAU10@$$QEA$$T@Z DD 025031401H
	DD	0d20f2314H
	DD	0500bH
xdata	ENDS
;	COMDAT xdata
xdata	SEGMENT
$unwind$??$?0PEAVD3D12Model@@@?$allocator@U_Container_proxy@std@@@std@@QEAA@AEBV?$allocator@PEAVD3D12Model@@@1@@Z DD 025031401H
	DD	0b20f2314H
	DD	0500bH
xdata	ENDS
;	COMDAT xdata
xdata	SEGMENT
$unwind$?deallocate@?$allocator@U_Container_proxy@std@@@std@@QEAAXQEAU_Container_proxy@2@_K@Z DD 035031901H
	DD	0d2143319H
	DD	05010H
xdata	ENDS
;	COMDAT xdata
xdata	SEGMENT
$unwind$??$_Emplace_one_at_back@AEBQEAVD3D12Model@@@?$vector@PEAVD3D12Model@@V?$allocator@PEAVD3D12Model@@@std@@@std@@AEAAAEAPEAVD3D12Model@@AEBQEAV2@@Z DD 025031401H
	DD	0d20f2314H
	DD	0500bH
xdata	ENDS
;	COMDAT xdata
xdata	SEGMENT
$unwind$??$_Assign_counted_range@PEAPEAVD3D12Model@@@?$vector@PEAVD3D12Model@@V?$allocator@PEAVD3D12Model@@@std@@@std@@AEAAXPEAPEAVD3D12Model@@_K@Z DD 025041c01H
	DD	0117231cH
	DD	050100018H
xdata	ENDS
;	COMDAT xdata
xdata	SEGMENT
$unwind$??$_Pocca@V?$allocator@PEAVD3D12Model@@@std@@@std@@YAXAEAV?$allocator@PEAVD3D12Model@@@0@AEBV10@@Z DD 025031401H
	DD	0b20f2314H
	DD	0500bH
xdata	ENDS
;	COMDAT xdata
xdata	SEGMENT
$unwind$??$addressof@$$CBV?$vector@PEAVD3D12Model@@V?$allocator@PEAVD3D12Model@@@std@@@std@@@std@@YAPEBV?$vector@PEAVD3D12Model@@V?$allocator@PEAVD3D12Model@@@std@@@0@AEBV10@@Z DD 025030f01H
	DD	0b20a230fH
	DD	05006H
xdata	ENDS
;	COMDAT xdata
xdata	SEGMENT
$unwind$??$_Destroy_range@V?$allocator@PEAVD3D12Model@@@std@@@std@@YAXPEAPEAVD3D12Model@@QEAPEAV1@AEAV?$allocator@PEAVD3D12Model@@@0@@Z DD 025031901H
	DD	0b2142319H
	DD	05010H
xdata	ENDS
;	COMDAT xdata
xdata	SEGMENT
$unwind$??$addressof@V?$_Vector_val@U?$_Simple_types@PEAVD3D12Model@@@std@@@std@@@std@@YAPEAV?$_Vector_val@U?$_Simple_types@PEAVD3D12Model@@@std@@@0@AEAV10@@Z DD 025030f01H
	DD	0b20a230fH
	DD	05006H
xdata	ENDS
;	COMDAT xdata
xdata	SEGMENT
$unwind$?dtor$2@?0???$insert@V?$_Vector_iterator@V?$_Vector_val@U?$_Simple_types@PEAVD3D12Model@@@std@@@std@@@std@@$0A@@?$vector@PEAVD3D12Model@@V?$allocator@PEAVD3D12Model@@@std@@@std@@QEAA?AV?$_Vector_iterator@V?$_Vector_val@U?$_Simple_types@PEAVD3D12Model@@@std@@@std@@@1@V?$_Vector_const_iterator@V?$_Vector_val@U?$_Simple_types@PEAVD3D12Model@@@std@@@std@@@1@V21@1@Z@4HA DD 020601H
	DD	050023206H
xdata	ENDS
;	COMDAT xdata
xdata	SEGMENT
$unwind$?dtor$1@?0???$insert@V?$_Vector_iterator@V?$_Vector_val@U?$_Simple_types@PEAVD3D12Model@@@std@@@std@@@std@@$0A@@?$vector@PEAVD3D12Model@@V?$allocator@PEAVD3D12Model@@@std@@@std@@QEAA?AV?$_Vector_iterator@V?$_Vector_val@U?$_Simple_types@PEAVD3D12Model@@@std@@@std@@@1@V?$_Vector_const_iterator@V?$_Vector_val@U?$_Simple_types@PEAVD3D12Model@@@std@@@std@@@1@V21@1@Z@4HA DD 020601H
	DD	050023206H
xdata	ENDS
;	COMDAT xdata
xdata	SEGMENT
$unwind$?dtor$0@?0???$insert@V?$_Vector_iterator@V?$_Vector_val@U?$_Simple_types@PEAVD3D12Model@@@std@@@std@@@std@@$0A@@?$vector@PEAVD3D12Model@@V?$allocator@PEAVD3D12Model@@@std@@@std@@QEAA?AV?$_Vector_iterator@V?$_Vector_val@U?$_Simple_types@PEAVD3D12Model@@@std@@@std@@@1@V?$_Vector_const_iterator@V?$_Vector_val@U?$_Simple_types@PEAVD3D12Model@@@std@@@std@@@1@V21@1@Z@4HA DD 020601H
	DD	050023206H
xdata	ENDS
;	COMDAT xdata
xdata	SEGMENT
$ip2state$??$insert@V?$_Vector_iterator@V?$_Vector_val@U?$_Simple_types@PEAVD3D12Model@@@std@@@std@@@std@@$0A@@?$vector@PEAVD3D12Model@@V?$allocator@PEAVD3D12Model@@@std@@@std@@QEAA?AV?$_Vector_iterator@V?$_Vector_val@U?$_Simple_types@PEAVD3D12Model@@@std@@@std@@@1@V?$_Vector_const_iterator@V?$_Vector_val@U?$_Simple_types@PEAVD3D12Model@@@std@@@std@@@1@V21@1@Z DB 0aH
	DB	00H
	DB	00H
	DB	'V'
	DB	06H
	DB	0e5H, 06H
	DB	04H
	DB	01aH
	DB	02H
	DB	01aH
	DB	00H
xdata	ENDS
;	COMDAT xdata
xdata	SEGMENT
$stateUnwindMap$??$insert@V?$_Vector_iterator@V?$_Vector_val@U?$_Simple_types@PEAVD3D12Model@@@std@@@std@@@std@@$0A@@?$vector@PEAVD3D12Model@@V?$allocator@PEAVD3D12Model@@@std@@@std@@QEAA?AV?$_Vector_iterator@V?$_Vector_val@U?$_Simple_types@PEAVD3D12Model@@@std@@@std@@@1@V?$_Vector_const_iterator@V?$_Vector_val@U?$_Simple_types@PEAVD3D12Model@@@std@@@std@@@1@V21@1@Z DB 06H
	DB	0eH
	DD	imagerel ?dtor$0@?0???$insert@V?$_Vector_iterator@V?$_Vector_val@U?$_Simple_types@PEAVD3D12Model@@@std@@@std@@@std@@$0A@@?$vector@PEAVD3D12Model@@V?$allocator@PEAVD3D12Model@@@std@@@std@@QEAA?AV?$_Vector_iterator@V?$_Vector_val@U?$_Simple_types@PEAVD3D12Model@@@std@@@std@@@1@V?$_Vector_const_iterator@V?$_Vector_val@U?$_Simple_types@PEAVD3D12Model@@@std@@@std@@@1@V21@1@Z@4HA
	DB	02eH
	DD	imagerel ?dtor$1@?0???$insert@V?$_Vector_iterator@V?$_Vector_val@U?$_Simple_types@PEAVD3D12Model@@@std@@@std@@@std@@$0A@@?$vector@PEAVD3D12Model@@V?$allocator@PEAVD3D12Model@@@std@@@std@@QEAA?AV?$_Vector_iterator@V?$_Vector_val@U?$_Simple_types@PEAVD3D12Model@@@std@@@std@@@1@V?$_Vector_const_iterator@V?$_Vector_val@U?$_Simple_types@PEAVD3D12Model@@@std@@@std@@@1@V21@1@Z@4HA
	DB	02eH
	DD	imagerel ?dtor$2@?0???$insert@V?$_Vector_iterator@V?$_Vector_val@U?$_Simple_types@PEAVD3D12Model@@@std@@@std@@@std@@$0A@@?$vector@PEAVD3D12Model@@V?$allocator@PEAVD3D12Model@@@std@@@std@@QEAA?AV?$_Vector_iterator@V?$_Vector_val@U?$_Simple_types@PEAVD3D12Model@@@std@@@std@@@1@V?$_Vector_const_iterator@V?$_Vector_val@U?$_Simple_types@PEAVD3D12Model@@@std@@@std@@@1@V21@1@Z@4HA
xdata	ENDS
;	COMDAT xdata
xdata	SEGMENT
$cppxdata$??$insert@V?$_Vector_iterator@V?$_Vector_val@U?$_Simple_types@PEAVD3D12Model@@@std@@@std@@@std@@$0A@@?$vector@PEAVD3D12Model@@V?$allocator@PEAVD3D12Model@@@std@@@std@@QEAA?AV?$_Vector_iterator@V?$_Vector_val@U?$_Simple_types@PEAVD3D12Model@@@std@@@std@@@1@V?$_Vector_const_iterator@V?$_Vector_val@U?$_Simple_types@PEAVD3D12Model@@@std@@@std@@@1@V21@1@Z DB 028H
	DD	imagerel $stateUnwindMap$??$insert@V?$_Vector_iterator@V?$_Vector_val@U?$_Simple_types@PEAVD3D12Model@@@std@@@std@@@std@@$0A@@?$vector@PEAVD3D12Model@@V?$allocator@PEAVD3D12Model@@@std@@@std@@QEAA?AV?$_Vector_iterator@V?$_Vector_val@U?$_Simple_types@PEAVD3D12Model@@@std@@@std@@@1@V?$_Vector_const_iterator@V?$_Vector_val@U?$_Simple_types@PEAVD3D12Model@@@std@@@std@@@1@V21@1@Z
	DD	imagerel $ip2state$??$insert@V?$_Vector_iterator@V?$_Vector_val@U?$_Simple_types@PEAVD3D12Model@@@std@@@std@@@std@@$0A@@?$vector@PEAVD3D12Model@@V?$allocator@PEAVD3D12Model@@@std@@@std@@QEAA?AV?$_Vector_iterator@V?$_Vector_val@U?$_Simple_types@PEAVD3D12Model@@@std@@@std@@@1@V?$_Vector_const_iterator@V?$_Vector_val@U?$_Simple_types@PEAVD3D12Model@@@std@@@std@@@1@V21@1@Z
xdata	ENDS
;	COMDAT xdata
xdata	SEGMENT
$unwind$??$insert@V?$_Vector_iterator@V?$_Vector_val@U?$_Simple_types@PEAVD3D12Model@@@std@@@std@@@std@@$0A@@?$vector@PEAVD3D12Model@@V?$allocator@PEAVD3D12Model@@@std@@@std@@QEAA?AV?$_Vector_iterator@V?$_Vector_val@U?$_Simple_types@PEAVD3D12Model@@@std@@@std@@@1@V?$_Vector_const_iterator@V?$_Vector_val@U?$_Simple_types@PEAVD3D12Model@@@std@@@std@@@1@V21@1@Z DD 035042111H
	DD	011c3321H
	DD	05015001cH
	DD	imagerel __CxxFrameHandler4
	DD	imagerel $cppxdata$??$insert@V?$_Vector_iterator@V?$_Vector_val@U?$_Simple_types@PEAVD3D12Model@@@std@@@std@@@std@@$0A@@?$vector@PEAVD3D12Model@@V?$allocator@PEAVD3D12Model@@@std@@@std@@QEAA?AV?$_Vector_iterator@V?$_Vector_val@U?$_Simple_types@PEAVD3D12Model@@@std@@@std@@@1@V?$_Vector_const_iterator@V?$_Vector_val@U?$_Simple_types@PEAVD3D12Model@@@std@@@std@@@1@V21@1@Z
xdata	ENDS
;	COMDAT xdata
xdata	SEGMENT
$unwind$??0?$_Vector_iterator@V?$_Vector_val@U?$_Simple_types@PEAVD3D12Model@@@std@@@std@@@std@@QEAA@PEAPEAVD3D12Model@@PEBU_Container_base12@1@@Z DD 025031901H
	DD	0b2142319H
	DD	05010H
xdata	ENDS
;	COMDAT xdata
xdata	SEGMENT
$unwind$??1?$_Vector_iterator@V?$_Vector_val@U?$_Simple_types@PEAVD3D12Model@@@std@@@std@@@std@@QEAA@XZ DD 025030f01H
	DD	0b20a230fH
	DD	05006H
xdata	ENDS
;	COMDAT xdata
xdata	SEGMENT
$unwind$?_Unwrapped@?$_Vector_iterator@V?$_Vector_val@U?$_Simple_types@PEAVD3D12Model@@@std@@@std@@@std@@QEBAPEAPEAVD3D12Model@@XZ DD 025030f01H
	DD	0b20a230fH
	DD	05006H
xdata	ENDS
;	COMDAT xdata
xdata	SEGMENT
$unwind$??0?$_Vector_const_iterator@V?$_Vector_val@U?$_Simple_types@PEAVD3D12Model@@@std@@@std@@@std@@QEAA@$$QEAV01@@Z DD 025031401H
	DD	0b20f2314H
	DD	0500bH
xdata	ENDS
;	COMDAT xdata
xdata	SEGMENT
$unwind$??0?$_Vector_const_iterator@V?$_Vector_val@U?$_Simple_types@PEAVD3D12Model@@@std@@@std@@@std@@QEAA@AEBV01@@Z DD 025031401H
	DD	0b20f2314H
	DD	0500bH
xdata	ENDS
;	COMDAT xdata
xdata	SEGMENT
$unwind$??1?$_Vector_const_iterator@V?$_Vector_val@U?$_Simple_types@PEAVD3D12Model@@@std@@@std@@@std@@QEAA@XZ DD 025030f01H
	DD	0b20a230fH
	DD	05006H
xdata	ENDS
;	COMDAT xdata
xdata	SEGMENT
$unwind$?_Verify_range@std@@YAXAEBV?$_Vector_const_iterator@V?$_Vector_val@U?$_Simple_types@PEAVD3D12Model@@@std@@@std@@@1@0@Z DD 035031701H
	DD	0f2123317H
	DD	0500bH
xdata	ENDS
;	COMDAT xdata
xdata	SEGMENT
$unwind$??0?$_Vector_const_iterator@V?$_Vector_val@U?$_Simple_types@PEAVD3D12Model@@@std@@@std@@@std@@QEAA@PEAPEAVD3D12Model@@PEBU_Container_base12@1@@Z DD 025031901H
	DD	0b2142319H
	DD	05010H
xdata	ENDS
;	COMDAT xdata
xdata	SEGMENT
$unwind$?ResetModels@D3D12Scene@@QEAAXXZ DD 025030f01H
	DD	0b20a230fH
	DD	05006H
xdata	ENDS
;	COMDAT xdata
xdata	SEGMENT
$unwind$?dtor$0@?0??SetModels@D3D12Scene@@QEAAXV?$vector@PEAVD3D12Model@@V?$allocator@PEAVD3D12Model@@@std@@@std@@@Z@4HA DD 020601H
	DD	050023206H
xdata	ENDS
;	COMDAT xdata
xdata	SEGMENT
$ip2state$?SetModels@D3D12Scene@@QEAAXV?$vector@PEAVD3D12Model@@V?$allocator@PEAVD3D12Model@@@std@@@std@@@Z DB 06H
	DB	00H
	DB	00H
	DB	'('
	DB	02H
	DB	':'
	DB	00H
xdata	ENDS
;	COMDAT xdata
xdata	SEGMENT
$stateUnwindMap$?SetModels@D3D12Scene@@QEAAXV?$vector@PEAVD3D12Model@@V?$allocator@PEAVD3D12Model@@@std@@@std@@@Z DB 02H
	DB	0eH
	DD	imagerel ?dtor$0@?0??SetModels@D3D12Scene@@QEAAXV?$vector@PEAVD3D12Model@@V?$allocator@PEAVD3D12Model@@@std@@@std@@@Z@4HA
xdata	ENDS
;	COMDAT xdata
xdata	SEGMENT
$cppxdata$?SetModels@D3D12Scene@@QEAAXV?$vector@PEAVD3D12Model@@V?$allocator@PEAVD3D12Model@@@std@@@std@@@Z DB 028H
	DD	imagerel $stateUnwindMap$?SetModels@D3D12Scene@@QEAAXV?$vector@PEAVD3D12Model@@V?$allocator@PEAVD3D12Model@@@std@@@std@@@Z
	DD	imagerel $ip2state$?SetModels@D3D12Scene@@QEAAXV?$vector@PEAVD3D12Model@@V?$allocator@PEAVD3D12Model@@@std@@@std@@@Z
xdata	ENDS
;	COMDAT xdata
xdata	SEGMENT
$unwind$?SetModels@D3D12Scene@@QEAAXV?$vector@PEAVD3D12Model@@V?$allocator@PEAVD3D12Model@@@std@@@std@@@Z DD 025031411H
	DD	0b20f2314H
	DD	0500bH
	DD	imagerel __CxxFrameHandler4
	DD	imagerel $cppxdata$?SetModels@D3D12Scene@@QEAAXV?$vector@PEAVD3D12Model@@V?$allocator@PEAVD3D12Model@@@std@@@std@@@Z
xdata	ENDS
;	COMDAT xdata
xdata	SEGMENT
$unwind$?dtor$3@?0??AddModels@D3D12Scene@@QEAAXV?$vector@PEAVD3D12Model@@V?$allocator@PEAVD3D12Model@@@std@@@std@@@Z@4HA DD 020601H
	DD	050023206H
xdata	ENDS
;	COMDAT xdata
xdata	SEGMENT
$unwind$?dtor$0@?0??AddModels@D3D12Scene@@QEAAXV?$vector@PEAVD3D12Model@@V?$allocator@PEAVD3D12Model@@@std@@@std@@@Z@4HA DD 020601H
	DD	050023206H
xdata	ENDS
;	COMDAT xdata
xdata	SEGMENT
$ip2state$?AddModels@D3D12Scene@@QEAAXV?$vector@PEAVD3D12Model@@V?$allocator@PEAVD3D12Model@@@std@@@std@@@Z DB 0aH
	DB	00H
	DB	00H
	DB	'.'
	DB	02H
	DB	0a9H, 02H
	DB	04H
	DB	0c4H
	DB	02H
	DB	01aH
	DB	00H
xdata	ENDS
;	COMDAT xdata
xdata	SEGMENT
$stateUnwindMap$?AddModels@D3D12Scene@@QEAAXV?$vector@PEAVD3D12Model@@V?$allocator@PEAVD3D12Model@@@std@@@std@@@Z DB 04H
	DB	0eH
	DD	imagerel ?dtor$0@?0??AddModels@D3D12Scene@@QEAAXV?$vector@PEAVD3D12Model@@V?$allocator@PEAVD3D12Model@@@std@@@std@@@Z@4HA
	DB	02eH
	DD	imagerel ?dtor$3@?0??AddModels@D3D12Scene@@QEAAXV?$vector@PEAVD3D12Model@@V?$allocator@PEAVD3D12Model@@@std@@@std@@@Z@4HA
xdata	ENDS
;	COMDAT xdata
xdata	SEGMENT
$cppxdata$?AddModels@D3D12Scene@@QEAAXV?$vector@PEAVD3D12Model@@V?$allocator@PEAVD3D12Model@@@std@@@std@@@Z DB 028H
	DD	imagerel $stateUnwindMap$?AddModels@D3D12Scene@@QEAAXV?$vector@PEAVD3D12Model@@V?$allocator@PEAVD3D12Model@@@std@@@std@@@Z
	DD	imagerel $ip2state$?AddModels@D3D12Scene@@QEAAXV?$vector@PEAVD3D12Model@@V?$allocator@PEAVD3D12Model@@@std@@@std@@@Z
xdata	ENDS
;	COMDAT xdata
xdata	SEGMENT
$unwind$?AddModels@D3D12Scene@@QEAAXV?$vector@PEAVD3D12Model@@V?$allocator@PEAVD3D12Model@@@std@@@std@@@Z DD 035041711H
	DD	01123317H
	DD	0500b002aH
	DD	imagerel __CxxFrameHandler4
	DD	imagerel $cppxdata$?AddModels@D3D12Scene@@QEAAXV?$vector@PEAVD3D12Model@@V?$allocator@PEAVD3D12Model@@@std@@@std@@@Z
xdata	ENDS
;	COMDAT xdata
xdata	SEGMENT
$unwind$?AddModel@D3D12Scene@@QEAAXPEAVD3D12Model@@@Z DD 025031401H
	DD	0d20f2314H
	DD	0500bH
xdata	ENDS
;	COMDAT xdata
xdata	SEGMENT
$unwind$?SetCamera@D3D12Scene@@QEAAXUD3D12Camera@@@Z DD 025051601H
	DD	0b2112316H
	DD	0600c700dH
	DD	0500bH
xdata	ENDS
;	COMDAT xdata
xdata	SEGMENT
$unwind$?_Get_first@?$_Compressed_pair@V?$allocator@PEAVD3D12Model@@@std@@V?$_Vector_val@U?$_Simple_types@PEAVD3D12Model@@@std@@@2@$00@std@@QEBAAEBV?$allocator@PEAVD3D12Model@@@2@XZ DD 025030f01H
	DD	0b20a230fH
	DD	05006H
xdata	ENDS
;	COMDAT xdata
xdata	SEGMENT
$unwind$?_Get_first@?$_Compressed_pair@V?$allocator@PEAVD3D12Model@@@std@@V?$_Vector_val@U?$_Simple_types@PEAVD3D12Model@@@std@@@2@$00@std@@QEAAAEAV?$allocator@PEAVD3D12Model@@@2@XZ DD 025030f01H
	DD	0b20a230fH
	DD	05006H
xdata	ENDS
;	COMDAT xdata
xdata	SEGMENT
$unwind$?_Make_iterator_offset@?$vector@PEAVD3D12Model@@V?$allocator@PEAVD3D12Model@@@std@@@std@@AEAA?AV?$_Vector_iterator@V?$_Vector_val@U?$_Simple_types@PEAVD3D12Model@@@std@@@std@@@2@_K@Z DD 025031c01H
	DD	0f217231cH
	DD	05010H
xdata	ENDS
;	COMDAT xdata
xdata	SEGMENT
$unwind$?_Getal@?$vector@PEAVD3D12Model@@V?$allocator@PEAVD3D12Model@@@std@@@std@@AEBAAEBV?$allocator@PEAVD3D12Model@@@2@XZ DD 025030f01H
	DD	0b20a230fH
	DD	05006H
xdata	ENDS
;	COMDAT xdata
xdata	SEGMENT
$unwind$?_Getal@?$vector@PEAVD3D12Model@@V?$allocator@PEAVD3D12Model@@@std@@@std@@AEAAAEAV?$allocator@PEAVD3D12Model@@@2@XZ DD 025030f01H
	DD	0b20a230fH
	DD	05006H
xdata	ENDS
;	COMDAT xdata
xdata	SEGMENT
$unwind$?_Orphan_range@?$vector@PEAVD3D12Model@@V?$allocator@PEAVD3D12Model@@@std@@@std@@AEBAXPEAPEAVD3D12Model@@0@Z DD 025031901H
	DD	0b2142319H
	DD	05010H
xdata	ENDS
;	COMDAT xdata
xdata	SEGMENT
$unwind$?dtor$0@?0??_Orphan_range_locked@?$vector@PEAVD3D12Model@@V?$allocator@PEAVD3D12Model@@@std@@@std@@AEBAXPEAPEAVD3D12Model@@0@Z@4HA DD 020601H
	DD	050023206H
xdata	ENDS
;	COMDAT xdata
xdata	SEGMENT
$ip2state$?_Orphan_range_locked@?$vector@PEAVD3D12Model@@V?$allocator@PEAVD3D12Model@@@std@@@std@@AEBAXPEAPEAVD3D12Model@@0@Z DB 06H
	DB	00H
	DB	00H
	DB	'j'
	DB	02H
	DB	'$'
	DB	00H
xdata	ENDS
;	COMDAT xdata
xdata	SEGMENT
$stateUnwindMap$?_Orphan_range_locked@?$vector@PEAVD3D12Model@@V?$allocator@PEAVD3D12Model@@@std@@@std@@AEBAXPEAPEAVD3D12Model@@0@Z DB 02H
	DB	0eH
	DD	imagerel ?dtor$0@?0??_Orphan_range_locked@?$vector@PEAVD3D12Model@@V?$allocator@PEAVD3D12Model@@@std@@@std@@AEBAXPEAPEAVD3D12Model@@0@Z@4HA
xdata	ENDS
;	COMDAT xdata
xdata	SEGMENT
$cppxdata$?_Orphan_range_locked@?$vector@PEAVD3D12Model@@V?$allocator@PEAVD3D12Model@@@std@@@std@@AEBAXPEAPEAVD3D12Model@@0@Z DB 028H
	DD	imagerel $stateUnwindMap$?_Orphan_range_locked@?$vector@PEAVD3D12Model@@V?$allocator@PEAVD3D12Model@@@std@@@std@@AEBAXPEAPEAVD3D12Model@@0@Z
	DD	imagerel $ip2state$?_Orphan_range_locked@?$vector@PEAVD3D12Model@@V?$allocator@PEAVD3D12Model@@@std@@@std@@AEBAXPEAPEAVD3D12Model@@0@Z
xdata	ENDS
;	COMDAT xdata
xdata	SEGMENT
$unwind$?_Orphan_range_locked@?$vector@PEAVD3D12Model@@V?$allocator@PEAVD3D12Model@@@std@@@std@@AEBAXPEAPEAVD3D12Model@@0@Z DD 025031911H
	DD	0d2142319H
	DD	05010H
	DD	imagerel __CxxFrameHandler4
	DD	imagerel $cppxdata$?_Orphan_range_locked@?$vector@PEAVD3D12Model@@V?$allocator@PEAVD3D12Model@@@std@@@std@@AEBAXPEAPEAVD3D12Model@@0@Z
xdata	ENDS
;	COMDAT xdata
xdata	SEGMENT
$unwind$?_Orphan_range_unlocked@?$vector@PEAVD3D12Model@@V?$allocator@PEAVD3D12Model@@@std@@@std@@AEBAXPEAPEAVD3D12Model@@0@Z DD 025031c01H
	DD	0f217231cH
	DD	05010H
xdata	ENDS
;	COMDAT xdata
xdata	SEGMENT
$unwind$?_Xlength@?$vector@PEAVD3D12Model@@V?$allocator@PEAVD3D12Model@@@std@@@std@@CAXXZ DD 025030b01H
	DD	0b206230bH
	DD	05002H
xdata	ENDS
;	COMDAT xdata
xdata	SEGMENT
$ip2state$?_Tidy@?$vector@PEAVD3D12Model@@V?$allocator@PEAVD3D12Model@@@std@@@std@@AEAAXXZ DB 02H
	DB	00H
	DB	00H
xdata	ENDS
;	COMDAT xdata
xdata	SEGMENT
$cppxdata$?_Tidy@?$vector@PEAVD3D12Model@@V?$allocator@PEAVD3D12Model@@@std@@@std@@AEAAXXZ DB 060H
	DD	imagerel $ip2state$?_Tidy@?$vector@PEAVD3D12Model@@V?$allocator@PEAVD3D12Model@@@std@@@std@@AEAAXXZ
xdata	ENDS
;	COMDAT xdata
xdata	SEGMENT
$unwind$?_Tidy@?$vector@PEAVD3D12Model@@V?$allocator@PEAVD3D12Model@@@std@@@std@@AEAAXXZ DD 025041219H
	DD	010d2312H
	DD	050060012H
	DD	imagerel __CxxFrameHandler4
	DD	imagerel $cppxdata$?_Tidy@?$vector@PEAVD3D12Model@@V?$allocator@PEAVD3D12Model@@@std@@@std@@AEAAXXZ
xdata	ENDS
;	COMDAT xdata
xdata	SEGMENT
$unwind$?_Change_array@?$vector@PEAVD3D12Model@@V?$allocator@PEAVD3D12Model@@@std@@@std@@AEAAXQEAPEAVD3D12Model@@_K1@Z DD 025042101H
	DD	011c2321H
	DD	050150012H
xdata	ENDS
;	COMDAT xdata
xdata	SEGMENT
$unwind$?_Buy_raw@?$vector@PEAVD3D12Model@@V?$allocator@PEAVD3D12Model@@@std@@@std@@AEAAX_K@Z DD 025041701H
	DD	01122317H
	DD	0500b0012H
xdata	ENDS
;	COMDAT xdata
xdata	SEGMENT
$unwind$?_Calculate_growth@?$vector@PEAVD3D12Model@@V?$allocator@PEAVD3D12Model@@@std@@@std@@AEBA_K_K@Z DD 025031701H
	DD	0f2122317H
	DD	0500bH
xdata	ENDS
;	COMDAT xdata
xdata	SEGMENT
$unwind$?capacity@?$vector@PEAVD3D12Model@@V?$allocator@PEAVD3D12Model@@@std@@@std@@QEBA_KXZ DD 025030f01H
	DD	0d20a230fH
	DD	05006H
xdata	ENDS
;	COMDAT xdata
xdata	SEGMENT
$unwind$?max_size@?$vector@PEAVD3D12Model@@V?$allocator@PEAVD3D12Model@@@std@@@std@@QEBA_KXZ DD 025030f01H
	DD	0d20a230fH
	DD	05006H
xdata	ENDS
;	COMDAT xdata
xdata	SEGMENT
$unwind$?end@?$vector@PEAVD3D12Model@@V?$allocator@PEAVD3D12Model@@@std@@@std@@QEAA?AV?$_Vector_iterator@V?$_Vector_val@U?$_Simple_types@PEAVD3D12Model@@@std@@@std@@@2@XZ DD 025031701H
	DD	0f2122317H
	DD	0500bH
xdata	ENDS
;	COMDAT xdata
xdata	SEGMENT
$unwind$?begin@?$vector@PEAVD3D12Model@@V?$allocator@PEAVD3D12Model@@@std@@@std@@QEAA?AV?$_Vector_iterator@V?$_Vector_val@U?$_Simple_types@PEAVD3D12Model@@@std@@@std@@@2@XZ DD 025031701H
	DD	0f2122317H
	DD	0500bH
xdata	ENDS
;	COMDAT xdata
xdata	SEGMENT
$unwind$?clear@?$vector@PEAVD3D12Model@@V?$allocator@PEAVD3D12Model@@@std@@@std@@QEAAXXZ DD 025041201H
	DD	010d2312H
	DD	050060012H
xdata	ENDS
;	COMDAT xdata
xdata	SEGMENT
$unwind$?_Clear_and_reserve_geometric@?$vector@PEAVD3D12Model@@V?$allocator@PEAVD3D12Model@@@std@@@std@@AEAAX_K@Z DD 025041701H
	DD	01122317H
	DD	0500b0012H
xdata	ENDS
;	COMDAT xdata
xdata	SEGMENT
$unwind$??4?$vector@PEAVD3D12Model@@V?$allocator@PEAVD3D12Model@@@std@@@std@@QEAAAEAV01@AEBV01@@Z DD 025031701H
	DD	0f2122317H
	DD	0500bH
xdata	ENDS
;	COMDAT xdata
xdata	SEGMENT
$unwind$?push_back@?$vector@PEAVD3D12Model@@V?$allocator@PEAVD3D12Model@@@std@@@std@@QEAAXAEBQEAVD3D12Model@@@Z DD 025031401H
	DD	0b20f2314H
	DD	0500bH
xdata	ENDS
;	COMDAT xdata
xdata	SEGMENT
$unwind$??1?$vector@PEAVD3D12Model@@V?$allocator@PEAVD3D12Model@@@std@@@std@@QEAA@XZ DD 025031201H
	DD	0f20d2312H
	DD	05006H
xdata	ENDS
;	COMDAT xdata
xdata	SEGMENT
$unwind$?max_size@?$_Default_allocator_traits@V?$allocator@PEAVD3D12Model@@@std@@@std@@SA_KAEBV?$allocator@PEAVD3D12Model@@@2@@Z DD 025030f01H
	DD	0b20a230fH
	DD	05006H
xdata	ENDS
;	COMDAT xdata
xdata	SEGMENT
$unwind$?allocate@?$allocator@PEAVD3D12Model@@@std@@QEAAPEAPEAVD3D12Model@@_K@Z DD 025031401H
	DD	0b20f2314H
	DD	0500bH
xdata	ENDS
;	COMDAT xdata
xdata	SEGMENT
$unwind$?deallocate@?$allocator@PEAVD3D12Model@@@std@@QEAAXQEAPEAVD3D12Model@@_K@Z DD 035031901H
	DD	0d2143319H
	DD	05010H
xdata	ENDS
;	COMDAT xdata
xdata	SEGMENT
$unwind$??$exchange@PEAU_Iterator_base12@std@@$$T@std@@YAPEAU_Iterator_base12@0@AEAPEAU10@$$QEA$$T@Z DD 025031401H
	DD	0d20f2314H
	DD	0500bH
xdata	ENDS
;	COMDAT xdata
xdata	SEGMENT
$unwind$?_Orphan_me_locked_v3@_Iterator_base12@std@@AEAAXXZ DD 025030f01H
	DD	0d20a230fH
	DD	05006H
xdata	ENDS
;	COMDAT xdata
xdata	SEGMENT
$unwind$?_Orphan_me_unlocked_v3@_Iterator_base12@std@@AEAAXXZ DD 035031201H
	DD	0f20d3312H
	DD	05006H
xdata	ENDS
;	COMDAT xdata
xdata	SEGMENT
$unwind$?_Adopt_locked@_Iterator_base12@std@@AEAAXPEBU_Container_base12@2@@Z DD 025031401H
	DD	0d20f2314H
	DD	0500bH
xdata	ENDS
;	COMDAT xdata
xdata	SEGMENT
$unwind$?_Adopt_unlocked@_Iterator_base12@std@@AEAAXPEBU_Container_base12@2@@Z DD 025031401H
	DD	0d20f2314H
	DD	0500bH
xdata	ENDS
;	COMDAT xdata
xdata	SEGMENT
$unwind$?_Assign_locked@_Iterator_base12@std@@AEAAXAEBU12@@Z DD 025031401H
	DD	0d20f2314H
	DD	0500bH
xdata	ENDS
;	COMDAT xdata
xdata	SEGMENT
$unwind$?_Assign_unlocked@_Iterator_base12@std@@AEAAXAEBU12@@Z DD 025031401H
	DD	0b20f2314H
	DD	0500bH
xdata	ENDS
;	COMDAT xdata
xdata	SEGMENT
$unwind$?_Getcont@_Iterator_base12@std@@QEBAPEBU_Container_base12@2@XZ DD 025030f01H
	DD	0d20a230fH
	DD	05006H
xdata	ENDS
;	COMDAT xdata
xdata	SEGMENT
$unwind$?_Adopt@_Iterator_base12@std@@QEAAXPEBU_Container_base12@2@@Z DD 025031401H
	DD	0b20f2314H
	DD	0500bH
xdata	ENDS
;	COMDAT xdata
xdata	SEGMENT
$unwind$??1_Iterator_base12@std@@QEAA@XZ DD 025030f01H
	DD	0b20a230fH
	DD	05006H
xdata	ENDS
;	COMDAT xdata
xdata	SEGMENT
$unwind$??4_Iterator_base12@std@@QEAAAEAU01@AEBU01@@Z DD 025031401H
	DD	0b20f2314H
	DD	0500bH
xdata	ENDS
;	COMDAT xdata
xdata	SEGMENT
$unwind$??0_Iterator_base12@std@@QEAA@AEBU01@@Z DD 025031401H
	DD	0b20f2314H
	DD	0500bH
xdata	ENDS
;	COMDAT xdata
xdata	SEGMENT
$unwind$??0_Iterator_base12@std@@QEAA@XZ DD 025030f01H
	DD	0b20a230fH
	DD	05006H
xdata	ENDS
;	COMDAT xdata
xdata	SEGMENT
$unwind$?_Orphan_all_locked_v3@_Container_base12@std@@AEAAXXZ DD 025030f01H
	DD	0d20a230fH
	DD	05006H
xdata	ENDS
;	COMDAT xdata
xdata	SEGMENT
$unwind$?_Orphan_all_unlocked_v3@_Container_base12@std@@AEAAXXZ DD 025030f01H
	DD	0d20a230fH
	DD	05006H
xdata	ENDS
;	COMDAT xdata
xdata	SEGMENT
$unwind$?_Orphan_all@_Container_base12@std@@QEAAXXZ DD 025030f01H
	DD	0b20a230fH
	DD	05006H
xdata	ENDS
;	COMDAT xdata
xdata	SEGMENT
$unwind$?_Adjust_manually_vector_aligned@std@@YAXAEAPEAXAEA_K@Z DD 035041701H
	DD	01123317H
	DD	0500b0012H
xdata	ENDS
;	COMDAT xdata
xdata	SEGMENT
$unwind$?_Allocate@_Default_allocate_traits@std@@SAPEAX_K@Z DD 025030f01H
	DD	0b20a230fH
	DD	05006H
xdata	ENDS
;	COMDAT xdata
xdata	SEGMENT
$unwind$?_Throw_bad_array_new_length@std@@YAXXZ DD 025030e01H
	DD	0f209230eH
	DD	05002H
xdata	ENDS
;	COMDAT xdata
xdata	SEGMENT
$unwind$??_Gbad_array_new_length@std@@UEAAPEAXI@Z DD 025031301H
	DD	0b20e2313H
	DD	0500aH
xdata	ENDS
;	COMDAT xdata
xdata	SEGMENT
$unwind$??0bad_array_new_length@std@@QEAA@AEBV01@@Z DD 025031401H
	DD	0b20f2314H
	DD	0500bH
xdata	ENDS
;	COMDAT xdata
xdata	SEGMENT
$unwind$??1bad_array_new_length@std@@UEAA@XZ DD 025030f01H
	DD	0b20a230fH
	DD	05006H
xdata	ENDS
;	COMDAT xdata
xdata	SEGMENT
$unwind$??0bad_array_new_length@std@@QEAA@XZ DD 025030f01H
	DD	0b20a230fH
	DD	05006H
xdata	ENDS
;	COMDAT xdata
xdata	SEGMENT
$unwind$??_Gbad_alloc@std@@UEAAPEAXI@Z DD 025031301H
	DD	0b20e2313H
	DD	0500aH
xdata	ENDS
;	COMDAT xdata
xdata	SEGMENT
$unwind$??0bad_alloc@std@@QEAA@AEBV01@@Z DD 025031401H
	DD	0b20f2314H
	DD	0500bH
xdata	ENDS
;	COMDAT xdata
xdata	SEGMENT
$unwind$??1bad_alloc@std@@UEAA@XZ DD 025030f01H
	DD	0b20a230fH
	DD	05006H
xdata	ENDS
;	COMDAT xdata
xdata	SEGMENT
$unwind$??0bad_alloc@std@@AEAA@QEBD@Z DD 025031401H
	DD	0b20f2314H
	DD	0500bH
xdata	ENDS
;	COMDAT xdata
xdata	SEGMENT
$unwind$??_Gexception@std@@UEAAPEAXI@Z DD 025031301H
	DD	0b20e2313H
	DD	0500aH
xdata	ENDS
;	COMDAT xdata
xdata	SEGMENT
$unwind$?what@exception@std@@UEBAPEBDXZ DD 025030f01H
	DD	0d20a230fH
	DD	05006H
xdata	ENDS
;	COMDAT xdata
xdata	SEGMENT
$unwind$??1exception@std@@UEAA@XZ DD 025030f01H
	DD	0b20a230fH
	DD	05006H
xdata	ENDS
;	COMDAT xdata
xdata	SEGMENT
$unwind$??0exception@std@@QEAA@AEBV01@@Z DD 025041501H
	DD	0c2102315H
	DD	0500b700cH
xdata	ENDS
;	COMDAT xdata
xdata	SEGMENT
$unwind$??0exception@std@@QEAA@QEBDH@Z DD 025041a01H
	DD	0c215231aH
	DD	050107011H
xdata	ENDS
;	COMDAT xdata
xdata	SEGMENT
$unwind$?max@?$numeric_limits@_J@std@@SA_JXZ DD 025030b01H
	DD	0b206230bH
	DD	05002H
xdata	ENDS
;	COMDAT xdata
xdata	SEGMENT
$unwind$?is_constant_evaluated@std@@YA_NXZ DD 025030b01H
	DD	0b206230bH
	DD	05002H
xdata	ENDS
;	COMDAT xdata
xdata	SEGMENT
$ip2state$??_E?$ComPtr@UIUnknown@@@WRL@Microsoft@@QEAAPEAXI@Z DB 02H
	DB	00H
	DB	00H
xdata	ENDS
;	COMDAT xdata
xdata	SEGMENT
$cppxdata$??_E?$ComPtr@UIUnknown@@@WRL@Microsoft@@QEAAPEAXI@Z DB 060H
	DD	imagerel $ip2state$??_E?$ComPtr@UIUnknown@@@WRL@Microsoft@@QEAAPEAXI@Z
xdata	ENDS
;	COMDAT xdata
xdata	SEGMENT
$unwind$??_E?$ComPtr@UIUnknown@@@WRL@Microsoft@@QEAAPEAXI@Z DD 025031319H
	DD	0b20e2313H
	DD	0500aH
	DD	imagerel __CxxFrameHandler4
	DD	imagerel $cppxdata$??_E?$ComPtr@UIUnknown@@@WRL@Microsoft@@QEAAPEAXI@Z
xdata	ENDS
;	COMDAT xdata
xdata	SEGMENT
$unwind$??1?$ComPtr@UIUnknown@@@WRL@Microsoft@@QEAA@XZ DD 025030f01H
	DD	0b20a230fH
	DD	05006H
xdata	ENDS
;	COMDAT xdata
xdata	SEGMENT
$ip2state$?InternalRelease@?$ComPtr@UIUnknown@@@WRL@Microsoft@@IEAAKXZ DB 02H
	DB	00H
	DB	00H
xdata	ENDS
;	COMDAT xdata
xdata	SEGMENT
$cppxdata$?InternalRelease@?$ComPtr@UIUnknown@@@WRL@Microsoft@@IEAAKXZ DB 060H
	DD	imagerel $ip2state$?InternalRelease@?$ComPtr@UIUnknown@@@WRL@Microsoft@@IEAAKXZ
xdata	ENDS
;	COMDAT xdata
xdata	SEGMENT
$unwind$?InternalRelease@?$ComPtr@UIUnknown@@@WRL@Microsoft@@IEAAKXZ DD 025030f19H
	DD	0d20a230fH
	DD	05006H
	DD	imagerel __CxxFrameHandler4
	DD	imagerel $cppxdata$?InternalRelease@?$ComPtr@UIUnknown@@@WRL@Microsoft@@IEAAKXZ
xdata	ENDS
;	COMDAT xdata
xdata	SEGMENT
$unwind$??2@YAPEAX_KPEAX@Z DD 025031401H
	DD	0b20f2314H
	DD	0500bH
xdata	ENDS
; Function compile flags: /Odt
;	COMDAT __JustMyCode_Default
_TEXT	SEGMENT
__JustMyCode_Default PROC				; COMDAT
  00000	c2 00 00	 ret	 0
__JustMyCode_Default ENDP
_TEXT	ENDS
; Function compile flags: /Odtp /ZI
; File C:\Program Files\Microsoft Visual Studio\2022\Preview\VC\Tools\MSVC\14.38.33030\include\xutility
;	COMDAT ??$construct_at@PEAVD3D12Model@@PEAV1@$0A@@std@@YAPEAPEAVD3D12Model@@QEAPEAV1@$$QEAPEAV1@@Z
_TEXT	SEGMENT
$T1 = 64
_Location$ = 96
<_Args_0>$ = 104
??$construct_at@PEAVD3D12Model@@PEAV1@$0A@@std@@YAPEAPEAVD3D12Model@@QEAPEAV1@$$QEAPEAV1@@Z PROC ; std::construct_at<D3D12Model *,D3D12Model *,0>, COMDAT

; 241  :     noexcept(::new(static_cast<void*>(_Location)) _Ty(_STD forward<_Types>(_Args)...))) /* strengthened */ {

$LN3:
  00000	48 89 54 24 10	 mov	 QWORD PTR [rsp+16], rdx
  00005	48 89 4c 24 08	 mov	 QWORD PTR [rsp+8], rcx
  0000a	55		 push	 rbp
  0000b	48 83 ec 70	 sub	 rsp, 112		; 00000070H
  0000f	48 8d 6c 24 20	 lea	 rbp, QWORD PTR [rsp+32]
  00014	48 8d 0d 00 00
	00 00		 lea	 rcx, OFFSET FLAT:__B7320FC0_xutility
  0001b	e8 00 00 00 00	 call	 __CheckForDebuggerJustMyCode

; 242  :     _MSVC_CONSTEXPR return ::new (static_cast<void*>(_Location)) _Ty(_STD forward<_Types>(_Args)...);

  00020	48 8b 55 60	 mov	 rdx, QWORD PTR _Location$[rbp]
  00024	b9 08 00 00 00	 mov	 ecx, 8
  00029	e8 00 00 00 00	 call	 ??2@YAPEAX_KPEAX@Z	; operator new
  0002e	48 89 45 40	 mov	 QWORD PTR $T1[rbp], rax
  00032	48 8b 45 40	 mov	 rax, QWORD PTR $T1[rbp]
  00036	48 8b 4d 68	 mov	 rcx, QWORD PTR <_Args_0>$[rbp]
  0003a	48 8b 09	 mov	 rcx, QWORD PTR [rcx]
  0003d	48 89 08	 mov	 QWORD PTR [rax], rcx
  00040	48 8b 45 40	 mov	 rax, QWORD PTR $T1[rbp]

; 243  : }

  00044	48 8d 65 50	 lea	 rsp, QWORD PTR [rbp+80]
  00048	5d		 pop	 rbp
  00049	c3		 ret	 0
??$construct_at@PEAVD3D12Model@@PEAV1@$0A@@std@@YAPEAPEAVD3D12Model@@QEAPEAV1@$$QEAPEAV1@@Z ENDP ; std::construct_at<D3D12Model *,D3D12Model *,0>
_TEXT	ENDS
; Function compile flags: /Odtp /ZI
; File C:\Program Files\Microsoft Visual Studio\2022\Preview\VC\Tools\MSVC\14.38.33030\include\xutility
;	COMDAT ??$construct_at@PEAVD3D12Model@@AEAPEAV1@$0A@@std@@YAPEAPEAVD3D12Model@@QEAPEAV1@AEAPEAV1@@Z
_TEXT	SEGMENT
$T1 = 64
_Location$ = 96
<_Args_0>$ = 104
??$construct_at@PEAVD3D12Model@@AEAPEAV1@$0A@@std@@YAPEAPEAVD3D12Model@@QEAPEAV1@AEAPEAV1@@Z PROC ; std::construct_at<D3D12Model *,D3D12Model * &,0>, COMDAT

; 241  :     noexcept(::new(static_cast<void*>(_Location)) _Ty(_STD forward<_Types>(_Args)...))) /* strengthened */ {

$LN3:
  00000	48 89 54 24 10	 mov	 QWORD PTR [rsp+16], rdx
  00005	48 89 4c 24 08	 mov	 QWORD PTR [rsp+8], rcx
  0000a	55		 push	 rbp
  0000b	48 83 ec 70	 sub	 rsp, 112		; 00000070H
  0000f	48 8d 6c 24 20	 lea	 rbp, QWORD PTR [rsp+32]
  00014	48 8d 0d 00 00
	00 00		 lea	 rcx, OFFSET FLAT:__B7320FC0_xutility
  0001b	e8 00 00 00 00	 call	 __CheckForDebuggerJustMyCode

; 242  :     _MSVC_CONSTEXPR return ::new (static_cast<void*>(_Location)) _Ty(_STD forward<_Types>(_Args)...);

  00020	48 8b 55 60	 mov	 rdx, QWORD PTR _Location$[rbp]
  00024	b9 08 00 00 00	 mov	 ecx, 8
  00029	e8 00 00 00 00	 call	 ??2@YAPEAX_KPEAX@Z	; operator new
  0002e	48 89 45 40	 mov	 QWORD PTR $T1[rbp], rax
  00032	48 8b 45 40	 mov	 rax, QWORD PTR $T1[rbp]
  00036	48 8b 4d 68	 mov	 rcx, QWORD PTR <_Args_0>$[rbp]
  0003a	48 8b 09	 mov	 rcx, QWORD PTR [rcx]
  0003d	48 89 08	 mov	 QWORD PTR [rax], rcx
  00040	48 8b 45 40	 mov	 rax, QWORD PTR $T1[rbp]

; 243  : }

  00044	48 8d 65 50	 lea	 rsp, QWORD PTR [rbp+80]
  00048	5d		 pop	 rbp
  00049	c3		 ret	 0
??$construct_at@PEAVD3D12Model@@AEAPEAV1@$0A@@std@@YAPEAPEAVD3D12Model@@QEAPEAV1@AEAPEAV1@@Z ENDP ; std::construct_at<D3D12Model *,D3D12Model * &,0>
_TEXT	ENDS
; Function compile flags: /Odtp /ZI
; File C:\Program Files\Microsoft Visual Studio\2022\Preview\VC\Tools\MSVC\14.38.33030\include\xmemory
;	COMDAT ??$construct@PEAVD3D12Model@@PEAV1@@?$_Default_allocator_traits@V?$allocator@PEAVD3D12Model@@@std@@@std@@SAXAEAV?$allocator@PEAVD3D12Model@@@1@QEAPEAVD3D12Model@@$$QEAPEAV3@@Z
_TEXT	SEGMENT
__formal$ = 80
_Ptr$ = 88
<_Args_0>$ = 96
??$construct@PEAVD3D12Model@@PEAV1@@?$_Default_allocator_traits@V?$allocator@PEAVD3D12Model@@@std@@@std@@SAXAEAV?$allocator@PEAVD3D12Model@@@1@QEAPEAVD3D12Model@@$$QEAPEAV3@@Z PROC ; std::_Default_allocator_traits<std::allocator<D3D12Model *> >::construct<D3D12Model *,D3D12Model *>, COMDAT

; 719  :     static _CONSTEXPR20 void construct(_Alloc&, _Objty* const _Ptr, _Types&&... _Args) {

$LN3:
  00000	4c 89 44 24 18	 mov	 QWORD PTR [rsp+24], r8
  00005	48 89 54 24 10	 mov	 QWORD PTR [rsp+16], rdx
  0000a	48 89 4c 24 08	 mov	 QWORD PTR [rsp+8], rcx
  0000f	55		 push	 rbp
  00010	48 83 ec 60	 sub	 rsp, 96			; 00000060H
  00014	48 8d 6c 24 20	 lea	 rbp, QWORD PTR [rsp+32]
  00019	48 8d 0d 00 00
	00 00		 lea	 rcx, OFFSET FLAT:__67F55BEA_xmemory
  00020	e8 00 00 00 00	 call	 __CheckForDebuggerJustMyCode

; 720  : #if _HAS_CXX20
; 721  :         _STD construct_at(_Ptr, _STD forward<_Types>(_Args)...);

  00025	48 8b 55 60	 mov	 rdx, QWORD PTR <_Args_0>$[rbp]
  00029	48 8b 4d 58	 mov	 rcx, QWORD PTR _Ptr$[rbp]
  0002d	e8 00 00 00 00	 call	 ??$construct_at@PEAVD3D12Model@@PEAV1@$0A@@std@@YAPEAPEAVD3D12Model@@QEAPEAV1@$$QEAPEAV1@@Z ; std::construct_at<D3D12Model *,D3D12Model *,0>

; 722  : #else // ^^^ _HAS_CXX20 / !_HAS_CXX20 vvv
; 723  :         ::new (const_cast<void*>(static_cast<const volatile void*>(_Ptr))) _Objty(_STD forward<_Types>(_Args)...);
; 724  : #endif // ^^^ !_HAS_CXX20 ^^^
; 725  :     }

  00032	48 8d 65 40	 lea	 rsp, QWORD PTR [rbp+64]
  00036	5d		 pop	 rbp
  00037	c3		 ret	 0
??$construct@PEAVD3D12Model@@PEAV1@@?$_Default_allocator_traits@V?$allocator@PEAVD3D12Model@@@std@@@std@@SAXAEAV?$allocator@PEAVD3D12Model@@@1@QEAPEAVD3D12Model@@$$QEAPEAV3@@Z ENDP ; std::_Default_allocator_traits<std::allocator<D3D12Model *> >::construct<D3D12Model *,D3D12Model *>
_TEXT	ENDS
; Function compile flags: /Odtp /ZI
; File C:\Program Files\Microsoft Visual Studio\2022\Preview\VC\Tools\MSVC\14.38.33030\include\xutility
;	COMDAT ??$construct_at@PEAVD3D12Model@@AEBQEAV1@$0A@@std@@YAPEAPEAVD3D12Model@@QEAPEAV1@AEBQEAV1@@Z
_TEXT	SEGMENT
$T1 = 64
_Location$ = 96
<_Args_0>$ = 104
??$construct_at@PEAVD3D12Model@@AEBQEAV1@$0A@@std@@YAPEAPEAVD3D12Model@@QEAPEAV1@AEBQEAV1@@Z PROC ; std::construct_at<D3D12Model *,D3D12Model * const &,0>, COMDAT

; 241  :     noexcept(::new(static_cast<void*>(_Location)) _Ty(_STD forward<_Types>(_Args)...))) /* strengthened */ {

$LN3:
  00000	48 89 54 24 10	 mov	 QWORD PTR [rsp+16], rdx
  00005	48 89 4c 24 08	 mov	 QWORD PTR [rsp+8], rcx
  0000a	55		 push	 rbp
  0000b	48 83 ec 70	 sub	 rsp, 112		; 00000070H
  0000f	48 8d 6c 24 20	 lea	 rbp, QWORD PTR [rsp+32]
  00014	48 8d 0d 00 00
	00 00		 lea	 rcx, OFFSET FLAT:__B7320FC0_xutility
  0001b	e8 00 00 00 00	 call	 __CheckForDebuggerJustMyCode

; 242  :     _MSVC_CONSTEXPR return ::new (static_cast<void*>(_Location)) _Ty(_STD forward<_Types>(_Args)...);

  00020	48 8b 55 60	 mov	 rdx, QWORD PTR _Location$[rbp]
  00024	b9 08 00 00 00	 mov	 ecx, 8
  00029	e8 00 00 00 00	 call	 ??2@YAPEAX_KPEAX@Z	; operator new
  0002e	48 89 45 40	 mov	 QWORD PTR $T1[rbp], rax
  00032	48 8b 45 40	 mov	 rax, QWORD PTR $T1[rbp]
  00036	48 8b 4d 68	 mov	 rcx, QWORD PTR <_Args_0>$[rbp]
  0003a	48 8b 09	 mov	 rcx, QWORD PTR [rcx]
  0003d	48 89 08	 mov	 QWORD PTR [rax], rcx
  00040	48 8b 45 40	 mov	 rax, QWORD PTR $T1[rbp]

; 243  : }

  00044	48 8d 65 50	 lea	 rsp, QWORD PTR [rbp+80]
  00048	5d		 pop	 rbp
  00049	c3		 ret	 0
??$construct_at@PEAVD3D12Model@@AEBQEAV1@$0A@@std@@YAPEAPEAVD3D12Model@@QEAPEAV1@AEBQEAV1@@Z ENDP ; std::construct_at<D3D12Model *,D3D12Model * const &,0>
_TEXT	ENDS
; Function compile flags: /Odtp /ZI
; File C:\Program Files\Microsoft Visual Studio\2022\Preview\VC\Tools\MSVC\14.38.33030\include\type_traits
;	COMDAT ??$addressof@PEAVD3D12Model@@@std@@YAPEAPEAVD3D12Model@@AEAPEAV1@@Z
_TEXT	SEGMENT
_Val$ = 80
??$addressof@PEAVD3D12Model@@@std@@YAPEAPEAVD3D12Model@@AEAPEAV1@@Z PROC ; std::addressof<D3D12Model *>, COMDAT

; 1589 : _NODISCARD constexpr _Ty* addressof(_Ty& _Val) noexcept {

$LN3:
  00000	48 89 4c 24 08	 mov	 QWORD PTR [rsp+8], rcx
  00005	55		 push	 rbp
  00006	48 83 ec 60	 sub	 rsp, 96			; 00000060H
  0000a	48 8d 6c 24 20	 lea	 rbp, QWORD PTR [rsp+32]
  0000f	48 8d 0d 00 00
	00 00		 lea	 rcx, OFFSET FLAT:__3DF2A533_type_traits
  00016	e8 00 00 00 00	 call	 __CheckForDebuggerJustMyCode

; 1590 :     return __builtin_addressof(_Val);

  0001b	48 8b 45 50	 mov	 rax, QWORD PTR _Val$[rbp]

; 1591 : }

  0001f	48 8d 65 40	 lea	 rsp, QWORD PTR [rbp+64]
  00023	5d		 pop	 rbp
  00024	c3		 ret	 0
??$addressof@PEAVD3D12Model@@@std@@YAPEAPEAVD3D12Model@@AEAPEAV1@@Z ENDP ; std::addressof<D3D12Model *>
_TEXT	ENDS
; Function compile flags: /Odtp /ZI
; File C:\Program Files\Microsoft Visual Studio\2022\Preview\VC\Tools\MSVC\14.38.33030\include\xmemory
;	COMDAT ??$construct@PEAVD3D12Model@@AEAPEAV1@@?$_Default_allocator_traits@V?$allocator@PEAVD3D12Model@@@std@@@std@@SAXAEAV?$allocator@PEAVD3D12Model@@@1@QEAPEAVD3D12Model@@AEAPEAV3@@Z
_TEXT	SEGMENT
__formal$ = 80
_Ptr$ = 88
<_Args_0>$ = 96
??$construct@PEAVD3D12Model@@AEAPEAV1@@?$_Default_allocator_traits@V?$allocator@PEAVD3D12Model@@@std@@@std@@SAXAEAV?$allocator@PEAVD3D12Model@@@1@QEAPEAVD3D12Model@@AEAPEAV3@@Z PROC ; std::_Default_allocator_traits<std::allocator<D3D12Model *> >::construct<D3D12Model *,D3D12Model * &>, COMDAT

; 719  :     static _CONSTEXPR20 void construct(_Alloc&, _Objty* const _Ptr, _Types&&... _Args) {

$LN3:
  00000	4c 89 44 24 18	 mov	 QWORD PTR [rsp+24], r8
  00005	48 89 54 24 10	 mov	 QWORD PTR [rsp+16], rdx
  0000a	48 89 4c 24 08	 mov	 QWORD PTR [rsp+8], rcx
  0000f	55		 push	 rbp
  00010	48 83 ec 60	 sub	 rsp, 96			; 00000060H
  00014	48 8d 6c 24 20	 lea	 rbp, QWORD PTR [rsp+32]
  00019	48 8d 0d 00 00
	00 00		 lea	 rcx, OFFSET FLAT:__67F55BEA_xmemory
  00020	e8 00 00 00 00	 call	 __CheckForDebuggerJustMyCode

; 720  : #if _HAS_CXX20
; 721  :         _STD construct_at(_Ptr, _STD forward<_Types>(_Args)...);

  00025	48 8b 55 60	 mov	 rdx, QWORD PTR <_Args_0>$[rbp]
  00029	48 8b 4d 58	 mov	 rcx, QWORD PTR _Ptr$[rbp]
  0002d	e8 00 00 00 00	 call	 ??$construct_at@PEAVD3D12Model@@AEAPEAV1@$0A@@std@@YAPEAPEAVD3D12Model@@QEAPEAV1@AEAPEAV1@@Z ; std::construct_at<D3D12Model *,D3D12Model * &,0>

; 722  : #else // ^^^ _HAS_CXX20 / !_HAS_CXX20 vvv
; 723  :         ::new (const_cast<void*>(static_cast<const volatile void*>(_Ptr))) _Objty(_STD forward<_Types>(_Args)...);
; 724  : #endif // ^^^ !_HAS_CXX20 ^^^
; 725  :     }

  00032	48 8d 65 40	 lea	 rsp, QWORD PTR [rbp+64]
  00036	5d		 pop	 rbp
  00037	c3		 ret	 0
??$construct@PEAVD3D12Model@@AEAPEAV1@@?$_Default_allocator_traits@V?$allocator@PEAVD3D12Model@@@std@@@std@@SAXAEAV?$allocator@PEAVD3D12Model@@@1@QEAPEAVD3D12Model@@AEAPEAV3@@Z ENDP ; std::_Default_allocator_traits<std::allocator<D3D12Model *> >::construct<D3D12Model *,D3D12Model * &>
_TEXT	ENDS
; Function compile flags: /Odtp /ZI
; File C:\Program Files\Microsoft Visual Studio\2022\Preview\VC\Tools\MSVC\14.38.33030\include\xutility
;	COMDAT ??$_Copy_backward_memmove@PEAPEAVD3D12Model@@PEAPEAV1@@std@@YAPEAPEAVD3D12Model@@PEAPEAV1@00@Z
_TEXT	SEGMENT
_FirstPtr$ = 0
_LastPtr$ = 8
_DestPtr$ = 16
_First_ch$ = 24
_Last_ch$ = 32
_Dest_ch$ = 40
_Count$ = 48
_Result$ = 56
_First$ = 144
_Last$ = 152
_Dest$ = 160
??$_Copy_backward_memmove@PEAPEAVD3D12Model@@PEAPEAV1@@std@@YAPEAPEAVD3D12Model@@PEAPEAV1@00@Z PROC ; std::_Copy_backward_memmove<D3D12Model * *,D3D12Model * *>, COMDAT

; 4816 : _CtgIt2 _Copy_backward_memmove(_CtgIt1 _First, _CtgIt1 _Last, _CtgIt2 _Dest) {

$LN3:
  00000	4c 89 44 24 18	 mov	 QWORD PTR [rsp+24], r8
  00005	48 89 54 24 10	 mov	 QWORD PTR [rsp+16], rdx
  0000a	48 89 4c 24 08	 mov	 QWORD PTR [rsp+8], rcx
  0000f	55		 push	 rbp
  00010	48 81 ec a0 00
	00 00		 sub	 rsp, 160		; 000000a0H
  00017	48 8d 6c 24 20	 lea	 rbp, QWORD PTR [rsp+32]
  0001c	48 8d 0d 00 00
	00 00		 lea	 rcx, OFFSET FLAT:__B7320FC0_xutility
  00023	e8 00 00 00 00	 call	 __CheckForDebuggerJustMyCode

; 4817 :     // implement copy_backward-like function as memmove
; 4818 :     auto _FirstPtr              = _To_address(_First);

  00028	48 8d 8d 90 00
	00 00		 lea	 rcx, QWORD PTR _First$[rbp]
  0002f	e8 00 00 00 00	 call	 ??$_To_address@PEAPEAVD3D12Model@@@std@@YA?A_PAEBQEAPEAVD3D12Model@@@Z ; std::_To_address<D3D12Model * *>
  00034	48 89 45 00	 mov	 QWORD PTR _FirstPtr$[rbp], rax

; 4819 :     auto _LastPtr               = _To_address(_Last);

  00038	48 8d 8d 98 00
	00 00		 lea	 rcx, QWORD PTR _Last$[rbp]
  0003f	e8 00 00 00 00	 call	 ??$_To_address@PEAPEAVD3D12Model@@@std@@YA?A_PAEBQEAPEAVD3D12Model@@@Z ; std::_To_address<D3D12Model * *>
  00044	48 89 45 08	 mov	 QWORD PTR _LastPtr$[rbp], rax

; 4820 :     auto _DestPtr               = _To_address(_Dest);

  00048	48 8d 8d a0 00
	00 00		 lea	 rcx, QWORD PTR _Dest$[rbp]
  0004f	e8 00 00 00 00	 call	 ??$_To_address@PEAPEAVD3D12Model@@@std@@YA?A_PAEBQEAPEAVD3D12Model@@@Z ; std::_To_address<D3D12Model * *>
  00054	48 89 45 10	 mov	 QWORD PTR _DestPtr$[rbp], rax

; 4821 :     const char* const _First_ch = const_cast<const char*>(reinterpret_cast<const volatile char*>(_FirstPtr));

  00058	48 8b 45 00	 mov	 rax, QWORD PTR _FirstPtr$[rbp]
  0005c	48 89 45 18	 mov	 QWORD PTR _First_ch$[rbp], rax

; 4822 :     const char* const _Last_ch  = const_cast<const char*>(reinterpret_cast<const volatile char*>(_LastPtr));

  00060	48 8b 45 08	 mov	 rax, QWORD PTR _LastPtr$[rbp]
  00064	48 89 45 20	 mov	 QWORD PTR _Last_ch$[rbp], rax

; 4823 :     char* const _Dest_ch        = const_cast<char*>(reinterpret_cast<const volatile char*>(_DestPtr));

  00068	48 8b 45 10	 mov	 rax, QWORD PTR _DestPtr$[rbp]
  0006c	48 89 45 28	 mov	 QWORD PTR _Dest_ch$[rbp], rax

; 4824 :     const auto _Count           = static_cast<size_t>(_Last_ch - _First_ch);

  00070	48 8b 45 18	 mov	 rax, QWORD PTR _First_ch$[rbp]
  00074	48 8b 4d 20	 mov	 rcx, QWORD PTR _Last_ch$[rbp]
  00078	48 2b c8	 sub	 rcx, rax
  0007b	48 8b c1	 mov	 rax, rcx
  0007e	48 89 45 30	 mov	 QWORD PTR _Count$[rbp], rax

; 4825 :     auto _Result                = _CSTD memmove(_Dest_ch - _Count, _First_ch, _Count);

  00082	48 8b 45 30	 mov	 rax, QWORD PTR _Count$[rbp]
  00086	48 8b 4d 28	 mov	 rcx, QWORD PTR _Dest_ch$[rbp]
  0008a	48 2b c8	 sub	 rcx, rax
  0008d	48 8b c1	 mov	 rax, rcx
  00090	4c 8b 45 30	 mov	 r8, QWORD PTR _Count$[rbp]
  00094	48 8b 55 18	 mov	 rdx, QWORD PTR _First_ch$[rbp]
  00098	48 8b c8	 mov	 rcx, rax
  0009b	e8 00 00 00 00	 call	 memmove
  000a0	48 89 45 38	 mov	 QWORD PTR _Result$[rbp], rax

; 4826 :     if constexpr (is_pointer_v<_CtgIt2>) {
; 4827 :         return static_cast<_CtgIt2>(_Result);

  000a4	48 8b 45 38	 mov	 rax, QWORD PTR _Result$[rbp]

; 4828 :     } else {
; 4829 :         return _Dest - (_LastPtr - _FirstPtr);
; 4830 :     }
; 4831 : }

  000a8	48 8d a5 80 00
	00 00		 lea	 rsp, QWORD PTR [rbp+128]
  000af	5d		 pop	 rbp
  000b0	c3		 ret	 0
??$_Copy_backward_memmove@PEAPEAVD3D12Model@@PEAPEAV1@@std@@YAPEAPEAVD3D12Model@@PEAPEAV1@00@Z ENDP ; std::_Copy_backward_memmove<D3D12Model * *,D3D12Model * *>
_TEXT	ENDS
; Function compile flags: /Odtp /ZI
; File C:\Program Files\Microsoft Visual Studio\2022\Preview\VC\Tools\MSVC\14.38.33030\include\xmemory
;	COMDAT ??$_Emplace_back@PEAVD3D12Model@@@?$_Uninitialized_backout_al@V?$allocator@PEAVD3D12Model@@@std@@@std@@QEAAX$$QEAPEAVD3D12Model@@@Z
_TEXT	SEGMENT
tv74 = 64
tv72 = 72
this$ = 96
<_Vals_0>$ = 104
??$_Emplace_back@PEAVD3D12Model@@@?$_Uninitialized_backout_al@V?$allocator@PEAVD3D12Model@@@std@@@std@@QEAAX$$QEAPEAVD3D12Model@@@Z PROC ; std::_Uninitialized_backout_al<std::allocator<D3D12Model *> >::_Emplace_back<D3D12Model *>, COMDAT

; 1800 :     _CONSTEXPR20 void _Emplace_back(_Types&&... _Vals) { // construct a new element at *_Last and increment

$LN3:
  00000	48 89 54 24 10	 mov	 QWORD PTR [rsp+16], rdx
  00005	48 89 4c 24 08	 mov	 QWORD PTR [rsp+8], rcx
  0000a	55		 push	 rbp
  0000b	48 83 ec 70	 sub	 rsp, 112		; 00000070H
  0000f	48 8d 6c 24 20	 lea	 rbp, QWORD PTR [rsp+32]
  00014	48 8d 0d 00 00
	00 00		 lea	 rcx, OFFSET FLAT:__67F55BEA_xmemory
  0001b	e8 00 00 00 00	 call	 __CheckForDebuggerJustMyCode

; 1801 :         allocator_traits<_Alloc>::construct(_Al, _Unfancy(_Last), _STD forward<_Types>(_Vals)...);

  00020	48 8b 45 60	 mov	 rax, QWORD PTR this$[rbp]
  00024	48 8b 48 08	 mov	 rcx, QWORD PTR [rax+8]
  00028	e8 00 00 00 00	 call	 ??$_Unfancy@PEAVD3D12Model@@@std@@YAPEAPEAVD3D12Model@@PEAPEAV1@@Z ; std::_Unfancy<D3D12Model *>
  0002d	48 89 45 40	 mov	 QWORD PTR tv74[rbp], rax
  00031	48 8b 45 60	 mov	 rax, QWORD PTR this$[rbp]
  00035	48 8b 40 10	 mov	 rax, QWORD PTR [rax+16]
  00039	48 89 45 48	 mov	 QWORD PTR tv72[rbp], rax
  0003d	4c 8b 45 68	 mov	 r8, QWORD PTR <_Vals_0>$[rbp]
  00041	48 8b 55 40	 mov	 rdx, QWORD PTR tv74[rbp]
  00045	48 8b 4d 48	 mov	 rcx, QWORD PTR tv72[rbp]
  00049	e8 00 00 00 00	 call	 ??$construct@PEAVD3D12Model@@PEAV1@@?$_Default_allocator_traits@V?$allocator@PEAVD3D12Model@@@std@@@std@@SAXAEAV?$allocator@PEAVD3D12Model@@@1@QEAPEAVD3D12Model@@$$QEAPEAV3@@Z ; std::_Default_allocator_traits<std::allocator<D3D12Model *> >::construct<D3D12Model *,D3D12Model *>

; 1802 :         ++_Last;

  0004e	48 8b 45 60	 mov	 rax, QWORD PTR this$[rbp]
  00052	48 8b 40 08	 mov	 rax, QWORD PTR [rax+8]
  00056	48 83 c0 08	 add	 rax, 8
  0005a	48 8b 4d 60	 mov	 rcx, QWORD PTR this$[rbp]
  0005e	48 89 41 08	 mov	 QWORD PTR [rcx+8], rax

; 1803 :     }

  00062	48 8d 65 50	 lea	 rsp, QWORD PTR [rbp+80]
  00066	5d		 pop	 rbp
  00067	c3		 ret	 0
??$_Emplace_back@PEAVD3D12Model@@@?$_Uninitialized_backout_al@V?$allocator@PEAVD3D12Model@@@std@@@std@@QEAAX$$QEAPEAVD3D12Model@@@Z ENDP ; std::_Uninitialized_backout_al<std::allocator<D3D12Model *> >::_Emplace_back<D3D12Model *>
_TEXT	ENDS
; Function compile flags: /Odtp /ZI
; File C:\Program Files\Microsoft Visual Studio\2022\Preview\VC\Tools\MSVC\14.38.33030\include\xutility
;	COMDAT ??$_Get_unwrapped@AEBQEAPEAVD3D12Model@@@std@@YA?A_TAEBQEAPEAVD3D12Model@@@Z
_TEXT	SEGMENT
_It$ = 80
??$_Get_unwrapped@AEBQEAPEAVD3D12Model@@@std@@YA?A_TAEBQEAPEAVD3D12Model@@@Z PROC ; std::_Get_unwrapped<D3D12Model * * const &>, COMDAT

; 1171 :     !_Unwrappable_v<_Iter> || _Has_nothrow_unwrapped<_Iter>) {

$LN3:
  00000	48 89 4c 24 08	 mov	 QWORD PTR [rsp+8], rcx
  00005	55		 push	 rbp
  00006	48 83 ec 60	 sub	 rsp, 96			; 00000060H
  0000a	48 8d 6c 24 20	 lea	 rbp, QWORD PTR [rsp+32]
  0000f	48 8d 0d 00 00
	00 00		 lea	 rcx, OFFSET FLAT:__B7320FC0_xutility
  00016	e8 00 00 00 00	 call	 __CheckForDebuggerJustMyCode

; 1172 :     // unwrap an iterator previously subjected to _Adl_verify_range or otherwise validated
; 1173 :     if constexpr (is_pointer_v<decay_t<_Iter>>) { // special-case pointers and arrays
; 1174 :         return _It + 0;

  0001b	48 8b 45 50	 mov	 rax, QWORD PTR _It$[rbp]
  0001f	48 8b 00	 mov	 rax, QWORD PTR [rax]

; 1175 :     } else if constexpr (_Unwrappable_v<_Iter>) {
; 1176 :         return static_cast<_Iter&&>(_It)._Unwrapped();
; 1177 :     } else {
; 1178 :         return static_cast<_Iter&&>(_It);
; 1179 :     }
; 1180 : }

  00022	48 8d 65 40	 lea	 rsp, QWORD PTR [rbp+64]
  00026	5d		 pop	 rbp
  00027	c3		 ret	 0
??$_Get_unwrapped@AEBQEAPEAVD3D12Model@@@std@@YA?A_TAEBQEAPEAVD3D12Model@@@Z ENDP ; std::_Get_unwrapped<D3D12Model * * const &>
_TEXT	ENDS
; Function compile flags: /Odtp /ZI
; File C:\Program Files\Microsoft Visual Studio\2022\Preview\VC\Tools\MSVC\14.38.33030\include\xmemory
;	COMDAT ??$_Get_size_of_n@$07@std@@YA_K_K@Z
_TEXT	SEGMENT
_Overflow_is_possible$ = 0
_Max_possible$1 = 8
_Count$ = 96
??$_Get_size_of_n@$07@std@@YA_K_K@Z PROC		; std::_Get_size_of_n<8>, COMDAT

; 64   : _NODISCARD constexpr size_t _Get_size_of_n(const size_t _Count) {

$LN4:
  00000	48 89 4c 24 08	 mov	 QWORD PTR [rsp+8], rcx
  00005	55		 push	 rbp
  00006	48 83 ec 70	 sub	 rsp, 112		; 00000070H
  0000a	48 8d 6c 24 20	 lea	 rbp, QWORD PTR [rsp+32]
  0000f	48 8d 0d 00 00
	00 00		 lea	 rcx, OFFSET FLAT:__67F55BEA_xmemory
  00016	e8 00 00 00 00	 call	 __CheckForDebuggerJustMyCode

; 65   :     constexpr bool _Overflow_is_possible = _Ty_size > 1;

  0001b	c6 45 00 01	 mov	 BYTE PTR _Overflow_is_possible$[rbp], 1

; 66   : 
; 67   :     if constexpr (_Overflow_is_possible) {
; 68   :         constexpr size_t _Max_possible = static_cast<size_t>(-1) / _Ty_size;

  0001f	48 b8 ff ff ff
	ff ff ff ff 1f	 mov	 rax, 2305843009213693951 ; 1fffffffffffffffH
  00029	48 89 45 08	 mov	 QWORD PTR _Max_possible$1[rbp], rax

; 69   :         if (_Count > _Max_possible) {

  0002d	48 b8 ff ff ff
	ff ff ff ff 1f	 mov	 rax, 2305843009213693951 ; 1fffffffffffffffH
  00037	48 39 45 60	 cmp	 QWORD PTR _Count$[rbp], rax
  0003b	76 05		 jbe	 SHORT $LN2@Get_size_o

; 70   :             _Throw_bad_array_new_length(); // multiply overflow

  0003d	e8 00 00 00 00	 call	 ?_Throw_bad_array_new_length@std@@YAXXZ ; std::_Throw_bad_array_new_length
$LN2@Get_size_o:

; 71   :         }
; 72   :     }
; 73   : 
; 74   :     return _Count * _Ty_size;

  00042	48 8b 45 60	 mov	 rax, QWORD PTR _Count$[rbp]
  00046	48 c1 e0 03	 shl	 rax, 3
$LN3@Get_size_o:

; 75   : }

  0004a	48 8d 65 50	 lea	 rsp, QWORD PTR [rbp+80]
  0004e	5d		 pop	 rbp
  0004f	c3		 ret	 0
??$_Get_size_of_n@$07@std@@YA_K_K@Z ENDP		; std::_Get_size_of_n<8>
_TEXT	ENDS
; Function compile flags: /Odtp /ZI
; File C:\Program Files\Microsoft Visual Studio\2022\Preview\VC\Tools\MSVC\14.38.33030\include\xmemory
;	COMDAT ??$_Allocate_manually_vector_aligned@U_Default_allocate_traits@std@@@std@@YAPEAX_K@Z
_TEXT	SEGMENT
_Block_size$ = 0
_Ptr_container$ = 8
_Ptr$ = 16
_Bytes$ = 112
??$_Allocate_manually_vector_aligned@U_Default_allocate_traits@std@@@std@@YAPEAX_K@Z PROC ; std::_Allocate_manually_vector_aligned<std::_Default_allocate_traits>, COMDAT

; 136  : __declspec(allocator) void* _Allocate_manually_vector_aligned(const size_t _Bytes) {

$LN13:
  00000	48 89 4c 24 08	 mov	 QWORD PTR [rsp+8], rcx
  00005	55		 push	 rbp
  00006	48 81 ec 90 00
	00 00		 sub	 rsp, 144		; 00000090H
  0000d	48 8d 6c 24 30	 lea	 rbp, QWORD PTR [rsp+48]
  00012	48 8d 0d 00 00
	00 00		 lea	 rcx, OFFSET FLAT:__67F55BEA_xmemory
  00019	e8 00 00 00 00	 call	 __CheckForDebuggerJustMyCode

; 137  :     // allocate _Bytes manually aligned to at least _Big_allocation_alignment
; 138  :     const size_t _Block_size = _Non_user_size + _Bytes;

  0001e	48 8b 45 70	 mov	 rax, QWORD PTR _Bytes$[rbp]
  00022	48 83 c0 2f	 add	 rax, 47			; 0000002fH
  00026	48 89 45 00	 mov	 QWORD PTR _Block_size$[rbp], rax

; 139  :     if (_Block_size <= _Bytes) {

  0002a	48 8b 45 70	 mov	 rax, QWORD PTR _Bytes$[rbp]
  0002e	48 39 45 00	 cmp	 QWORD PTR _Block_size$[rbp], rax
  00032	77 05		 ja	 SHORT $LN8@Allocate_m

; 140  :         _Throw_bad_array_new_length(); // add overflow

  00034	e8 00 00 00 00	 call	 ?_Throw_bad_array_new_length@std@@YAXXZ ; std::_Throw_bad_array_new_length
$LN8@Allocate_m:

; 141  :     }
; 142  : 
; 143  :     const uintptr_t _Ptr_container = reinterpret_cast<uintptr_t>(_Traits::_Allocate(_Block_size));

  00039	48 8b 4d 00	 mov	 rcx, QWORD PTR _Block_size$[rbp]
  0003d	e8 00 00 00 00	 call	 ?_Allocate@_Default_allocate_traits@std@@SAPEAX_K@Z ; std::_Default_allocate_traits::_Allocate
  00042	48 89 45 08	 mov	 QWORD PTR _Ptr_container$[rbp], rax
$LN4@Allocate_m:

; 144  :     _STL_VERIFY(_Ptr_container != 0, "invalid argument"); // validate even in release since we're doing p[-1]

  00046	48 83 7d 08 00	 cmp	 QWORD PTR _Ptr_container$[rbp], 0
  0004b	74 02		 je	 SHORT $LN9@Allocate_m
  0004d	eb 6b		 jmp	 SHORT $LN10@Allocate_m
$LN9@Allocate_m:
$LN7@Allocate_m:
  0004f	48 8d 05 00 00
	00 00		 lea	 rax, OFFSET FLAT:??_C@_0BB@FCMFBGOM@invalid?5argument@
  00056	48 89 44 24 28	 mov	 QWORD PTR [rsp+40], rax
  0005b	48 8d 05 00 00
	00 00		 lea	 rax, OFFSET FLAT:??_C@_02DKCKIIND@?$CFs@
  00062	48 89 44 24 20	 mov	 QWORD PTR [rsp+32], rax
  00067	45 33 c9	 xor	 r9d, r9d
  0006a	41 b8 90 00 00
	00		 mov	 r8d, 144		; 00000090H
  00070	48 8d 15 00 00
	00 00		 lea	 rdx, OFFSET FLAT:??_C@_0GA@FLDGEGM@C?3?2Program?5Files?2Microsoft?5Visu@
  00077	b9 02 00 00 00	 mov	 ecx, 2
  0007c	ff 15 00 00 00
	00		 call	 QWORD PTR __imp__CrtDbgReport
  00082	83 f8 01	 cmp	 eax, 1
  00085	75 03		 jne	 SHORT $LN12@Allocate_m
  00087	cc		 int	 3
  00088	33 c0		 xor	 eax, eax
$LN12@Allocate_m:
  0008a	48 c7 44 24 20
	00 00 00 00	 mov	 QWORD PTR [rsp+32], 0
  00093	41 b9 90 00 00
	00		 mov	 r9d, 144		; 00000090H
  00099	4c 8d 05 00 00
	00 00		 lea	 r8, OFFSET FLAT:??_C@_1MA@IKJDCOIC@?$AAC?$AA?3?$AA?2?$AAP?$AAr?$AAo?$AAg?$AAr?$AAa?$AAm?$AA?5?$AAF?$AAi?$AAl?$AAe@
  000a0	48 8d 15 00 00
	00 00		 lea	 rdx, OFFSET FLAT:??_C@_11LOCGONAA@@
  000a7	48 8d 0d 00 00
	00 00		 lea	 rcx, OFFSET FLAT:??_C@_1CG@JNLFBNGN@?$AA?$CC?$AAi?$AAn?$AAv?$AAa?$AAl?$AAi?$AAd?$AA?5?$AAa?$AAr?$AAg?$AAu?$AAm?$AAe@
  000ae	ff 15 00 00 00
	00		 call	 QWORD PTR __imp__invalid_parameter
  000b4	33 c0		 xor	 eax, eax
  000b6	85 c0		 test	 eax, eax
  000b8	75 95		 jne	 SHORT $LN7@Allocate_m
$LN10@Allocate_m:
  000ba	33 c0		 xor	 eax, eax
  000bc	85 c0		 test	 eax, eax
  000be	75 86		 jne	 SHORT $LN4@Allocate_m

; 145  :     void* const _Ptr = reinterpret_cast<void*>((_Ptr_container + _Non_user_size) & ~(_Big_allocation_alignment - 1));

  000c0	48 8b 45 08	 mov	 rax, QWORD PTR _Ptr_container$[rbp]
  000c4	48 83 c0 2f	 add	 rax, 47			; 0000002fH
  000c8	48 83 e0 e0	 and	 rax, -32		; ffffffffffffffe0H
  000cc	48 89 45 10	 mov	 QWORD PTR _Ptr$[rbp], rax

; 146  :     static_cast<uintptr_t*>(_Ptr)[-1] = _Ptr_container;

  000d0	b8 08 00 00 00	 mov	 eax, 8
  000d5	48 6b c0 ff	 imul	 rax, rax, -1
  000d9	48 8b 4d 10	 mov	 rcx, QWORD PTR _Ptr$[rbp]
  000dd	48 8b 55 08	 mov	 rdx, QWORD PTR _Ptr_container$[rbp]
  000e1	48 89 14 01	 mov	 QWORD PTR [rcx+rax], rdx

; 147  : 
; 148  : #ifdef _DEBUG
; 149  :     static_cast<uintptr_t*>(_Ptr)[-2] = _Big_allocation_sentinel;

  000e5	b8 08 00 00 00	 mov	 eax, 8
  000ea	48 6b c0 fe	 imul	 rax, rax, -2
  000ee	48 8b 4d 10	 mov	 rcx, QWORD PTR _Ptr$[rbp]
  000f2	48 ba fa fa fa
	fa fa fa fa fa	 mov	 rdx, -361700864190383366 ; fafafafafafafafaH
  000fc	48 89 14 01	 mov	 QWORD PTR [rcx+rax], rdx

; 150  : #endif // _DEBUG
; 151  :     return _Ptr;

  00100	48 8b 45 10	 mov	 rax, QWORD PTR _Ptr$[rbp]
$LN11@Allocate_m:

; 152  : }

  00104	48 8d 65 60	 lea	 rsp, QWORD PTR [rbp+96]
  00108	5d		 pop	 rbp
  00109	c3		 ret	 0
??$_Allocate_manually_vector_aligned@U_Default_allocate_traits@std@@@std@@YAPEAX_K@Z ENDP ; std::_Allocate_manually_vector_aligned<std::_Default_allocate_traits>
_TEXT	ENDS
; Function compile flags: /Odtp /ZI
; File C:\Program Files\Microsoft Visual Studio\2022\Preview\VC\Tools\MSVC\14.38.33030\include\xutility
;	COMDAT ??$to_address@PEAVD3D12Model@@@std@@YAPEAPEAVD3D12Model@@QEAPEAV1@@Z
_TEXT	SEGMENT
_Val$ = 80
??$to_address@PEAVD3D12Model@@@std@@YAPEAPEAVD3D12Model@@QEAPEAV1@@Z PROC ; std::to_address<D3D12Model *>, COMDAT

; 328  : _NODISCARD constexpr _Ty* to_address(_Ty* const _Val) noexcept {

$LN3:
  00000	48 89 4c 24 08	 mov	 QWORD PTR [rsp+8], rcx
  00005	55		 push	 rbp
  00006	48 83 ec 60	 sub	 rsp, 96			; 00000060H
  0000a	48 8d 6c 24 20	 lea	 rbp, QWORD PTR [rsp+32]
  0000f	48 8d 0d 00 00
	00 00		 lea	 rcx, OFFSET FLAT:__B7320FC0_xutility
  00016	e8 00 00 00 00	 call	 __CheckForDebuggerJustMyCode

; 329  :     static_assert(!is_function_v<_Ty>, "N4950 [pointer.conversion]/1: Mandates: T is not a function type.");
; 330  :     return _Val;

  0001b	48 8b 45 50	 mov	 rax, QWORD PTR _Val$[rbp]

; 331  : }

  0001f	48 8d 65 40	 lea	 rsp, QWORD PTR [rbp+64]
  00023	5d		 pop	 rbp
  00024	c3		 ret	 0
??$to_address@PEAVD3D12Model@@@std@@YAPEAPEAVD3D12Model@@QEAPEAV1@@Z ENDP ; std::to_address<D3D12Model *>
_TEXT	ENDS
; Function compile flags: /Odtp /ZI
; File C:\Program Files\Microsoft Visual Studio\2022\Preview\VC\Tools\MSVC\14.38.33030\include\xutility
;	COMDAT ??$_To_address@PEAPEAVD3D12Model@@@std@@YA?A_PAEBQEAPEAVD3D12Model@@@Z
_TEXT	SEGMENT
_Val$ = 80
??$_To_address@PEAPEAVD3D12Model@@@std@@YA?A_PAEBQEAPEAVD3D12Model@@@Z PROC ; std::_To_address<D3D12Model * *>, COMDAT

; 4377 : _NODISCARD constexpr auto _To_address(const _Iter& _Val) noexcept {

$LN3:
  00000	48 89 4c 24 08	 mov	 QWORD PTR [rsp+8], rcx
  00005	55		 push	 rbp
  00006	48 83 ec 60	 sub	 rsp, 96			; 00000060H
  0000a	48 8d 6c 24 20	 lea	 rbp, QWORD PTR [rsp+32]
  0000f	48 8d 0d 00 00
	00 00		 lea	 rcx, OFFSET FLAT:__B7320FC0_xutility
  00016	e8 00 00 00 00	 call	 __CheckForDebuggerJustMyCode

; 4378 :     _STL_INTERNAL_STATIC_ASSERT(contiguous_iterator<_Iter>);
; 4379 :     return _STD to_address(_Val);

  0001b	48 8b 45 50	 mov	 rax, QWORD PTR _Val$[rbp]
  0001f	48 8b 08	 mov	 rcx, QWORD PTR [rax]
  00022	e8 00 00 00 00	 call	 ??$to_address@PEAVD3D12Model@@@std@@YAPEAPEAVD3D12Model@@QEAPEAV1@@Z ; std::to_address<D3D12Model *>

; 4380 : }

  00027	48 8d 65 40	 lea	 rsp, QWORD PTR [rbp+64]
  0002b	5d		 pop	 rbp
  0002c	c3		 ret	 0
??$_To_address@PEAPEAVD3D12Model@@@std@@YA?A_PAEBQEAPEAVD3D12Model@@@Z ENDP ; std::_To_address<D3D12Model * *>
_TEXT	ENDS
; Function compile flags: /Odtp /ZI
; File C:\Program Files\Microsoft Visual Studio\2022\Preview\VC\Tools\MSVC\14.38.33030\include\xmemory
;	COMDAT ?deallocate@?$_Default_allocator_traits@V?$allocator@U_Container_proxy@std@@@std@@@std@@SAXAEAV?$allocator@U_Container_proxy@std@@@2@QEAU_Container_proxy@2@_K@Z
_TEXT	SEGMENT
_Al$ = 80
_Ptr$ = 88
_Count$ = 96
?deallocate@?$_Default_allocator_traits@V?$allocator@U_Container_proxy@std@@@std@@@std@@SAXAEAV?$allocator@U_Container_proxy@std@@@2@QEAU_Container_proxy@2@_K@Z PROC ; std::_Default_allocator_traits<std::allocator<std::_Container_proxy> >::deallocate, COMDAT

; 705  :     static _CONSTEXPR20 void deallocate(_Alloc& _Al, const pointer _Ptr, const size_type _Count) {

$LN5:
  00000	4c 89 44 24 18	 mov	 QWORD PTR [rsp+24], r8
  00005	48 89 54 24 10	 mov	 QWORD PTR [rsp+16], rdx
  0000a	48 89 4c 24 08	 mov	 QWORD PTR [rsp+8], rcx
  0000f	55		 push	 rbp
  00010	48 83 ec 60	 sub	 rsp, 96			; 00000060H
  00014	48 8d 6c 24 20	 lea	 rbp, QWORD PTR [rsp+32]
  00019	48 8d 0d 00 00
	00 00		 lea	 rcx, OFFSET FLAT:__67F55BEA_xmemory
  00020	e8 00 00 00 00	 call	 __CheckForDebuggerJustMyCode

; 706  :         // no overflow check on the following multiply; we assume _Allocate did that check
; 707  : #if _HAS_CXX20 // TRANSITION, GH-1532
; 708  :         if (_STD is_constant_evaluated()) {

  00025	e8 00 00 00 00	 call	 ?is_constant_evaluated@std@@YA_NXZ ; std::is_constant_evaluated
  0002a	0f b6 c0	 movzx	 eax, al
  0002d	85 c0		 test	 eax, eax
  0002f	74 13		 je	 SHORT $LN2@deallocate

; 709  :             _Al.deallocate(_Ptr, _Count);

  00031	4c 8b 45 60	 mov	 r8, QWORD PTR _Count$[rbp]
  00035	48 8b 55 58	 mov	 rdx, QWORD PTR _Ptr$[rbp]
  00039	48 8b 4d 50	 mov	 rcx, QWORD PTR _Al$[rbp]
  0003d	e8 00 00 00 00	 call	 ?deallocate@?$allocator@U_Container_proxy@std@@@std@@QEAAXQEAU_Container_proxy@2@_K@Z ; std::allocator<std::_Container_proxy>::deallocate

; 710  :         } else

  00042	eb 11		 jmp	 SHORT $LN3@deallocate
$LN2@deallocate:

; 711  : #endif // _HAS_CXX20
; 712  :         {
; 713  :             (void) _Al;
; 714  :             _Deallocate<_New_alignof<value_type>>(_Ptr, sizeof(value_type) * _Count);

  00044	48 6b 45 60 10	 imul	 rax, QWORD PTR _Count$[rbp], 16
  00049	48 8b d0	 mov	 rdx, rax
  0004c	48 8b 4d 58	 mov	 rcx, QWORD PTR _Ptr$[rbp]
  00050	e8 00 00 00 00	 call	 ??$_Deallocate@$0BA@$0A@@std@@YAXPEAX_K@Z ; std::_Deallocate<16,0>
$LN3@deallocate:

; 715  :         }
; 716  :     }

  00055	48 8d 65 40	 lea	 rsp, QWORD PTR [rbp+64]
  00059	5d		 pop	 rbp
  0005a	c3		 ret	 0
?deallocate@?$_Default_allocator_traits@V?$allocator@U_Container_proxy@std@@@std@@@std@@SAXAEAV?$allocator@U_Container_proxy@std@@@2@QEAU_Container_proxy@2@_K@Z ENDP ; std::_Default_allocator_traits<std::allocator<std::_Container_proxy> >::deallocate
_TEXT	ENDS
; Function compile flags: /Odtp /ZI
; File C:\Program Files\Microsoft Visual Studio\2022\Preview\VC\Tools\MSVC\14.38.33030\include\xmemory
;	COMDAT ??$construct@PEAVD3D12Model@@AEBQEAV1@@?$_Default_allocator_traits@V?$allocator@PEAVD3D12Model@@@std@@@std@@SAXAEAV?$allocator@PEAVD3D12Model@@@1@QEAPEAVD3D12Model@@AEBQEAV3@@Z
_TEXT	SEGMENT
__formal$ = 80
_Ptr$ = 88
<_Args_0>$ = 96
??$construct@PEAVD3D12Model@@AEBQEAV1@@?$_Default_allocator_traits@V?$allocator@PEAVD3D12Model@@@std@@@std@@SAXAEAV?$allocator@PEAVD3D12Model@@@1@QEAPEAVD3D12Model@@AEBQEAV3@@Z PROC ; std::_Default_allocator_traits<std::allocator<D3D12Model *> >::construct<D3D12Model *,D3D12Model * const &>, COMDAT

; 719  :     static _CONSTEXPR20 void construct(_Alloc&, _Objty* const _Ptr, _Types&&... _Args) {

$LN3:
  00000	4c 89 44 24 18	 mov	 QWORD PTR [rsp+24], r8
  00005	48 89 54 24 10	 mov	 QWORD PTR [rsp+16], rdx
  0000a	48 89 4c 24 08	 mov	 QWORD PTR [rsp+8], rcx
  0000f	55		 push	 rbp
  00010	48 83 ec 60	 sub	 rsp, 96			; 00000060H
  00014	48 8d 6c 24 20	 lea	 rbp, QWORD PTR [rsp+32]
  00019	48 8d 0d 00 00
	00 00		 lea	 rcx, OFFSET FLAT:__67F55BEA_xmemory
  00020	e8 00 00 00 00	 call	 __CheckForDebuggerJustMyCode

; 720  : #if _HAS_CXX20
; 721  :         _STD construct_at(_Ptr, _STD forward<_Types>(_Args)...);

  00025	48 8b 55 60	 mov	 rdx, QWORD PTR <_Args_0>$[rbp]
  00029	48 8b 4d 58	 mov	 rcx, QWORD PTR _Ptr$[rbp]
  0002d	e8 00 00 00 00	 call	 ??$construct_at@PEAVD3D12Model@@AEBQEAV1@$0A@@std@@YAPEAPEAVD3D12Model@@QEAPEAV1@AEBQEAV1@@Z ; std::construct_at<D3D12Model *,D3D12Model * const &,0>

; 722  : #else // ^^^ _HAS_CXX20 / !_HAS_CXX20 vvv
; 723  :         ::new (const_cast<void*>(static_cast<const volatile void*>(_Ptr))) _Objty(_STD forward<_Types>(_Args)...);
; 724  : #endif // ^^^ !_HAS_CXX20 ^^^
; 725  :     }

  00032	48 8d 65 40	 lea	 rsp, QWORD PTR [rbp+64]
  00036	5d		 pop	 rbp
  00037	c3		 ret	 0
??$construct@PEAVD3D12Model@@AEBQEAV1@@?$_Default_allocator_traits@V?$allocator@PEAVD3D12Model@@@std@@@std@@SAXAEAV?$allocator@PEAVD3D12Model@@@1@QEAPEAVD3D12Model@@AEBQEAV3@@Z ENDP ; std::_Default_allocator_traits<std::allocator<D3D12Model *> >::construct<D3D12Model *,D3D12Model * const &>
_TEXT	ENDS
; Function compile flags: /Odtp /ZI
; File C:\Program Files\Microsoft Visual Studio\2022\Preview\VC\Tools\MSVC\14.38.33030\include\xutility
;	COMDAT ??$_Construct_in_place@PEAVD3D12Model@@AEBQEAV1@@std@@YAXAEAPEAVD3D12Model@@AEBQEAV1@@Z
_TEXT	SEGMENT
$T1 = 64
_Obj$ = 96
<_Args_0>$ = 104
??$_Construct_in_place@PEAVD3D12Model@@AEBQEAV1@@std@@YAXAEAPEAVD3D12Model@@AEBQEAV1@@Z PROC ; std::_Construct_in_place<D3D12Model *,D3D12Model * const &>, COMDAT

; 248  :     is_nothrow_constructible_v<_Ty, _Types...>) {

$LN5:
  00000	48 89 54 24 10	 mov	 QWORD PTR [rsp+16], rdx
  00005	48 89 4c 24 08	 mov	 QWORD PTR [rsp+8], rcx
  0000a	55		 push	 rbp
  0000b	48 83 ec 70	 sub	 rsp, 112		; 00000070H
  0000f	48 8d 6c 24 20	 lea	 rbp, QWORD PTR [rsp+32]
  00014	48 8d 0d 00 00
	00 00		 lea	 rcx, OFFSET FLAT:__B7320FC0_xutility
  0001b	e8 00 00 00 00	 call	 __CheckForDebuggerJustMyCode

; 249  : #if _HAS_CXX20
; 250  :     if (_STD is_constant_evaluated()) {

  00020	e8 00 00 00 00	 call	 ?is_constant_evaluated@std@@YA_NXZ ; std::is_constant_evaluated
  00025	0f b6 c0	 movzx	 eax, al
  00028	85 c0		 test	 eax, eax
  0002a	74 17		 je	 SHORT $LN2@Construct_

; 251  :         _STD construct_at(_STD addressof(_Obj), _STD forward<_Types>(_Args)...);

  0002c	48 8b 4d 60	 mov	 rcx, QWORD PTR _Obj$[rbp]
  00030	e8 00 00 00 00	 call	 ??$addressof@PEAVD3D12Model@@@std@@YAPEAPEAVD3D12Model@@AEAPEAV1@@Z ; std::addressof<D3D12Model *>
  00035	48 8b 55 68	 mov	 rdx, QWORD PTR <_Args_0>$[rbp]
  00039	48 8b c8	 mov	 rcx, rax
  0003c	e8 00 00 00 00	 call	 ??$construct_at@PEAVD3D12Model@@AEBQEAV1@$0A@@std@@YAPEAPEAVD3D12Model@@QEAPEAV1@AEBQEAV1@@Z ; std::construct_at<D3D12Model *,D3D12Model * const &,0>

; 252  :     } else

  00041	eb 28		 jmp	 SHORT $LN3@Construct_
$LN2@Construct_:

; 253  : #endif // _HAS_CXX20
; 254  :     {
; 255  :         ::new (static_cast<void*>(_STD addressof(_Obj))) _Ty(_STD forward<_Types>(_Args)...);

  00043	48 8b 4d 60	 mov	 rcx, QWORD PTR _Obj$[rbp]
  00047	e8 00 00 00 00	 call	 ??$addressof@PEAVD3D12Model@@@std@@YAPEAPEAVD3D12Model@@AEAPEAV1@@Z ; std::addressof<D3D12Model *>
  0004c	48 8b d0	 mov	 rdx, rax
  0004f	b9 08 00 00 00	 mov	 ecx, 8
  00054	e8 00 00 00 00	 call	 ??2@YAPEAX_KPEAX@Z	; operator new
  00059	48 89 45 40	 mov	 QWORD PTR $T1[rbp], rax
  0005d	48 8b 45 40	 mov	 rax, QWORD PTR $T1[rbp]
  00061	48 8b 4d 68	 mov	 rcx, QWORD PTR <_Args_0>$[rbp]
  00065	48 8b 09	 mov	 rcx, QWORD PTR [rcx]
  00068	48 89 08	 mov	 QWORD PTR [rax], rcx
$LN3@Construct_:

; 256  :     }
; 257  : }

  0006b	48 8d 65 50	 lea	 rsp, QWORD PTR [rbp+80]
  0006f	5d		 pop	 rbp
  00070	c3		 ret	 0
??$_Construct_in_place@PEAVD3D12Model@@AEBQEAV1@@std@@YAXAEAPEAVD3D12Model@@AEBQEAV1@@Z ENDP ; std::_Construct_in_place<D3D12Model *,D3D12Model * const &>
_TEXT	ENDS
; Function compile flags: /Odtp /ZI
; File C:\Program Files\Microsoft Visual Studio\2022\Preview\VC\Tools\MSVC\14.38.33030\include\xutility
;	COMDAT ??$_Copy_memmove@PEAPEAVD3D12Model@@PEAPEAV1@@std@@YAPEAPEAVD3D12Model@@PEAPEAV1@00@Z
_TEXT	SEGMENT
_FirstPtr$ = 0
_LastPtr$ = 8
_DestPtr$ = 16
_First_ch$ = 24
_Last_ch$ = 32
_Dest_ch$ = 40
_Count$ = 48
_First$ = 144
_Last$ = 152
_Dest$ = 160
??$_Copy_memmove@PEAPEAVD3D12Model@@PEAPEAV1@@std@@YAPEAPEAVD3D12Model@@PEAPEAV1@00@Z PROC ; std::_Copy_memmove<D3D12Model * *,D3D12Model * *>, COMDAT

; 4509 : _OutCtgIt _Copy_memmove(_CtgIt _First, _CtgIt _Last, _OutCtgIt _Dest) {

$LN3:
  00000	4c 89 44 24 18	 mov	 QWORD PTR [rsp+24], r8
  00005	48 89 54 24 10	 mov	 QWORD PTR [rsp+16], rdx
  0000a	48 89 4c 24 08	 mov	 QWORD PTR [rsp+8], rcx
  0000f	55		 push	 rbp
  00010	48 81 ec a0 00
	00 00		 sub	 rsp, 160		; 000000a0H
  00017	48 8d 6c 24 20	 lea	 rbp, QWORD PTR [rsp+32]
  0001c	48 8d 0d 00 00
	00 00		 lea	 rcx, OFFSET FLAT:__B7320FC0_xutility
  00023	e8 00 00 00 00	 call	 __CheckForDebuggerJustMyCode

; 4510 :     auto _FirstPtr              = _To_address(_First);

  00028	48 8d 8d 90 00
	00 00		 lea	 rcx, QWORD PTR _First$[rbp]
  0002f	e8 00 00 00 00	 call	 ??$_To_address@PEAPEAVD3D12Model@@@std@@YA?A_PAEBQEAPEAVD3D12Model@@@Z ; std::_To_address<D3D12Model * *>
  00034	48 89 45 00	 mov	 QWORD PTR _FirstPtr$[rbp], rax

; 4511 :     auto _LastPtr               = _To_address(_Last);

  00038	48 8d 8d 98 00
	00 00		 lea	 rcx, QWORD PTR _Last$[rbp]
  0003f	e8 00 00 00 00	 call	 ??$_To_address@PEAPEAVD3D12Model@@@std@@YA?A_PAEBQEAPEAVD3D12Model@@@Z ; std::_To_address<D3D12Model * *>
  00044	48 89 45 08	 mov	 QWORD PTR _LastPtr$[rbp], rax

; 4512 :     auto _DestPtr               = _To_address(_Dest);

  00048	48 8d 8d a0 00
	00 00		 lea	 rcx, QWORD PTR _Dest$[rbp]
  0004f	e8 00 00 00 00	 call	 ??$_To_address@PEAPEAVD3D12Model@@@std@@YA?A_PAEBQEAPEAVD3D12Model@@@Z ; std::_To_address<D3D12Model * *>
  00054	48 89 45 10	 mov	 QWORD PTR _DestPtr$[rbp], rax

; 4513 :     const char* const _First_ch = const_cast<const char*>(reinterpret_cast<const volatile char*>(_FirstPtr));

  00058	48 8b 45 00	 mov	 rax, QWORD PTR _FirstPtr$[rbp]
  0005c	48 89 45 18	 mov	 QWORD PTR _First_ch$[rbp], rax

; 4514 :     const char* const _Last_ch  = const_cast<const char*>(reinterpret_cast<const volatile char*>(_LastPtr));

  00060	48 8b 45 08	 mov	 rax, QWORD PTR _LastPtr$[rbp]
  00064	48 89 45 20	 mov	 QWORD PTR _Last_ch$[rbp], rax

; 4515 :     char* const _Dest_ch        = const_cast<char*>(reinterpret_cast<const volatile char*>(_DestPtr));

  00068	48 8b 45 10	 mov	 rax, QWORD PTR _DestPtr$[rbp]
  0006c	48 89 45 28	 mov	 QWORD PTR _Dest_ch$[rbp], rax

; 4516 :     const auto _Count           = static_cast<size_t>(_Last_ch - _First_ch);

  00070	48 8b 45 18	 mov	 rax, QWORD PTR _First_ch$[rbp]
  00074	48 8b 4d 20	 mov	 rcx, QWORD PTR _Last_ch$[rbp]
  00078	48 2b c8	 sub	 rcx, rax
  0007b	48 8b c1	 mov	 rax, rcx
  0007e	48 89 45 30	 mov	 QWORD PTR _Count$[rbp], rax

; 4517 :     _CSTD memmove(_Dest_ch, _First_ch, _Count);

  00082	4c 8b 45 30	 mov	 r8, QWORD PTR _Count$[rbp]
  00086	48 8b 55 18	 mov	 rdx, QWORD PTR _First_ch$[rbp]
  0008a	48 8b 4d 28	 mov	 rcx, QWORD PTR _Dest_ch$[rbp]
  0008e	e8 00 00 00 00	 call	 memmove

; 4518 :     if constexpr (is_pointer_v<_OutCtgIt>) {
; 4519 :         return reinterpret_cast<_OutCtgIt>(_Dest_ch + _Count);

  00093	48 8b 45 30	 mov	 rax, QWORD PTR _Count$[rbp]
  00097	48 8b 4d 28	 mov	 rcx, QWORD PTR _Dest_ch$[rbp]
  0009b	48 03 c8	 add	 rcx, rax
  0009e	48 8b c1	 mov	 rax, rcx

; 4520 :     } else {
; 4521 :         return _Dest + (_LastPtr - _FirstPtr);
; 4522 :     }
; 4523 : }

  000a1	48 8d a5 80 00
	00 00		 lea	 rsp, QWORD PTR [rbp+128]
  000a8	5d		 pop	 rbp
  000a9	c3		 ret	 0
??$_Copy_memmove@PEAPEAVD3D12Model@@PEAPEAV1@@std@@YAPEAPEAVD3D12Model@@PEAPEAV1@00@Z ENDP ; std::_Copy_memmove<D3D12Model * *,D3D12Model * *>
_TEXT	ENDS
; Function compile flags: /Odtp /ZI
; File C:\Program Files\Microsoft Visual Studio\2022\Preview\VC\Tools\MSVC\14.38.33030\include\xmemory
;	COMDAT ??$_Emplace_back@AEAPEAVD3D12Model@@@?$_Uninitialized_backout_al@V?$allocator@PEAVD3D12Model@@@std@@@std@@QEAAXAEAPEAVD3D12Model@@@Z
_TEXT	SEGMENT
tv74 = 64
tv72 = 72
this$ = 96
<_Vals_0>$ = 104
??$_Emplace_back@AEAPEAVD3D12Model@@@?$_Uninitialized_backout_al@V?$allocator@PEAVD3D12Model@@@std@@@std@@QEAAXAEAPEAVD3D12Model@@@Z PROC ; std::_Uninitialized_backout_al<std::allocator<D3D12Model *> >::_Emplace_back<D3D12Model * &>, COMDAT

; 1800 :     _CONSTEXPR20 void _Emplace_back(_Types&&... _Vals) { // construct a new element at *_Last and increment

$LN3:
  00000	48 89 54 24 10	 mov	 QWORD PTR [rsp+16], rdx
  00005	48 89 4c 24 08	 mov	 QWORD PTR [rsp+8], rcx
  0000a	55		 push	 rbp
  0000b	48 83 ec 70	 sub	 rsp, 112		; 00000070H
  0000f	48 8d 6c 24 20	 lea	 rbp, QWORD PTR [rsp+32]
  00014	48 8d 0d 00 00
	00 00		 lea	 rcx, OFFSET FLAT:__67F55BEA_xmemory
  0001b	e8 00 00 00 00	 call	 __CheckForDebuggerJustMyCode

; 1801 :         allocator_traits<_Alloc>::construct(_Al, _Unfancy(_Last), _STD forward<_Types>(_Vals)...);

  00020	48 8b 45 60	 mov	 rax, QWORD PTR this$[rbp]
  00024	48 8b 48 08	 mov	 rcx, QWORD PTR [rax+8]
  00028	e8 00 00 00 00	 call	 ??$_Unfancy@PEAVD3D12Model@@@std@@YAPEAPEAVD3D12Model@@PEAPEAV1@@Z ; std::_Unfancy<D3D12Model *>
  0002d	48 89 45 40	 mov	 QWORD PTR tv74[rbp], rax
  00031	48 8b 45 60	 mov	 rax, QWORD PTR this$[rbp]
  00035	48 8b 40 10	 mov	 rax, QWORD PTR [rax+16]
  00039	48 89 45 48	 mov	 QWORD PTR tv72[rbp], rax
  0003d	4c 8b 45 68	 mov	 r8, QWORD PTR <_Vals_0>$[rbp]
  00041	48 8b 55 40	 mov	 rdx, QWORD PTR tv74[rbp]
  00045	48 8b 4d 48	 mov	 rcx, QWORD PTR tv72[rbp]
  00049	e8 00 00 00 00	 call	 ??$construct@PEAVD3D12Model@@AEAPEAV1@@?$_Default_allocator_traits@V?$allocator@PEAVD3D12Model@@@std@@@std@@SAXAEAV?$allocator@PEAVD3D12Model@@@1@QEAPEAVD3D12Model@@AEAPEAV3@@Z ; std::_Default_allocator_traits<std::allocator<D3D12Model *> >::construct<D3D12Model *,D3D12Model * &>

; 1802 :         ++_Last;

  0004e	48 8b 45 60	 mov	 rax, QWORD PTR this$[rbp]
  00052	48 8b 40 08	 mov	 rax, QWORD PTR [rax+8]
  00056	48 83 c0 08	 add	 rax, 8
  0005a	48 8b 4d 60	 mov	 rcx, QWORD PTR this$[rbp]
  0005e	48 89 41 08	 mov	 QWORD PTR [rcx+8], rax

; 1803 :     }

  00062	48 8d 65 50	 lea	 rsp, QWORD PTR [rbp+80]
  00066	5d		 pop	 rbp
  00067	c3		 ret	 0
??$_Emplace_back@AEAPEAVD3D12Model@@@?$_Uninitialized_backout_al@V?$allocator@PEAVD3D12Model@@@std@@@std@@QEAAXAEAPEAVD3D12Model@@@Z ENDP ; std::_Uninitialized_backout_al<std::allocator<D3D12Model *> >::_Emplace_back<D3D12Model * &>
_TEXT	ENDS
; Function compile flags: /Odtp /ZI
; File C:\Program Files\Microsoft Visual Studio\2022\Preview\VC\Tools\MSVC\14.38.33030\include\xmemory
;	COMDAT ?_Release@?$_Uninitialized_backout_al@V?$allocator@PEAVD3D12Model@@@std@@@std@@QEAAPEAPEAVD3D12Model@@XZ
_TEXT	SEGMENT
this$ = 80
?_Release@?$_Uninitialized_backout_al@V?$allocator@PEAVD3D12Model@@@std@@@std@@QEAAPEAPEAVD3D12Model@@XZ PROC ; std::_Uninitialized_backout_al<std::allocator<D3D12Model *> >::_Release, COMDAT

; 1805 :     constexpr pointer _Release() { // suppress any exception handling backout and return _Last

$LN3:
  00000	48 89 4c 24 08	 mov	 QWORD PTR [rsp+8], rcx
  00005	55		 push	 rbp
  00006	48 83 ec 60	 sub	 rsp, 96			; 00000060H
  0000a	48 8d 6c 24 20	 lea	 rbp, QWORD PTR [rsp+32]
  0000f	48 8d 0d 00 00
	00 00		 lea	 rcx, OFFSET FLAT:__67F55BEA_xmemory
  00016	e8 00 00 00 00	 call	 __CheckForDebuggerJustMyCode

; 1806 :         _First = _Last;

  0001b	48 8b 45 50	 mov	 rax, QWORD PTR this$[rbp]
  0001f	48 8b 4d 50	 mov	 rcx, QWORD PTR this$[rbp]
  00023	48 8b 49 08	 mov	 rcx, QWORD PTR [rcx+8]
  00027	48 89 08	 mov	 QWORD PTR [rax], rcx

; 1807 :         return _Last;

  0002a	48 8b 45 50	 mov	 rax, QWORD PTR this$[rbp]
  0002e	48 8b 40 08	 mov	 rax, QWORD PTR [rax+8]

; 1808 :     }

  00032	48 8d 65 40	 lea	 rsp, QWORD PTR [rbp+64]
  00036	5d		 pop	 rbp
  00037	c3		 ret	 0
?_Release@?$_Uninitialized_backout_al@V?$allocator@PEAVD3D12Model@@@std@@@std@@QEAAPEAPEAVD3D12Model@@XZ ENDP ; std::_Uninitialized_backout_al<std::allocator<D3D12Model *> >::_Release
_TEXT	ENDS
; Function compile flags: /Odtp /ZI
; File C:\Program Files\Microsoft Visual Studio\2022\Preview\VC\Tools\MSVC\14.38.33030\include\xmemory
;	COMDAT ??1?$_Uninitialized_backout_al@V?$allocator@PEAVD3D12Model@@@std@@@std@@QEAA@XZ
_TEXT	SEGMENT
this$ = 80
??1?$_Uninitialized_backout_al@V?$allocator@PEAVD3D12Model@@@std@@@std@@QEAA@XZ PROC ; std::_Uninitialized_backout_al<std::allocator<D3D12Model *> >::~_Uninitialized_backout_al<std::allocator<D3D12Model *> >, COMDAT

; 1795 :     _CONSTEXPR20 ~_Uninitialized_backout_al() {

$LN3:
  00000	48 89 4c 24 08	 mov	 QWORD PTR [rsp+8], rcx
  00005	55		 push	 rbp
  00006	48 83 ec 60	 sub	 rsp, 96			; 00000060H
  0000a	48 8d 6c 24 20	 lea	 rbp, QWORD PTR [rsp+32]
  0000f	48 8d 0d 00 00
	00 00		 lea	 rcx, OFFSET FLAT:__67F55BEA_xmemory
  00016	e8 00 00 00 00	 call	 __CheckForDebuggerJustMyCode

; 1796 :         _Destroy_range(_First, _Last, _Al);

  0001b	48 8b 45 50	 mov	 rax, QWORD PTR this$[rbp]
  0001f	4c 8b 40 10	 mov	 r8, QWORD PTR [rax+16]
  00023	48 8b 45 50	 mov	 rax, QWORD PTR this$[rbp]
  00027	48 8b 50 08	 mov	 rdx, QWORD PTR [rax+8]
  0002b	48 8b 45 50	 mov	 rax, QWORD PTR this$[rbp]
  0002f	48 8b 08	 mov	 rcx, QWORD PTR [rax]
  00032	e8 00 00 00 00	 call	 ??$_Destroy_range@V?$allocator@PEAVD3D12Model@@@std@@@std@@YAXPEAPEAVD3D12Model@@QEAPEAV1@AEAV?$allocator@PEAVD3D12Model@@@0@@Z ; std::_Destroy_range<std::allocator<D3D12Model *> >

; 1797 :     }

  00037	48 8d 65 40	 lea	 rsp, QWORD PTR [rbp+64]
  0003b	5d		 pop	 rbp
  0003c	c3		 ret	 0
??1?$_Uninitialized_backout_al@V?$allocator@PEAVD3D12Model@@@std@@@std@@QEAA@XZ ENDP ; std::_Uninitialized_backout_al<std::allocator<D3D12Model *> >::~_Uninitialized_backout_al<std::allocator<D3D12Model *> >
_TEXT	ENDS
; Function compile flags: /Odtp /ZI
; File C:\Program Files\Microsoft Visual Studio\2022\Preview\VC\Tools\MSVC\14.38.33030\include\xmemory
;	COMDAT ??0?$_Uninitialized_backout_al@V?$allocator@PEAVD3D12Model@@@std@@@std@@QEAA@PEAPEAVD3D12Model@@AEAV?$allocator@PEAVD3D12Model@@@1@@Z
_TEXT	SEGMENT
this$ = 80
_Dest$ = 88
_Al_$ = 96
??0?$_Uninitialized_backout_al@V?$allocator@PEAVD3D12Model@@@std@@@std@@QEAA@PEAPEAVD3D12Model@@AEAV?$allocator@PEAVD3D12Model@@@1@@Z PROC ; std::_Uninitialized_backout_al<std::allocator<D3D12Model *> >::_Uninitialized_backout_al<std::allocator<D3D12Model *> >, COMDAT

; 1790 :     _CONSTEXPR20 _Uninitialized_backout_al(pointer _Dest, _Alloc& _Al_) : _First(_Dest), _Last(_Dest), _Al(_Al_) {}

$LN3:
  00000	4c 89 44 24 18	 mov	 QWORD PTR [rsp+24], r8
  00005	48 89 54 24 10	 mov	 QWORD PTR [rsp+16], rdx
  0000a	48 89 4c 24 08	 mov	 QWORD PTR [rsp+8], rcx
  0000f	55		 push	 rbp
  00010	48 83 ec 60	 sub	 rsp, 96			; 00000060H
  00014	48 8d 6c 24 20	 lea	 rbp, QWORD PTR [rsp+32]
  00019	48 8d 0d 00 00
	00 00		 lea	 rcx, OFFSET FLAT:__67F55BEA_xmemory
  00020	e8 00 00 00 00	 call	 __CheckForDebuggerJustMyCode
  00025	48 8b 45 50	 mov	 rax, QWORD PTR this$[rbp]
  00029	48 8b 4d 58	 mov	 rcx, QWORD PTR _Dest$[rbp]
  0002d	48 89 08	 mov	 QWORD PTR [rax], rcx
  00030	48 8b 45 50	 mov	 rax, QWORD PTR this$[rbp]
  00034	48 8b 4d 58	 mov	 rcx, QWORD PTR _Dest$[rbp]
  00038	48 89 48 08	 mov	 QWORD PTR [rax+8], rcx
  0003c	48 8b 45 50	 mov	 rax, QWORD PTR this$[rbp]
  00040	48 8b 4d 60	 mov	 rcx, QWORD PTR _Al_$[rbp]
  00044	48 89 48 10	 mov	 QWORD PTR [rax+16], rcx
  00048	48 8b 45 50	 mov	 rax, QWORD PTR this$[rbp]
  0004c	48 8d 65 40	 lea	 rsp, QWORD PTR [rbp+64]
  00050	5d		 pop	 rbp
  00051	c3		 ret	 0
??0?$_Uninitialized_backout_al@V?$allocator@PEAVD3D12Model@@@std@@@std@@QEAA@PEAPEAVD3D12Model@@AEAV?$allocator@PEAVD3D12Model@@@1@@Z ENDP ; std::_Uninitialized_backout_al<std::allocator<D3D12Model *> >::_Uninitialized_backout_al<std::allocator<D3D12Model *> >
_TEXT	ENDS
; Function compile flags: /Odtp /ZI
; File C:\Program Files\Microsoft Visual Studio\2022\Preview\VC\Tools\MSVC\14.38.33030\include\xutility
;	COMDAT ??$_Get_unwrapped@PEAPEAVD3D12Model@@@std@@YA?A_T$$QEAPEAPEAVD3D12Model@@@Z
_TEXT	SEGMENT
_It$ = 80
??$_Get_unwrapped@PEAPEAVD3D12Model@@@std@@YA?A_T$$QEAPEAPEAVD3D12Model@@@Z PROC ; std::_Get_unwrapped<D3D12Model * *>, COMDAT

; 1171 :     !_Unwrappable_v<_Iter> || _Has_nothrow_unwrapped<_Iter>) {

$LN3:
  00000	48 89 4c 24 08	 mov	 QWORD PTR [rsp+8], rcx
  00005	55		 push	 rbp
  00006	48 83 ec 60	 sub	 rsp, 96			; 00000060H
  0000a	48 8d 6c 24 20	 lea	 rbp, QWORD PTR [rsp+32]
  0000f	48 8d 0d 00 00
	00 00		 lea	 rcx, OFFSET FLAT:__B7320FC0_xutility
  00016	e8 00 00 00 00	 call	 __CheckForDebuggerJustMyCode

; 1172 :     // unwrap an iterator previously subjected to _Adl_verify_range or otherwise validated
; 1173 :     if constexpr (is_pointer_v<decay_t<_Iter>>) { // special-case pointers and arrays
; 1174 :         return _It + 0;

  0001b	48 8b 45 50	 mov	 rax, QWORD PTR _It$[rbp]
  0001f	48 8b 00	 mov	 rax, QWORD PTR [rax]

; 1175 :     } else if constexpr (_Unwrappable_v<_Iter>) {
; 1176 :         return static_cast<_Iter&&>(_It)._Unwrapped();
; 1177 :     } else {
; 1178 :         return static_cast<_Iter&&>(_It);
; 1179 :     }
; 1180 : }

  00022	48 8d 65 40	 lea	 rsp, QWORD PTR [rbp+64]
  00026	5d		 pop	 rbp
  00027	c3		 ret	 0
??$_Get_unwrapped@PEAPEAVD3D12Model@@@std@@YA?A_T$$QEAPEAPEAVD3D12Model@@@Z ENDP ; std::_Get_unwrapped<D3D12Model * *>
_TEXT	ENDS
; Function compile flags: /Odtp /ZI
; File C:\Program Files\Microsoft Visual Studio\2022\Preview\VC\Tools\MSVC\14.38.33030\include\xutility
;	COMDAT ??$_Move_unchecked@PEAPEAVD3D12Model@@PEAPEAV1@@std@@YAPEAPEAVD3D12Model@@PEAPEAV1@00@Z
_TEXT	SEGMENT
_First$ = 80
_Last$ = 88
_Dest$ = 96
??$_Move_unchecked@PEAPEAVD3D12Model@@PEAPEAV1@@std@@YAPEAPEAVD3D12Model@@PEAPEAV1@00@Z PROC ; std::_Move_unchecked<D3D12Model * *,D3D12Model * *>, COMDAT

; 4869 : _CONSTEXPR20 _OutIt _Move_unchecked(_InIt _First, _InIt _Last, _OutIt _Dest) {

$LN7:
  00000	4c 89 44 24 18	 mov	 QWORD PTR [rsp+24], r8
  00005	48 89 54 24 10	 mov	 QWORD PTR [rsp+16], rdx
  0000a	48 89 4c 24 08	 mov	 QWORD PTR [rsp+8], rcx
  0000f	55		 push	 rbp
  00010	48 83 ec 60	 sub	 rsp, 96			; 00000060H
  00014	48 8d 6c 24 20	 lea	 rbp, QWORD PTR [rsp+32]
  00019	48 8d 0d 00 00
	00 00		 lea	 rcx, OFFSET FLAT:__B7320FC0_xutility
  00020	e8 00 00 00 00	 call	 __CheckForDebuggerJustMyCode

; 4870 :     // move [_First, _Last) to [_Dest, ...)
; 4871 :     // note: _Move_unchecked has callers other than the move family
; 4872 :     if constexpr (_Iter_move_cat<_InIt, _OutIt>::_Bitcopy_assignable) {
; 4873 : #if _HAS_CXX20
; 4874 :         if (!_STD is_constant_evaluated())

  00025	e8 00 00 00 00	 call	 ?is_constant_evaluated@std@@YA_NXZ ; std::is_constant_evaluated
  0002a	0f b6 c0	 movzx	 eax, al
  0002d	85 c0		 test	 eax, eax
  0002f	75 13		 jne	 SHORT $LN5@Move_unche

; 4875 : #endif // _HAS_CXX20
; 4876 :         {
; 4877 :             return _Copy_memmove(_First, _Last, _Dest);

  00031	4c 8b 45 60	 mov	 r8, QWORD PTR _Dest$[rbp]
  00035	48 8b 55 58	 mov	 rdx, QWORD PTR _Last$[rbp]
  00039	48 8b 4d 50	 mov	 rcx, QWORD PTR _First$[rbp]
  0003d	e8 00 00 00 00	 call	 ??$_Copy_memmove@PEAPEAVD3D12Model@@PEAPEAV1@@std@@YAPEAPEAVD3D12Model@@PEAPEAV1@00@Z ; std::_Copy_memmove<D3D12Model * *,D3D12Model * *>
  00042	eb 38		 jmp	 SHORT $LN1@Move_unche
$LN5@Move_unche:

; 4878 :         }
; 4879 :     }
; 4880 : 
; 4881 :     for (; _First != _Last; ++_Dest, (void) ++_First) {

  00044	eb 18		 jmp	 SHORT $LN4@Move_unche
$LN2@Move_unche:
  00046	48 8b 45 60	 mov	 rax, QWORD PTR _Dest$[rbp]
  0004a	48 83 c0 08	 add	 rax, 8
  0004e	48 89 45 60	 mov	 QWORD PTR _Dest$[rbp], rax
  00052	48 8b 45 50	 mov	 rax, QWORD PTR _First$[rbp]
  00056	48 83 c0 08	 add	 rax, 8
  0005a	48 89 45 50	 mov	 QWORD PTR _First$[rbp], rax
$LN4@Move_unche:
  0005e	48 8b 45 58	 mov	 rax, QWORD PTR _Last$[rbp]
  00062	48 39 45 50	 cmp	 QWORD PTR _First$[rbp], rax
  00066	74 10		 je	 SHORT $LN3@Move_unche

; 4882 :         *_Dest = _STD move(*_First);

  00068	48 8b 45 60	 mov	 rax, QWORD PTR _Dest$[rbp]
  0006c	48 8b 4d 50	 mov	 rcx, QWORD PTR _First$[rbp]
  00070	48 8b 09	 mov	 rcx, QWORD PTR [rcx]
  00073	48 89 08	 mov	 QWORD PTR [rax], rcx

; 4883 :     }

  00076	eb ce		 jmp	 SHORT $LN2@Move_unche
$LN3@Move_unche:

; 4884 : 
; 4885 :     return _Dest;

  00078	48 8b 45 60	 mov	 rax, QWORD PTR _Dest$[rbp]
$LN1@Move_unche:

; 4886 : }

  0007c	48 8d 65 40	 lea	 rsp, QWORD PTR [rbp+64]
  00080	5d		 pop	 rbp
  00081	c3		 ret	 0
??$_Move_unchecked@PEAPEAVD3D12Model@@PEAPEAV1@@std@@YAPEAPEAVD3D12Model@@PEAPEAV1@00@Z ENDP ; std::_Move_unchecked<D3D12Model * *,D3D12Model * *>
_TEXT	ENDS
; Function compile flags: /Odtp /ZI
; File C:\Program Files\Microsoft Visual Studio\2022\Preview\VC\Tools\MSVC\14.38.33030\include\xutility
;	COMDAT ??$_Move_backward_unchecked@PEAPEAVD3D12Model@@PEAPEAV1@@std@@YAPEAPEAVD3D12Model@@PEAPEAV1@00@Z
_TEXT	SEGMENT
_First$ = 80
_Last$ = 88
_Dest$ = 96
??$_Move_backward_unchecked@PEAPEAVD3D12Model@@PEAPEAV1@@std@@YAPEAPEAVD3D12Model@@PEAPEAV1@00@Z PROC ; std::_Move_backward_unchecked<D3D12Model * *,D3D12Model * *>, COMDAT

; 4911 : _CONSTEXPR20 _BidIt2 _Move_backward_unchecked(_BidIt1 _First, _BidIt1 _Last, _BidIt2 _Dest) {

$LN6:
  00000	4c 89 44 24 18	 mov	 QWORD PTR [rsp+24], r8
  00005	48 89 54 24 10	 mov	 QWORD PTR [rsp+16], rdx
  0000a	48 89 4c 24 08	 mov	 QWORD PTR [rsp+8], rcx
  0000f	55		 push	 rbp
  00010	48 83 ec 60	 sub	 rsp, 96			; 00000060H
  00014	48 8d 6c 24 20	 lea	 rbp, QWORD PTR [rsp+32]
  00019	48 8d 0d 00 00
	00 00		 lea	 rcx, OFFSET FLAT:__B7320FC0_xutility
  00020	e8 00 00 00 00	 call	 __CheckForDebuggerJustMyCode

; 4912 :     // move [_First, _Last) backwards to [..., _Dest)
; 4913 :     // note: _Move_backward_unchecked has callers other than the move_backward family
; 4914 :     if constexpr (_Iter_move_cat<_BidIt1, _BidIt2>::_Bitcopy_assignable) {
; 4915 : #if _HAS_CXX20
; 4916 :         if (!_STD is_constant_evaluated())

  00025	e8 00 00 00 00	 call	 ?is_constant_evaluated@std@@YA_NXZ ; std::is_constant_evaluated
  0002a	0f b6 c0	 movzx	 eax, al
  0002d	85 c0		 test	 eax, eax
  0002f	75 13		 jne	 SHORT $LN4@Move_backw

; 4917 : #endif // _HAS_CXX20
; 4918 :         {
; 4919 :             return _Copy_backward_memmove(_First, _Last, _Dest);

  00031	4c 8b 45 60	 mov	 r8, QWORD PTR _Dest$[rbp]
  00035	48 8b 55 58	 mov	 rdx, QWORD PTR _Last$[rbp]
  00039	48 8b 4d 50	 mov	 rcx, QWORD PTR _First$[rbp]
  0003d	e8 00 00 00 00	 call	 ??$_Copy_backward_memmove@PEAPEAVD3D12Model@@PEAPEAV1@@std@@YAPEAPEAVD3D12Model@@PEAPEAV1@00@Z ; std::_Copy_backward_memmove<D3D12Model * *,D3D12Model * *>
  00042	eb 36		 jmp	 SHORT $LN1@Move_backw
$LN4@Move_backw:
$LN2@Move_backw:

; 4920 :         }
; 4921 :     }
; 4922 : 
; 4923 :     while (_First != _Last) {

  00044	48 8b 45 58	 mov	 rax, QWORD PTR _Last$[rbp]
  00048	48 39 45 50	 cmp	 QWORD PTR _First$[rbp], rax
  0004c	74 28		 je	 SHORT $LN3@Move_backw

; 4924 :         *--_Dest = _STD move(*--_Last);

  0004e	48 8b 45 58	 mov	 rax, QWORD PTR _Last$[rbp]
  00052	48 83 e8 08	 sub	 rax, 8
  00056	48 89 45 58	 mov	 QWORD PTR _Last$[rbp], rax
  0005a	48 8b 45 60	 mov	 rax, QWORD PTR _Dest$[rbp]
  0005e	48 83 e8 08	 sub	 rax, 8
  00062	48 89 45 60	 mov	 QWORD PTR _Dest$[rbp], rax
  00066	48 8b 45 60	 mov	 rax, QWORD PTR _Dest$[rbp]
  0006a	48 8b 4d 58	 mov	 rcx, QWORD PTR _Last$[rbp]
  0006e	48 8b 09	 mov	 rcx, QWORD PTR [rcx]
  00071	48 89 08	 mov	 QWORD PTR [rax], rcx

; 4925 :     }

  00074	eb ce		 jmp	 SHORT $LN2@Move_backw
$LN3@Move_backw:

; 4926 : 
; 4927 :     return _Dest;

  00076	48 8b 45 60	 mov	 rax, QWORD PTR _Dest$[rbp]
$LN1@Move_backw:

; 4928 : }

  0007a	48 8d 65 40	 lea	 rsp, QWORD PTR [rbp+64]
  0007e	5d		 pop	 rbp
  0007f	c3		 ret	 0
??$_Move_backward_unchecked@PEAPEAVD3D12Model@@PEAPEAV1@@std@@YAPEAPEAVD3D12Model@@PEAPEAV1@00@Z ENDP ; std::_Move_backward_unchecked<D3D12Model * *,D3D12Model * *>
_TEXT	ENDS
; Function compile flags: /Odtp /ZI
; File C:\Program Files\Microsoft Visual Studio\2022\Preview\VC\Tools\MSVC\14.38.33030\include\xmemory
;	COMDAT ??$_Uninitialized_move@PEAPEAVD3D12Model@@V?$allocator@PEAVD3D12Model@@@std@@@std@@YAPEAPEAVD3D12Model@@QEAPEAV1@0PEAPEAV1@AEAV?$allocator@PEAVD3D12Model@@@0@@Z
_TEXT	SEGMENT
_UFirst$ = 0
_ULast$ = 8
_Backout$ = 16
$T1 = 104
_First$ = 128
_Last$ = 136
_Dest$ = 144
_Al$ = 152
??$_Uninitialized_move@PEAPEAVD3D12Model@@V?$allocator@PEAVD3D12Model@@@std@@@std@@YAPEAPEAVD3D12Model@@QEAPEAV1@0PEAPEAV1@AEAV?$allocator@PEAVD3D12Model@@@0@@Z PROC ; std::_Uninitialized_move<D3D12Model * *,std::allocator<D3D12Model *> >, COMDAT

; 1926 :     const _InIt _First, const _InIt _Last, _Alloc_ptr_t<_Alloc> _Dest, _Alloc& _Al) {

$LN8:
  00000	4c 89 4c 24 20	 mov	 QWORD PTR [rsp+32], r9
  00005	4c 89 44 24 18	 mov	 QWORD PTR [rsp+24], r8
  0000a	48 89 54 24 10	 mov	 QWORD PTR [rsp+16], rdx
  0000f	48 89 4c 24 08	 mov	 QWORD PTR [rsp+8], rcx
  00014	55		 push	 rbp
  00015	48 81 ec 90 00
	00 00		 sub	 rsp, 144		; 00000090H
  0001c	48 8d 6c 24 20	 lea	 rbp, QWORD PTR [rsp+32]
  00021	48 8d 0d 00 00
	00 00		 lea	 rcx, OFFSET FLAT:__67F55BEA_xmemory
  00028	e8 00 00 00 00	 call	 __CheckForDebuggerJustMyCode

; 1927 :     // move [_First, _Last) to raw _Dest, using _Al
; 1928 :     // note: only called internally from elsewhere in the STL
; 1929 :     using _Ptrval     = typename _Alloc::value_type*;
; 1930 :     auto _UFirst      = _Get_unwrapped(_First);

  0002d	48 8d 8d 80 00
	00 00		 lea	 rcx, QWORD PTR _First$[rbp]
  00034	e8 00 00 00 00	 call	 ??$_Get_unwrapped@AEBQEAPEAVD3D12Model@@@std@@YA?A_TAEBQEAPEAVD3D12Model@@@Z ; std::_Get_unwrapped<D3D12Model * * const &>
  00039	48 89 45 00	 mov	 QWORD PTR _UFirst$[rbp], rax

; 1931 :     const auto _ULast = _Get_unwrapped(_Last);

  0003d	48 8d 8d 88 00
	00 00		 lea	 rcx, QWORD PTR _Last$[rbp]
  00044	e8 00 00 00 00	 call	 ??$_Get_unwrapped@AEBQEAPEAVD3D12Model@@@std@@YA?A_TAEBQEAPEAVD3D12Model@@@Z ; std::_Get_unwrapped<D3D12Model * * const &>
  00049	48 89 45 08	 mov	 QWORD PTR _ULast$[rbp], rax

; 1932 :     if constexpr (conjunction_v<bool_constant<_Iter_move_cat<decltype(_UFirst), _Ptrval>::_Bitcopy_constructible>,
; 1933 :                       _Uses_default_construct<_Alloc, _Ptrval, decltype(_STD move(*_UFirst))>>) {
; 1934 : #if _HAS_CXX20
; 1935 :         if (!_STD is_constant_evaluated())

  0004d	e8 00 00 00 00	 call	 ?is_constant_evaluated@std@@YA_NXZ ; std::is_constant_evaluated
  00052	0f b6 c0	 movzx	 eax, al
  00055	85 c0		 test	 eax, eax
  00057	75 3b		 jne	 SHORT $LN5@Uninitiali

; 1936 : #endif // _HAS_CXX20
; 1937 :         {
; 1938 :             _Copy_memmove(_UFirst, _ULast, _Unfancy(_Dest));

  00059	48 8b 8d 90 00
	00 00		 mov	 rcx, QWORD PTR _Dest$[rbp]
  00060	e8 00 00 00 00	 call	 ??$_Unfancy@PEAVD3D12Model@@@std@@YAPEAPEAVD3D12Model@@PEAPEAV1@@Z ; std::_Unfancy<D3D12Model *>
  00065	4c 8b c0	 mov	 r8, rax
  00068	48 8b 55 08	 mov	 rdx, QWORD PTR _ULast$[rbp]
  0006c	48 8b 4d 00	 mov	 rcx, QWORD PTR _UFirst$[rbp]
  00070	e8 00 00 00 00	 call	 ??$_Copy_memmove@PEAPEAVD3D12Model@@PEAPEAV1@@std@@YAPEAPEAVD3D12Model@@PEAPEAV1@00@Z ; std::_Copy_memmove<D3D12Model * *,D3D12Model * *>

; 1939 :             return _Dest + (_ULast - _UFirst);

  00075	48 8b 45 00	 mov	 rax, QWORD PTR _UFirst$[rbp]
  00079	48 8b 4d 08	 mov	 rcx, QWORD PTR _ULast$[rbp]
  0007d	48 2b c8	 sub	 rcx, rax
  00080	48 8b c1	 mov	 rax, rcx
  00083	48 c1 f8 03	 sar	 rax, 3
  00087	48 8b 8d 90 00
	00 00		 mov	 rcx, QWORD PTR _Dest$[rbp]
  0008e	48 8d 04 c1	 lea	 rax, QWORD PTR [rcx+rax*8]
  00092	eb 59		 jmp	 SHORT $LN1@Uninitiali
$LN5@Uninitiali:

; 1940 :         }
; 1941 :     }
; 1942 : 
; 1943 :     _Uninitialized_backout_al<_Alloc> _Backout{_Dest, _Al};

  00094	4c 8b 85 98 00
	00 00		 mov	 r8, QWORD PTR _Al$[rbp]
  0009b	48 8b 95 90 00
	00 00		 mov	 rdx, QWORD PTR _Dest$[rbp]
  000a2	48 8d 4d 10	 lea	 rcx, QWORD PTR _Backout$[rbp]
  000a6	e8 00 00 00 00	 call	 ??0?$_Uninitialized_backout_al@V?$allocator@PEAVD3D12Model@@@std@@@std@@QEAA@PEAPEAVD3D12Model@@AEAV?$allocator@PEAVD3D12Model@@@1@@Z ; std::_Uninitialized_backout_al<std::allocator<D3D12Model *> >::_Uninitialized_backout_al<std::allocator<D3D12Model *> >
  000ab	90		 npad	 1

; 1944 :     for (; _UFirst != _ULast; ++_UFirst) {

  000ac	eb 0c		 jmp	 SHORT $LN4@Uninitiali
$LN2@Uninitiali:
  000ae	48 8b 45 00	 mov	 rax, QWORD PTR _UFirst$[rbp]
  000b2	48 83 c0 08	 add	 rax, 8
  000b6	48 89 45 00	 mov	 QWORD PTR _UFirst$[rbp], rax
$LN4@Uninitiali:
  000ba	48 8b 45 08	 mov	 rax, QWORD PTR _ULast$[rbp]
  000be	48 39 45 00	 cmp	 QWORD PTR _UFirst$[rbp], rax
  000c2	74 0f		 je	 SHORT $LN3@Uninitiali

; 1945 :         _Backout._Emplace_back(_STD move(*_UFirst));

  000c4	48 8b 55 00	 mov	 rdx, QWORD PTR _UFirst$[rbp]
  000c8	48 8d 4d 10	 lea	 rcx, QWORD PTR _Backout$[rbp]
  000cc	e8 00 00 00 00	 call	 ??$_Emplace_back@PEAVD3D12Model@@@?$_Uninitialized_backout_al@V?$allocator@PEAVD3D12Model@@@std@@@std@@QEAAX$$QEAPEAVD3D12Model@@@Z ; std::_Uninitialized_backout_al<std::allocator<D3D12Model *> >::_Emplace_back<D3D12Model *>

; 1946 :     }

  000d1	eb db		 jmp	 SHORT $LN2@Uninitiali
$LN3@Uninitiali:

; 1947 : 
; 1948 :     return _Backout._Release();

  000d3	48 8d 4d 10	 lea	 rcx, QWORD PTR _Backout$[rbp]
  000d7	e8 00 00 00 00	 call	 ?_Release@?$_Uninitialized_backout_al@V?$allocator@PEAVD3D12Model@@@std@@@std@@QEAAPEAPEAVD3D12Model@@XZ ; std::_Uninitialized_backout_al<std::allocator<D3D12Model *> >::_Release
  000dc	48 89 45 68	 mov	 QWORD PTR $T1[rbp], rax
  000e0	48 8d 4d 10	 lea	 rcx, QWORD PTR _Backout$[rbp]
  000e4	e8 00 00 00 00	 call	 ??1?$_Uninitialized_backout_al@V?$allocator@PEAVD3D12Model@@@std@@@std@@QEAA@XZ ; std::_Uninitialized_backout_al<std::allocator<D3D12Model *> >::~_Uninitialized_backout_al<std::allocator<D3D12Model *> >
  000e9	48 8b 45 68	 mov	 rax, QWORD PTR $T1[rbp]
$LN1@Uninitiali:

; 1949 : }

  000ed	48 8d 65 70	 lea	 rsp, QWORD PTR [rbp+112]
  000f1	5d		 pop	 rbp
  000f2	c3		 ret	 0
??$_Uninitialized_move@PEAPEAVD3D12Model@@V?$allocator@PEAVD3D12Model@@@std@@@std@@YAPEAPEAVD3D12Model@@QEAPEAV1@0PEAPEAV1@AEAV?$allocator@PEAVD3D12Model@@@0@@Z ENDP ; std::_Uninitialized_move<D3D12Model * *,std::allocator<D3D12Model *> >
_TEXT	ENDS
; Function compile flags: /Odtp /ZI
;	COMDAT text$x
text$x	SEGMENT
_UFirst$ = 0
_ULast$ = 8
_Backout$ = 16
$T1 = 104
_First$ = 128
_Last$ = 136
_Dest$ = 144
_Al$ = 152
?dtor$0@?0???$_Uninitialized_move@PEAPEAVD3D12Model@@V?$allocator@PEAVD3D12Model@@@std@@@std@@YAPEAPEAVD3D12Model@@QEAPEAV1@0PEAPEAV1@AEAV?$allocator@PEAVD3D12Model@@@0@@Z@4HA PROC ; `std::_Uninitialized_move<D3D12Model * *,std::allocator<D3D12Model *> >'::`1'::dtor$0
  00000	40 55		 push	 rbp
  00002	48 83 ec 20	 sub	 rsp, 32			; 00000020H
  00006	48 8d 6a 20	 lea	 rbp, QWORD PTR [rdx+32]
  0000a	48 8d 4d 10	 lea	 rcx, QWORD PTR _Backout$[rbp]
  0000e	e8 00 00 00 00	 call	 ??1?$_Uninitialized_backout_al@V?$allocator@PEAVD3D12Model@@@std@@@std@@QEAA@XZ ; std::_Uninitialized_backout_al<std::allocator<D3D12Model *> >::~_Uninitialized_backout_al<std::allocator<D3D12Model *> >
  00013	48 83 c4 20	 add	 rsp, 32			; 00000020H
  00017	5d		 pop	 rbp
  00018	c3		 ret	 0
?dtor$0@?0???$_Uninitialized_move@PEAPEAVD3D12Model@@V?$allocator@PEAVD3D12Model@@@std@@@std@@YAPEAPEAVD3D12Model@@QEAPEAV1@0PEAPEAV1@AEAV?$allocator@PEAVD3D12Model@@@0@@Z@4HA ENDP ; `std::_Uninitialized_move<D3D12Model * *,std::allocator<D3D12Model *> >'::`1'::dtor$0
text$x	ENDS
; Function compile flags: /Odtp /ZI
; File C:\Program Files\Microsoft Visual Studio\2022\Preview\VC\Tools\MSVC\14.38.33030\include\xmemory
;	COMDAT ??$_Allocate_at_least_helper@V?$allocator@PEAVD3D12Model@@@std@@@std@@YAPEAPEAVD3D12Model@@AEAV?$allocator@PEAVD3D12Model@@@0@AEA_K@Z
_TEXT	SEGMENT
_Al$ = 80
_Count$ = 88
??$_Allocate_at_least_helper@V?$allocator@PEAVD3D12Model@@@std@@@std@@YAPEAPEAVD3D12Model@@AEAV?$allocator@PEAVD3D12Model@@@0@AEA_K@Z PROC ; std::_Allocate_at_least_helper<std::allocator<D3D12Model *> >, COMDAT

; 2198 :     _Alloc& _Al, _CRT_GUARDOVERFLOW typename allocator_traits<_Alloc>::size_type& _Count) {

$LN3:
  00000	48 89 54 24 10	 mov	 QWORD PTR [rsp+16], rdx
  00005	48 89 4c 24 08	 mov	 QWORD PTR [rsp+8], rcx
  0000a	55		 push	 rbp
  0000b	48 83 ec 60	 sub	 rsp, 96			; 00000060H
  0000f	48 8d 6c 24 20	 lea	 rbp, QWORD PTR [rsp+32]
  00014	48 8d 0d 00 00
	00 00		 lea	 rcx, OFFSET FLAT:__67F55BEA_xmemory
  0001b	e8 00 00 00 00	 call	 __CheckForDebuggerJustMyCode

; 2199 : #if _HAS_CXX23
; 2200 :     if constexpr (_Should_allocate_at_least<_Alloc>) {
; 2201 :         auto [_Ptr, _Allocated] = _Al.allocate_at_least(_Count);
; 2202 :         _Count                  = _Allocated;
; 2203 :         return _Ptr;
; 2204 :     } else
; 2205 : #endif // _HAS_CXX23
; 2206 :     {
; 2207 :         return _Al.allocate(_Count);

  00020	48 8b 45 58	 mov	 rax, QWORD PTR _Count$[rbp]
  00024	48 8b 10	 mov	 rdx, QWORD PTR [rax]
  00027	48 8b 4d 50	 mov	 rcx, QWORD PTR _Al$[rbp]
  0002b	e8 00 00 00 00	 call	 ?allocate@?$allocator@PEAVD3D12Model@@@std@@QEAAPEAPEAVD3D12Model@@_K@Z ; std::allocator<D3D12Model *>::allocate

; 2208 :     }
; 2209 : }

  00030	48 8d 65 40	 lea	 rsp, QWORD PTR [rbp+64]
  00034	5d		 pop	 rbp
  00035	c3		 ret	 0
??$_Allocate_at_least_helper@V?$allocator@PEAVD3D12Model@@@std@@@std@@YAPEAPEAVD3D12Model@@AEAV?$allocator@PEAVD3D12Model@@@0@AEA_K@Z ENDP ; std::_Allocate_at_least_helper<std::allocator<D3D12Model *> >
_TEXT	ENDS
; Function compile flags: /Odtp /ZI
; File C:\Program Files\Microsoft Visual Studio\2022\Preview\VC\Tools\MSVC\14.38.33030\include\utility
;	COMDAT ??$min@_K@std@@YAAEB_KAEB_K0@Z
_TEXT	SEGMENT
$T1 = 64
tv65 = 72
_Left$ = 96
_Right$ = 104
??$min@_K@std@@YAAEB_KAEB_K0@Z PROC			; std::min<unsigned __int64>, COMDAT

; 98   :     (min) (const _Ty& _Left, const _Ty& _Right) noexcept(noexcept(_Right < _Left)) /* strengthened */ {

$LN5:
  00000	48 89 54 24 10	 mov	 QWORD PTR [rsp+16], rdx
  00005	48 89 4c 24 08	 mov	 QWORD PTR [rsp+8], rcx
  0000a	55		 push	 rbp
  0000b	48 83 ec 70	 sub	 rsp, 112		; 00000070H
  0000f	48 8d 6c 24 20	 lea	 rbp, QWORD PTR [rsp+32]
  00014	48 8d 0d 00 00
	00 00		 lea	 rcx, OFFSET FLAT:__0D603829_utility
  0001b	e8 00 00 00 00	 call	 __CheckForDebuggerJustMyCode

; 99   :     // return smaller of _Left and _Right
; 100  :     return _Right < _Left ? _Right : _Left;

  00020	48 8b 45 68	 mov	 rax, QWORD PTR _Right$[rbp]
  00024	48 8b 4d 60	 mov	 rcx, QWORD PTR _Left$[rbp]
  00028	48 8b 09	 mov	 rcx, QWORD PTR [rcx]
  0002b	48 39 08	 cmp	 QWORD PTR [rax], rcx
  0002e	73 0a		 jae	 SHORT $LN3@min
  00030	48 8b 45 68	 mov	 rax, QWORD PTR _Right$[rbp]
  00034	48 89 45 48	 mov	 QWORD PTR tv65[rbp], rax
  00038	eb 08		 jmp	 SHORT $LN4@min
$LN3@min:
  0003a	48 8b 45 60	 mov	 rax, QWORD PTR _Left$[rbp]
  0003e	48 89 45 48	 mov	 QWORD PTR tv65[rbp], rax
$LN4@min:
  00042	48 8b 45 48	 mov	 rax, QWORD PTR tv65[rbp]
  00046	48 89 45 40	 mov	 QWORD PTR $T1[rbp], rax
  0004a	48 8b 45 40	 mov	 rax, QWORD PTR $T1[rbp]

; 101  : }

  0004e	48 8d 65 50	 lea	 rsp, QWORD PTR [rbp+80]
  00052	5d		 pop	 rbp
  00053	c3		 ret	 0
??$min@_K@std@@YAAEB_KAEB_K0@Z ENDP			; std::min<unsigned __int64>
_TEXT	ENDS
; Function compile flags: /Odtp /ZI
; File C:\Program Files\Microsoft Visual Studio\2022\Preview\VC\Tools\MSVC\14.38.33030\include\xmemory
;	COMDAT ??$_Unfancy@PEAVD3D12Model@@@std@@YAPEAPEAVD3D12Model@@PEAPEAV1@@Z
_TEXT	SEGMENT
_Ptr$ = 80
??$_Unfancy@PEAVD3D12Model@@@std@@YAPEAPEAVD3D12Model@@PEAPEAV1@@Z PROC ; std::_Unfancy<D3D12Model *>, COMDAT

; 35   : _NODISCARD constexpr _Ty* _Unfancy(_Ty* _Ptr) noexcept { // do nothing for plain pointers

$LN3:
  00000	48 89 4c 24 08	 mov	 QWORD PTR [rsp+8], rcx
  00005	55		 push	 rbp
  00006	48 83 ec 60	 sub	 rsp, 96			; 00000060H
  0000a	48 8d 6c 24 20	 lea	 rbp, QWORD PTR [rsp+32]
  0000f	48 8d 0d 00 00
	00 00		 lea	 rcx, OFFSET FLAT:__67F55BEA_xmemory
  00016	e8 00 00 00 00	 call	 __CheckForDebuggerJustMyCode

; 36   :     return _Ptr;

  0001b	48 8b 45 50	 mov	 rax, QWORD PTR _Ptr$[rbp]

; 37   : }

  0001f	48 8d 65 40	 lea	 rsp, QWORD PTR [rbp+64]
  00023	5d		 pop	 rbp
  00024	c3		 ret	 0
??$_Unfancy@PEAVD3D12Model@@@std@@YAPEAPEAVD3D12Model@@PEAPEAV1@@Z ENDP ; std::_Unfancy<D3D12Model *>
_TEXT	ENDS
; Function compile flags: /Odtp /ZI
; File C:\Program Files\Microsoft Visual Studio\2022\Preview\VC\Tools\MSVC\14.38.33030\include\xmemory
;	COMDAT ??$_Allocate@$0BA@U_Default_allocate_traits@std@@$0A@@std@@YAPEAX_K@Z
_TEXT	SEGMENT
_Bytes$ = 80
??$_Allocate@$0BA@U_Default_allocate_traits@std@@$0A@@std@@YAPEAX_K@Z PROC ; std::_Allocate<16,std::_Default_allocate_traits,0>, COMDAT

; 230  : __declspec(allocator) _CONSTEXPR20 void* _Allocate(const size_t _Bytes) {

$LN6:
  00000	48 89 4c 24 08	 mov	 QWORD PTR [rsp+8], rcx
  00005	55		 push	 rbp
  00006	48 83 ec 60	 sub	 rsp, 96			; 00000060H
  0000a	48 8d 6c 24 20	 lea	 rbp, QWORD PTR [rsp+32]
  0000f	48 8d 0d 00 00
	00 00		 lea	 rcx, OFFSET FLAT:__67F55BEA_xmemory
  00016	e8 00 00 00 00	 call	 __CheckForDebuggerJustMyCode

; 231  :     // allocate _Bytes when !_HAS_ALIGNED_NEW || _Align <= __STDCPP_DEFAULT_NEW_ALIGNMENT__
; 232  : #if defined(_M_IX86) || defined(_M_X64)
; 233  : #if _HAS_CXX20 // TRANSITION, GH-1532
; 234  :     if (!_STD is_constant_evaluated())

  0001b	e8 00 00 00 00	 call	 ?is_constant_evaluated@std@@YA_NXZ ; std::is_constant_evaluated
  00020	0f b6 c0	 movzx	 eax, al
  00023	85 c0		 test	 eax, eax
  00025	75 15		 jne	 SHORT $LN2@Allocate

; 235  : #endif // _HAS_CXX20
; 236  :     {
; 237  :         if (_Bytes >= _Big_allocation_threshold) { // boost the alignment of big allocations to help autovectorization

  00027	48 81 7d 50 00
	10 00 00	 cmp	 QWORD PTR _Bytes$[rbp], 4096 ; 00001000H
  0002f	72 0b		 jb	 SHORT $LN3@Allocate

; 238  :             return _Allocate_manually_vector_aligned<_Traits>(_Bytes);

  00031	48 8b 4d 50	 mov	 rcx, QWORD PTR _Bytes$[rbp]
  00035	e8 00 00 00 00	 call	 ??$_Allocate_manually_vector_aligned@U_Default_allocate_traits@std@@@std@@YAPEAX_K@Z ; std::_Allocate_manually_vector_aligned<std::_Default_allocate_traits>
  0003a	eb 14		 jmp	 SHORT $LN1@Allocate
$LN3@Allocate:
$LN2@Allocate:

; 239  :         }
; 240  :     }
; 241  : #endif // defined(_M_IX86) || defined(_M_X64)
; 242  : 
; 243  :     if (_Bytes != 0) {

  0003c	48 83 7d 50 00	 cmp	 QWORD PTR _Bytes$[rbp], 0
  00041	74 0b		 je	 SHORT $LN4@Allocate

; 244  :         return _Traits::_Allocate(_Bytes);

  00043	48 8b 4d 50	 mov	 rcx, QWORD PTR _Bytes$[rbp]
  00047	e8 00 00 00 00	 call	 ?_Allocate@_Default_allocate_traits@std@@SAPEAX_K@Z ; std::_Default_allocate_traits::_Allocate
  0004c	eb 02		 jmp	 SHORT $LN1@Allocate
$LN4@Allocate:

; 245  :     }
; 246  : 
; 247  :     return nullptr;

  0004e	33 c0		 xor	 eax, eax
$LN1@Allocate:

; 248  : }

  00050	48 8d 65 40	 lea	 rsp, QWORD PTR [rbp+64]
  00054	5d		 pop	 rbp
  00055	c3		 ret	 0
??$_Allocate@$0BA@U_Default_allocate_traits@std@@$0A@@std@@YAPEAX_K@Z ENDP ; std::_Allocate<16,std::_Default_allocate_traits,0>
_TEXT	ENDS
; Function compile flags: /Odtp /ZI
; File C:\Program Files\Microsoft Visual Studio\2022\Preview\VC\Tools\MSVC\14.38.33030\include\xmemory
;	COMDAT ??$_Deallocate_plain@V?$allocator@U_Container_proxy@std@@@std@@@std@@YAXAEAV?$allocator@U_Container_proxy@std@@@0@QEAU_Container_proxy@0@@Z
_TEXT	SEGMENT
_Al$ = 80
_Ptr$ = 88
??$_Deallocate_plain@V?$allocator@U_Container_proxy@std@@@std@@@std@@YAXAEAV?$allocator@U_Container_proxy@std@@@0@QEAU_Container_proxy@0@@Z PROC ; std::_Deallocate_plain<std::allocator<std::_Container_proxy> >, COMDAT

; 1123 : _CONSTEXPR20 void _Deallocate_plain(_Alloc& _Al, typename _Alloc::value_type* const _Ptr) noexcept {

$LN3:
  00000	48 89 54 24 10	 mov	 QWORD PTR [rsp+16], rdx
  00005	48 89 4c 24 08	 mov	 QWORD PTR [rsp+8], rcx
  0000a	55		 push	 rbp
  0000b	48 83 ec 60	 sub	 rsp, 96			; 00000060H
  0000f	48 8d 6c 24 20	 lea	 rbp, QWORD PTR [rsp+32]
  00014	48 8d 0d 00 00
	00 00		 lea	 rcx, OFFSET FLAT:__67F55BEA_xmemory
  0001b	e8 00 00 00 00	 call	 __CheckForDebuggerJustMyCode

; 1124 :     // deallocate a plain pointer using an allocator
; 1125 :     using _Alloc_traits = allocator_traits<_Alloc>;
; 1126 :     if constexpr (is_same_v<_Alloc_ptr_t<_Alloc>, typename _Alloc::value_type*>) {
; 1127 :         _Alloc_traits::deallocate(_Al, _Ptr, 1);

  00020	41 b8 01 00 00
	00		 mov	 r8d, 1
  00026	48 8b 55 58	 mov	 rdx, QWORD PTR _Ptr$[rbp]
  0002a	48 8b 4d 50	 mov	 rcx, QWORD PTR _Al$[rbp]
  0002e	e8 00 00 00 00	 call	 ?deallocate@?$_Default_allocator_traits@V?$allocator@U_Container_proxy@std@@@std@@@std@@SAXAEAV?$allocator@U_Container_proxy@std@@@2@QEAU_Container_proxy@2@_K@Z ; std::_Default_allocator_traits<std::allocator<std::_Container_proxy> >::deallocate
  00033	90		 npad	 1

; 1128 :     } else {
; 1129 :         using _Ptr_traits = pointer_traits<_Alloc_ptr_t<_Alloc>>;
; 1130 :         _Alloc_traits::deallocate(_Al, _Ptr_traits::pointer_to(*_Ptr), 1);
; 1131 :     }
; 1132 : }

  00034	48 8d 65 40	 lea	 rsp, QWORD PTR [rbp+64]
  00038	5d		 pop	 rbp
  00039	c3		 ret	 0
??$_Deallocate_plain@V?$allocator@U_Container_proxy@std@@@std@@@std@@YAXAEAV?$allocator@U_Container_proxy@std@@@0@QEAU_Container_proxy@0@@Z ENDP ; std::_Deallocate_plain<std::allocator<std::_Container_proxy> >
_TEXT	ENDS
; Function compile flags: /Odtp /ZI
; File C:\Program Files\Microsoft Visual Studio\2022\Preview\VC\Tools\MSVC\14.38.33030\include\vector
;	COMDAT ??$_Emplace_reallocate@AEBQEAVD3D12Model@@@?$vector@PEAVD3D12Model@@V?$allocator@PEAVD3D12Model@@@std@@@std@@AEAAPEAPEAVD3D12Model@@QEAPEAV2@AEBQEAV2@@Z
_TEXT	SEGMENT
_Al$ = 0
_My_data$ = 8
_Myfirst$ = 16
_Mylast$ = 24
_Whereoff$ = 32
_Oldsize$ = 40
_Newsize$ = 48
_Newcapacity$ = 56
_Newvec$ = 64
_Constructed_last$ = 72
_Constructed_first$ = 80
this$ = 176
_Whereptr$ = 184
<_Val_0>$ = 192
??$_Emplace_reallocate@AEBQEAVD3D12Model@@@?$vector@PEAVD3D12Model@@V?$allocator@PEAVD3D12Model@@@std@@@std@@AEAAPEAPEAVD3D12Model@@QEAPEAV2@AEBQEAV2@@Z PROC ; std::vector<D3D12Model *,std::allocator<D3D12Model *> >::_Emplace_reallocate<D3D12Model * const &>, COMDAT

; 811  :     _CONSTEXPR20 pointer _Emplace_reallocate(const pointer _Whereptr, _Valty&&... _Val) {

$LN13:
  00000	4c 89 44 24 18	 mov	 QWORD PTR [rsp+24], r8
  00005	48 89 54 24 10	 mov	 QWORD PTR [rsp+16], rdx
  0000a	48 89 4c 24 08	 mov	 QWORD PTR [rsp+8], rcx
  0000f	55		 push	 rbp
  00010	48 81 ec c0 00
	00 00		 sub	 rsp, 192		; 000000c0H
  00017	48 8d 6c 24 20	 lea	 rbp, QWORD PTR [rsp+32]
  0001c	48 8d 0d 00 00
	00 00		 lea	 rcx, OFFSET FLAT:__14F7CB70_vector
  00023	e8 00 00 00 00	 call	 __CheckForDebuggerJustMyCode

; 812  :         // reallocate and insert by perfectly forwarding _Val at _Whereptr
; 813  :         _Alty& _Al        = _Getal();

  00028	48 8b 8d b0 00
	00 00		 mov	 rcx, QWORD PTR this$[rbp]
  0002f	e8 00 00 00 00	 call	 ?_Getal@?$vector@PEAVD3D12Model@@V?$allocator@PEAVD3D12Model@@@std@@@std@@AEAAAEAV?$allocator@PEAVD3D12Model@@@2@XZ ; std::vector<D3D12Model *,std::allocator<D3D12Model *> >::_Getal
  00034	48 89 45 00	 mov	 QWORD PTR _Al$[rbp], rax

; 814  :         auto& _My_data    = _Mypair._Myval2;

  00038	48 8b 85 b0 00
	00 00		 mov	 rax, QWORD PTR this$[rbp]
  0003f	48 89 45 08	 mov	 QWORD PTR _My_data$[rbp], rax

; 815  :         pointer& _Myfirst = _My_data._Myfirst;

  00043	48 8b 45 08	 mov	 rax, QWORD PTR _My_data$[rbp]
  00047	48 83 c0 08	 add	 rax, 8
  0004b	48 89 45 10	 mov	 QWORD PTR _Myfirst$[rbp], rax

; 816  :         pointer& _Mylast  = _My_data._Mylast;

  0004f	48 8b 45 08	 mov	 rax, QWORD PTR _My_data$[rbp]
  00053	48 83 c0 10	 add	 rax, 16
  00057	48 89 45 18	 mov	 QWORD PTR _Mylast$[rbp], rax

; 817  : 
; 818  :         _STL_INTERNAL_CHECK(_Mylast == _My_data._Myend); // check that we have no unused capacity
; 819  : 
; 820  :         const auto _Whereoff = static_cast<size_type>(_Whereptr - _Myfirst);

  0005b	48 8b 45 10	 mov	 rax, QWORD PTR _Myfirst$[rbp]
  0005f	48 8b 00	 mov	 rax, QWORD PTR [rax]
  00062	48 8b 8d b8 00
	00 00		 mov	 rcx, QWORD PTR _Whereptr$[rbp]
  00069	48 2b c8	 sub	 rcx, rax
  0006c	48 8b c1	 mov	 rax, rcx
  0006f	48 c1 f8 03	 sar	 rax, 3
  00073	48 89 45 20	 mov	 QWORD PTR _Whereoff$[rbp], rax

; 821  :         const auto _Oldsize  = static_cast<size_type>(_Mylast - _Myfirst);

  00077	48 8b 45 18	 mov	 rax, QWORD PTR _Mylast$[rbp]
  0007b	48 8b 4d 10	 mov	 rcx, QWORD PTR _Myfirst$[rbp]
  0007f	48 8b 09	 mov	 rcx, QWORD PTR [rcx]
  00082	48 8b 00	 mov	 rax, QWORD PTR [rax]
  00085	48 2b c1	 sub	 rax, rcx
  00088	48 c1 f8 03	 sar	 rax, 3
  0008c	48 89 45 28	 mov	 QWORD PTR _Oldsize$[rbp], rax

; 822  : 
; 823  :         if (_Oldsize == max_size()) {

  00090	48 8b 8d b0 00
	00 00		 mov	 rcx, QWORD PTR this$[rbp]
  00097	e8 00 00 00 00	 call	 ?max_size@?$vector@PEAVD3D12Model@@V?$allocator@PEAVD3D12Model@@@std@@@std@@QEBA_KXZ ; std::vector<D3D12Model *,std::allocator<D3D12Model *> >::max_size
  0009c	48 39 45 28	 cmp	 QWORD PTR _Oldsize$[rbp], rax
  000a0	75 05		 jne	 SHORT $LN2@Emplace_re

; 824  :             _Xlength();

  000a2	e8 00 00 00 00	 call	 ?_Xlength@?$vector@PEAVD3D12Model@@V?$allocator@PEAVD3D12Model@@@std@@@std@@CAXXZ ; std::vector<D3D12Model *,std::allocator<D3D12Model *> >::_Xlength
$LN2@Emplace_re:

; 825  :         }
; 826  : 
; 827  :         const size_type _Newsize = _Oldsize + 1;

  000a7	48 8b 45 28	 mov	 rax, QWORD PTR _Oldsize$[rbp]
  000ab	48 ff c0	 inc	 rax
  000ae	48 89 45 30	 mov	 QWORD PTR _Newsize$[rbp], rax

; 828  :         size_type _Newcapacity   = _Calculate_growth(_Newsize);

  000b2	48 8b 55 30	 mov	 rdx, QWORD PTR _Newsize$[rbp]
  000b6	48 8b 8d b0 00
	00 00		 mov	 rcx, QWORD PTR this$[rbp]
  000bd	e8 00 00 00 00	 call	 ?_Calculate_growth@?$vector@PEAVD3D12Model@@V?$allocator@PEAVD3D12Model@@@std@@@std@@AEBA_K_K@Z ; std::vector<D3D12Model *,std::allocator<D3D12Model *> >::_Calculate_growth
  000c2	48 89 45 38	 mov	 QWORD PTR _Newcapacity$[rbp], rax

; 829  : 
; 830  :         const pointer _Newvec           = _Allocate_at_least_helper(_Al, _Newcapacity);

  000c6	48 8d 55 38	 lea	 rdx, QWORD PTR _Newcapacity$[rbp]
  000ca	48 8b 4d 00	 mov	 rcx, QWORD PTR _Al$[rbp]
  000ce	e8 00 00 00 00	 call	 ??$_Allocate_at_least_helper@V?$allocator@PEAVD3D12Model@@@std@@@std@@YAPEAPEAVD3D12Model@@AEAV?$allocator@PEAVD3D12Model@@@0@AEA_K@Z ; std::_Allocate_at_least_helper<std::allocator<D3D12Model *> >
  000d3	48 89 45 40	 mov	 QWORD PTR _Newvec$[rbp], rax

; 831  :         const pointer _Constructed_last = _Newvec + _Whereoff + 1;

  000d7	48 8b 45 40	 mov	 rax, QWORD PTR _Newvec$[rbp]
  000db	48 8b 4d 20	 mov	 rcx, QWORD PTR _Whereoff$[rbp]
  000df	48 8d 44 c8 08	 lea	 rax, QWORD PTR [rax+rcx*8+8]
  000e4	48 89 45 48	 mov	 QWORD PTR _Constructed_last$[rbp], rax

; 832  :         pointer _Constructed_first      = _Constructed_last;

  000e8	48 8b 45 48	 mov	 rax, QWORD PTR _Constructed_last$[rbp]
  000ec	48 89 45 50	 mov	 QWORD PTR _Constructed_first$[rbp], rax

; 833  : 
; 834  :         _TRY_BEGIN
; 835  :         _Alty_traits::construct(_Al, _Unfancy(_Newvec + _Whereoff), _STD forward<_Valty>(_Val)...);

  000f0	48 8b 45 40	 mov	 rax, QWORD PTR _Newvec$[rbp]
  000f4	48 8b 4d 20	 mov	 rcx, QWORD PTR _Whereoff$[rbp]
  000f8	48 8d 04 c8	 lea	 rax, QWORD PTR [rax+rcx*8]
  000fc	48 8b c8	 mov	 rcx, rax
  000ff	e8 00 00 00 00	 call	 ??$_Unfancy@PEAVD3D12Model@@@std@@YAPEAPEAVD3D12Model@@PEAPEAV1@@Z ; std::_Unfancy<D3D12Model *>
  00104	4c 8b 85 c0 00
	00 00		 mov	 r8, QWORD PTR <_Val_0>$[rbp]
  0010b	48 8b d0	 mov	 rdx, rax
  0010e	48 8b 4d 00	 mov	 rcx, QWORD PTR _Al$[rbp]
  00112	e8 00 00 00 00	 call	 ??$construct@PEAVD3D12Model@@AEBQEAV1@@?$_Default_allocator_traits@V?$allocator@PEAVD3D12Model@@@std@@@std@@SAXAEAV?$allocator@PEAVD3D12Model@@@1@QEAPEAVD3D12Model@@AEBQEAV3@@Z ; std::_Default_allocator_traits<std::allocator<D3D12Model *> >::construct<D3D12Model *,D3D12Model * const &>

; 836  :         _Constructed_first = _Newvec + _Whereoff;

  00117	48 8b 45 40	 mov	 rax, QWORD PTR _Newvec$[rbp]
  0011b	48 8b 4d 20	 mov	 rcx, QWORD PTR _Whereoff$[rbp]
  0011f	48 8d 04 c8	 lea	 rax, QWORD PTR [rax+rcx*8]
  00123	48 89 45 50	 mov	 QWORD PTR _Constructed_first$[rbp], rax

; 837  : 
; 838  :         if (_Whereptr == _Mylast) { // at back, provide strong guarantee

  00127	48 8b 45 18	 mov	 rax, QWORD PTR _Mylast$[rbp]
  0012b	48 8b 00	 mov	 rax, QWORD PTR [rax]
  0012e	48 39 85 b8 00
	00 00		 cmp	 QWORD PTR _Whereptr$[rbp], rax
  00135	75 1d		 jne	 SHORT $LN4@Emplace_re

; 839  :             if constexpr (is_nothrow_move_constructible_v<_Ty> || !is_copy_constructible_v<_Ty>) {
; 840  :                 _Uninitialized_move(_Myfirst, _Mylast, _Newvec, _Al);

  00137	4c 8b 4d 00	 mov	 r9, QWORD PTR _Al$[rbp]
  0013b	4c 8b 45 40	 mov	 r8, QWORD PTR _Newvec$[rbp]
  0013f	48 8b 45 18	 mov	 rax, QWORD PTR _Mylast$[rbp]
  00143	48 8b 10	 mov	 rdx, QWORD PTR [rax]
  00146	48 8b 45 10	 mov	 rax, QWORD PTR _Myfirst$[rbp]
  0014a	48 8b 08	 mov	 rcx, QWORD PTR [rax]
  0014d	e8 00 00 00 00	 call	 ??$_Uninitialized_move@PEAPEAVD3D12Model@@V?$allocator@PEAVD3D12Model@@@std@@@std@@YAPEAPEAVD3D12Model@@QEAPEAV1@0PEAPEAV1@AEAV?$allocator@PEAVD3D12Model@@@0@@Z ; std::_Uninitialized_move<D3D12Model * *,std::allocator<D3D12Model *> >

; 841  :             } else {
; 842  :                 _Uninitialized_copy(_Myfirst, _Mylast, _Newvec, _Al);
; 843  :             }
; 844  :         } else { // provide basic guarantee

  00152	eb 4b		 jmp	 SHORT $LN5@Emplace_re
$LN4@Emplace_re:

; 845  :             _Uninitialized_move(_Myfirst, _Whereptr, _Newvec, _Al);

  00154	4c 8b 4d 00	 mov	 r9, QWORD PTR _Al$[rbp]
  00158	4c 8b 45 40	 mov	 r8, QWORD PTR _Newvec$[rbp]
  0015c	48 8b 95 b8 00
	00 00		 mov	 rdx, QWORD PTR _Whereptr$[rbp]
  00163	48 8b 45 10	 mov	 rax, QWORD PTR _Myfirst$[rbp]
  00167	48 8b 08	 mov	 rcx, QWORD PTR [rax]
  0016a	e8 00 00 00 00	 call	 ??$_Uninitialized_move@PEAPEAVD3D12Model@@V?$allocator@PEAVD3D12Model@@@std@@@std@@YAPEAPEAVD3D12Model@@QEAPEAV1@0PEAPEAV1@AEAV?$allocator@PEAVD3D12Model@@@0@@Z ; std::_Uninitialized_move<D3D12Model * *,std::allocator<D3D12Model *> >

; 846  :             _Constructed_first = _Newvec;

  0016f	48 8b 45 40	 mov	 rax, QWORD PTR _Newvec$[rbp]
  00173	48 89 45 50	 mov	 QWORD PTR _Constructed_first$[rbp], rax

; 847  :             _Uninitialized_move(_Whereptr, _Mylast, _Newvec + _Whereoff + 1, _Al);

  00177	48 8b 45 40	 mov	 rax, QWORD PTR _Newvec$[rbp]
  0017b	48 8b 4d 20	 mov	 rcx, QWORD PTR _Whereoff$[rbp]
  0017f	48 8d 44 c8 08	 lea	 rax, QWORD PTR [rax+rcx*8+8]
  00184	4c 8b 4d 00	 mov	 r9, QWORD PTR _Al$[rbp]
  00188	4c 8b c0	 mov	 r8, rax
  0018b	48 8b 45 18	 mov	 rax, QWORD PTR _Mylast$[rbp]
  0018f	48 8b 10	 mov	 rdx, QWORD PTR [rax]
  00192	48 8b 8d b8 00
	00 00		 mov	 rcx, QWORD PTR _Whereptr$[rbp]
  00199	e8 00 00 00 00	 call	 ??$_Uninitialized_move@PEAPEAVD3D12Model@@V?$allocator@PEAVD3D12Model@@@std@@@std@@YAPEAPEAVD3D12Model@@QEAPEAV1@0PEAPEAV1@AEAV?$allocator@PEAVD3D12Model@@@0@@Z ; std::_Uninitialized_move<D3D12Model * *,std::allocator<D3D12Model *> >
  0019e	90		 npad	 1
$LN5@Emplace_re:
  0019f	eb 00		 jmp	 SHORT $LN9@Emplace_re
$LN10@Emplace_re:
$LN9@Emplace_re:

; 848  :         }
; 849  :         _CATCH_ALL
; 850  :         _Destroy_range(_Constructed_first, _Constructed_last, _Al);
; 851  :         _Al.deallocate(_Newvec, _Newcapacity);
; 852  :         _RERAISE;
; 853  :         _CATCH_END
; 854  : 
; 855  :         _Change_array(_Newvec, _Newsize, _Newcapacity);

  001a1	4c 8b 4d 38	 mov	 r9, QWORD PTR _Newcapacity$[rbp]
  001a5	4c 8b 45 30	 mov	 r8, QWORD PTR _Newsize$[rbp]
  001a9	48 8b 55 40	 mov	 rdx, QWORD PTR _Newvec$[rbp]
  001ad	48 8b 8d b0 00
	00 00		 mov	 rcx, QWORD PTR this$[rbp]
  001b4	e8 00 00 00 00	 call	 ?_Change_array@?$vector@PEAVD3D12Model@@V?$allocator@PEAVD3D12Model@@@std@@@std@@AEAAXQEAPEAVD3D12Model@@_K1@Z ; std::vector<D3D12Model *,std::allocator<D3D12Model *> >::_Change_array

; 856  :         return _Newvec + _Whereoff;

  001b9	48 8b 45 40	 mov	 rax, QWORD PTR _Newvec$[rbp]
  001bd	48 8b 4d 20	 mov	 rcx, QWORD PTR _Whereoff$[rbp]
  001c1	48 8d 04 c8	 lea	 rax, QWORD PTR [rax+rcx*8]

; 857  :     }

  001c5	48 8d a5 a0 00
	00 00		 lea	 rsp, QWORD PTR [rbp+160]
  001cc	5d		 pop	 rbp
  001cd	c3		 ret	 0
$LN11@Emplace_re:
??$_Emplace_reallocate@AEBQEAVD3D12Model@@@?$vector@PEAVD3D12Model@@V?$allocator@PEAVD3D12Model@@@std@@@std@@AEAAPEAPEAVD3D12Model@@QEAPEAV2@AEBQEAV2@@Z ENDP ; std::vector<D3D12Model *,std::allocator<D3D12Model *> >::_Emplace_reallocate<D3D12Model * const &>
_TEXT	ENDS
; Function compile flags: /Odtp /ZI
;	COMDAT text$x
text$x	SEGMENT
_Al$ = 0
_My_data$ = 8
_Myfirst$ = 16
_Mylast$ = 24
_Whereoff$ = 32
_Oldsize$ = 40
_Newsize$ = 48
_Newcapacity$ = 56
_Newvec$ = 64
_Constructed_last$ = 72
_Constructed_first$ = 80
this$ = 176
_Whereptr$ = 184
<_Val_0>$ = 192
?catch$0@?0???$_Emplace_reallocate@AEBQEAVD3D12Model@@@?$vector@PEAVD3D12Model@@V?$allocator@PEAVD3D12Model@@@std@@@std@@AEAAPEAPEAVD3D12Model@@QEAPEAV2@AEBQEAV2@@Z@4HA PROC ; `std::vector<D3D12Model *,std::allocator<D3D12Model *> >::_Emplace_reallocate<D3D12Model * const &>'::`1'::catch$0

; 849  :         _CATCH_ALL

  00000	48 89 54 24 10	 mov	 QWORD PTR [rsp+16], rdx
  00005	55		 push	 rbp
  00006	48 83 ec 20	 sub	 rsp, 32			; 00000020H
  0000a	48 8d 6a 20	 lea	 rbp, QWORD PTR [rdx+32]
__catch$??$_Emplace_reallocate@AEBQEAVD3D12Model@@@?$vector@PEAVD3D12Model@@V?$allocator@PEAVD3D12Model@@@std@@@std@@AEAAPEAPEAVD3D12Model@@QEAPEAV2@AEBQEAV2@@Z$0:

; 850  :         _Destroy_range(_Constructed_first, _Constructed_last, _Al);

  0000e	4c 8b 45 00	 mov	 r8, QWORD PTR _Al$[rbp]
  00012	48 8b 55 48	 mov	 rdx, QWORD PTR _Constructed_last$[rbp]
  00016	48 8b 4d 50	 mov	 rcx, QWORD PTR _Constructed_first$[rbp]
  0001a	e8 00 00 00 00	 call	 ??$_Destroy_range@V?$allocator@PEAVD3D12Model@@@std@@@std@@YAXPEAPEAVD3D12Model@@QEAPEAV1@AEAV?$allocator@PEAVD3D12Model@@@0@@Z ; std::_Destroy_range<std::allocator<D3D12Model *> >

; 851  :         _Al.deallocate(_Newvec, _Newcapacity);

  0001f	4c 8b 45 38	 mov	 r8, QWORD PTR _Newcapacity$[rbp]
  00023	48 8b 55 40	 mov	 rdx, QWORD PTR _Newvec$[rbp]
  00027	48 8b 4d 00	 mov	 rcx, QWORD PTR _Al$[rbp]
  0002b	e8 00 00 00 00	 call	 ?deallocate@?$allocator@PEAVD3D12Model@@@std@@QEAAXQEAPEAVD3D12Model@@_K@Z ; std::allocator<D3D12Model *>::deallocate

; 852  :         _RERAISE;

  00030	33 d2		 xor	 edx, edx
  00032	33 c9		 xor	 ecx, ecx
  00034	e8 00 00 00 00	 call	 _CxxThrowException
  00039	90		 npad	 1

; 853  :         _CATCH_END

  0003a	48 8d 05 00 00
	00 00		 lea	 rax, $LN10@catch$0
  00041	48 83 c4 20	 add	 rsp, 32			; 00000020H
  00045	5d		 pop	 rbp
  00046	c3		 ret	 0
  00047	cc		 int	 3
?catch$0@?0???$_Emplace_reallocate@AEBQEAVD3D12Model@@@?$vector@PEAVD3D12Model@@V?$allocator@PEAVD3D12Model@@@std@@@std@@AEAAPEAPEAVD3D12Model@@QEAPEAV2@AEBQEAV2@@Z@4HA ENDP ; `std::vector<D3D12Model *,std::allocator<D3D12Model *> >::_Emplace_reallocate<D3D12Model * const &>'::`1'::catch$0
text$x	ENDS
; Function compile flags: /Odtp /ZI
; File C:\Program Files\Microsoft Visual Studio\2022\Preview\VC\Tools\MSVC\14.38.33030\include\vector
;	COMDAT ??$_Emplace_back_with_unused_capacity@AEBQEAVD3D12Model@@@?$vector@PEAVD3D12Model@@V?$allocator@PEAVD3D12Model@@@std@@@std@@AEAAAEAPEAVD3D12Model@@AEBQEAV2@@Z
_TEXT	SEGMENT
_My_data$ = 0
_Mylast$ = 8
_Result$ = 16
this$ = 112
<_Val_0>$ = 120
??$_Emplace_back_with_unused_capacity@AEBQEAVD3D12Model@@@?$vector@PEAVD3D12Model@@V?$allocator@PEAVD3D12Model@@@std@@@std@@AEAAAEAPEAVD3D12Model@@AEBQEAV2@@Z PROC ; std::vector<D3D12Model *,std::allocator<D3D12Model *> >::_Emplace_back_with_unused_capacity<D3D12Model * const &>, COMDAT

; 788  :     _CONSTEXPR20 _Ty& _Emplace_back_with_unused_capacity(_Valty&&... _Val) {

$LN3:
  00000	48 89 54 24 10	 mov	 QWORD PTR [rsp+16], rdx
  00005	48 89 4c 24 08	 mov	 QWORD PTR [rsp+8], rcx
  0000a	55		 push	 rbp
  0000b	48 81 ec 80 00
	00 00		 sub	 rsp, 128		; 00000080H
  00012	48 8d 6c 24 20	 lea	 rbp, QWORD PTR [rsp+32]
  00017	48 8d 0d 00 00
	00 00		 lea	 rcx, OFFSET FLAT:__14F7CB70_vector
  0001e	e8 00 00 00 00	 call	 __CheckForDebuggerJustMyCode

; 789  :         // insert by perfectly forwarding into element at end, provide strong guarantee
; 790  :         auto& _My_data   = _Mypair._Myval2;

  00023	48 8b 45 70	 mov	 rax, QWORD PTR this$[rbp]
  00027	48 89 45 00	 mov	 QWORD PTR _My_data$[rbp], rax

; 791  :         pointer& _Mylast = _My_data._Mylast;

  0002b	48 8b 45 00	 mov	 rax, QWORD PTR _My_data$[rbp]
  0002f	48 83 c0 10	 add	 rax, 16
  00033	48 89 45 08	 mov	 QWORD PTR _Mylast$[rbp], rax

; 792  :         _STL_INTERNAL_CHECK(_Mylast != _My_data._Myend); // check that we have unused capacity
; 793  :         if constexpr (conjunction_v<is_nothrow_constructible<_Ty, _Valty...>,
; 794  :                           _Uses_default_construct<_Alloc, _Ty*, _Valty...>>) {
; 795  :             _ASAN_VECTOR_MODIFY(1);
; 796  :             _Construct_in_place(*_Mylast, _STD forward<_Valty>(_Val)...);

  00037	48 8b 55 78	 mov	 rdx, QWORD PTR <_Val_0>$[rbp]
  0003b	48 8b 45 08	 mov	 rax, QWORD PTR _Mylast$[rbp]
  0003f	48 8b 08	 mov	 rcx, QWORD PTR [rax]
  00042	e8 00 00 00 00	 call	 ??$_Construct_in_place@PEAVD3D12Model@@AEBQEAV1@@std@@YAXAEAPEAVD3D12Model@@AEBQEAV1@@Z ; std::_Construct_in_place<D3D12Model *,D3D12Model * const &>

; 797  :         } else {
; 798  :             _ASAN_VECTOR_EXTEND_GUARD(static_cast<size_type>(_Mylast - _My_data._Myfirst) + 1);
; 799  :             _Alty_traits::construct(_Getal(), _Unfancy(_Mylast), _STD forward<_Valty>(_Val)...);
; 800  :             _ASAN_VECTOR_RELEASE_GUARD;
; 801  :         }
; 802  : 
; 803  :         _Orphan_range(_Mylast, _Mylast);

  00047	48 8b 45 08	 mov	 rax, QWORD PTR _Mylast$[rbp]
  0004b	4c 8b 00	 mov	 r8, QWORD PTR [rax]
  0004e	48 8b 45 08	 mov	 rax, QWORD PTR _Mylast$[rbp]
  00052	48 8b 10	 mov	 rdx, QWORD PTR [rax]
  00055	48 8b 4d 70	 mov	 rcx, QWORD PTR this$[rbp]
  00059	e8 00 00 00 00	 call	 ?_Orphan_range@?$vector@PEAVD3D12Model@@V?$allocator@PEAVD3D12Model@@@std@@@std@@AEBAXPEAPEAVD3D12Model@@0@Z ; std::vector<D3D12Model *,std::allocator<D3D12Model *> >::_Orphan_range

; 804  :         _Ty& _Result = *_Mylast;

  0005e	48 8b 45 08	 mov	 rax, QWORD PTR _Mylast$[rbp]
  00062	48 8b 00	 mov	 rax, QWORD PTR [rax]
  00065	48 89 45 10	 mov	 QWORD PTR _Result$[rbp], rax

; 805  :         ++_Mylast;

  00069	48 8b 45 08	 mov	 rax, QWORD PTR _Mylast$[rbp]
  0006d	48 8b 00	 mov	 rax, QWORD PTR [rax]
  00070	48 83 c0 08	 add	 rax, 8
  00074	48 8b 4d 08	 mov	 rcx, QWORD PTR _Mylast$[rbp]
  00078	48 89 01	 mov	 QWORD PTR [rcx], rax

; 806  : 
; 807  :         return _Result;

  0007b	48 8b 45 10	 mov	 rax, QWORD PTR _Result$[rbp]

; 808  :     }

  0007f	48 8d 65 60	 lea	 rsp, QWORD PTR [rbp+96]
  00083	5d		 pop	 rbp
  00084	c3		 ret	 0
??$_Emplace_back_with_unused_capacity@AEBQEAVD3D12Model@@@?$vector@PEAVD3D12Model@@V?$allocator@PEAVD3D12Model@@@std@@@std@@AEAAAEAPEAVD3D12Model@@AEBQEAV2@@Z ENDP ; std::vector<D3D12Model *,std::allocator<D3D12Model *> >::_Emplace_back_with_unused_capacity<D3D12Model * const &>
_TEXT	ENDS
; Function compile flags: /Odtp /ZI
; File C:\Program Files\Microsoft Visual Studio\2022\Preview\VC\Tools\MSVC\14.38.33030\include\xutility
;	COMDAT ??$_Copy_n_unchecked4@PEAPEAVD3D12Model@@_KPEAPEAV1@@std@@YAPEAPEAVD3D12Model@@PEAPEAV1@_K0@Z
_TEXT	SEGMENT
_First$ = 80
_Count$ = 88
_Dest$ = 96
??$_Copy_n_unchecked4@PEAPEAVD3D12Model@@_KPEAPEAV1@@std@@YAPEAPEAVD3D12Model@@PEAPEAV1@_K0@Z PROC ; std::_Copy_n_unchecked4<D3D12Model * *,unsigned __int64,D3D12Model * *>, COMDAT

; 4539 : _CONSTEXPR20 _OutIt _Copy_n_unchecked4(_InIt _First, _SizeTy _Count, _OutIt _Dest) {

$LN7:
  00000	4c 89 44 24 18	 mov	 QWORD PTR [rsp+24], r8
  00005	48 89 54 24 10	 mov	 QWORD PTR [rsp+16], rdx
  0000a	48 89 4c 24 08	 mov	 QWORD PTR [rsp+8], rcx
  0000f	55		 push	 rbp
  00010	48 83 ec 60	 sub	 rsp, 96			; 00000060H
  00014	48 8d 6c 24 20	 lea	 rbp, QWORD PTR [rsp+32]
  00019	48 8d 0d 00 00
	00 00		 lea	 rcx, OFFSET FLAT:__B7320FC0_xutility
  00020	e8 00 00 00 00	 call	 __CheckForDebuggerJustMyCode

; 4540 :     // copy _First + [0, _Count) to _Dest + [0, _Count), returning _Dest + _Count
; 4541 :     // note: has callers outside the copy family
; 4542 : #ifdef __cpp_lib_concepts
; 4543 :     _STL_INTERNAL_STATIC_ASSERT(_Integer_like<_SizeTy>);
; 4544 : #endif // __cpp_lib_concepts
; 4545 : 
; 4546 :     if constexpr (_Iter_copy_cat<_InIt, _OutIt>::_Bitcopy_assignable) {
; 4547 : #if _HAS_CXX20
; 4548 :         if (!_STD is_constant_evaluated())

  00025	e8 00 00 00 00	 call	 ?is_constant_evaluated@std@@YA_NXZ ; std::is_constant_evaluated
  0002a	0f b6 c0	 movzx	 eax, al
  0002d	85 c0		 test	 eax, eax
  0002f	75 13		 jne	 SHORT $LN5@Copy_n_unc

; 4549 : #endif // _HAS_CXX20
; 4550 :         {
; 4551 :             return _Copy_memmove_n(_First, static_cast<size_t>(_Count), _Dest);

  00031	4c 8b 45 60	 mov	 r8, QWORD PTR _Dest$[rbp]
  00035	48 8b 55 58	 mov	 rdx, QWORD PTR _Count$[rbp]
  00039	48 8b 4d 50	 mov	 rcx, QWORD PTR _First$[rbp]
  0003d	e8 00 00 00 00	 call	 ??$_Copy_memmove_n@PEAPEAVD3D12Model@@PEAPEAV1@@std@@YAPEAPEAVD3D12Model@@PEAPEAV1@_K0@Z ; std::_Copy_memmove_n<D3D12Model * *,D3D12Model * *>
  00042	eb 40		 jmp	 SHORT $LN1@Copy_n_unc
$LN5@Copy_n_unc:

; 4552 :         }
; 4553 :     }
; 4554 : 
; 4555 :     for (; _Count != 0; ++_Dest, (void) ++_First, --_Count) {

  00044	eb 23		 jmp	 SHORT $LN4@Copy_n_unc
$LN2@Copy_n_unc:
  00046	48 8b 45 60	 mov	 rax, QWORD PTR _Dest$[rbp]
  0004a	48 83 c0 08	 add	 rax, 8
  0004e	48 89 45 60	 mov	 QWORD PTR _Dest$[rbp], rax
  00052	48 8b 45 50	 mov	 rax, QWORD PTR _First$[rbp]
  00056	48 83 c0 08	 add	 rax, 8
  0005a	48 89 45 50	 mov	 QWORD PTR _First$[rbp], rax
  0005e	48 8b 45 58	 mov	 rax, QWORD PTR _Count$[rbp]
  00062	48 ff c8	 dec	 rax
  00065	48 89 45 58	 mov	 QWORD PTR _Count$[rbp], rax
$LN4@Copy_n_unc:
  00069	48 83 7d 58 00	 cmp	 QWORD PTR _Count$[rbp], 0
  0006e	74 10		 je	 SHORT $LN3@Copy_n_unc

; 4556 :         *_Dest = *_First;

  00070	48 8b 45 60	 mov	 rax, QWORD PTR _Dest$[rbp]
  00074	48 8b 4d 50	 mov	 rcx, QWORD PTR _First$[rbp]
  00078	48 8b 09	 mov	 rcx, QWORD PTR [rcx]
  0007b	48 89 08	 mov	 QWORD PTR [rax], rcx

; 4557 :     }

  0007e	eb c6		 jmp	 SHORT $LN2@Copy_n_unc
$LN3@Copy_n_unc:

; 4558 : 
; 4559 :     return _Dest;

  00080	48 8b 45 60	 mov	 rax, QWORD PTR _Dest$[rbp]
$LN1@Copy_n_unc:

; 4560 : }

  00084	48 8d 65 40	 lea	 rsp, QWORD PTR [rbp+64]
  00088	5d		 pop	 rbp
  00089	c3		 ret	 0
??$_Copy_n_unchecked4@PEAPEAVD3D12Model@@_KPEAPEAV1@@std@@YAPEAPEAVD3D12Model@@PEAPEAV1@_K0@Z ENDP ; std::_Copy_n_unchecked4<D3D12Model * *,unsigned __int64,D3D12Model * *>
_TEXT	ENDS
; Function compile flags: /Odtp /ZI
; File C:\Program Files\Microsoft Visual Studio\2022\Preview\VC\Tools\MSVC\14.38.33030\include\xutility
;	COMDAT ??$_Copy_memmove_n@PEAPEAVD3D12Model@@PEAPEAV1@@std@@YAPEAPEAVD3D12Model@@PEAPEAV1@_K0@Z
_TEXT	SEGMENT
_Result$ = 0
_First$ = 96
_Count$ = 104
_Dest$ = 112
??$_Copy_memmove_n@PEAPEAVD3D12Model@@PEAPEAV1@@std@@YAPEAPEAVD3D12Model@@PEAPEAV1@_K0@Z PROC ; std::_Copy_memmove_n<D3D12Model * *,D3D12Model * *>, COMDAT

; 4526 : _OutCtgIt _Copy_memmove_n(_CtgIt _First, const size_t _Count, _OutCtgIt _Dest) {

$LN3:
  00000	4c 89 44 24 18	 mov	 QWORD PTR [rsp+24], r8
  00005	48 89 54 24 10	 mov	 QWORD PTR [rsp+16], rdx
  0000a	48 89 4c 24 08	 mov	 QWORD PTR [rsp+8], rcx
  0000f	55		 push	 rbp
  00010	48 83 ec 70	 sub	 rsp, 112		; 00000070H
  00014	48 8d 6c 24 20	 lea	 rbp, QWORD PTR [rsp+32]
  00019	48 8d 0d 00 00
	00 00		 lea	 rcx, OFFSET FLAT:__B7320FC0_xutility
  00020	e8 00 00 00 00	 call	 __CheckForDebuggerJustMyCode

; 4527 :     const auto _Result = _Copy_memmove(_First, _First + _Count, _Dest);

  00025	48 8b 45 60	 mov	 rax, QWORD PTR _First$[rbp]
  00029	48 8b 4d 68	 mov	 rcx, QWORD PTR _Count$[rbp]
  0002d	48 8d 04 c8	 lea	 rax, QWORD PTR [rax+rcx*8]
  00031	4c 8b 45 70	 mov	 r8, QWORD PTR _Dest$[rbp]
  00035	48 8b d0	 mov	 rdx, rax
  00038	48 8b 4d 60	 mov	 rcx, QWORD PTR _First$[rbp]
  0003c	e8 00 00 00 00	 call	 ??$_Copy_memmove@PEAPEAVD3D12Model@@PEAPEAV1@@std@@YAPEAPEAVD3D12Model@@PEAPEAV1@00@Z ; std::_Copy_memmove<D3D12Model * *,D3D12Model * *>
  00041	48 89 45 00	 mov	 QWORD PTR _Result$[rbp], rax

; 4528 :     if constexpr (is_pointer_v<_OutCtgIt>) {
; 4529 :         return _Result;

  00045	48 8b 45 00	 mov	 rax, QWORD PTR _Result$[rbp]

; 4530 :     } else { // _Result is unused so the compiler can optimize it away
; 4531 :         return _Dest + static_cast<_Iter_diff_t<_OutCtgIt>>(_Count);
; 4532 :     }
; 4533 : }

  00049	48 8d 65 50	 lea	 rsp, QWORD PTR [rbp+80]
  0004d	5d		 pop	 rbp
  0004e	c3		 ret	 0
??$_Copy_memmove_n@PEAPEAVD3D12Model@@PEAPEAV1@@std@@YAPEAPEAVD3D12Model@@PEAPEAV1@_K0@Z ENDP ; std::_Copy_memmove_n<D3D12Model * *,D3D12Model * *>
_TEXT	ENDS
; Function compile flags: /Odtp /ZI
; File C:\Program Files\Microsoft Visual Studio\2022\Preview\VC\Tools\MSVC\14.38.33030\include\xmemory
;	COMDAT ??$_Uninitialized_copy_n@PEAPEAVD3D12Model@@V?$allocator@PEAVD3D12Model@@@std@@@std@@YAPEAPEAVD3D12Model@@PEAPEAV1@_K0AEAV?$allocator@PEAVD3D12Model@@@0@@Z
_TEXT	SEGMENT
_UFirst$ = 0
_Can_memmove$ = 8
_Backout$ = 16
$T1 = 104
_First$ = 128
_Count$ = 136
_Dest$ = 144
_Al$ = 152
??$_Uninitialized_copy_n@PEAPEAVD3D12Model@@V?$allocator@PEAVD3D12Model@@@std@@@std@@YAPEAPEAVD3D12Model@@PEAPEAV1@_K0AEAV?$allocator@PEAVD3D12Model@@@0@@Z PROC ; std::_Uninitialized_copy_n<D3D12Model * *,std::allocator<D3D12Model *> >, COMDAT

; 1863 :     _InIt _First, size_t _Count, _Alloc_ptr_t<_Alloc> _Dest, _Alloc& _Al) {

$LN8:
  00000	4c 89 4c 24 20	 mov	 QWORD PTR [rsp+32], r9
  00005	4c 89 44 24 18	 mov	 QWORD PTR [rsp+24], r8
  0000a	48 89 54 24 10	 mov	 QWORD PTR [rsp+16], rdx
  0000f	48 89 4c 24 08	 mov	 QWORD PTR [rsp+8], rcx
  00014	55		 push	 rbp
  00015	48 81 ec 90 00
	00 00		 sub	 rsp, 144		; 00000090H
  0001c	48 8d 6c 24 20	 lea	 rbp, QWORD PTR [rsp+32]
  00021	48 8d 0d 00 00
	00 00		 lea	 rcx, OFFSET FLAT:__67F55BEA_xmemory
  00028	e8 00 00 00 00	 call	 __CheckForDebuggerJustMyCode

; 1864 :     // copy _First + [0, _Count) to raw _Dest, using _Al
; 1865 :     // note: only called internally from elsewhere in the STL
; 1866 :     using _Ptrval = typename _Alloc::value_type*;
; 1867 : 
; 1868 :     auto _UFirst = _Get_unwrapped(_STD move(_First));

  0002d	48 8d 8d 80 00
	00 00		 lea	 rcx, QWORD PTR _First$[rbp]
  00034	e8 00 00 00 00	 call	 ??$_Get_unwrapped@PEAPEAVD3D12Model@@@std@@YA?A_T$$QEAPEAPEAVD3D12Model@@@Z ; std::_Get_unwrapped<D3D12Model * *>
  00039	48 89 45 00	 mov	 QWORD PTR _UFirst$[rbp], rax

; 1869 : 
; 1870 :     constexpr bool _Can_memmove =

  0003d	c6 45 08 01	 mov	 BYTE PTR _Can_memmove$[rbp], 1

; 1871 :         conjunction_v<bool_constant<_Iter_copy_cat<decltype(_UFirst), _Ptrval>::_Bitcopy_constructible>,
; 1872 :             _Uses_default_construct<_Alloc, _Ptrval, decltype(*_UFirst)>>;
; 1873 : 
; 1874 :     if constexpr (_Can_memmove) {
; 1875 : #if _HAS_CXX20
; 1876 :         if (!_STD is_constant_evaluated())

  00041	e8 00 00 00 00	 call	 ?is_constant_evaluated@std@@YA_NXZ ; std::is_constant_evaluated
  00046	0f b6 c0	 movzx	 eax, al
  00049	85 c0		 test	 eax, eax
  0004b	75 41		 jne	 SHORT $LN5@Uninitiali

; 1877 : #endif // _HAS_CXX20
; 1878 :         {
; 1879 :             _Copy_memmove_n(_UFirst, _Count, _Unfancy(_Dest));

  0004d	48 8b 8d 90 00
	00 00		 mov	 rcx, QWORD PTR _Dest$[rbp]
  00054	e8 00 00 00 00	 call	 ??$_Unfancy@PEAVD3D12Model@@@std@@YAPEAPEAVD3D12Model@@PEAPEAV1@@Z ; std::_Unfancy<D3D12Model *>
  00059	4c 8b c0	 mov	 r8, rax
  0005c	48 8b 95 88 00
	00 00		 mov	 rdx, QWORD PTR _Count$[rbp]
  00063	48 8b 4d 00	 mov	 rcx, QWORD PTR _UFirst$[rbp]
  00067	e8 00 00 00 00	 call	 ??$_Copy_memmove_n@PEAPEAVD3D12Model@@PEAPEAV1@@std@@YAPEAPEAVD3D12Model@@PEAPEAV1@_K0@Z ; std::_Copy_memmove_n<D3D12Model * *,D3D12Model * *>

; 1880 :             _Dest += _Count;

  0006c	48 8b 85 90 00
	00 00		 mov	 rax, QWORD PTR _Dest$[rbp]
  00073	48 8b 8d 88 00
	00 00		 mov	 rcx, QWORD PTR _Count$[rbp]
  0007a	48 8d 04 c8	 lea	 rax, QWORD PTR [rax+rcx*8]
  0007e	48 89 85 90 00
	00 00		 mov	 QWORD PTR _Dest$[rbp], rax

; 1881 :             return _Dest;

  00085	48 8b 85 90 00
	00 00		 mov	 rax, QWORD PTR _Dest$[rbp]
  0008c	eb 6a		 jmp	 SHORT $LN1@Uninitiali
$LN5@Uninitiali:

; 1882 :         }
; 1883 :     }
; 1884 : 
; 1885 :     _Uninitialized_backout_al<_Alloc> _Backout{_Dest, _Al};

  0008e	4c 8b 85 98 00
	00 00		 mov	 r8, QWORD PTR _Al$[rbp]
  00095	48 8b 95 90 00
	00 00		 mov	 rdx, QWORD PTR _Dest$[rbp]
  0009c	48 8d 4d 10	 lea	 rcx, QWORD PTR _Backout$[rbp]
  000a0	e8 00 00 00 00	 call	 ??0?$_Uninitialized_backout_al@V?$allocator@PEAVD3D12Model@@@std@@@std@@QEAA@PEAPEAVD3D12Model@@AEAV?$allocator@PEAVD3D12Model@@@1@@Z ; std::_Uninitialized_backout_al<std::allocator<D3D12Model *> >::_Uninitialized_backout_al<std::allocator<D3D12Model *> >
  000a5	90		 npad	 1

; 1886 :     for (; _Count != 0; ++_UFirst, (void) --_Count) {

  000a6	eb 1d		 jmp	 SHORT $LN4@Uninitiali
$LN2@Uninitiali:
  000a8	48 8b 45 00	 mov	 rax, QWORD PTR _UFirst$[rbp]
  000ac	48 83 c0 08	 add	 rax, 8
  000b0	48 89 45 00	 mov	 QWORD PTR _UFirst$[rbp], rax
  000b4	48 8b 85 88 00
	00 00		 mov	 rax, QWORD PTR _Count$[rbp]
  000bb	48 ff c8	 dec	 rax
  000be	48 89 85 88 00
	00 00		 mov	 QWORD PTR _Count$[rbp], rax
$LN4@Uninitiali:
  000c5	48 83 bd 88 00
	00 00 00	 cmp	 QWORD PTR _Count$[rbp], 0
  000cd	74 0f		 je	 SHORT $LN3@Uninitiali

; 1887 :         _Backout._Emplace_back(*_UFirst);

  000cf	48 8b 55 00	 mov	 rdx, QWORD PTR _UFirst$[rbp]
  000d3	48 8d 4d 10	 lea	 rcx, QWORD PTR _Backout$[rbp]
  000d7	e8 00 00 00 00	 call	 ??$_Emplace_back@AEAPEAVD3D12Model@@@?$_Uninitialized_backout_al@V?$allocator@PEAVD3D12Model@@@std@@@std@@QEAAXAEAPEAVD3D12Model@@@Z ; std::_Uninitialized_backout_al<std::allocator<D3D12Model *> >::_Emplace_back<D3D12Model * &>

; 1888 :     }

  000dc	eb ca		 jmp	 SHORT $LN2@Uninitiali
$LN3@Uninitiali:

; 1889 : 
; 1890 :     return _Backout._Release();

  000de	48 8d 4d 10	 lea	 rcx, QWORD PTR _Backout$[rbp]
  000e2	e8 00 00 00 00	 call	 ?_Release@?$_Uninitialized_backout_al@V?$allocator@PEAVD3D12Model@@@std@@@std@@QEAAPEAPEAVD3D12Model@@XZ ; std::_Uninitialized_backout_al<std::allocator<D3D12Model *> >::_Release
  000e7	48 89 45 68	 mov	 QWORD PTR $T1[rbp], rax
  000eb	48 8d 4d 10	 lea	 rcx, QWORD PTR _Backout$[rbp]
  000ef	e8 00 00 00 00	 call	 ??1?$_Uninitialized_backout_al@V?$allocator@PEAVD3D12Model@@@std@@@std@@QEAA@XZ ; std::_Uninitialized_backout_al<std::allocator<D3D12Model *> >::~_Uninitialized_backout_al<std::allocator<D3D12Model *> >
  000f4	48 8b 45 68	 mov	 rax, QWORD PTR $T1[rbp]
$LN1@Uninitiali:

; 1891 : }

  000f8	48 8d 65 70	 lea	 rsp, QWORD PTR [rbp+112]
  000fc	5d		 pop	 rbp
  000fd	c3		 ret	 0
??$_Uninitialized_copy_n@PEAPEAVD3D12Model@@V?$allocator@PEAVD3D12Model@@@std@@@std@@YAPEAPEAVD3D12Model@@PEAPEAV1@_K0AEAV?$allocator@PEAVD3D12Model@@@0@@Z ENDP ; std::_Uninitialized_copy_n<D3D12Model * *,std::allocator<D3D12Model *> >
_TEXT	ENDS
; Function compile flags: /Odtp /ZI
;	COMDAT text$x
text$x	SEGMENT
_UFirst$ = 0
_Can_memmove$ = 8
_Backout$ = 16
$T1 = 104
_First$ = 128
_Count$ = 136
_Dest$ = 144
_Al$ = 152
?dtor$0@?0???$_Uninitialized_copy_n@PEAPEAVD3D12Model@@V?$allocator@PEAVD3D12Model@@@std@@@std@@YAPEAPEAVD3D12Model@@PEAPEAV1@_K0AEAV?$allocator@PEAVD3D12Model@@@0@@Z@4HA PROC ; `std::_Uninitialized_copy_n<D3D12Model * *,std::allocator<D3D12Model *> >'::`1'::dtor$0
  00000	40 55		 push	 rbp
  00002	48 83 ec 20	 sub	 rsp, 32			; 00000020H
  00006	48 8d 6a 20	 lea	 rbp, QWORD PTR [rdx+32]
  0000a	48 8d 4d 10	 lea	 rcx, QWORD PTR _Backout$[rbp]
  0000e	e8 00 00 00 00	 call	 ??1?$_Uninitialized_backout_al@V?$allocator@PEAVD3D12Model@@@std@@@std@@QEAA@XZ ; std::_Uninitialized_backout_al<std::allocator<D3D12Model *> >::~_Uninitialized_backout_al<std::allocator<D3D12Model *> >
  00013	48 83 c4 20	 add	 rsp, 32			; 00000020H
  00017	5d		 pop	 rbp
  00018	c3		 ret	 0
?dtor$0@?0???$_Uninitialized_copy_n@PEAPEAVD3D12Model@@V?$allocator@PEAVD3D12Model@@@std@@@std@@YAPEAPEAVD3D12Model@@PEAPEAV1@_K0AEAV?$allocator@PEAVD3D12Model@@@0@@Z@4HA ENDP ; `std::_Uninitialized_copy_n<D3D12Model * *,std::allocator<D3D12Model *> >'::`1'::dtor$0
text$x	ENDS
; Function compile flags: /Odtp /ZI
; File C:\Program Files\Microsoft Visual Studio\2022\Preview\VC\Tools\MSVC\14.38.33030\include\vector
;	COMDAT ??$_Insert_counted_range@PEAPEAVD3D12Model@@@?$vector@PEAVD3D12Model@@V?$allocator@PEAVD3D12Model@@@std@@@std@@AEAAXV?$_Vector_const_iterator@V?$_Vector_val@U?$_Simple_types@PEAVD3D12Model@@@std@@@std@@@1@PEAPEAVD3D12Model@@_K@Z
_TEXT	SEGMENT
_Whereptr$ = 0
_Al$ = 8
_My_data$ = 16
_Mylast$ = 24
_Oldfirst$ = 32
_Oldlast$ = 40
_Unused_capacity$ = 48
_Oldsize$1 = 56
_Newsize$2 = 64
_Newcapacity$3 = 72
_Newvec$4 = 80
_Whereoff$5 = 88
_Constructed_last$6 = 96
_Constructed_first$7 = 104
_Affected_elements$8 = 112
_Relocated$9 = 120
this$ = 208
_Where$ = 216
_First$ = 224
_Count$ = 232
??$_Insert_counted_range@PEAPEAVD3D12Model@@@?$vector@PEAVD3D12Model@@V?$allocator@PEAVD3D12Model@@@std@@@std@@AEAAXV?$_Vector_const_iterator@V?$_Vector_val@U?$_Simple_types@PEAVD3D12Model@@@std@@@std@@@1@PEAPEAVD3D12Model@@_K@Z PROC ; std::vector<D3D12Model *,std::allocator<D3D12Model *> >::_Insert_counted_range<D3D12Model * *>, COMDAT

; 1110 :     _CONSTEXPR20 void _Insert_counted_range(const_iterator _Where, _Iter _First, const size_type _Count) {

$LN44:
  00000	4c 89 4c 24 20	 mov	 QWORD PTR [rsp+32], r9
  00005	4c 89 44 24 18	 mov	 QWORD PTR [rsp+24], r8
  0000a	48 89 54 24 10	 mov	 QWORD PTR [rsp+16], rdx
  0000f	48 89 4c 24 08	 mov	 QWORD PTR [rsp+8], rcx
  00014	55		 push	 rbp
  00015	48 81 ec e0 00
	00 00		 sub	 rsp, 224		; 000000e0H
  0001c	48 8d 6c 24 20	 lea	 rbp, QWORD PTR [rsp+32]
  00021	48 8d 0d 00 00
	00 00		 lea	 rcx, OFFSET FLAT:__14F7CB70_vector
  00028	e8 00 00 00 00	 call	 __CheckForDebuggerJustMyCode

; 1111 :         // insert counted range _First + [0, _Count) at _Where
; 1112 :         const pointer _Whereptr = _Where._Ptr;

  0002d	48 8b 85 d8 00
	00 00		 mov	 rax, QWORD PTR _Where$[rbp]
  00034	48 8b 40 10	 mov	 rax, QWORD PTR [rax+16]
  00038	48 89 45 00	 mov	 QWORD PTR _Whereptr$[rbp], rax

; 1113 : 
; 1114 :         auto& _Al        = _Getal();

  0003c	48 8b 8d d0 00
	00 00		 mov	 rcx, QWORD PTR this$[rbp]
  00043	e8 00 00 00 00	 call	 ?_Getal@?$vector@PEAVD3D12Model@@V?$allocator@PEAVD3D12Model@@@std@@@std@@AEAAAEAV?$allocator@PEAVD3D12Model@@@2@XZ ; std::vector<D3D12Model *,std::allocator<D3D12Model *> >::_Getal
  00048	48 89 45 08	 mov	 QWORD PTR _Al$[rbp], rax

; 1115 :         auto& _My_data   = _Mypair._Myval2;

  0004c	48 8b 85 d0 00
	00 00		 mov	 rax, QWORD PTR this$[rbp]
  00053	48 89 45 10	 mov	 QWORD PTR _My_data$[rbp], rax

; 1116 :         pointer& _Mylast = _My_data._Mylast;

  00057	48 8b 45 10	 mov	 rax, QWORD PTR _My_data$[rbp]
  0005b	48 83 c0 10	 add	 rax, 16
  0005f	48 89 45 18	 mov	 QWORD PTR _Mylast$[rbp], rax

; 1117 : 
; 1118 :         const pointer _Oldfirst     = _My_data._Myfirst;

  00063	48 8b 45 10	 mov	 rax, QWORD PTR _My_data$[rbp]
  00067	48 8b 40 08	 mov	 rax, QWORD PTR [rax+8]
  0006b	48 89 45 20	 mov	 QWORD PTR _Oldfirst$[rbp], rax

; 1119 :         const pointer _Oldlast      = _Mylast;

  0006f	48 8b 45 18	 mov	 rax, QWORD PTR _Mylast$[rbp]
  00073	48 8b 00	 mov	 rax, QWORD PTR [rax]
  00076	48 89 45 28	 mov	 QWORD PTR _Oldlast$[rbp], rax

; 1120 :         const auto _Unused_capacity = static_cast<size_type>(_My_data._Myend - _Oldlast);

  0007a	48 8b 45 10	 mov	 rax, QWORD PTR _My_data$[rbp]
  0007e	48 8b 4d 28	 mov	 rcx, QWORD PTR _Oldlast$[rbp]
  00082	48 8b 40 18	 mov	 rax, QWORD PTR [rax+24]
  00086	48 2b c1	 sub	 rax, rcx
  00089	48 c1 f8 03	 sar	 rax, 3
  0008d	48 89 45 30	 mov	 QWORD PTR _Unused_capacity$[rbp], rax

; 1121 : 
; 1122 :         if (_Count == 0) { // nothing to do, avoid invalidating iterators

  00091	48 83 bd e8 00
	00 00 00	 cmp	 QWORD PTR _Count$[rbp], 0
  00099	75 05		 jne	 SHORT $LN2@Insert_cou
  0009b	e9 b1 02 00 00	 jmp	 $LN3@Insert_cou
$LN2@Insert_cou:

; 1123 :         } else if (_Count > _Unused_capacity) { // reallocate

  000a0	48 8b 45 30	 mov	 rax, QWORD PTR _Unused_capacity$[rbp]
  000a4	48 39 85 e8 00
	00 00		 cmp	 QWORD PTR _Count$[rbp], rax
  000ab	0f 86 70 01 00
	00		 jbe	 $LN4@Insert_cou

; 1124 :             const auto _Oldsize = static_cast<size_type>(_Oldlast - _Oldfirst);

  000b1	48 8b 45 20	 mov	 rax, QWORD PTR _Oldfirst$[rbp]
  000b5	48 8b 4d 28	 mov	 rcx, QWORD PTR _Oldlast$[rbp]
  000b9	48 2b c8	 sub	 rcx, rax
  000bc	48 8b c1	 mov	 rax, rcx
  000bf	48 c1 f8 03	 sar	 rax, 3
  000c3	48 89 45 38	 mov	 QWORD PTR _Oldsize$1[rbp], rax

; 1125 : 
; 1126 :             if (_Count > max_size() - _Oldsize) {

  000c7	48 8b 8d d0 00
	00 00		 mov	 rcx, QWORD PTR this$[rbp]
  000ce	e8 00 00 00 00	 call	 ?max_size@?$vector@PEAVD3D12Model@@V?$allocator@PEAVD3D12Model@@@std@@@std@@QEBA_KXZ ; std::vector<D3D12Model *,std::allocator<D3D12Model *> >::max_size
  000d3	48 2b 45 38	 sub	 rax, QWORD PTR _Oldsize$1[rbp]
  000d7	48 39 85 e8 00
	00 00		 cmp	 QWORD PTR _Count$[rbp], rax
  000de	76 05		 jbe	 SHORT $LN6@Insert_cou

; 1127 :                 _Xlength();

  000e0	e8 00 00 00 00	 call	 ?_Xlength@?$vector@PEAVD3D12Model@@V?$allocator@PEAVD3D12Model@@@std@@@std@@CAXXZ ; std::vector<D3D12Model *,std::allocator<D3D12Model *> >::_Xlength
$LN6@Insert_cou:

; 1128 :             }
; 1129 : 
; 1130 :             const size_type _Newsize = _Oldsize + _Count;

  000e5	48 8b 85 e8 00
	00 00		 mov	 rax, QWORD PTR _Count$[rbp]
  000ec	48 8b 4d 38	 mov	 rcx, QWORD PTR _Oldsize$1[rbp]
  000f0	48 03 c8	 add	 rcx, rax
  000f3	48 8b c1	 mov	 rax, rcx
  000f6	48 89 45 40	 mov	 QWORD PTR _Newsize$2[rbp], rax

; 1131 :             size_type _Newcapacity   = _Calculate_growth(_Newsize);

  000fa	48 8b 55 40	 mov	 rdx, QWORD PTR _Newsize$2[rbp]
  000fe	48 8b 8d d0 00
	00 00		 mov	 rcx, QWORD PTR this$[rbp]
  00105	e8 00 00 00 00	 call	 ?_Calculate_growth@?$vector@PEAVD3D12Model@@V?$allocator@PEAVD3D12Model@@@std@@@std@@AEBA_K_K@Z ; std::vector<D3D12Model *,std::allocator<D3D12Model *> >::_Calculate_growth
  0010a	48 89 45 48	 mov	 QWORD PTR _Newcapacity$3[rbp], rax

; 1132 : 
; 1133 :             const pointer _Newvec           = _Allocate_at_least_helper(_Al, _Newcapacity);

  0010e	48 8d 55 48	 lea	 rdx, QWORD PTR _Newcapacity$3[rbp]
  00112	48 8b 4d 08	 mov	 rcx, QWORD PTR _Al$[rbp]
  00116	e8 00 00 00 00	 call	 ??$_Allocate_at_least_helper@V?$allocator@PEAVD3D12Model@@@std@@@std@@YAPEAPEAVD3D12Model@@AEAV?$allocator@PEAVD3D12Model@@@0@AEA_K@Z ; std::_Allocate_at_least_helper<std::allocator<D3D12Model *> >
  0011b	48 89 45 50	 mov	 QWORD PTR _Newvec$4[rbp], rax

; 1134 :             const auto _Whereoff            = static_cast<size_type>(_Whereptr - _Oldfirst);

  0011f	48 8b 45 20	 mov	 rax, QWORD PTR _Oldfirst$[rbp]
  00123	48 8b 4d 00	 mov	 rcx, QWORD PTR _Whereptr$[rbp]
  00127	48 2b c8	 sub	 rcx, rax
  0012a	48 8b c1	 mov	 rax, rcx
  0012d	48 c1 f8 03	 sar	 rax, 3
  00131	48 89 45 58	 mov	 QWORD PTR _Whereoff$5[rbp], rax

; 1135 :             const pointer _Constructed_last = _Newvec + _Whereoff + _Count;

  00135	48 8b 45 50	 mov	 rax, QWORD PTR _Newvec$4[rbp]
  00139	48 8b 4d 58	 mov	 rcx, QWORD PTR _Whereoff$5[rbp]
  0013d	48 8d 04 c8	 lea	 rax, QWORD PTR [rax+rcx*8]
  00141	48 8b 8d e8 00
	00 00		 mov	 rcx, QWORD PTR _Count$[rbp]
  00148	48 8d 04 c8	 lea	 rax, QWORD PTR [rax+rcx*8]
  0014c	48 89 45 60	 mov	 QWORD PTR _Constructed_last$6[rbp], rax

; 1136 :             pointer _Constructed_first      = _Constructed_last;

  00150	48 8b 45 60	 mov	 rax, QWORD PTR _Constructed_last$6[rbp]
  00154	48 89 45 68	 mov	 QWORD PTR _Constructed_first$7[rbp], rax

; 1137 : 
; 1138 :             _TRY_BEGIN
; 1139 :             _Uninitialized_copy_n(_STD move(_First), _Count, _Newvec + _Whereoff, _Al);

  00158	48 8b 45 50	 mov	 rax, QWORD PTR _Newvec$4[rbp]
  0015c	48 8b 4d 58	 mov	 rcx, QWORD PTR _Whereoff$5[rbp]
  00160	48 8d 04 c8	 lea	 rax, QWORD PTR [rax+rcx*8]
  00164	4c 8b 4d 08	 mov	 r9, QWORD PTR _Al$[rbp]
  00168	4c 8b c0	 mov	 r8, rax
  0016b	48 8b 95 e8 00
	00 00		 mov	 rdx, QWORD PTR _Count$[rbp]
  00172	48 8b 8d e0 00
	00 00		 mov	 rcx, QWORD PTR _First$[rbp]
  00179	e8 00 00 00 00	 call	 ??$_Uninitialized_copy_n@PEAPEAVD3D12Model@@V?$allocator@PEAVD3D12Model@@@std@@@std@@YAPEAPEAVD3D12Model@@PEAPEAV1@_K0AEAV?$allocator@PEAVD3D12Model@@@0@@Z ; std::_Uninitialized_copy_n<D3D12Model * *,std::allocator<D3D12Model *> >

; 1140 :             _Constructed_first = _Newvec + _Whereoff;

  0017e	48 8b 45 50	 mov	 rax, QWORD PTR _Newvec$4[rbp]
  00182	48 8b 4d 58	 mov	 rcx, QWORD PTR _Whereoff$5[rbp]
  00186	48 8d 04 c8	 lea	 rax, QWORD PTR [rax+rcx*8]
  0018a	48 89 45 68	 mov	 QWORD PTR _Constructed_first$7[rbp], rax

; 1141 : 
; 1142 :             if (_Count == 1 && _Whereptr == _Oldlast) { // one at back, provide strong guarantee

  0018e	48 83 bd e8 00
	00 00 01	 cmp	 QWORD PTR _Count$[rbp], 1
  00196	75 21		 jne	 SHORT $LN8@Insert_cou
  00198	48 8b 45 28	 mov	 rax, QWORD PTR _Oldlast$[rbp]
  0019c	48 39 45 00	 cmp	 QWORD PTR _Whereptr$[rbp], rax
  001a0	75 17		 jne	 SHORT $LN8@Insert_cou

; 1143 :                 if constexpr (is_nothrow_move_constructible_v<_Ty> || !is_copy_constructible_v<_Ty>) {
; 1144 :                     _Uninitialized_move(_Oldfirst, _Oldlast, _Newvec, _Al);

  001a2	4c 8b 4d 08	 mov	 r9, QWORD PTR _Al$[rbp]
  001a6	4c 8b 45 50	 mov	 r8, QWORD PTR _Newvec$4[rbp]
  001aa	48 8b 55 28	 mov	 rdx, QWORD PTR _Oldlast$[rbp]
  001ae	48 8b 4d 20	 mov	 rcx, QWORD PTR _Oldfirst$[rbp]
  001b2	e8 00 00 00 00	 call	 ??$_Uninitialized_move@PEAPEAVD3D12Model@@V?$allocator@PEAVD3D12Model@@@std@@@std@@YAPEAPEAVD3D12Model@@QEAPEAV1@0PEAPEAV1@AEAV?$allocator@PEAVD3D12Model@@@0@@Z ; std::_Uninitialized_move<D3D12Model * *,std::allocator<D3D12Model *> >

; 1145 :                 } else {
; 1146 :                     _Uninitialized_copy(_Oldfirst, _Oldlast, _Newvec, _Al);
; 1147 :                 }
; 1148 :             } else { // provide basic guarantee

  001b7	eb 49		 jmp	 SHORT $LN9@Insert_cou
$LN8@Insert_cou:

; 1149 :                 _Uninitialized_move(_Oldfirst, _Whereptr, _Newvec, _Al);

  001b9	4c 8b 4d 08	 mov	 r9, QWORD PTR _Al$[rbp]
  001bd	4c 8b 45 50	 mov	 r8, QWORD PTR _Newvec$4[rbp]
  001c1	48 8b 55 00	 mov	 rdx, QWORD PTR _Whereptr$[rbp]
  001c5	48 8b 4d 20	 mov	 rcx, QWORD PTR _Oldfirst$[rbp]
  001c9	e8 00 00 00 00	 call	 ??$_Uninitialized_move@PEAPEAVD3D12Model@@V?$allocator@PEAVD3D12Model@@@std@@@std@@YAPEAPEAVD3D12Model@@QEAPEAV1@0PEAPEAV1@AEAV?$allocator@PEAVD3D12Model@@@0@@Z ; std::_Uninitialized_move<D3D12Model * *,std::allocator<D3D12Model *> >

; 1150 :                 _Constructed_first = _Newvec;

  001ce	48 8b 45 50	 mov	 rax, QWORD PTR _Newvec$4[rbp]
  001d2	48 89 45 68	 mov	 QWORD PTR _Constructed_first$7[rbp], rax

; 1151 :                 _Uninitialized_move(_Whereptr, _Oldlast, _Newvec + _Whereoff + _Count, _Al);

  001d6	48 8b 45 50	 mov	 rax, QWORD PTR _Newvec$4[rbp]
  001da	48 8b 4d 58	 mov	 rcx, QWORD PTR _Whereoff$5[rbp]
  001de	48 8d 04 c8	 lea	 rax, QWORD PTR [rax+rcx*8]
  001e2	48 8b 8d e8 00
	00 00		 mov	 rcx, QWORD PTR _Count$[rbp]
  001e9	48 8d 04 c8	 lea	 rax, QWORD PTR [rax+rcx*8]
  001ed	4c 8b 4d 08	 mov	 r9, QWORD PTR _Al$[rbp]
  001f1	4c 8b c0	 mov	 r8, rax
  001f4	48 8b 55 28	 mov	 rdx, QWORD PTR _Oldlast$[rbp]
  001f8	48 8b 4d 00	 mov	 rcx, QWORD PTR _Whereptr$[rbp]
  001fc	e8 00 00 00 00	 call	 ??$_Uninitialized_move@PEAPEAVD3D12Model@@V?$allocator@PEAVD3D12Model@@@std@@@std@@YAPEAPEAVD3D12Model@@QEAPEAV1@0PEAPEAV1@AEAV?$allocator@PEAVD3D12Model@@@0@@Z ; std::_Uninitialized_move<D3D12Model * *,std::allocator<D3D12Model *> >
  00201	90		 npad	 1
$LN9@Insert_cou:
  00202	eb 00		 jmp	 SHORT $LN28@Insert_cou
$LN29@Insert_cou:
$LN28@Insert_cou:

; 1152 :             }
; 1153 :             _CATCH_ALL
; 1154 :             _Destroy_range(_Constructed_first, _Constructed_last, _Al);
; 1155 :             _Al.deallocate(_Newvec, _Newcapacity);
; 1156 :             _RERAISE;
; 1157 :             _CATCH_END
; 1158 : 
; 1159 :             _Change_array(_Newvec, _Newsize, _Newcapacity);

  00204	4c 8b 4d 48	 mov	 r9, QWORD PTR _Newcapacity$3[rbp]
  00208	4c 8b 45 40	 mov	 r8, QWORD PTR _Newsize$2[rbp]
  0020c	48 8b 55 50	 mov	 rdx, QWORD PTR _Newvec$4[rbp]
  00210	48 8b 8d d0 00
	00 00		 mov	 rcx, QWORD PTR this$[rbp]
  00217	e8 00 00 00 00	 call	 ?_Change_array@?$vector@PEAVD3D12Model@@V?$allocator@PEAVD3D12Model@@@std@@@std@@AEAAXQEAPEAVD3D12Model@@_K1@Z ; std::vector<D3D12Model *,std::allocator<D3D12Model *> >::_Change_array

; 1160 :         } else { // Attempt to provide the strong guarantee for EmplaceConstructible failure.

  0021c	e9 30 01 00 00	 jmp	 $LN3@Insert_cou
$LN4@Insert_cou:

; 1161 :                  // If we encounter copy/move construction/assignment failure, provide the basic guarantee.
; 1162 :                  // (For one-at-back, this provides the strong guarantee.)
; 1163 : 
; 1164 :             const auto _Affected_elements = static_cast<size_type>(_Oldlast - _Whereptr);

  00221	48 8b 45 00	 mov	 rax, QWORD PTR _Whereptr$[rbp]
  00225	48 8b 4d 28	 mov	 rcx, QWORD PTR _Oldlast$[rbp]
  00229	48 2b c8	 sub	 rcx, rax
  0022c	48 8b c1	 mov	 rax, rcx
  0022f	48 c1 f8 03	 sar	 rax, 3
  00233	48 89 45 70	 mov	 QWORD PTR _Affected_elements$8[rbp], rax

; 1165 : 
; 1166 :             _ASAN_VECTOR_EXTEND_GUARD(static_cast<size_type>(_Oldlast - _Oldfirst) + _Count);
; 1167 :             if (_Count < _Affected_elements) { // some affected elements must be assigned

  00237	48 8b 45 70	 mov	 rax, QWORD PTR _Affected_elements$8[rbp]
  0023b	48 39 85 e8 00
	00 00		 cmp	 QWORD PTR _Count$[rbp], rax
  00242	0f 83 95 00 00
	00		 jae	 $LN10@Insert_cou

; 1168 :                 _Mylast = _Uninitialized_move(_Oldlast - _Count, _Oldlast, _Oldlast, _Al);

  00248	48 8b 85 e8 00
	00 00		 mov	 rax, QWORD PTR _Count$[rbp]
  0024f	48 c1 e0 03	 shl	 rax, 3
  00253	48 8b 4d 28	 mov	 rcx, QWORD PTR _Oldlast$[rbp]
  00257	48 2b c8	 sub	 rcx, rax
  0025a	48 8b c1	 mov	 rax, rcx
  0025d	4c 8b 4d 08	 mov	 r9, QWORD PTR _Al$[rbp]
  00261	4c 8b 45 28	 mov	 r8, QWORD PTR _Oldlast$[rbp]
  00265	48 8b 55 28	 mov	 rdx, QWORD PTR _Oldlast$[rbp]
  00269	48 8b c8	 mov	 rcx, rax
  0026c	e8 00 00 00 00	 call	 ??$_Uninitialized_move@PEAPEAVD3D12Model@@V?$allocator@PEAVD3D12Model@@@std@@@std@@YAPEAPEAVD3D12Model@@QEAPEAV1@0PEAPEAV1@AEAV?$allocator@PEAVD3D12Model@@@0@@Z ; std::_Uninitialized_move<D3D12Model * *,std::allocator<D3D12Model *> >
  00271	48 8b 4d 18	 mov	 rcx, QWORD PTR _Mylast$[rbp]
  00275	48 89 01	 mov	 QWORD PTR [rcx], rax

; 1169 :                 _Move_backward_unchecked(_Whereptr, _Oldlast - _Count, _Oldlast);

  00278	48 8b 85 e8 00
	00 00		 mov	 rax, QWORD PTR _Count$[rbp]
  0027f	48 c1 e0 03	 shl	 rax, 3
  00283	48 8b 4d 28	 mov	 rcx, QWORD PTR _Oldlast$[rbp]
  00287	48 2b c8	 sub	 rcx, rax
  0028a	48 8b c1	 mov	 rax, rcx
  0028d	4c 8b 45 28	 mov	 r8, QWORD PTR _Oldlast$[rbp]
  00291	48 8b d0	 mov	 rdx, rax
  00294	48 8b 4d 00	 mov	 rcx, QWORD PTR _Whereptr$[rbp]
  00298	e8 00 00 00 00	 call	 ??$_Move_backward_unchecked@PEAPEAVD3D12Model@@PEAPEAV1@@std@@YAPEAPEAVD3D12Model@@PEAPEAV1@00@Z ; std::_Move_backward_unchecked<D3D12Model * *,D3D12Model * *>

; 1170 :                 _Destroy_range(_Whereptr, _Whereptr + _Count, _Al);

  0029d	48 8b 45 00	 mov	 rax, QWORD PTR _Whereptr$[rbp]
  002a1	48 8b 8d e8 00
	00 00		 mov	 rcx, QWORD PTR _Count$[rbp]
  002a8	48 8d 04 c8	 lea	 rax, QWORD PTR [rax+rcx*8]
  002ac	4c 8b 45 08	 mov	 r8, QWORD PTR _Al$[rbp]
  002b0	48 8b d0	 mov	 rdx, rax
  002b3	48 8b 4d 00	 mov	 rcx, QWORD PTR _Whereptr$[rbp]
  002b7	e8 00 00 00 00	 call	 ??$_Destroy_range@V?$allocator@PEAVD3D12Model@@@std@@@std@@YAXPEAPEAVD3D12Model@@QEAPEAV1@AEAV?$allocator@PEAVD3D12Model@@@0@@Z ; std::_Destroy_range<std::allocator<D3D12Model *> >
  002bc	90		 npad	 1

; 1171 : 
; 1172 :                 _TRY_BEGIN
; 1173 :                 _Uninitialized_copy_n(_STD move(_First), _Count, _Whereptr, _Al);

  002bd	4c 8b 4d 08	 mov	 r9, QWORD PTR _Al$[rbp]
  002c1	4c 8b 45 00	 mov	 r8, QWORD PTR _Whereptr$[rbp]
  002c5	48 8b 95 e8 00
	00 00		 mov	 rdx, QWORD PTR _Count$[rbp]
  002cc	48 8b 8d e0 00
	00 00		 mov	 rcx, QWORD PTR _First$[rbp]
  002d3	e8 00 00 00 00	 call	 ??$_Uninitialized_copy_n@PEAPEAVD3D12Model@@V?$allocator@PEAVD3D12Model@@@std@@@std@@YAPEAPEAVD3D12Model@@PEAPEAV1@_K0AEAV?$allocator@PEAVD3D12Model@@@0@@Z ; std::_Uninitialized_copy_n<D3D12Model * *,std::allocator<D3D12Model *> >
  002d8	90		 npad	 1
  002d9	eb 00		 jmp	 SHORT $LN32@Insert_cou
$LN33@Insert_cou:
$LN32@Insert_cou:

; 1174 :                 _CATCH_ALL
; 1175 :                 // glue the broken pieces back together
; 1176 : 
; 1177 :                 _TRY_BEGIN
; 1178 :                 _Uninitialized_move(_Whereptr + _Count, _Whereptr + 2 * _Count, _Whereptr, _Al);
; 1179 :                 _CATCH_ALL
; 1180 :                 // vaporize the detached piece
; 1181 :                 _Orphan_range(_Whereptr, _Oldlast);
; 1182 :                 _Destroy_range(_Whereptr + _Count, _Mylast, _Al);
; 1183 :                 _Mylast = _Whereptr;
; 1184 :                 _RERAISE;
; 1185 :                 _CATCH_END
; 1186 : 
; 1187 :                 _STD _Move_unchecked(_Whereptr + 2 * _Count, _Mylast, _Whereptr + _Count);
; 1188 :                 _Destroy_range(_Oldlast, _Mylast, _Al);
; 1189 :                 _Mylast = _Oldlast;
; 1190 :                 _RERAISE;
; 1191 :                 _CATCH_END
; 1192 :             } else { // affected elements don't overlap before/after

  002db	eb 5f		 jmp	 SHORT $LN11@Insert_cou
$LN10@Insert_cou:

; 1193 :                 const pointer _Relocated = _Whereptr + _Count;

  002dd	48 8b 45 00	 mov	 rax, QWORD PTR _Whereptr$[rbp]
  002e1	48 8b 8d e8 00
	00 00		 mov	 rcx, QWORD PTR _Count$[rbp]
  002e8	48 8d 04 c8	 lea	 rax, QWORD PTR [rax+rcx*8]
  002ec	48 89 45 78	 mov	 QWORD PTR _Relocated$9[rbp], rax

; 1194 :                 _Mylast                  = _Uninitialized_move(_Whereptr, _Oldlast, _Relocated, _Al);

  002f0	4c 8b 4d 08	 mov	 r9, QWORD PTR _Al$[rbp]
  002f4	4c 8b 45 78	 mov	 r8, QWORD PTR _Relocated$9[rbp]
  002f8	48 8b 55 28	 mov	 rdx, QWORD PTR _Oldlast$[rbp]
  002fc	48 8b 4d 00	 mov	 rcx, QWORD PTR _Whereptr$[rbp]
  00300	e8 00 00 00 00	 call	 ??$_Uninitialized_move@PEAPEAVD3D12Model@@V?$allocator@PEAVD3D12Model@@@std@@@std@@YAPEAPEAVD3D12Model@@QEAPEAV1@0PEAPEAV1@AEAV?$allocator@PEAVD3D12Model@@@0@@Z ; std::_Uninitialized_move<D3D12Model * *,std::allocator<D3D12Model *> >
  00305	48 8b 4d 18	 mov	 rcx, QWORD PTR _Mylast$[rbp]
  00309	48 89 01	 mov	 QWORD PTR [rcx], rax

; 1195 :                 _Destroy_range(_Whereptr, _Oldlast, _Al);

  0030c	4c 8b 45 08	 mov	 r8, QWORD PTR _Al$[rbp]
  00310	48 8b 55 28	 mov	 rdx, QWORD PTR _Oldlast$[rbp]
  00314	48 8b 4d 00	 mov	 rcx, QWORD PTR _Whereptr$[rbp]
  00318	e8 00 00 00 00	 call	 ??$_Destroy_range@V?$allocator@PEAVD3D12Model@@@std@@@std@@YAXPEAPEAVD3D12Model@@QEAPEAV1@AEAV?$allocator@PEAVD3D12Model@@@0@@Z ; std::_Destroy_range<std::allocator<D3D12Model *> >
  0031d	90		 npad	 1

; 1196 : 
; 1197 :                 _TRY_BEGIN
; 1198 :                 _Uninitialized_copy_n(_STD move(_First), _Count, _Whereptr, _Al);

  0031e	4c 8b 4d 08	 mov	 r9, QWORD PTR _Al$[rbp]
  00322	4c 8b 45 00	 mov	 r8, QWORD PTR _Whereptr$[rbp]
  00326	48 8b 95 e8 00
	00 00		 mov	 rdx, QWORD PTR _Count$[rbp]
  0032d	48 8b 8d e0 00
	00 00		 mov	 rcx, QWORD PTR _First$[rbp]
  00334	e8 00 00 00 00	 call	 ??$_Uninitialized_copy_n@PEAPEAVD3D12Model@@V?$allocator@PEAVD3D12Model@@@std@@@std@@YAPEAPEAVD3D12Model@@PEAPEAV1@_K0AEAV?$allocator@PEAVD3D12Model@@@0@@Z ; std::_Uninitialized_copy_n<D3D12Model * *,std::allocator<D3D12Model *> >
  00339	90		 npad	 1
  0033a	eb 00		 jmp	 SHORT $LN11@Insert_cou
$LN37@Insert_cou:
$LN11@Insert_cou:

; 1199 :                 _CATCH_ALL
; 1200 :                 // glue the broken pieces back together
; 1201 : 
; 1202 :                 _TRY_BEGIN
; 1203 :                 _Uninitialized_move(_Relocated, _Mylast, _Whereptr, _Al);
; 1204 :                 _CATCH_ALL
; 1205 :                 // vaporize the detached piece
; 1206 :                 _Orphan_range(_Whereptr, _Oldlast);
; 1207 :                 _Destroy_range(_Relocated, _Mylast, _Al);
; 1208 :                 _Mylast = _Whereptr;
; 1209 :                 _RERAISE;
; 1210 :                 _CATCH_END
; 1211 : 
; 1212 :                 _Destroy_range(_Relocated, _Mylast, _Al);
; 1213 :                 _Mylast = _Oldlast;
; 1214 :                 _RERAISE;
; 1215 :                 _CATCH_END
; 1216 :             }
; 1217 : 
; 1218 :             _Orphan_range(_Whereptr, _Oldlast);

  0033c	4c 8b 45 28	 mov	 r8, QWORD PTR _Oldlast$[rbp]
  00340	48 8b 55 00	 mov	 rdx, QWORD PTR _Whereptr$[rbp]
  00344	48 8b 8d d0 00
	00 00		 mov	 rcx, QWORD PTR this$[rbp]
  0034b	e8 00 00 00 00	 call	 ?_Orphan_range@?$vector@PEAVD3D12Model@@V?$allocator@PEAVD3D12Model@@@std@@@std@@AEBAXPEAPEAVD3D12Model@@0@Z ; std::vector<D3D12Model *,std::allocator<D3D12Model *> >::_Orphan_range
  00350	90		 npad	 1
$LN3@Insert_cou:

; 1219 :             _ASAN_VECTOR_RELEASE_GUARD;
; 1220 :         }
; 1221 :     }

  00351	48 8b 8d d8 00
	00 00		 mov	 rcx, QWORD PTR _Where$[rbp]
  00358	e8 00 00 00 00	 call	 ??1?$_Vector_const_iterator@V?$_Vector_val@U?$_Simple_types@PEAVD3D12Model@@@std@@@std@@@std@@QEAA@XZ
  0035d	48 8d a5 c0 00
	00 00		 lea	 rsp, QWORD PTR [rbp+192]
  00364	5d		 pop	 rbp
  00365	c3		 ret	 0
$LN38@Insert_cou:
??$_Insert_counted_range@PEAPEAVD3D12Model@@@?$vector@PEAVD3D12Model@@V?$allocator@PEAVD3D12Model@@@std@@@std@@AEAAXV?$_Vector_const_iterator@V?$_Vector_val@U?$_Simple_types@PEAVD3D12Model@@@std@@@std@@@1@PEAPEAVD3D12Model@@_K@Z ENDP ; std::vector<D3D12Model *,std::allocator<D3D12Model *> >::_Insert_counted_range<D3D12Model * *>
_TEXT	ENDS
; Function compile flags: /Odtp /ZI
;	COMDAT text$x
text$x	SEGMENT
_Whereptr$ = 0
_Al$ = 8
_My_data$ = 16
_Mylast$ = 24
_Oldfirst$ = 32
_Oldlast$ = 40
_Unused_capacity$ = 48
_Oldsize$1 = 56
_Newsize$2 = 64
_Newcapacity$3 = 72
_Newvec$4 = 80
_Whereoff$5 = 88
_Constructed_last$6 = 96
_Constructed_first$7 = 104
_Affected_elements$8 = 112
_Relocated$9 = 120
this$ = 208
_Where$ = 216
_First$ = 224
_Count$ = 232
?dtor$0@?0???$_Insert_counted_range@PEAPEAVD3D12Model@@@?$vector@PEAVD3D12Model@@V?$allocator@PEAVD3D12Model@@@std@@@std@@AEAAXV?$_Vector_const_iterator@V?$_Vector_val@U?$_Simple_types@PEAVD3D12Model@@@std@@@std@@@1@PEAPEAVD3D12Model@@_K@Z@4HA PROC ; `std::vector<D3D12Model *,std::allocator<D3D12Model *> >::_Insert_counted_range<D3D12Model * *>'::`1'::dtor$0
  00000	40 55		 push	 rbp
  00002	48 83 ec 20	 sub	 rsp, 32			; 00000020H
  00006	48 8d 6a 20	 lea	 rbp, QWORD PTR [rdx+32]
  0000a	48 8b 8d d8 00
	00 00		 mov	 rcx, QWORD PTR _Where$[rbp]
  00011	e8 00 00 00 00	 call	 ??1?$_Vector_const_iterator@V?$_Vector_val@U?$_Simple_types@PEAVD3D12Model@@@std@@@std@@@std@@QEAA@XZ
  00016	48 83 c4 20	 add	 rsp, 32			; 00000020H
  0001a	5d		 pop	 rbp
  0001b	c3		 ret	 0
?dtor$0@?0???$_Insert_counted_range@PEAPEAVD3D12Model@@@?$vector@PEAVD3D12Model@@V?$allocator@PEAVD3D12Model@@@std@@@std@@AEAAXV?$_Vector_const_iterator@V?$_Vector_val@U?$_Simple_types@PEAVD3D12Model@@@std@@@std@@@1@PEAPEAVD3D12Model@@_K@Z@4HA ENDP ; `std::vector<D3D12Model *,std::allocator<D3D12Model *> >::_Insert_counted_range<D3D12Model * *>'::`1'::dtor$0
text$x	ENDS
; Function compile flags: /Odtp /ZI
;	COMDAT text$x
text$x	SEGMENT
_Whereptr$ = 0
_Al$ = 8
_My_data$ = 16
_Mylast$ = 24
_Oldfirst$ = 32
_Oldlast$ = 40
_Unused_capacity$ = 48
_Oldsize$1 = 56
_Newsize$2 = 64
_Newcapacity$3 = 72
_Newvec$4 = 80
_Whereoff$5 = 88
_Constructed_last$6 = 96
_Constructed_first$7 = 104
_Affected_elements$8 = 112
_Relocated$9 = 120
this$ = 208
_Where$ = 216
_First$ = 224
_Count$ = 232
?catch$1@?0???$_Insert_counted_range@PEAPEAVD3D12Model@@@?$vector@PEAVD3D12Model@@V?$allocator@PEAVD3D12Model@@@std@@@std@@AEAAXV?$_Vector_const_iterator@V?$_Vector_val@U?$_Simple_types@PEAVD3D12Model@@@std@@@std@@@1@PEAPEAVD3D12Model@@_K@Z@4HA PROC ; `std::vector<D3D12Model *,std::allocator<D3D12Model *> >::_Insert_counted_range<D3D12Model * *>'::`1'::catch$1

; 1153 :             _CATCH_ALL

  00000	48 89 54 24 10	 mov	 QWORD PTR [rsp+16], rdx
  00005	55		 push	 rbp
  00006	48 83 ec 20	 sub	 rsp, 32			; 00000020H
  0000a	48 8d 6a 20	 lea	 rbp, QWORD PTR [rdx+32]
__catch$??$_Insert_counted_range@PEAPEAVD3D12Model@@@?$vector@PEAVD3D12Model@@V?$allocator@PEAVD3D12Model@@@std@@@std@@AEAAXV?$_Vector_const_iterator@V?$_Vector_val@U?$_Simple_types@PEAVD3D12Model@@@std@@@std@@@1@PEAPEAVD3D12Model@@_K@Z$0:

; 1154 :             _Destroy_range(_Constructed_first, _Constructed_last, _Al);

  0000e	4c 8b 45 08	 mov	 r8, QWORD PTR _Al$[rbp]
  00012	48 8b 55 60	 mov	 rdx, QWORD PTR _Constructed_last$6[rbp]
  00016	48 8b 4d 68	 mov	 rcx, QWORD PTR _Constructed_first$7[rbp]
  0001a	e8 00 00 00 00	 call	 ??$_Destroy_range@V?$allocator@PEAVD3D12Model@@@std@@@std@@YAXPEAPEAVD3D12Model@@QEAPEAV1@AEAV?$allocator@PEAVD3D12Model@@@0@@Z ; std::_Destroy_range<std::allocator<D3D12Model *> >

; 1155 :             _Al.deallocate(_Newvec, _Newcapacity);

  0001f	4c 8b 45 48	 mov	 r8, QWORD PTR _Newcapacity$3[rbp]
  00023	48 8b 55 50	 mov	 rdx, QWORD PTR _Newvec$4[rbp]
  00027	48 8b 4d 08	 mov	 rcx, QWORD PTR _Al$[rbp]
  0002b	e8 00 00 00 00	 call	 ?deallocate@?$allocator@PEAVD3D12Model@@@std@@QEAAXQEAPEAVD3D12Model@@_K@Z ; std::allocator<D3D12Model *>::deallocate

; 1156 :             _RERAISE;

  00030	33 d2		 xor	 edx, edx
  00032	33 c9		 xor	 ecx, ecx
  00034	e8 00 00 00 00	 call	 _CxxThrowException
  00039	90		 npad	 1

; 1157 :             _CATCH_END

  0003a	48 8d 05 00 00
	00 00		 lea	 rax, $LN29@catch$1
  00041	48 83 c4 20	 add	 rsp, 32			; 00000020H
  00045	5d		 pop	 rbp
  00046	c3		 ret	 0
  00047	cc		 int	 3
?catch$1@?0???$_Insert_counted_range@PEAPEAVD3D12Model@@@?$vector@PEAVD3D12Model@@V?$allocator@PEAVD3D12Model@@@std@@@std@@AEAAXV?$_Vector_const_iterator@V?$_Vector_val@U?$_Simple_types@PEAVD3D12Model@@@std@@@std@@@1@PEAPEAVD3D12Model@@_K@Z@4HA ENDP ; `std::vector<D3D12Model *,std::allocator<D3D12Model *> >::_Insert_counted_range<D3D12Model * *>'::`1'::catch$1
text$x	ENDS
; Function compile flags: /Odtp /ZI
;	COMDAT text$x
text$x	SEGMENT
_Whereptr$ = 0
_Al$ = 8
_My_data$ = 16
_Mylast$ = 24
_Oldfirst$ = 32
_Oldlast$ = 40
_Unused_capacity$ = 48
_Oldsize$1 = 56
_Newsize$2 = 64
_Newcapacity$3 = 72
_Newvec$4 = 80
_Whereoff$5 = 88
_Constructed_last$6 = 96
_Constructed_first$7 = 104
_Affected_elements$8 = 112
_Relocated$9 = 120
this$ = 208
_Where$ = 216
_First$ = 224
_Count$ = 232
?catch$3@?0???$_Insert_counted_range@PEAPEAVD3D12Model@@@?$vector@PEAVD3D12Model@@V?$allocator@PEAVD3D12Model@@@std@@@std@@AEAAXV?$_Vector_const_iterator@V?$_Vector_val@U?$_Simple_types@PEAVD3D12Model@@@std@@@std@@@1@PEAPEAVD3D12Model@@_K@Z@4HA PROC ; `std::vector<D3D12Model *,std::allocator<D3D12Model *> >::_Insert_counted_range<D3D12Model * *>'::`1'::catch$3

; 1174 :                 _CATCH_ALL

  00000	48 89 54 24 10	 mov	 QWORD PTR [rsp+16], rdx
  00005	55		 push	 rbp
  00006	48 83 ec 20	 sub	 rsp, 32			; 00000020H
  0000a	48 8d 6a 20	 lea	 rbp, QWORD PTR [rdx+32]
__catch$??$_Insert_counted_range@PEAPEAVD3D12Model@@@?$vector@PEAVD3D12Model@@V?$allocator@PEAVD3D12Model@@@std@@@std@@AEAAXV?$_Vector_const_iterator@V?$_Vector_val@U?$_Simple_types@PEAVD3D12Model@@@std@@@std@@@1@PEAPEAVD3D12Model@@_K@Z$2:

; 1175 :                 // glue the broken pieces back together
; 1176 : 
; 1177 :                 _TRY_BEGIN
; 1178 :                 _Uninitialized_move(_Whereptr + _Count, _Whereptr + 2 * _Count, _Whereptr, _Al);

  0000e	48 8b 85 e8 00
	00 00		 mov	 rax, QWORD PTR _Count$[rbp]
  00015	48 03 c0	 add	 rax, rax
  00018	48 8b 4d 00	 mov	 rcx, QWORD PTR _Whereptr$[rbp]
  0001c	48 8d 04 c1	 lea	 rax, QWORD PTR [rcx+rax*8]
  00020	48 8b 4d 00	 mov	 rcx, QWORD PTR _Whereptr$[rbp]
  00024	48 8b 95 e8 00
	00 00		 mov	 rdx, QWORD PTR _Count$[rbp]
  0002b	48 8d 0c d1	 lea	 rcx, QWORD PTR [rcx+rdx*8]
  0002f	4c 8b 4d 08	 mov	 r9, QWORD PTR _Al$[rbp]
  00033	4c 8b 45 00	 mov	 r8, QWORD PTR _Whereptr$[rbp]
  00037	48 8b d0	 mov	 rdx, rax
  0003a	e8 00 00 00 00	 call	 ??$_Uninitialized_move@PEAPEAVD3D12Model@@V?$allocator@PEAVD3D12Model@@@std@@@std@@YAPEAPEAVD3D12Model@@QEAPEAV1@0PEAPEAV1@AEAV?$allocator@PEAVD3D12Model@@@0@@Z ; std::_Uninitialized_move<D3D12Model * *,std::allocator<D3D12Model *> >
  0003f	90		 npad	 1
  00040	eb 00		 jmp	 SHORT $LN30@catch$3
$LN31@catch$3:
$LN30@catch$3:

; 1179 :                 _CATCH_ALL
; 1180 :                 // vaporize the detached piece
; 1181 :                 _Orphan_range(_Whereptr, _Oldlast);
; 1182 :                 _Destroy_range(_Whereptr + _Count, _Mylast, _Al);
; 1183 :                 _Mylast = _Whereptr;
; 1184 :                 _RERAISE;
; 1185 :                 _CATCH_END
; 1186 : 
; 1187 :                 _STD _Move_unchecked(_Whereptr + 2 * _Count, _Mylast, _Whereptr + _Count);

  00042	48 8b 45 00	 mov	 rax, QWORD PTR _Whereptr$[rbp]
  00046	48 8b 8d e8 00
	00 00		 mov	 rcx, QWORD PTR _Count$[rbp]
  0004d	48 8d 04 c8	 lea	 rax, QWORD PTR [rax+rcx*8]
  00051	48 8b 8d e8 00
	00 00		 mov	 rcx, QWORD PTR _Count$[rbp]
  00058	48 03 c9	 add	 rcx, rcx
  0005b	48 8b 55 00	 mov	 rdx, QWORD PTR _Whereptr$[rbp]
  0005f	48 8d 0c ca	 lea	 rcx, QWORD PTR [rdx+rcx*8]
  00063	4c 8b c0	 mov	 r8, rax
  00066	48 8b 45 18	 mov	 rax, QWORD PTR _Mylast$[rbp]
  0006a	48 8b 10	 mov	 rdx, QWORD PTR [rax]
  0006d	e8 00 00 00 00	 call	 ??$_Move_unchecked@PEAPEAVD3D12Model@@PEAPEAV1@@std@@YAPEAPEAVD3D12Model@@PEAPEAV1@00@Z ; std::_Move_unchecked<D3D12Model * *,D3D12Model * *>

; 1188 :                 _Destroy_range(_Oldlast, _Mylast, _Al);

  00072	4c 8b 45 08	 mov	 r8, QWORD PTR _Al$[rbp]
  00076	48 8b 45 18	 mov	 rax, QWORD PTR _Mylast$[rbp]
  0007a	48 8b 10	 mov	 rdx, QWORD PTR [rax]
  0007d	48 8b 4d 28	 mov	 rcx, QWORD PTR _Oldlast$[rbp]
  00081	e8 00 00 00 00	 call	 ??$_Destroy_range@V?$allocator@PEAVD3D12Model@@@std@@@std@@YAXPEAPEAVD3D12Model@@QEAPEAV1@AEAV?$allocator@PEAVD3D12Model@@@0@@Z ; std::_Destroy_range<std::allocator<D3D12Model *> >

; 1189 :                 _Mylast = _Oldlast;

  00086	48 8b 45 18	 mov	 rax, QWORD PTR _Mylast$[rbp]
  0008a	48 8b 4d 28	 mov	 rcx, QWORD PTR _Oldlast$[rbp]
  0008e	48 89 08	 mov	 QWORD PTR [rax], rcx

; 1190 :                 _RERAISE;

  00091	33 d2		 xor	 edx, edx
  00093	33 c9		 xor	 ecx, ecx
  00095	e8 00 00 00 00	 call	 _CxxThrowException
  0009a	90		 npad	 1

; 1191 :                 _CATCH_END

  0009b	48 8d 05 00 00
	00 00		 lea	 rax, $LN33@catch$3
  000a2	48 83 c4 20	 add	 rsp, 32			; 00000020H
  000a6	5d		 pop	 rbp
  000a7	c3		 ret	 0
  000a8	cc		 int	 3
?catch$3@?0???$_Insert_counted_range@PEAPEAVD3D12Model@@@?$vector@PEAVD3D12Model@@V?$allocator@PEAVD3D12Model@@@std@@@std@@AEAAXV?$_Vector_const_iterator@V?$_Vector_val@U?$_Simple_types@PEAVD3D12Model@@@std@@@std@@@1@PEAPEAVD3D12Model@@_K@Z@4HA ENDP ; `std::vector<D3D12Model *,std::allocator<D3D12Model *> >::_Insert_counted_range<D3D12Model * *>'::`1'::catch$3
text$x	ENDS
; Function compile flags: /Odtp /ZI
;	COMDAT text$x
text$x	SEGMENT
_Whereptr$ = 0
_Al$ = 8
_My_data$ = 16
_Mylast$ = 24
_Oldfirst$ = 32
_Oldlast$ = 40
_Unused_capacity$ = 48
_Oldsize$1 = 56
_Newsize$2 = 64
_Newcapacity$3 = 72
_Newvec$4 = 80
_Whereoff$5 = 88
_Constructed_last$6 = 96
_Constructed_first$7 = 104
_Affected_elements$8 = 112
_Relocated$9 = 120
this$ = 208
_Where$ = 216
_First$ = 224
_Count$ = 232
?catch$2@?0???$_Insert_counted_range@PEAPEAVD3D12Model@@@?$vector@PEAVD3D12Model@@V?$allocator@PEAVD3D12Model@@@std@@@std@@AEAAXV?$_Vector_const_iterator@V?$_Vector_val@U?$_Simple_types@PEAVD3D12Model@@@std@@@std@@@1@PEAPEAVD3D12Model@@_K@Z@4HA PROC ; `std::vector<D3D12Model *,std::allocator<D3D12Model *> >::_Insert_counted_range<D3D12Model * *>'::`1'::catch$2

; 1179 :                 _CATCH_ALL

  00000	48 89 54 24 10	 mov	 QWORD PTR [rsp+16], rdx
  00005	55		 push	 rbp
  00006	48 83 ec 20	 sub	 rsp, 32			; 00000020H
  0000a	48 8d 6a 20	 lea	 rbp, QWORD PTR [rdx+32]
__catch$??$_Insert_counted_range@PEAPEAVD3D12Model@@@?$vector@PEAVD3D12Model@@V?$allocator@PEAVD3D12Model@@@std@@@std@@AEAAXV?$_Vector_const_iterator@V?$_Vector_val@U?$_Simple_types@PEAVD3D12Model@@@std@@@std@@@1@PEAPEAVD3D12Model@@_K@Z$3:

; 1180 :                 // vaporize the detached piece
; 1181 :                 _Orphan_range(_Whereptr, _Oldlast);

  0000e	4c 8b 45 28	 mov	 r8, QWORD PTR _Oldlast$[rbp]
  00012	48 8b 55 00	 mov	 rdx, QWORD PTR _Whereptr$[rbp]
  00016	48 8b 8d d0 00
	00 00		 mov	 rcx, QWORD PTR this$[rbp]
  0001d	e8 00 00 00 00	 call	 ?_Orphan_range@?$vector@PEAVD3D12Model@@V?$allocator@PEAVD3D12Model@@@std@@@std@@AEBAXPEAPEAVD3D12Model@@0@Z ; std::vector<D3D12Model *,std::allocator<D3D12Model *> >::_Orphan_range

; 1182 :                 _Destroy_range(_Whereptr + _Count, _Mylast, _Al);

  00022	48 8b 45 00	 mov	 rax, QWORD PTR _Whereptr$[rbp]
  00026	48 8b 8d e8 00
	00 00		 mov	 rcx, QWORD PTR _Count$[rbp]
  0002d	48 8d 04 c8	 lea	 rax, QWORD PTR [rax+rcx*8]
  00031	4c 8b 45 08	 mov	 r8, QWORD PTR _Al$[rbp]
  00035	48 8b 4d 18	 mov	 rcx, QWORD PTR _Mylast$[rbp]
  00039	48 8b 11	 mov	 rdx, QWORD PTR [rcx]
  0003c	48 8b c8	 mov	 rcx, rax
  0003f	e8 00 00 00 00	 call	 ??$_Destroy_range@V?$allocator@PEAVD3D12Model@@@std@@@std@@YAXPEAPEAVD3D12Model@@QEAPEAV1@AEAV?$allocator@PEAVD3D12Model@@@0@@Z ; std::_Destroy_range<std::allocator<D3D12Model *> >

; 1183 :                 _Mylast = _Whereptr;

  00044	48 8b 45 18	 mov	 rax, QWORD PTR _Mylast$[rbp]
  00048	48 8b 4d 00	 mov	 rcx, QWORD PTR _Whereptr$[rbp]
  0004c	48 89 08	 mov	 QWORD PTR [rax], rcx

; 1184 :                 _RERAISE;

  0004f	33 d2		 xor	 edx, edx
  00051	33 c9		 xor	 ecx, ecx
  00053	e8 00 00 00 00	 call	 _CxxThrowException
  00058	90		 npad	 1

; 1185 :                 _CATCH_END

  00059	48 8d 05 00 00
	00 00		 lea	 rax, $LN31@catch$2
  00060	48 83 c4 20	 add	 rsp, 32			; 00000020H
  00064	5d		 pop	 rbp
  00065	c3		 ret	 0
  00066	cc		 int	 3
?catch$2@?0???$_Insert_counted_range@PEAPEAVD3D12Model@@@?$vector@PEAVD3D12Model@@V?$allocator@PEAVD3D12Model@@@std@@@std@@AEAAXV?$_Vector_const_iterator@V?$_Vector_val@U?$_Simple_types@PEAVD3D12Model@@@std@@@std@@@1@PEAPEAVD3D12Model@@_K@Z@4HA ENDP ; `std::vector<D3D12Model *,std::allocator<D3D12Model *> >::_Insert_counted_range<D3D12Model * *>'::`1'::catch$2
text$x	ENDS
; Function compile flags: /Odtp /ZI
;	COMDAT text$x
text$x	SEGMENT
_Whereptr$ = 0
_Al$ = 8
_My_data$ = 16
_Mylast$ = 24
_Oldfirst$ = 32
_Oldlast$ = 40
_Unused_capacity$ = 48
_Oldsize$1 = 56
_Newsize$2 = 64
_Newcapacity$3 = 72
_Newvec$4 = 80
_Whereoff$5 = 88
_Constructed_last$6 = 96
_Constructed_first$7 = 104
_Affected_elements$8 = 112
_Relocated$9 = 120
this$ = 208
_Where$ = 216
_First$ = 224
_Count$ = 232
?catch$5@?0???$_Insert_counted_range@PEAPEAVD3D12Model@@@?$vector@PEAVD3D12Model@@V?$allocator@PEAVD3D12Model@@@std@@@std@@AEAAXV?$_Vector_const_iterator@V?$_Vector_val@U?$_Simple_types@PEAVD3D12Model@@@std@@@std@@@1@PEAPEAVD3D12Model@@_K@Z@4HA PROC ; `std::vector<D3D12Model *,std::allocator<D3D12Model *> >::_Insert_counted_range<D3D12Model * *>'::`1'::catch$5

; 1199 :                 _CATCH_ALL

  00000	48 89 54 24 10	 mov	 QWORD PTR [rsp+16], rdx
  00005	55		 push	 rbp
  00006	48 83 ec 20	 sub	 rsp, 32			; 00000020H
  0000a	48 8d 6a 20	 lea	 rbp, QWORD PTR [rdx+32]
__catch$??$_Insert_counted_range@PEAPEAVD3D12Model@@@?$vector@PEAVD3D12Model@@V?$allocator@PEAVD3D12Model@@@std@@@std@@AEAAXV?$_Vector_const_iterator@V?$_Vector_val@U?$_Simple_types@PEAVD3D12Model@@@std@@@std@@@1@PEAPEAVD3D12Model@@_K@Z$6:

; 1200 :                 // glue the broken pieces back together
; 1201 : 
; 1202 :                 _TRY_BEGIN
; 1203 :                 _Uninitialized_move(_Relocated, _Mylast, _Whereptr, _Al);

  0000e	4c 8b 4d 08	 mov	 r9, QWORD PTR _Al$[rbp]
  00012	4c 8b 45 00	 mov	 r8, QWORD PTR _Whereptr$[rbp]
  00016	48 8b 45 18	 mov	 rax, QWORD PTR _Mylast$[rbp]
  0001a	48 8b 10	 mov	 rdx, QWORD PTR [rax]
  0001d	48 8b 4d 78	 mov	 rcx, QWORD PTR _Relocated$9[rbp]
  00021	e8 00 00 00 00	 call	 ??$_Uninitialized_move@PEAPEAVD3D12Model@@V?$allocator@PEAVD3D12Model@@@std@@@std@@YAPEAPEAVD3D12Model@@QEAPEAV1@0PEAPEAV1@AEAV?$allocator@PEAVD3D12Model@@@0@@Z ; std::_Uninitialized_move<D3D12Model * *,std::allocator<D3D12Model *> >
  00026	90		 npad	 1
  00027	eb 00		 jmp	 SHORT $LN34@catch$5
$LN35@catch$5:
$LN34@catch$5:

; 1204 :                 _CATCH_ALL
; 1205 :                 // vaporize the detached piece
; 1206 :                 _Orphan_range(_Whereptr, _Oldlast);
; 1207 :                 _Destroy_range(_Relocated, _Mylast, _Al);
; 1208 :                 _Mylast = _Whereptr;
; 1209 :                 _RERAISE;
; 1210 :                 _CATCH_END
; 1211 : 
; 1212 :                 _Destroy_range(_Relocated, _Mylast, _Al);

  00029	4c 8b 45 08	 mov	 r8, QWORD PTR _Al$[rbp]
  0002d	48 8b 45 18	 mov	 rax, QWORD PTR _Mylast$[rbp]
  00031	48 8b 10	 mov	 rdx, QWORD PTR [rax]
  00034	48 8b 4d 78	 mov	 rcx, QWORD PTR _Relocated$9[rbp]
  00038	e8 00 00 00 00	 call	 ??$_Destroy_range@V?$allocator@PEAVD3D12Model@@@std@@@std@@YAXPEAPEAVD3D12Model@@QEAPEAV1@AEAV?$allocator@PEAVD3D12Model@@@0@@Z ; std::_Destroy_range<std::allocator<D3D12Model *> >

; 1213 :                 _Mylast = _Oldlast;

  0003d	48 8b 45 18	 mov	 rax, QWORD PTR _Mylast$[rbp]
  00041	48 8b 4d 28	 mov	 rcx, QWORD PTR _Oldlast$[rbp]
  00045	48 89 08	 mov	 QWORD PTR [rax], rcx

; 1214 :                 _RERAISE;

  00048	33 d2		 xor	 edx, edx
  0004a	33 c9		 xor	 ecx, ecx
  0004c	e8 00 00 00 00	 call	 _CxxThrowException
  00051	90		 npad	 1

; 1215 :                 _CATCH_END

  00052	48 8d 05 00 00
	00 00		 lea	 rax, $LN37@catch$5
  00059	48 83 c4 20	 add	 rsp, 32			; 00000020H
  0005d	5d		 pop	 rbp
  0005e	c3		 ret	 0
  0005f	cc		 int	 3
?catch$5@?0???$_Insert_counted_range@PEAPEAVD3D12Model@@@?$vector@PEAVD3D12Model@@V?$allocator@PEAVD3D12Model@@@std@@@std@@AEAAXV?$_Vector_const_iterator@V?$_Vector_val@U?$_Simple_types@PEAVD3D12Model@@@std@@@std@@@1@PEAPEAVD3D12Model@@_K@Z@4HA ENDP ; `std::vector<D3D12Model *,std::allocator<D3D12Model *> >::_Insert_counted_range<D3D12Model * *>'::`1'::catch$5
text$x	ENDS
; Function compile flags: /Odtp /ZI
;	COMDAT text$x
text$x	SEGMENT
_Whereptr$ = 0
_Al$ = 8
_My_data$ = 16
_Mylast$ = 24
_Oldfirst$ = 32
_Oldlast$ = 40
_Unused_capacity$ = 48
_Oldsize$1 = 56
_Newsize$2 = 64
_Newcapacity$3 = 72
_Newvec$4 = 80
_Whereoff$5 = 88
_Constructed_last$6 = 96
_Constructed_first$7 = 104
_Affected_elements$8 = 112
_Relocated$9 = 120
this$ = 208
_Where$ = 216
_First$ = 224
_Count$ = 232
?catch$4@?0???$_Insert_counted_range@PEAPEAVD3D12Model@@@?$vector@PEAVD3D12Model@@V?$allocator@PEAVD3D12Model@@@std@@@std@@AEAAXV?$_Vector_const_iterator@V?$_Vector_val@U?$_Simple_types@PEAVD3D12Model@@@std@@@std@@@1@PEAPEAVD3D12Model@@_K@Z@4HA PROC ; `std::vector<D3D12Model *,std::allocator<D3D12Model *> >::_Insert_counted_range<D3D12Model * *>'::`1'::catch$4

; 1204 :                 _CATCH_ALL

  00000	48 89 54 24 10	 mov	 QWORD PTR [rsp+16], rdx
  00005	55		 push	 rbp
  00006	48 83 ec 20	 sub	 rsp, 32			; 00000020H
  0000a	48 8d 6a 20	 lea	 rbp, QWORD PTR [rdx+32]
__catch$??$_Insert_counted_range@PEAPEAVD3D12Model@@@?$vector@PEAVD3D12Model@@V?$allocator@PEAVD3D12Model@@@std@@@std@@AEAAXV?$_Vector_const_iterator@V?$_Vector_val@U?$_Simple_types@PEAVD3D12Model@@@std@@@std@@@1@PEAPEAVD3D12Model@@_K@Z$7:

; 1205 :                 // vaporize the detached piece
; 1206 :                 _Orphan_range(_Whereptr, _Oldlast);

  0000e	4c 8b 45 28	 mov	 r8, QWORD PTR _Oldlast$[rbp]
  00012	48 8b 55 00	 mov	 rdx, QWORD PTR _Whereptr$[rbp]
  00016	48 8b 8d d0 00
	00 00		 mov	 rcx, QWORD PTR this$[rbp]
  0001d	e8 00 00 00 00	 call	 ?_Orphan_range@?$vector@PEAVD3D12Model@@V?$allocator@PEAVD3D12Model@@@std@@@std@@AEBAXPEAPEAVD3D12Model@@0@Z ; std::vector<D3D12Model *,std::allocator<D3D12Model *> >::_Orphan_range

; 1207 :                 _Destroy_range(_Relocated, _Mylast, _Al);

  00022	4c 8b 45 08	 mov	 r8, QWORD PTR _Al$[rbp]
  00026	48 8b 45 18	 mov	 rax, QWORD PTR _Mylast$[rbp]
  0002a	48 8b 10	 mov	 rdx, QWORD PTR [rax]
  0002d	48 8b 4d 78	 mov	 rcx, QWORD PTR _Relocated$9[rbp]
  00031	e8 00 00 00 00	 call	 ??$_Destroy_range@V?$allocator@PEAVD3D12Model@@@std@@@std@@YAXPEAPEAVD3D12Model@@QEAPEAV1@AEAV?$allocator@PEAVD3D12Model@@@0@@Z ; std::_Destroy_range<std::allocator<D3D12Model *> >

; 1208 :                 _Mylast = _Whereptr;

  00036	48 8b 45 18	 mov	 rax, QWORD PTR _Mylast$[rbp]
  0003a	48 8b 4d 00	 mov	 rcx, QWORD PTR _Whereptr$[rbp]
  0003e	48 89 08	 mov	 QWORD PTR [rax], rcx

; 1209 :                 _RERAISE;

  00041	33 d2		 xor	 edx, edx
  00043	33 c9		 xor	 ecx, ecx
  00045	e8 00 00 00 00	 call	 _CxxThrowException
  0004a	90		 npad	 1

; 1210 :                 _CATCH_END

  0004b	48 8d 05 00 00
	00 00		 lea	 rax, $LN35@catch$4
  00052	48 83 c4 20	 add	 rsp, 32			; 00000020H
  00056	5d		 pop	 rbp
  00057	c3		 ret	 0
  00058	cc		 int	 3
?catch$4@?0???$_Insert_counted_range@PEAPEAVD3D12Model@@@?$vector@PEAVD3D12Model@@V?$allocator@PEAVD3D12Model@@@std@@@std@@AEAAXV?$_Vector_const_iterator@V?$_Vector_val@U?$_Simple_types@PEAVD3D12Model@@@std@@@std@@@1@PEAPEAVD3D12Model@@_K@Z@4HA ENDP ; `std::vector<D3D12Model *,std::allocator<D3D12Model *> >::_Insert_counted_range<D3D12Model * *>'::`1'::catch$4
text$x	ENDS
; Function compile flags: /Odtp /ZI
; File C:\Program Files\Microsoft Visual Studio\2022\Preview\VC\Tools\MSVC\14.38.33030\include\xmemory
;	COMDAT ??$_Convert_size@_K_K@std@@YA_K_K@Z
_TEXT	SEGMENT
_Len$ = 80
??$_Convert_size@_K_K@std@@YA_K_K@Z PROC		; std::_Convert_size<unsigned __int64,unsigned __int64>, COMDAT

; 1108 :     sizeof(_Unsigned_type) <= sizeof(_Size_type)) {

$LN3:
  00000	48 89 4c 24 08	 mov	 QWORD PTR [rsp+8], rcx
  00005	55		 push	 rbp
  00006	48 83 ec 60	 sub	 rsp, 96			; 00000060H
  0000a	48 8d 6c 24 20	 lea	 rbp, QWORD PTR [rsp+32]
  0000f	48 8d 0d 00 00
	00 00		 lea	 rcx, OFFSET FLAT:__67F55BEA_xmemory
  00016	e8 00 00 00 00	 call	 __CheckForDebuggerJustMyCode

; 1109 :     // convert _Unsigned_type to _Size_type, avoiding truncation
; 1110 :     _STL_INTERNAL_STATIC_ASSERT(_Unsigned_type(-1) > 0);
; 1111 :     _STL_INTERNAL_STATIC_ASSERT(_Size_type(-1) > 0);
; 1112 : 
; 1113 :     if constexpr (sizeof(_Unsigned_type) > sizeof(_Size_type)) {
; 1114 :         if (_Len > (numeric_limits<_Size_type>::max)()) {
; 1115 :             _Xlength_error("size is too long for _Size_type");
; 1116 :         }
; 1117 :     }
; 1118 : 
; 1119 :     return static_cast<_Size_type>(_Len);

  0001b	48 8b 45 50	 mov	 rax, QWORD PTR _Len$[rbp]

; 1120 : }

  0001f	48 8d 65 40	 lea	 rsp, QWORD PTR [rbp+64]
  00023	5d		 pop	 rbp
  00024	c3		 ret	 0
??$_Convert_size@_K_K@std@@YA_K_K@Z ENDP		; std::_Convert_size<unsigned __int64,unsigned __int64>
_TEXT	ENDS
; Function compile flags: /Odtp /ZI
; File C:\Program Files\Microsoft Visual Studio\2022\Preview\VC\Tools\MSVC\14.38.33030\include\xutility
;	COMDAT ??$distance@PEAPEAVD3D12Model@@@std@@YA_JPEAPEAVD3D12Model@@0@Z
_TEXT	SEGMENT
_First$ = 80
_Last$ = 88
??$distance@PEAPEAVD3D12Model@@@std@@YA_JPEAPEAVD3D12Model@@0@Z PROC ; std::distance<D3D12Model * *>, COMDAT

; 1436 : _NODISCARD _CONSTEXPR17 _Iter_diff_t<_InIt> distance(_InIt _First, _InIt _Last) {

$LN3:
  00000	48 89 54 24 10	 mov	 QWORD PTR [rsp+16], rdx
  00005	48 89 4c 24 08	 mov	 QWORD PTR [rsp+8], rcx
  0000a	55		 push	 rbp
  0000b	48 83 ec 60	 sub	 rsp, 96			; 00000060H
  0000f	48 8d 6c 24 20	 lea	 rbp, QWORD PTR [rsp+32]
  00014	48 8d 0d 00 00
	00 00		 lea	 rcx, OFFSET FLAT:__B7320FC0_xutility
  0001b	e8 00 00 00 00	 call	 __CheckForDebuggerJustMyCode

; 1437 :     if constexpr (_Is_ranges_random_iter_v<_InIt>) {
; 1438 :         return _Last - _First; // assume the iterator will do debug checking

  00020	48 8b 45 50	 mov	 rax, QWORD PTR _First$[rbp]
  00024	48 8b 4d 58	 mov	 rcx, QWORD PTR _Last$[rbp]
  00028	48 2b c8	 sub	 rcx, rax
  0002b	48 8b c1	 mov	 rax, rcx
  0002e	48 c1 f8 03	 sar	 rax, 3

; 1439 :     } else {
; 1440 :         _Adl_verify_range(_First, _Last);
; 1441 :         auto _UFirst             = _Get_unwrapped(_First);
; 1442 :         const auto _ULast        = _Get_unwrapped(_Last);
; 1443 :         _Iter_diff_t<_InIt> _Off = 0;
; 1444 :         for (; _UFirst != _ULast; ++_UFirst) {
; 1445 :             ++_Off;
; 1446 :         }
; 1447 : 
; 1448 :         return _Off;
; 1449 :     }
; 1450 : }

  00032	48 8d 65 40	 lea	 rsp, QWORD PTR [rbp+64]
  00036	5d		 pop	 rbp
  00037	c3		 ret	 0
??$distance@PEAPEAVD3D12Model@@@std@@YA_JPEAPEAVD3D12Model@@0@Z ENDP ; std::distance<D3D12Model * *>
_TEXT	ENDS
; Function compile flags: /Odtp /ZI
; File C:\Program Files\Microsoft Visual Studio\2022\Preview\VC\Tools\MSVC\14.38.33030\include\xutility
;	COMDAT ??$_Get_unwrapped@AEAV?$_Vector_iterator@V?$_Vector_val@U?$_Simple_types@PEAVD3D12Model@@@std@@@std@@@std@@@std@@YA?A_TAEAV?$_Vector_iterator@V?$_Vector_val@U?$_Simple_types@PEAVD3D12Model@@@std@@@std@@@0@@Z
_TEXT	SEGMENT
_It$ = 80
??$_Get_unwrapped@AEAV?$_Vector_iterator@V?$_Vector_val@U?$_Simple_types@PEAVD3D12Model@@@std@@@std@@@std@@@std@@YA?A_TAEAV?$_Vector_iterator@V?$_Vector_val@U?$_Simple_types@PEAVD3D12Model@@@std@@@std@@@0@@Z PROC ; std::_Get_unwrapped<std::_Vector_iterator<std::_Vector_val<std::_Simple_types<D3D12Model *> > > &>, COMDAT

; 1171 :     !_Unwrappable_v<_Iter> || _Has_nothrow_unwrapped<_Iter>) {

$LN3:
  00000	48 89 4c 24 08	 mov	 QWORD PTR [rsp+8], rcx
  00005	55		 push	 rbp
  00006	48 83 ec 60	 sub	 rsp, 96			; 00000060H
  0000a	48 8d 6c 24 20	 lea	 rbp, QWORD PTR [rsp+32]
  0000f	48 8d 0d 00 00
	00 00		 lea	 rcx, OFFSET FLAT:__B7320FC0_xutility
  00016	e8 00 00 00 00	 call	 __CheckForDebuggerJustMyCode

; 1172 :     // unwrap an iterator previously subjected to _Adl_verify_range or otherwise validated
; 1173 :     if constexpr (is_pointer_v<decay_t<_Iter>>) { // special-case pointers and arrays
; 1174 :         return _It + 0;
; 1175 :     } else if constexpr (_Unwrappable_v<_Iter>) {
; 1176 :         return static_cast<_Iter&&>(_It)._Unwrapped();

  0001b	48 8b 4d 50	 mov	 rcx, QWORD PTR _It$[rbp]
  0001f	e8 00 00 00 00	 call	 ?_Unwrapped@?$_Vector_iterator@V?$_Vector_val@U?$_Simple_types@PEAVD3D12Model@@@std@@@std@@@std@@QEBAPEAPEAVD3D12Model@@XZ ; std::_Vector_iterator<std::_Vector_val<std::_Simple_types<D3D12Model *> > >::_Unwrapped

; 1177 :     } else {
; 1178 :         return static_cast<_Iter&&>(_It);
; 1179 :     }
; 1180 : }

  00024	48 8d 65 40	 lea	 rsp, QWORD PTR [rbp+64]
  00028	5d		 pop	 rbp
  00029	c3		 ret	 0
??$_Get_unwrapped@AEAV?$_Vector_iterator@V?$_Vector_val@U?$_Simple_types@PEAVD3D12Model@@@std@@@std@@@std@@@std@@YA?A_TAEAV?$_Vector_iterator@V?$_Vector_val@U?$_Simple_types@PEAVD3D12Model@@@std@@@std@@@0@@Z ENDP ; std::_Get_unwrapped<std::_Vector_iterator<std::_Vector_val<std::_Simple_types<D3D12Model *> > > &>
_TEXT	ENDS
; Function compile flags: /Odtp /ZI
; File C:\Program Files\Microsoft Visual Studio\2022\Preview\VC\Tools\MSVC\14.38.33030\include\xutility
;	COMDAT ??$_Adl_verify_range@V?$_Vector_iterator@V?$_Vector_val@U?$_Simple_types@PEAVD3D12Model@@@std@@@std@@@std@@V12@@std@@YAXAEBV?$_Vector_iterator@V?$_Vector_val@U?$_Simple_types@PEAVD3D12Model@@@std@@@std@@@0@0@Z
_TEXT	SEGMENT
_First$ = 80
_Last$ = 88
??$_Adl_verify_range@V?$_Vector_iterator@V?$_Vector_val@U?$_Simple_types@PEAVD3D12Model@@@std@@@std@@@std@@V12@@std@@YAXAEBV?$_Vector_iterator@V?$_Vector_val@U?$_Simple_types@PEAVD3D12Model@@@std@@@std@@@0@0@Z PROC ; std::_Adl_verify_range<std::_Vector_iterator<std::_Vector_val<std::_Simple_types<D3D12Model *> > >,std::_Vector_iterator<std::_Vector_val<std::_Simple_types<D3D12Model *> > > >, COMDAT

; 1148 : constexpr void _Adl_verify_range(const _Iter& _First, const _Sentinel& _Last) {

$LN3:
  00000	48 89 54 24 10	 mov	 QWORD PTR [rsp+16], rdx
  00005	48 89 4c 24 08	 mov	 QWORD PTR [rsp+8], rcx
  0000a	55		 push	 rbp
  0000b	48 83 ec 60	 sub	 rsp, 96			; 00000060H
  0000f	48 8d 6c 24 20	 lea	 rbp, QWORD PTR [rsp+32]
  00014	48 8d 0d 00 00
	00 00		 lea	 rcx, OFFSET FLAT:__B7320FC0_xutility
  0001b	e8 00 00 00 00	 call	 __CheckForDebuggerJustMyCode

; 1149 :     // check that [_First, _Last) forms an iterator range
; 1150 :     if constexpr (_Range_verifiable_v<_Iter, _Sentinel>) {
; 1151 :         _Verify_range(_First, _Last);

  00020	48 8b 55 58	 mov	 rdx, QWORD PTR _Last$[rbp]
  00024	48 8b 4d 50	 mov	 rcx, QWORD PTR _First$[rbp]
  00028	e8 00 00 00 00	 call	 ?_Verify_range@std@@YAXAEBV?$_Vector_const_iterator@V?$_Vector_val@U?$_Simple_types@PEAVD3D12Model@@@std@@@std@@@1@0@Z ; std::_Verify_range

; 1152 :     }
; 1153 : }

  0002d	48 8d 65 40	 lea	 rsp, QWORD PTR [rbp+64]
  00031	5d		 pop	 rbp
  00032	c3		 ret	 0
??$_Adl_verify_range@V?$_Vector_iterator@V?$_Vector_val@U?$_Simple_types@PEAVD3D12Model@@@std@@@std@@@std@@V12@@std@@YAXAEBV?$_Vector_iterator@V?$_Vector_val@U?$_Simple_types@PEAVD3D12Model@@@std@@@std@@@0@0@Z ENDP ; std::_Adl_verify_range<std::_Vector_iterator<std::_Vector_val<std::_Simple_types<D3D12Model *> > >,std::_Vector_iterator<std::_Vector_val<std::_Simple_types<D3D12Model *> > > >
_TEXT	ENDS
; Function compile flags: /Odtp /ZI
; File C:\Program Files\Microsoft Visual Studio\2022\Preview\VC\Tools\MSVC\14.38.33030\include\xmemory
;	COMDAT ??$_Deallocate@$0BA@$0A@@std@@YAXPEAX_K@Z
_TEXT	SEGMENT
_Ptr$ = 80
_Bytes$ = 88
??$_Deallocate@$0BA@$0A@@std@@YAXPEAX_K@Z PROC		; std::_Deallocate<16,0>, COMDAT

; 251  : _CONSTEXPR20 void _Deallocate(void* _Ptr, size_t _Bytes) noexcept {

$LN6:
  00000	48 89 54 24 10	 mov	 QWORD PTR [rsp+16], rdx
  00005	48 89 4c 24 08	 mov	 QWORD PTR [rsp+8], rcx
  0000a	55		 push	 rbp
  0000b	48 83 ec 60	 sub	 rsp, 96			; 00000060H
  0000f	48 8d 6c 24 20	 lea	 rbp, QWORD PTR [rsp+32]
  00014	48 8d 0d 00 00
	00 00		 lea	 rcx, OFFSET FLAT:__67F55BEA_xmemory
  0001b	e8 00 00 00 00	 call	 __CheckForDebuggerJustMyCode

; 252  :     // deallocate storage allocated by _Allocate when !_HAS_ALIGNED_NEW || _Align <= __STDCPP_DEFAULT_NEW_ALIGNMENT__
; 253  : #if _HAS_CXX20 // TRANSITION, GH-1532
; 254  :     if (_STD is_constant_evaluated()) {

  00020	e8 00 00 00 00	 call	 ?is_constant_evaluated@std@@YA_NXZ ; std::is_constant_evaluated
  00025	0f b6 c0	 movzx	 eax, al
  00028	85 c0		 test	 eax, eax
  0002a	74 0b		 je	 SHORT $LN2@Deallocate

; 255  :         ::operator delete(_Ptr);

  0002c	48 8b 4d 50	 mov	 rcx, QWORD PTR _Ptr$[rbp]
  00030	e8 00 00 00 00	 call	 ??3@YAXPEAX@Z		; operator delete

; 256  :     } else

  00035	eb 25		 jmp	 SHORT $LN3@Deallocate
$LN2@Deallocate:

; 257  : #endif // _HAS_CXX20
; 258  :     {
; 259  : #if defined(_M_IX86) || defined(_M_X64)
; 260  :         if (_Bytes >= _Big_allocation_threshold) { // boost the alignment of big allocations to help autovectorization

  00037	48 81 7d 58 00
	10 00 00	 cmp	 QWORD PTR _Bytes$[rbp], 4096 ; 00001000H
  0003f	72 0d		 jb	 SHORT $LN4@Deallocate

; 261  :             _Adjust_manually_vector_aligned(_Ptr, _Bytes);

  00041	48 8d 55 58	 lea	 rdx, QWORD PTR _Bytes$[rbp]
  00045	48 8d 4d 50	 lea	 rcx, QWORD PTR _Ptr$[rbp]
  00049	e8 00 00 00 00	 call	 ?_Adjust_manually_vector_aligned@std@@YAXAEAPEAXAEA_K@Z ; std::_Adjust_manually_vector_aligned
$LN4@Deallocate:

; 262  :         }
; 263  : #endif // defined(_M_IX86) || defined(_M_X64)
; 264  :         ::operator delete(_Ptr, _Bytes);

  0004e	48 8b 55 58	 mov	 rdx, QWORD PTR _Bytes$[rbp]
  00052	48 8b 4d 50	 mov	 rcx, QWORD PTR _Ptr$[rbp]
  00056	e8 00 00 00 00	 call	 ??3@YAXPEAX_K@Z		; operator delete
  0005b	90		 npad	 1
$LN3@Deallocate:

; 265  :     }
; 266  : }

  0005c	48 8d 65 40	 lea	 rsp, QWORD PTR [rbp+64]
  00060	5d		 pop	 rbp
  00061	c3		 ret	 0
??$_Deallocate@$0BA@$0A@@std@@YAXPEAX_K@Z ENDP		; std::_Deallocate<16,0>
_TEXT	ENDS
; Function compile flags: /Odtp /ZI
; File C:\Program Files\Microsoft Visual Studio\2022\Preview\VC\Tools\MSVC\14.38.33030\include\xmemory
;	COMDAT ??$_Delete_plain_internal@V?$allocator@U_Container_proxy@std@@@std@@@std@@YAXAEAV?$allocator@U_Container_proxy@std@@@0@QEAU_Container_proxy@0@@Z
_TEXT	SEGMENT
_Al$ = 80
_Ptr$ = 88
??$_Delete_plain_internal@V?$allocator@U_Container_proxy@std@@@std@@@std@@YAXAEAV?$allocator@U_Container_proxy@std@@@0@QEAU_Container_proxy@0@@Z PROC ; std::_Delete_plain_internal<std::allocator<std::_Container_proxy> >, COMDAT

; 1135 : _CONSTEXPR20 void _Delete_plain_internal(_Alloc& _Al, typename _Alloc::value_type* const _Ptr) noexcept {

$LN3:
  00000	48 89 54 24 10	 mov	 QWORD PTR [rsp+16], rdx
  00005	48 89 4c 24 08	 mov	 QWORD PTR [rsp+8], rcx
  0000a	55		 push	 rbp
  0000b	48 83 ec 60	 sub	 rsp, 96			; 00000060H
  0000f	48 8d 6c 24 20	 lea	 rbp, QWORD PTR [rsp+32]
  00014	48 8d 0d 00 00
	00 00		 lea	 rcx, OFFSET FLAT:__67F55BEA_xmemory
  0001b	e8 00 00 00 00	 call	 __CheckForDebuggerJustMyCode

; 1136 :     // destroy *_Ptr in place, then deallocate _Ptr using _Al; used for internal container types the user didn't name
; 1137 :     using _Ty = typename _Alloc::value_type;
; 1138 :     _Ptr->~_Ty();
; 1139 :     _Deallocate_plain(_Al, _Ptr);

  00020	48 8b 55 58	 mov	 rdx, QWORD PTR _Ptr$[rbp]
  00024	48 8b 4d 50	 mov	 rcx, QWORD PTR _Al$[rbp]
  00028	e8 00 00 00 00	 call	 ??$_Deallocate_plain@V?$allocator@U_Container_proxy@std@@@std@@@std@@YAXAEAV?$allocator@U_Container_proxy@std@@@0@QEAU_Container_proxy@0@@Z ; std::_Deallocate_plain<std::allocator<std::_Container_proxy> >

; 1140 : }

  0002d	48 8d 65 40	 lea	 rsp, QWORD PTR [rbp+64]
  00031	5d		 pop	 rbp
  00032	c3		 ret	 0
??$_Delete_plain_internal@V?$allocator@U_Container_proxy@std@@@std@@@std@@YAXAEAV?$allocator@U_Container_proxy@std@@@0@QEAU_Container_proxy@0@@Z ENDP ; std::_Delete_plain_internal<std::allocator<std::_Container_proxy> >
_TEXT	ENDS
; Function compile flags: /Odtp /ZI
; File C:\Program Files\Microsoft Visual Studio\2022\Preview\VC\Tools\MSVC\14.38.33030\include\utility
;	COMDAT ??$exchange@PEAU_Container_proxy@std@@$$T@std@@YAPEAU_Container_proxy@0@AEAPEAU10@$$QEA$$T@Z
_TEXT	SEGMENT
_Old_val$ = 0
_Val$ = 96
_New_val$ = 104
??$exchange@PEAU_Container_proxy@std@@$$T@std@@YAPEAU_Container_proxy@0@AEAPEAU10@$$QEA$$T@Z PROC ; std::exchange<std::_Container_proxy *,std::nullptr_t>, COMDAT

; 760  :     conjunction_v<is_nothrow_move_constructible<_Ty>, is_nothrow_assignable<_Ty&, _Other>>) {

$LN3:
  00000	48 89 54 24 10	 mov	 QWORD PTR [rsp+16], rdx
  00005	48 89 4c 24 08	 mov	 QWORD PTR [rsp+8], rcx
  0000a	55		 push	 rbp
  0000b	48 83 ec 70	 sub	 rsp, 112		; 00000070H
  0000f	48 8d 6c 24 20	 lea	 rbp, QWORD PTR [rsp+32]
  00014	48 8d 0d 00 00
	00 00		 lea	 rcx, OFFSET FLAT:__0D603829_utility
  0001b	e8 00 00 00 00	 call	 __CheckForDebuggerJustMyCode

; 761  :     // assign _New_val to _Val, return previous _Val
; 762  :     _Ty _Old_val = static_cast<_Ty&&>(_Val);

  00020	48 8b 45 60	 mov	 rax, QWORD PTR _Val$[rbp]
  00024	48 8b 00	 mov	 rax, QWORD PTR [rax]
  00027	48 89 45 00	 mov	 QWORD PTR _Old_val$[rbp], rax

; 763  :     _Val         = static_cast<_Other&&>(_New_val);

  0002b	48 8b 45 60	 mov	 rax, QWORD PTR _Val$[rbp]
  0002f	48 8b 4d 68	 mov	 rcx, QWORD PTR _New_val$[rbp]
  00033	48 8b 09	 mov	 rcx, QWORD PTR [rcx]
  00036	48 89 08	 mov	 QWORD PTR [rax], rcx

; 764  :     return _Old_val;

  00039	48 8b 45 00	 mov	 rax, QWORD PTR _Old_val$[rbp]

; 765  : }

  0003d	48 8d 65 50	 lea	 rsp, QWORD PTR [rbp+80]
  00041	5d		 pop	 rbp
  00042	c3		 ret	 0
??$exchange@PEAU_Container_proxy@std@@$$T@std@@YAPEAU_Container_proxy@0@AEAPEAU10@$$QEA$$T@Z ENDP ; std::exchange<std::_Container_proxy *,std::nullptr_t>
_TEXT	ENDS
; Function compile flags: /Odtp /ZI
; File C:\Program Files\Microsoft Visual Studio\2022\Preview\VC\Tools\MSVC\14.38.33030\include\xmemory
;	COMDAT ??$?0PEAVD3D12Model@@@?$allocator@U_Container_proxy@std@@@std@@QEAA@AEBV?$allocator@PEAVD3D12Model@@@1@@Z
_TEXT	SEGMENT
this$ = 80
__formal$ = 88
??$?0PEAVD3D12Model@@@?$allocator@U_Container_proxy@std@@@std@@QEAA@AEBV?$allocator@PEAVD3D12Model@@@1@@Z PROC ; std::allocator<std::_Container_proxy>::allocator<std::_Container_proxy><D3D12Model *>, COMDAT

; 966  :     constexpr allocator(const allocator<_Other>&) noexcept {}

$LN3:
  00000	48 89 54 24 10	 mov	 QWORD PTR [rsp+16], rdx
  00005	48 89 4c 24 08	 mov	 QWORD PTR [rsp+8], rcx
  0000a	55		 push	 rbp
  0000b	48 83 ec 60	 sub	 rsp, 96			; 00000060H
  0000f	48 8d 6c 24 20	 lea	 rbp, QWORD PTR [rsp+32]
  00014	48 8d 0d 00 00
	00 00		 lea	 rcx, OFFSET FLAT:__67F55BEA_xmemory
  0001b	e8 00 00 00 00	 call	 __CheckForDebuggerJustMyCode
  00020	48 8b 45 50	 mov	 rax, QWORD PTR this$[rbp]
  00024	48 8d 65 40	 lea	 rsp, QWORD PTR [rbp+64]
  00028	5d		 pop	 rbp
  00029	c3		 ret	 0
??$?0PEAVD3D12Model@@@?$allocator@U_Container_proxy@std@@@std@@QEAA@AEBV?$allocator@PEAVD3D12Model@@@1@@Z ENDP ; std::allocator<std::_Container_proxy>::allocator<std::_Container_proxy><D3D12Model *>
_TEXT	ENDS
; Function compile flags: /Odtp /ZI
; File C:\Program Files\Microsoft Visual Studio\2022\Preview\VC\Tools\MSVC\14.38.33030\include\xmemory
;	COMDAT ?deallocate@?$allocator@U_Container_proxy@std@@@std@@QEAAXQEAU_Container_proxy@2@_K@Z
_TEXT	SEGMENT
this$ = 80
_Ptr$ = 88
_Count$ = 96
?deallocate@?$allocator@U_Container_proxy@std@@@std@@QEAAXQEAU_Container_proxy@2@_K@Z PROC ; std::allocator<std::_Container_proxy>::deallocate, COMDAT

; 970  :     _CONSTEXPR20 void deallocate(_Ty* const _Ptr, const size_t _Count) {

$LN13:
  00000	4c 89 44 24 18	 mov	 QWORD PTR [rsp+24], r8
  00005	48 89 54 24 10	 mov	 QWORD PTR [rsp+16], rdx
  0000a	48 89 4c 24 08	 mov	 QWORD PTR [rsp+8], rcx
  0000f	55		 push	 rbp
  00010	48 83 ec 70	 sub	 rsp, 112		; 00000070H
  00014	48 8d 6c 24 30	 lea	 rbp, QWORD PTR [rsp+48]
  00019	48 8d 0d 00 00
	00 00		 lea	 rcx, OFFSET FLAT:__67F55BEA_xmemory
  00020	e8 00 00 00 00	 call	 __CheckForDebuggerJustMyCode
$LN4@deallocate:

; 971  :         _STL_ASSERT(_Ptr != nullptr || _Count == 0, "null pointer cannot point to a block of non-zero size");

  00025	48 83 7d 58 00	 cmp	 QWORD PTR _Ptr$[rbp], 0
  0002a	75 07		 jne	 SHORT $LN10@deallocate
  0002c	48 83 7d 60 00	 cmp	 QWORD PTR _Count$[rbp], 0
  00031	75 02		 jne	 SHORT $LN8@deallocate
$LN10@deallocate:
  00033	eb 6b		 jmp	 SHORT $LN9@deallocate
$LN8@deallocate:
$LN7@deallocate:
  00035	48 8d 05 00 00
	00 00		 lea	 rax, OFFSET FLAT:??_C@_0DG@KGHKKGBC@null?5pointer?5cannot?5point?5to?5a?5@
  0003c	48 89 44 24 28	 mov	 QWORD PTR [rsp+40], rax
  00041	48 8d 05 00 00
	00 00		 lea	 rax, OFFSET FLAT:??_C@_02DKCKIIND@?$CFs@
  00048	48 89 44 24 20	 mov	 QWORD PTR [rsp+32], rax
  0004d	45 33 c9	 xor	 r9d, r9d
  00050	41 b8 cb 03 00
	00		 mov	 r8d, 971		; 000003cbH
  00056	48 8d 15 00 00
	00 00		 lea	 rdx, OFFSET FLAT:??_C@_0GA@FLDGEGM@C?3?2Program?5Files?2Microsoft?5Visu@
  0005d	b9 02 00 00 00	 mov	 ecx, 2
  00062	ff 15 00 00 00
	00		 call	 QWORD PTR __imp__CrtDbgReport
  00068	83 f8 01	 cmp	 eax, 1
  0006b	75 03		 jne	 SHORT $LN12@deallocate
  0006d	cc		 int	 3
  0006e	33 c0		 xor	 eax, eax
$LN12@deallocate:
  00070	48 c7 44 24 20
	00 00 00 00	 mov	 QWORD PTR [rsp+32], 0
  00079	41 b9 cb 03 00
	00		 mov	 r9d, 971		; 000003cbH
  0007f	4c 8d 05 00 00
	00 00		 lea	 r8, OFFSET FLAT:??_C@_1MA@IKJDCOIC@?$AAC?$AA?3?$AA?2?$AAP?$AAr?$AAo?$AAg?$AAr?$AAa?$AAm?$AA?5?$AAF?$AAi?$AAl?$AAe@
  00086	48 8d 15 00 00
	00 00		 lea	 rdx, OFFSET FLAT:??_C@_11LOCGONAA@@
  0008d	48 8d 0d 00 00
	00 00		 lea	 rcx, OFFSET FLAT:??_C@_1HA@FACCKGGH@?$AA?$CC?$AAn?$AAu?$AAl?$AAl?$AA?5?$AAp?$AAo?$AAi?$AAn?$AAt?$AAe?$AAr?$AA?5?$AAc@
  00094	ff 15 00 00 00
	00		 call	 QWORD PTR __imp__invalid_parameter
  0009a	33 c0		 xor	 eax, eax
  0009c	85 c0		 test	 eax, eax
  0009e	75 95		 jne	 SHORT $LN7@deallocate
$LN9@deallocate:
  000a0	33 c0		 xor	 eax, eax
  000a2	85 c0		 test	 eax, eax
  000a4	0f 85 7b ff ff
	ff		 jne	 $LN4@deallocate

; 972  :         // no overflow check on the following multiply; we assume _Allocate did that check
; 973  :         _Deallocate<_New_alignof<_Ty>>(_Ptr, sizeof(_Ty) * _Count);

  000aa	48 6b 45 60 10	 imul	 rax, QWORD PTR _Count$[rbp], 16
  000af	48 8b d0	 mov	 rdx, rax
  000b2	48 8b 4d 58	 mov	 rcx, QWORD PTR _Ptr$[rbp]
  000b6	e8 00 00 00 00	 call	 ??$_Deallocate@$0BA@$0A@@std@@YAXPEAX_K@Z ; std::_Deallocate<16,0>

; 974  :     }

  000bb	48 8d 65 40	 lea	 rsp, QWORD PTR [rbp+64]
  000bf	5d		 pop	 rbp
  000c0	c3		 ret	 0
?deallocate@?$allocator@U_Container_proxy@std@@@std@@QEAAXQEAU_Container_proxy@2@_K@Z ENDP ; std::allocator<std::_Container_proxy>::deallocate
_TEXT	ENDS
; Function compile flags: /Odtp /ZI
; File C:\Program Files\Microsoft Visual Studio\2022\Preview\VC\Tools\MSVC\14.38.33030\include\vector
;	COMDAT ??$_Emplace_one_at_back@AEBQEAVD3D12Model@@@?$vector@PEAVD3D12Model@@V?$allocator@PEAVD3D12Model@@@std@@@std@@AEAAAEAPEAVD3D12Model@@AEBQEAV2@@Z
_TEXT	SEGMENT
_My_data$ = 0
_Mylast$ = 8
this$ = 96
<_Val_0>$ = 104
??$_Emplace_one_at_back@AEBQEAVD3D12Model@@@?$vector@PEAVD3D12Model@@V?$allocator@PEAVD3D12Model@@@std@@@std@@AEAAAEAPEAVD3D12Model@@AEBQEAV2@@Z PROC ; std::vector<D3D12Model *,std::allocator<D3D12Model *> >::_Emplace_one_at_back<D3D12Model * const &>, COMDAT

; 775  :     _CONSTEXPR20 _Ty& _Emplace_one_at_back(_Valty&&... _Val) {

$LN4:
  00000	48 89 54 24 10	 mov	 QWORD PTR [rsp+16], rdx
  00005	48 89 4c 24 08	 mov	 QWORD PTR [rsp+8], rcx
  0000a	55		 push	 rbp
  0000b	48 83 ec 70	 sub	 rsp, 112		; 00000070H
  0000f	48 8d 6c 24 20	 lea	 rbp, QWORD PTR [rsp+32]
  00014	48 8d 0d 00 00
	00 00		 lea	 rcx, OFFSET FLAT:__14F7CB70_vector
  0001b	e8 00 00 00 00	 call	 __CheckForDebuggerJustMyCode

; 776  :         // insert by perfectly forwarding into element at end, provide strong guarantee
; 777  :         auto& _My_data   = _Mypair._Myval2;

  00020	48 8b 45 60	 mov	 rax, QWORD PTR this$[rbp]
  00024	48 89 45 00	 mov	 QWORD PTR _My_data$[rbp], rax

; 778  :         pointer& _Mylast = _My_data._Mylast;

  00028	48 8b 45 00	 mov	 rax, QWORD PTR _My_data$[rbp]
  0002c	48 83 c0 10	 add	 rax, 16
  00030	48 89 45 08	 mov	 QWORD PTR _Mylast$[rbp], rax

; 779  : 
; 780  :         if (_Mylast != _My_data._Myend) {

  00034	48 8b 45 08	 mov	 rax, QWORD PTR _Mylast$[rbp]
  00038	48 8b 4d 00	 mov	 rcx, QWORD PTR _My_data$[rbp]
  0003c	48 8b 49 18	 mov	 rcx, QWORD PTR [rcx+24]
  00040	48 39 08	 cmp	 QWORD PTR [rax], rcx
  00043	74 0f		 je	 SHORT $LN2@Emplace_on

; 781  :             return _Emplace_back_with_unused_capacity(_STD forward<_Valty>(_Val)...);

  00045	48 8b 55 68	 mov	 rdx, QWORD PTR <_Val_0>$[rbp]
  00049	48 8b 4d 60	 mov	 rcx, QWORD PTR this$[rbp]
  0004d	e8 00 00 00 00	 call	 ??$_Emplace_back_with_unused_capacity@AEBQEAVD3D12Model@@@?$vector@PEAVD3D12Model@@V?$allocator@PEAVD3D12Model@@@std@@@std@@AEAAAEAPEAVD3D12Model@@AEBQEAV2@@Z ; std::vector<D3D12Model *,std::allocator<D3D12Model *> >::_Emplace_back_with_unused_capacity<D3D12Model * const &>
  00052	eb 14		 jmp	 SHORT $LN1@Emplace_on
$LN2@Emplace_on:

; 782  :         }
; 783  : 
; 784  :         return *_Emplace_reallocate(_Mylast, _STD forward<_Valty>(_Val)...);

  00054	4c 8b 45 68	 mov	 r8, QWORD PTR <_Val_0>$[rbp]
  00058	48 8b 45 08	 mov	 rax, QWORD PTR _Mylast$[rbp]
  0005c	48 8b 10	 mov	 rdx, QWORD PTR [rax]
  0005f	48 8b 4d 60	 mov	 rcx, QWORD PTR this$[rbp]
  00063	e8 00 00 00 00	 call	 ??$_Emplace_reallocate@AEBQEAVD3D12Model@@@?$vector@PEAVD3D12Model@@V?$allocator@PEAVD3D12Model@@@std@@@std@@AEAAPEAPEAVD3D12Model@@QEAPEAV2@AEBQEAV2@@Z ; std::vector<D3D12Model *,std::allocator<D3D12Model *> >::_Emplace_reallocate<D3D12Model * const &>
$LN1@Emplace_on:

; 785  :     }

  00068	48 8d 65 50	 lea	 rsp, QWORD PTR [rbp+80]
  0006c	5d		 pop	 rbp
  0006d	c3		 ret	 0
??$_Emplace_one_at_back@AEBQEAVD3D12Model@@@?$vector@PEAVD3D12Model@@V?$allocator@PEAVD3D12Model@@@std@@@std@@AEAAAEAPEAVD3D12Model@@AEBQEAV2@@Z ENDP ; std::vector<D3D12Model *,std::allocator<D3D12Model *> >::_Emplace_one_at_back<D3D12Model * const &>
_TEXT	ENDS
; Function compile flags: /Odtp /ZI
; File C:\Program Files\Microsoft Visual Studio\2022\Preview\VC\Tools\MSVC\14.38.33030\include\vector
;	COMDAT ??$_Assign_counted_range@PEAPEAVD3D12Model@@@?$vector@PEAVD3D12Model@@V?$allocator@PEAVD3D12Model@@@std@@@std@@AEAAXPEAPEAVD3D12Model@@_K@Z
_TEXT	SEGMENT
_Al$ = 0
_My_data$ = 8
_Myfirst$ = 16
_Mylast$ = 24
_Myend$ = 32
_Nothrow_construct$ = 40
_Oldcapacity$ = 48
_Oldsize$ = 56
_Copied$1 = 64
_Mid$2 = 72
_Newlast$3 = 80
this$ = 176
_First$ = 184
_Newsize$ = 192
??$_Assign_counted_range@PEAPEAVD3D12Model@@@?$vector@PEAVD3D12Model@@V?$allocator@PEAVD3D12Model@@@std@@@std@@AEAAXPEAPEAVD3D12Model@@_K@Z PROC ; std::vector<D3D12Model *,std::allocator<D3D12Model *> >::_Assign_counted_range<D3D12Model * *>, COMDAT

; 1380 :     _CONSTEXPR20 void _Assign_counted_range(_Iter _First, const size_type _Newsize) {

$LN11:
  00000	4c 89 44 24 18	 mov	 QWORD PTR [rsp+24], r8
  00005	48 89 54 24 10	 mov	 QWORD PTR [rsp+16], rdx
  0000a	48 89 4c 24 08	 mov	 QWORD PTR [rsp+8], rcx
  0000f	55		 push	 rbp
  00010	48 81 ec c0 00
	00 00		 sub	 rsp, 192		; 000000c0H
  00017	48 8d 6c 24 20	 lea	 rbp, QWORD PTR [rsp+32]
  0001c	48 8d 0d 00 00
	00 00		 lea	 rcx, OFFSET FLAT:__14F7CB70_vector
  00023	e8 00 00 00 00	 call	 __CheckForDebuggerJustMyCode

; 1381 :         // assign elements from counted range _First + [0, _Newsize)
; 1382 :         auto& _Al         = _Getal();

  00028	48 8b 8d b0 00
	00 00		 mov	 rcx, QWORD PTR this$[rbp]
  0002f	e8 00 00 00 00	 call	 ?_Getal@?$vector@PEAVD3D12Model@@V?$allocator@PEAVD3D12Model@@@std@@@std@@AEAAAEAV?$allocator@PEAVD3D12Model@@@2@XZ ; std::vector<D3D12Model *,std::allocator<D3D12Model *> >::_Getal
  00034	48 89 45 00	 mov	 QWORD PTR _Al$[rbp], rax

; 1383 :         auto& _My_data    = _Mypair._Myval2;

  00038	48 8b 85 b0 00
	00 00		 mov	 rax, QWORD PTR this$[rbp]
  0003f	48 89 45 08	 mov	 QWORD PTR _My_data$[rbp], rax

; 1384 :         pointer& _Myfirst = _My_data._Myfirst;

  00043	48 8b 45 08	 mov	 rax, QWORD PTR _My_data$[rbp]
  00047	48 83 c0 08	 add	 rax, 8
  0004b	48 89 45 10	 mov	 QWORD PTR _Myfirst$[rbp], rax

; 1385 :         pointer& _Mylast  = _My_data._Mylast;

  0004f	48 8b 45 08	 mov	 rax, QWORD PTR _My_data$[rbp]
  00053	48 83 c0 10	 add	 rax, 16
  00057	48 89 45 18	 mov	 QWORD PTR _Mylast$[rbp], rax

; 1386 :         pointer& _Myend   = _My_data._Myend;

  0005b	48 8b 45 08	 mov	 rax, QWORD PTR _My_data$[rbp]
  0005f	48 83 c0 18	 add	 rax, 24
  00063	48 89 45 20	 mov	 QWORD PTR _Myend$[rbp], rax

; 1387 : 
; 1388 :         constexpr bool _Nothrow_construct = conjunction_v<is_nothrow_constructible<_Ty, _Iter_ref_t<_Iter>>,

  00067	c6 45 28 01	 mov	 BYTE PTR _Nothrow_construct$[rbp], 1

; 1389 :             _Uses_default_construct<_Alloc, _Ty*, _Iter_ref_t<_Iter>>>;
; 1390 : 
; 1391 :         _My_data._Orphan_all();

  0006b	48 8b 4d 08	 mov	 rcx, QWORD PTR _My_data$[rbp]
  0006f	e8 00 00 00 00	 call	 ?_Orphan_all@_Container_base12@std@@QEAAXXZ ; std::_Container_base12::_Orphan_all

; 1392 :         const auto _Oldcapacity = static_cast<size_type>(_Myend - _Myfirst);

  00074	48 8b 45 20	 mov	 rax, QWORD PTR _Myend$[rbp]
  00078	48 8b 4d 10	 mov	 rcx, QWORD PTR _Myfirst$[rbp]
  0007c	48 8b 09	 mov	 rcx, QWORD PTR [rcx]
  0007f	48 8b 00	 mov	 rax, QWORD PTR [rax]
  00082	48 2b c1	 sub	 rax, rcx
  00085	48 c1 f8 03	 sar	 rax, 3
  00089	48 89 45 30	 mov	 QWORD PTR _Oldcapacity$[rbp], rax

; 1393 :         if (_Newsize > _Oldcapacity) {

  0008d	48 8b 45 30	 mov	 rax, QWORD PTR _Oldcapacity$[rbp]
  00091	48 39 85 c0 00
	00 00		 cmp	 QWORD PTR _Newsize$[rbp], rax
  00098	76 3d		 jbe	 SHORT $LN5@Assign_cou

; 1394 :             _Clear_and_reserve_geometric(_Newsize);

  0009a	48 8b 95 c0 00
	00 00		 mov	 rdx, QWORD PTR _Newsize$[rbp]
  000a1	48 8b 8d b0 00
	00 00		 mov	 rcx, QWORD PTR this$[rbp]
  000a8	e8 00 00 00 00	 call	 ?_Clear_and_reserve_geometric@?$vector@PEAVD3D12Model@@V?$allocator@PEAVD3D12Model@@@std@@@std@@AEAAX_K@Z ; std::vector<D3D12Model *,std::allocator<D3D12Model *> >::_Clear_and_reserve_geometric

; 1395 :             if constexpr (_Nothrow_construct) {
; 1396 :                 _Mylast = _Uninitialized_copy_n(_STD move(_First), _Newsize, _Myfirst, _Al);

  000ad	4c 8b 4d 00	 mov	 r9, QWORD PTR _Al$[rbp]
  000b1	48 8b 45 10	 mov	 rax, QWORD PTR _Myfirst$[rbp]
  000b5	4c 8b 00	 mov	 r8, QWORD PTR [rax]
  000b8	48 8b 95 c0 00
	00 00		 mov	 rdx, QWORD PTR _Newsize$[rbp]
  000bf	48 8b 8d b8 00
	00 00		 mov	 rcx, QWORD PTR _First$[rbp]
  000c6	e8 00 00 00 00	 call	 ??$_Uninitialized_copy_n@PEAPEAVD3D12Model@@V?$allocator@PEAVD3D12Model@@@std@@@std@@YAPEAPEAVD3D12Model@@PEAPEAV1@_K0AEAV?$allocator@PEAVD3D12Model@@@0@@Z ; std::_Uninitialized_copy_n<D3D12Model * *,std::allocator<D3D12Model *> >
  000cb	48 8b 4d 18	 mov	 rcx, QWORD PTR _Mylast$[rbp]
  000cf	48 89 01	 mov	 QWORD PTR [rcx], rax

; 1397 :                 _ASAN_VECTOR_CREATE;
; 1398 :             } else {
; 1399 :                 _ASAN_VECTOR_CREATE_GUARD;
; 1400 :                 _Mylast = _Uninitialized_copy_n(_STD move(_First), _Newsize, _Myfirst, _Al);
; 1401 :             }
; 1402 :             return;

  000d2	e9 41 01 00 00	 jmp	 $LN1@Assign_cou
$LN5@Assign_cou:

; 1403 :         }
; 1404 : 
; 1405 :         const auto _Oldsize = static_cast<size_type>(_Mylast - _Myfirst);

  000d7	48 8b 45 18	 mov	 rax, QWORD PTR _Mylast$[rbp]
  000db	48 8b 4d 10	 mov	 rcx, QWORD PTR _Myfirst$[rbp]
  000df	48 8b 09	 mov	 rcx, QWORD PTR [rcx]
  000e2	48 8b 00	 mov	 rax, QWORD PTR [rax]
  000e5	48 2b c1	 sub	 rax, rcx
  000e8	48 c1 f8 03	 sar	 rax, 3
  000ec	48 89 45 38	 mov	 QWORD PTR _Oldsize$[rbp], rax

; 1406 :         if (_Newsize > _Oldsize) {

  000f0	48 8b 45 38	 mov	 rax, QWORD PTR _Oldsize$[rbp]
  000f4	48 39 85 c0 00
	00 00		 cmp	 QWORD PTR _Newsize$[rbp], rax
  000fb	0f 86 c8 00 00
	00		 jbe	 $LN6@Assign_cou

; 1407 :             bool _Copied = false;

  00101	c6 45 40 00	 mov	 BYTE PTR _Copied$1[rbp], 0

; 1408 :             if constexpr (_Iter_copy_cat<_Iter, pointer>::_Bitcopy_assignable) {
; 1409 : #if _HAS_CXX20
; 1410 :                 if (!_STD is_constant_evaluated())

  00105	e8 00 00 00 00	 call	 ?is_constant_evaluated@std@@YA_NXZ ; std::is_constant_evaluated
  0010a	0f b6 c0	 movzx	 eax, al
  0010d	85 c0		 test	 eax, eax
  0010f	75 31		 jne	 SHORT $LN8@Assign_cou

; 1411 : #endif // _HAS_CXX20
; 1412 :                 {
; 1413 :                     _Copy_memmove_n(_First, static_cast<size_t>(_Oldsize), _Myfirst);

  00111	48 8b 45 10	 mov	 rax, QWORD PTR _Myfirst$[rbp]
  00115	4c 8b 00	 mov	 r8, QWORD PTR [rax]
  00118	48 8b 55 38	 mov	 rdx, QWORD PTR _Oldsize$[rbp]
  0011c	48 8b 8d b8 00
	00 00		 mov	 rcx, QWORD PTR _First$[rbp]
  00123	e8 00 00 00 00	 call	 ??$_Copy_memmove_n@PEAPEAVD3D12Model@@PEAPEAV1@@std@@YAPEAPEAVD3D12Model@@PEAPEAV1@_K0@Z ; std::_Copy_memmove_n<D3D12Model * *,D3D12Model * *>

; 1414 :                     _First += _Oldsize;

  00128	48 8b 85 b8 00
	00 00		 mov	 rax, QWORD PTR _First$[rbp]
  0012f	48 8b 4d 38	 mov	 rcx, QWORD PTR _Oldsize$[rbp]
  00133	48 8d 04 c8	 lea	 rax, QWORD PTR [rax+rcx*8]
  00137	48 89 85 b8 00
	00 00		 mov	 QWORD PTR _First$[rbp], rax

; 1415 :                     _Copied = true;

  0013e	c6 45 40 01	 mov	 BYTE PTR _Copied$1[rbp], 1
$LN8@Assign_cou:

; 1416 :                 }
; 1417 :             }
; 1418 : 
; 1419 :             if (!_Copied) {

  00142	0f b6 45 40	 movzx	 eax, BYTE PTR _Copied$1[rbp]
  00146	85 c0		 test	 eax, eax
  00148	75 4b		 jne	 SHORT $LN9@Assign_cou

; 1420 :                 for (auto _Mid = _Myfirst; _Mid != _Mylast; ++_Mid, (void) ++_First) {

  0014a	48 8b 45 10	 mov	 rax, QWORD PTR _Myfirst$[rbp]
  0014e	48 8b 00	 mov	 rax, QWORD PTR [rax]
  00151	48 89 45 48	 mov	 QWORD PTR _Mid$2[rbp], rax
  00155	eb 1e		 jmp	 SHORT $LN4@Assign_cou
$LN2@Assign_cou:
  00157	48 8b 45 48	 mov	 rax, QWORD PTR _Mid$2[rbp]
  0015b	48 83 c0 08	 add	 rax, 8
  0015f	48 89 45 48	 mov	 QWORD PTR _Mid$2[rbp], rax
  00163	48 8b 85 b8 00
	00 00		 mov	 rax, QWORD PTR _First$[rbp]
  0016a	48 83 c0 08	 add	 rax, 8
  0016e	48 89 85 b8 00
	00 00		 mov	 QWORD PTR _First$[rbp], rax
$LN4@Assign_cou:
  00175	48 8b 45 18	 mov	 rax, QWORD PTR _Mylast$[rbp]
  00179	48 8b 00	 mov	 rax, QWORD PTR [rax]
  0017c	48 39 45 48	 cmp	 QWORD PTR _Mid$2[rbp], rax
  00180	74 13		 je	 SHORT $LN3@Assign_cou

; 1421 :                     *_Mid = *_First;

  00182	48 8b 45 48	 mov	 rax, QWORD PTR _Mid$2[rbp]
  00186	48 8b 8d b8 00
	00 00		 mov	 rcx, QWORD PTR _First$[rbp]
  0018d	48 8b 09	 mov	 rcx, QWORD PTR [rcx]
  00190	48 89 08	 mov	 QWORD PTR [rax], rcx

; 1422 :                 }

  00193	eb c2		 jmp	 SHORT $LN2@Assign_cou
$LN3@Assign_cou:
$LN9@Assign_cou:

; 1423 :             }
; 1424 : 
; 1425 :             if constexpr (_Nothrow_construct) {
; 1426 :                 _ASAN_VECTOR_MODIFY(static_cast<difference_type>(_Newsize - _Oldsize));
; 1427 :                 _Mylast = _Uninitialized_copy_n(_STD move(_First), _Newsize - _Oldsize, _Mylast, _Al);

  00195	48 8b 45 38	 mov	 rax, QWORD PTR _Oldsize$[rbp]
  00199	48 8b 8d c0 00
	00 00		 mov	 rcx, QWORD PTR _Newsize$[rbp]
  001a0	48 2b c8	 sub	 rcx, rax
  001a3	48 8b c1	 mov	 rax, rcx
  001a6	4c 8b 4d 00	 mov	 r9, QWORD PTR _Al$[rbp]
  001aa	48 8b 4d 18	 mov	 rcx, QWORD PTR _Mylast$[rbp]
  001ae	4c 8b 01	 mov	 r8, QWORD PTR [rcx]
  001b1	48 8b d0	 mov	 rdx, rax
  001b4	48 8b 8d b8 00
	00 00		 mov	 rcx, QWORD PTR _First$[rbp]
  001bb	e8 00 00 00 00	 call	 ??$_Uninitialized_copy_n@PEAPEAVD3D12Model@@V?$allocator@PEAVD3D12Model@@@std@@@std@@YAPEAPEAVD3D12Model@@PEAPEAV1@_K0AEAV?$allocator@PEAVD3D12Model@@@0@@Z ; std::_Uninitialized_copy_n<D3D12Model * *,std::allocator<D3D12Model *> >
  001c0	48 8b 4d 18	 mov	 rcx, QWORD PTR _Mylast$[rbp]
  001c4	48 89 01	 mov	 QWORD PTR [rcx], rax

; 1428 :             } else {
; 1429 :                 _ASAN_VECTOR_EXTEND_GUARD(_Newsize);
; 1430 :                 _Mylast = _Uninitialized_copy_n(_STD move(_First), _Newsize - _Oldsize, _Mylast, _Al);
; 1431 :                 _ASAN_VECTOR_RELEASE_GUARD;
; 1432 :             }
; 1433 :         } else {

  001c7	eb 4f		 jmp	 SHORT $LN7@Assign_cou
$LN6@Assign_cou:

; 1434 :             const pointer _Newlast = _Myfirst + _Newsize;

  001c9	48 8b 45 10	 mov	 rax, QWORD PTR _Myfirst$[rbp]
  001cd	48 8b 00	 mov	 rax, QWORD PTR [rax]
  001d0	48 8b 8d c0 00
	00 00		 mov	 rcx, QWORD PTR _Newsize$[rbp]
  001d7	48 8d 04 c8	 lea	 rax, QWORD PTR [rax+rcx*8]
  001db	48 89 45 50	 mov	 QWORD PTR _Newlast$3[rbp], rax

; 1435 :             _Copy_n_unchecked4(_STD move(_First), _Newsize, _Myfirst);

  001df	48 8b 45 10	 mov	 rax, QWORD PTR _Myfirst$[rbp]
  001e3	4c 8b 00	 mov	 r8, QWORD PTR [rax]
  001e6	48 8b 95 c0 00
	00 00		 mov	 rdx, QWORD PTR _Newsize$[rbp]
  001ed	48 8b 8d b8 00
	00 00		 mov	 rcx, QWORD PTR _First$[rbp]
  001f4	e8 00 00 00 00	 call	 ??$_Copy_n_unchecked4@PEAPEAVD3D12Model@@_KPEAPEAV1@@std@@YAPEAPEAVD3D12Model@@PEAPEAV1@_K0@Z ; std::_Copy_n_unchecked4<D3D12Model * *,unsigned __int64,D3D12Model * *>

; 1436 :             _Destroy_range(_Newlast, _Mylast, _Al);

  001f9	4c 8b 45 00	 mov	 r8, QWORD PTR _Al$[rbp]
  001fd	48 8b 45 18	 mov	 rax, QWORD PTR _Mylast$[rbp]
  00201	48 8b 10	 mov	 rdx, QWORD PTR [rax]
  00204	48 8b 4d 50	 mov	 rcx, QWORD PTR _Newlast$3[rbp]
  00208	e8 00 00 00 00	 call	 ??$_Destroy_range@V?$allocator@PEAVD3D12Model@@@std@@@std@@YAXPEAPEAVD3D12Model@@QEAPEAV1@AEAV?$allocator@PEAVD3D12Model@@@0@@Z ; std::_Destroy_range<std::allocator<D3D12Model *> >

; 1437 :             _ASAN_VECTOR_MODIFY(static_cast<difference_type>(_Newsize - _Oldsize));
; 1438 :             _Mylast = _Newlast;

  0020d	48 8b 45 18	 mov	 rax, QWORD PTR _Mylast$[rbp]
  00211	48 8b 4d 50	 mov	 rcx, QWORD PTR _Newlast$3[rbp]
  00215	48 89 08	 mov	 QWORD PTR [rax], rcx
$LN7@Assign_cou:
$LN1@Assign_cou:

; 1439 :         }
; 1440 :     }

  00218	48 8d a5 a0 00
	00 00		 lea	 rsp, QWORD PTR [rbp+160]
  0021f	5d		 pop	 rbp
  00220	c3		 ret	 0
??$_Assign_counted_range@PEAPEAVD3D12Model@@@?$vector@PEAVD3D12Model@@V?$allocator@PEAVD3D12Model@@@std@@@std@@AEAAXPEAPEAVD3D12Model@@_K@Z ENDP ; std::vector<D3D12Model *,std::allocator<D3D12Model *> >::_Assign_counted_range<D3D12Model * *>
_TEXT	ENDS
; Function compile flags: /Odtp /ZI
; File C:\Program Files\Microsoft Visual Studio\2022\Preview\VC\Tools\MSVC\14.38.33030\include\xmemory
;	COMDAT ??$_Pocca@V?$allocator@PEAVD3D12Model@@@std@@@std@@YAXAEAV?$allocator@PEAVD3D12Model@@@0@AEBV10@@Z
_TEXT	SEGMENT
_Left$ = 80
_Right$ = 88
??$_Pocca@V?$allocator@PEAVD3D12Model@@@std@@@std@@YAXAEAV?$allocator@PEAVD3D12Model@@@0@AEBV10@@Z PROC ; std::_Pocca<std::allocator<D3D12Model *> >, COMDAT

; 1063 : _CONSTEXPR20 void _Pocca(_Alloc& _Left, const _Alloc& _Right) noexcept {

$LN3:
  00000	48 89 54 24 10	 mov	 QWORD PTR [rsp+16], rdx
  00005	48 89 4c 24 08	 mov	 QWORD PTR [rsp+8], rcx
  0000a	55		 push	 rbp
  0000b	48 83 ec 60	 sub	 rsp, 96			; 00000060H
  0000f	48 8d 6c 24 20	 lea	 rbp, QWORD PTR [rsp+32]
  00014	48 8d 0d 00 00
	00 00		 lea	 rcx, OFFSET FLAT:__67F55BEA_xmemory
  0001b	e8 00 00 00 00	 call	 __CheckForDebuggerJustMyCode

; 1064 :     if constexpr (allocator_traits<_Alloc>::propagate_on_container_copy_assignment::value) {
; 1065 :         _Left = _Right;
; 1066 :     }
; 1067 : }

  00020	48 8d 65 40	 lea	 rsp, QWORD PTR [rbp+64]
  00024	5d		 pop	 rbp
  00025	c3		 ret	 0
??$_Pocca@V?$allocator@PEAVD3D12Model@@@std@@@std@@YAXAEAV?$allocator@PEAVD3D12Model@@@0@AEBV10@@Z ENDP ; std::_Pocca<std::allocator<D3D12Model *> >
_TEXT	ENDS
; Function compile flags: /Odtp /ZI
; File C:\Program Files\Microsoft Visual Studio\2022\Preview\VC\Tools\MSVC\14.38.33030\include\type_traits
;	COMDAT ??$addressof@$$CBV?$vector@PEAVD3D12Model@@V?$allocator@PEAVD3D12Model@@@std@@@std@@@std@@YAPEBV?$vector@PEAVD3D12Model@@V?$allocator@PEAVD3D12Model@@@std@@@0@AEBV10@@Z
_TEXT	SEGMENT
_Val$ = 80
??$addressof@$$CBV?$vector@PEAVD3D12Model@@V?$allocator@PEAVD3D12Model@@@std@@@std@@@std@@YAPEBV?$vector@PEAVD3D12Model@@V?$allocator@PEAVD3D12Model@@@std@@@0@AEBV10@@Z PROC ; std::addressof<std::vector<D3D12Model *,std::allocator<D3D12Model *> > const >, COMDAT

; 1589 : _NODISCARD constexpr _Ty* addressof(_Ty& _Val) noexcept {

$LN3:
  00000	48 89 4c 24 08	 mov	 QWORD PTR [rsp+8], rcx
  00005	55		 push	 rbp
  00006	48 83 ec 60	 sub	 rsp, 96			; 00000060H
  0000a	48 8d 6c 24 20	 lea	 rbp, QWORD PTR [rsp+32]
  0000f	48 8d 0d 00 00
	00 00		 lea	 rcx, OFFSET FLAT:__3DF2A533_type_traits
  00016	e8 00 00 00 00	 call	 __CheckForDebuggerJustMyCode

; 1590 :     return __builtin_addressof(_Val);

  0001b	48 8b 45 50	 mov	 rax, QWORD PTR _Val$[rbp]

; 1591 : }

  0001f	48 8d 65 40	 lea	 rsp, QWORD PTR [rbp+64]
  00023	5d		 pop	 rbp
  00024	c3		 ret	 0
??$addressof@$$CBV?$vector@PEAVD3D12Model@@V?$allocator@PEAVD3D12Model@@@std@@@std@@@std@@YAPEBV?$vector@PEAVD3D12Model@@V?$allocator@PEAVD3D12Model@@@std@@@0@AEBV10@@Z ENDP ; std::addressof<std::vector<D3D12Model *,std::allocator<D3D12Model *> > const >
_TEXT	ENDS
; Function compile flags: /Odtp /ZI
; File C:\Program Files\Microsoft Visual Studio\2022\Preview\VC\Tools\MSVC\14.38.33030\include\xmemory
;	COMDAT ??$_Destroy_range@V?$allocator@PEAVD3D12Model@@@std@@@std@@YAXPEAPEAVD3D12Model@@QEAPEAV1@AEAV?$allocator@PEAVD3D12Model@@@0@@Z
_TEXT	SEGMENT
_First$ = 80
_Last$ = 88
_Al$ = 96
??$_Destroy_range@V?$allocator@PEAVD3D12Model@@@std@@@std@@YAXPEAPEAVD3D12Model@@QEAPEAV1@AEAV?$allocator@PEAVD3D12Model@@@0@@Z PROC ; std::_Destroy_range<std::allocator<D3D12Model *> >, COMDAT

; 1086 : _CONSTEXPR20 void _Destroy_range(_Alloc_ptr_t<_Alloc> _First, const _Alloc_ptr_t<_Alloc> _Last, _Alloc& _Al) noexcept {

$LN3:
  00000	4c 89 44 24 18	 mov	 QWORD PTR [rsp+24], r8
  00005	48 89 54 24 10	 mov	 QWORD PTR [rsp+16], rdx
  0000a	48 89 4c 24 08	 mov	 QWORD PTR [rsp+8], rcx
  0000f	55		 push	 rbp
  00010	48 83 ec 60	 sub	 rsp, 96			; 00000060H
  00014	48 8d 6c 24 20	 lea	 rbp, QWORD PTR [rsp+32]
  00019	48 8d 0d 00 00
	00 00		 lea	 rcx, OFFSET FLAT:__67F55BEA_xmemory
  00020	e8 00 00 00 00	 call	 __CheckForDebuggerJustMyCode

; 1087 :     // note that this is an optimization for debug mode codegen; in release mode the BE removes all of this
; 1088 :     using _Ty = typename _Alloc::value_type;
; 1089 :     if constexpr (!conjunction_v<is_trivially_destructible<_Ty>, _Uses_default_destroy<_Alloc, _Ty*>>) {
; 1090 :         for (; _First != _Last; ++_First) {
; 1091 :             allocator_traits<_Alloc>::destroy(_Al, _Unfancy(_First));
; 1092 :         }
; 1093 :     }
; 1094 : }

  00025	48 8d 65 40	 lea	 rsp, QWORD PTR [rbp+64]
  00029	5d		 pop	 rbp
  0002a	c3		 ret	 0
??$_Destroy_range@V?$allocator@PEAVD3D12Model@@@std@@@std@@YAXPEAPEAVD3D12Model@@QEAPEAV1@AEAV?$allocator@PEAVD3D12Model@@@0@@Z ENDP ; std::_Destroy_range<std::allocator<D3D12Model *> >
_TEXT	ENDS
; Function compile flags: /Odtp /ZI
; File C:\Program Files\Microsoft Visual Studio\2022\Preview\VC\Tools\MSVC\14.38.33030\include\type_traits
;	COMDAT ??$addressof@V?$_Vector_val@U?$_Simple_types@PEAVD3D12Model@@@std@@@std@@@std@@YAPEAV?$_Vector_val@U?$_Simple_types@PEAVD3D12Model@@@std@@@0@AEAV10@@Z
_TEXT	SEGMENT
_Val$ = 80
??$addressof@V?$_Vector_val@U?$_Simple_types@PEAVD3D12Model@@@std@@@std@@@std@@YAPEAV?$_Vector_val@U?$_Simple_types@PEAVD3D12Model@@@std@@@0@AEAV10@@Z PROC ; std::addressof<std::_Vector_val<std::_Simple_types<D3D12Model *> > >, COMDAT

; 1589 : _NODISCARD constexpr _Ty* addressof(_Ty& _Val) noexcept {

$LN3:
  00000	48 89 4c 24 08	 mov	 QWORD PTR [rsp+8], rcx
  00005	55		 push	 rbp
  00006	48 83 ec 60	 sub	 rsp, 96			; 00000060H
  0000a	48 8d 6c 24 20	 lea	 rbp, QWORD PTR [rsp+32]
  0000f	48 8d 0d 00 00
	00 00		 lea	 rcx, OFFSET FLAT:__3DF2A533_type_traits
  00016	e8 00 00 00 00	 call	 __CheckForDebuggerJustMyCode

; 1590 :     return __builtin_addressof(_Val);

  0001b	48 8b 45 50	 mov	 rax, QWORD PTR _Val$[rbp]

; 1591 : }

  0001f	48 8d 65 40	 lea	 rsp, QWORD PTR [rbp+64]
  00023	5d		 pop	 rbp
  00024	c3		 ret	 0
??$addressof@V?$_Vector_val@U?$_Simple_types@PEAVD3D12Model@@@std@@@std@@@std@@YAPEAV?$_Vector_val@U?$_Simple_types@PEAVD3D12Model@@@std@@@0@AEAV10@@Z ENDP ; std::addressof<std::_Vector_val<std::_Simple_types<D3D12Model *> > >
_TEXT	ENDS
; Function compile flags: /Odtp /ZI
; File C:\Program Files\Microsoft Visual Studio\2022\Preview\VC\Tools\MSVC\14.38.33030\include\vector
;	COMDAT ??$insert@V?$_Vector_iterator@V?$_Vector_val@U?$_Simple_types@PEAVD3D12Model@@@std@@@std@@@std@@$0A@@?$vector@PEAVD3D12Model@@V?$allocator@PEAVD3D12Model@@@std@@@std@@QEAA?AV?$_Vector_iterator@V?$_Vector_val@U?$_Simple_types@PEAVD3D12Model@@@std@@@std@@@1@V?$_Vector_const_iterator@V?$_Vector_val@U?$_Simple_types@PEAVD3D12Model@@@std@@@std@@@1@V21@1@Z
_TEXT	SEGMENT
_Whereptr$ = 0
_My_data$ = 8
_Oldfirst$ = 16
_UFirst$ = 24
_ULast$ = 32
_Whereoff$ = 40
_Length$1 = 48
_Count$2 = 56
$T3 = 128
$T4 = 152
$T5 = 160
tv171 = 168
tv76 = 168
this$ = 192
__$ReturnUdt$ = 200
_Where$ = 208
_First$ = 216
_Last$ = 224
??$insert@V?$_Vector_iterator@V?$_Vector_val@U?$_Simple_types@PEAVD3D12Model@@@std@@@std@@@std@@$0A@@?$vector@PEAVD3D12Model@@V?$allocator@PEAVD3D12Model@@@std@@@std@@QEAA?AV?$_Vector_iterator@V?$_Vector_val@U?$_Simple_types@PEAVD3D12Model@@@std@@@std@@@1@V?$_Vector_const_iterator@V?$_Vector_val@U?$_Simple_types@PEAVD3D12Model@@@std@@@std@@@1@V21@1@Z PROC ; std::vector<D3D12Model *,std::allocator<D3D12Model *> >::insert<std::_Vector_iterator<std::_Vector_val<std::_Simple_types<D3D12Model *> > >,0>, COMDAT

; 1225 :     _CONSTEXPR20 iterator insert(const_iterator _Where, _Iter _First, _Iter _Last) {

$LN18:
  00000	4c 89 4c 24 20	 mov	 QWORD PTR [rsp+32], r9
  00005	4c 89 44 24 18	 mov	 QWORD PTR [rsp+24], r8
  0000a	48 89 54 24 10	 mov	 QWORD PTR [rsp+16], rdx
  0000f	48 89 4c 24 08	 mov	 QWORD PTR [rsp+8], rcx
  00014	55		 push	 rbp
  00015	48 81 ec e0 00
	00 00		 sub	 rsp, 224		; 000000e0H
  0001c	48 8d 6c 24 30	 lea	 rbp, QWORD PTR [rsp+48]
  00021	c7 85 a0 00 00
	00 00 00 00 00	 mov	 DWORD PTR $T5[rbp], 0
  0002b	48 8d 0d 00 00
	00 00		 lea	 rcx, OFFSET FLAT:__14F7CB70_vector
  00032	e8 00 00 00 00	 call	 __CheckForDebuggerJustMyCode

; 1226 :         const pointer _Whereptr = _Where._Ptr;

  00037	48 8b 85 d0 00
	00 00		 mov	 rax, QWORD PTR _Where$[rbp]
  0003e	48 8b 40 10	 mov	 rax, QWORD PTR [rax+16]
  00042	48 89 45 00	 mov	 QWORD PTR _Whereptr$[rbp], rax

; 1227 :         auto& _My_data          = _Mypair._Myval2;

  00046	48 8b 85 c0 00
	00 00		 mov	 rax, QWORD PTR this$[rbp]
  0004d	48 89 45 08	 mov	 QWORD PTR _My_data$[rbp], rax

; 1228 :         const pointer _Oldfirst = _My_data._Myfirst;

  00051	48 8b 45 08	 mov	 rax, QWORD PTR _My_data$[rbp]
  00055	48 8b 40 08	 mov	 rax, QWORD PTR [rax+8]
  00059	48 89 45 10	 mov	 QWORD PTR _Oldfirst$[rbp], rax
$LN4@insert:

; 1229 : #if _ITERATOR_DEBUG_LEVEL == 2
; 1230 :         _STL_VERIFY(

  0005d	48 8b 8d d0 00
	00 00		 mov	 rcx, QWORD PTR _Where$[rbp]
  00064	e8 00 00 00 00	 call	 ?_Getcont@_Iterator_base12@std@@QEBAPEBU_Container_base12@2@XZ ; std::_Iterator_base12::_Getcont
  00069	48 89 85 a8 00
	00 00		 mov	 QWORD PTR tv76[rbp], rax
  00070	48 8b 4d 08	 mov	 rcx, QWORD PTR _My_data$[rbp]
  00074	e8 00 00 00 00	 call	 ??$addressof@V?$_Vector_val@U?$_Simple_types@PEAVD3D12Model@@@std@@@std@@@std@@YAPEAV?$_Vector_val@U?$_Simple_types@PEAVD3D12Model@@@std@@@0@AEAV10@@Z ; std::addressof<std::_Vector_val<std::_Simple_types<D3D12Model *> > >
  00079	48 8b 8d a8 00
	00 00		 mov	 rcx, QWORD PTR tv76[rbp]
  00080	48 3b c8	 cmp	 rcx, rax
  00083	75 1a		 jne	 SHORT $LN7@insert
  00085	48 8b 45 10	 mov	 rax, QWORD PTR _Oldfirst$[rbp]
  00089	48 39 45 00	 cmp	 QWORD PTR _Whereptr$[rbp], rax
  0008d	72 10		 jb	 SHORT $LN7@insert
  0008f	48 8b 45 08	 mov	 rax, QWORD PTR _My_data$[rbp]
  00093	48 8b 4d 00	 mov	 rcx, QWORD PTR _Whereptr$[rbp]
  00097	48 39 48 10	 cmp	 QWORD PTR [rax+16], rcx
  0009b	72 02		 jb	 SHORT $LN7@insert
  0009d	eb 6b		 jmp	 SHORT $LN9@insert
$LN7@insert:
  0009f	48 8d 05 00 00
	00 00		 lea	 rax, OFFSET FLAT:??_C@_0CF@NNBLLPGF@vector?5insert?5iterator?5outside?5@
  000a6	48 89 44 24 28	 mov	 QWORD PTR [rsp+40], rax
  000ab	48 8d 05 00 00
	00 00		 lea	 rax, OFFSET FLAT:??_C@_02DKCKIIND@?$CFs@
  000b2	48 89 44 24 20	 mov	 QWORD PTR [rsp+32], rax
  000b7	45 33 c9	 xor	 r9d, r9d
  000ba	41 b8 d0 04 00
	00		 mov	 r8d, 1232		; 000004d0H
  000c0	48 8d 15 00 00
	00 00		 lea	 rdx, OFFSET FLAT:??_C@_0FP@IENHKCNK@C?3?2Program?5Files?2Microsoft?5Visu@
  000c7	b9 02 00 00 00	 mov	 ecx, 2
  000cc	ff 15 00 00 00
	00		 call	 QWORD PTR __imp__CrtDbgReport
  000d2	83 f8 01	 cmp	 eax, 1
  000d5	75 03		 jne	 SHORT $LN11@insert
  000d7	cc		 int	 3
  000d8	33 c0		 xor	 eax, eax
$LN11@insert:
  000da	48 c7 44 24 20
	00 00 00 00	 mov	 QWORD PTR [rsp+32], 0
  000e3	41 b9 d0 04 00
	00		 mov	 r9d, 1232		; 000004d0H
  000e9	4c 8d 05 00 00
	00 00		 lea	 r8, OFFSET FLAT:??_C@_1LO@DMIPLFD@?$AAC?$AA?3?$AA?2?$AAP?$AAr?$AAo?$AAg?$AAr?$AAa?$AAm?$AA?5?$AAF?$AAi?$AAl?$AAe@
  000f0	48 8d 15 00 00
	00 00		 lea	 rdx, OFFSET FLAT:??_C@_11LOCGONAA@@
  000f7	48 8d 0d 00 00
	00 00		 lea	 rcx, OFFSET FLAT:??_C@_1EO@HCJPCNBE@?$AA?$CC?$AAv?$AAe?$AAc?$AAt?$AAo?$AAr?$AA?5?$AAi?$AAn?$AAs?$AAe?$AAr?$AAt?$AA?5@
  000fe	ff 15 00 00 00
	00		 call	 QWORD PTR __imp__invalid_parameter
  00104	33 c0		 xor	 eax, eax
  00106	85 c0		 test	 eax, eax
  00108	75 95		 jne	 SHORT $LN7@insert
$LN9@insert:
  0010a	33 c0		 xor	 eax, eax
  0010c	85 c0		 test	 eax, eax
  0010e	0f 85 49 ff ff
	ff		 jne	 $LN4@insert

; 1231 :             _Where._Getcont() == _STD addressof(_My_data) && _Whereptr >= _Oldfirst && _My_data._Mylast >= _Whereptr,
; 1232 :             "vector insert iterator outside range");
; 1233 : #endif // _ITERATOR_DEBUG_LEVEL == 2
; 1234 : 
; 1235 :         _Adl_verify_range(_First, _Last);

  00114	48 8b 95 e0 00
	00 00		 mov	 rdx, QWORD PTR _Last$[rbp]
  0011b	48 8b 8d d8 00
	00 00		 mov	 rcx, QWORD PTR _First$[rbp]
  00122	e8 00 00 00 00	 call	 ??$_Adl_verify_range@V?$_Vector_iterator@V?$_Vector_val@U?$_Simple_types@PEAVD3D12Model@@@std@@@std@@@std@@V12@@std@@YAXAEBV?$_Vector_iterator@V?$_Vector_val@U?$_Simple_types@PEAVD3D12Model@@@std@@@std@@@0@0@Z ; std::_Adl_verify_range<std::_Vector_iterator<std::_Vector_val<std::_Simple_types<D3D12Model *> > >,std::_Vector_iterator<std::_Vector_val<std::_Simple_types<D3D12Model *> > > >

; 1236 :         auto _UFirst         = _Get_unwrapped(_First);

  00127	48 8b 8d d8 00
	00 00		 mov	 rcx, QWORD PTR _First$[rbp]
  0012e	e8 00 00 00 00	 call	 ??$_Get_unwrapped@AEAV?$_Vector_iterator@V?$_Vector_val@U?$_Simple_types@PEAVD3D12Model@@@std@@@std@@@std@@@std@@YA?A_TAEAV?$_Vector_iterator@V?$_Vector_val@U?$_Simple_types@PEAVD3D12Model@@@std@@@std@@@0@@Z ; std::_Get_unwrapped<std::_Vector_iterator<std::_Vector_val<std::_Simple_types<D3D12Model *> > > &>
  00133	48 89 45 18	 mov	 QWORD PTR _UFirst$[rbp], rax

; 1237 :         auto _ULast          = _Get_unwrapped(_Last);

  00137	48 8b 8d e0 00
	00 00		 mov	 rcx, QWORD PTR _Last$[rbp]
  0013e	e8 00 00 00 00	 call	 ??$_Get_unwrapped@AEAV?$_Vector_iterator@V?$_Vector_val@U?$_Simple_types@PEAVD3D12Model@@@std@@@std@@@std@@@std@@YA?A_TAEAV?$_Vector_iterator@V?$_Vector_val@U?$_Simple_types@PEAVD3D12Model@@@std@@@std@@@0@@Z ; std::_Get_unwrapped<std::_Vector_iterator<std::_Vector_val<std::_Simple_types<D3D12Model *> > > &>
  00143	48 89 45 20	 mov	 QWORD PTR _ULast$[rbp], rax

; 1238 :         const auto _Whereoff = static_cast<size_type>(_Whereptr - _Oldfirst);

  00147	48 8b 45 10	 mov	 rax, QWORD PTR _Oldfirst$[rbp]
  0014b	48 8b 4d 00	 mov	 rcx, QWORD PTR _Whereptr$[rbp]
  0014f	48 2b c8	 sub	 rcx, rax
  00152	48 8b c1	 mov	 rax, rcx
  00155	48 c1 f8 03	 sar	 rax, 3
  00159	48 89 45 28	 mov	 QWORD PTR _Whereoff$[rbp], rax

; 1239 :         if constexpr (_Is_cpp17_fwd_iter_v<_Iter>) {
; 1240 :             const auto _Length = static_cast<size_t>(_STD distance(_UFirst, _ULast));

  0015d	48 8b 55 20	 mov	 rdx, QWORD PTR _ULast$[rbp]
  00161	48 8b 4d 18	 mov	 rcx, QWORD PTR _UFirst$[rbp]
  00165	e8 00 00 00 00	 call	 ??$distance@PEAPEAVD3D12Model@@@std@@YA_JPEAPEAVD3D12Model@@0@Z ; std::distance<D3D12Model * *>
  0016a	48 89 45 30	 mov	 QWORD PTR _Length$1[rbp], rax

; 1241 :             const auto _Count  = _Convert_size<size_type>(_Length);

  0016e	48 8b 4d 30	 mov	 rcx, QWORD PTR _Length$1[rbp]
  00172	e8 00 00 00 00	 call	 ??$_Convert_size@_K_K@std@@YA_K_K@Z ; std::_Convert_size<unsigned __int64,unsigned __int64>
  00177	48 89 45 38	 mov	 QWORD PTR _Count$2[rbp], rax

; 1242 :             _Insert_counted_range(_Where, _UFirst, _Count);

  0017b	48 8d 85 80 00
	00 00		 lea	 rax, QWORD PTR $T3[rbp]
  00182	48 89 85 98 00
	00 00		 mov	 QWORD PTR $T4[rbp], rax
  00189	48 8b 95 d0 00
	00 00		 mov	 rdx, QWORD PTR _Where$[rbp]
  00190	48 8b 8d 98 00
	00 00		 mov	 rcx, QWORD PTR $T4[rbp]
  00197	e8 00 00 00 00	 call	 ??0?$_Vector_const_iterator@V?$_Vector_val@U?$_Simple_types@PEAVD3D12Model@@@std@@@std@@@std@@QEAA@AEBV01@@Z
  0019c	48 89 85 a8 00
	00 00		 mov	 QWORD PTR tv171[rbp], rax
  001a3	4c 8b 4d 38	 mov	 r9, QWORD PTR _Count$2[rbp]
  001a7	4c 8b 45 18	 mov	 r8, QWORD PTR _UFirst$[rbp]
  001ab	48 8b 95 a8 00
	00 00		 mov	 rdx, QWORD PTR tv171[rbp]
  001b2	48 8b 8d c0 00
	00 00		 mov	 rcx, QWORD PTR this$[rbp]
  001b9	e8 00 00 00 00	 call	 ??$_Insert_counted_range@PEAPEAVD3D12Model@@@?$vector@PEAVD3D12Model@@V?$allocator@PEAVD3D12Model@@@std@@@std@@AEAAXV?$_Vector_const_iterator@V?$_Vector_val@U?$_Simple_types@PEAVD3D12Model@@@std@@@std@@@1@PEAPEAVD3D12Model@@_K@Z ; std::vector<D3D12Model *,std::allocator<D3D12Model *> >::_Insert_counted_range<D3D12Model * *>

; 1243 : #ifdef __cpp_lib_concepts
; 1244 :         } else if constexpr (forward_iterator<_Iter>) {
; 1245 :             const auto _Length = _To_unsigned_like(_RANGES distance(_UFirst, _ULast));
; 1246 :             const auto _Count  = _Convert_size<size_type>(_Length);
; 1247 :             _Insert_counted_range(_Where, _UFirst, _Count);
; 1248 : #endif // __cpp_lib_concepts
; 1249 :         } else {
; 1250 :             _Insert_uncounted_range(_Where, _UFirst, _ULast);
; 1251 :         }
; 1252 :         return _Make_iterator_offset(_Whereoff);

  001be	4c 8b 45 28	 mov	 r8, QWORD PTR _Whereoff$[rbp]
  001c2	48 8b 95 c8 00
	00 00		 mov	 rdx, QWORD PTR __$ReturnUdt$[rbp]
  001c9	48 8b 8d c0 00
	00 00		 mov	 rcx, QWORD PTR this$[rbp]
  001d0	e8 00 00 00 00	 call	 ?_Make_iterator_offset@?$vector@PEAVD3D12Model@@V?$allocator@PEAVD3D12Model@@@std@@@std@@AEAA?AV?$_Vector_iterator@V?$_Vector_val@U?$_Simple_types@PEAVD3D12Model@@@std@@@std@@@2@_K@Z ; std::vector<D3D12Model *,std::allocator<D3D12Model *> >::_Make_iterator_offset
  001d5	8b 85 a0 00 00
	00		 mov	 eax, DWORD PTR $T5[rbp]
  001db	83 c8 01	 or	 eax, 1
  001de	89 85 a0 00 00
	00		 mov	 DWORD PTR $T5[rbp], eax
  001e4	48 8b 8d d0 00
	00 00		 mov	 rcx, QWORD PTR _Where$[rbp]
  001eb	e8 00 00 00 00	 call	 ??1?$_Vector_const_iterator@V?$_Vector_val@U?$_Simple_types@PEAVD3D12Model@@@std@@@std@@@std@@QEAA@XZ
  001f0	90		 npad	 1
  001f1	48 8b 8d d8 00
	00 00		 mov	 rcx, QWORD PTR _First$[rbp]
  001f8	e8 00 00 00 00	 call	 ??1?$_Vector_iterator@V?$_Vector_val@U?$_Simple_types@PEAVD3D12Model@@@std@@@std@@@std@@QEAA@XZ
  001fd	90		 npad	 1
  001fe	48 8b 8d e0 00
	00 00		 mov	 rcx, QWORD PTR _Last$[rbp]
  00205	e8 00 00 00 00	 call	 ??1?$_Vector_iterator@V?$_Vector_val@U?$_Simple_types@PEAVD3D12Model@@@std@@@std@@@std@@QEAA@XZ
  0020a	48 8b 85 c8 00
	00 00		 mov	 rax, QWORD PTR __$ReturnUdt$[rbp]

; 1253 :     }

  00211	48 8d a5 b0 00
	00 00		 lea	 rsp, QWORD PTR [rbp+176]
  00218	5d		 pop	 rbp
  00219	c3		 ret	 0
??$insert@V?$_Vector_iterator@V?$_Vector_val@U?$_Simple_types@PEAVD3D12Model@@@std@@@std@@@std@@$0A@@?$vector@PEAVD3D12Model@@V?$allocator@PEAVD3D12Model@@@std@@@std@@QEAA?AV?$_Vector_iterator@V?$_Vector_val@U?$_Simple_types@PEAVD3D12Model@@@std@@@std@@@1@V?$_Vector_const_iterator@V?$_Vector_val@U?$_Simple_types@PEAVD3D12Model@@@std@@@std@@@1@V21@1@Z ENDP ; std::vector<D3D12Model *,std::allocator<D3D12Model *> >::insert<std::_Vector_iterator<std::_Vector_val<std::_Simple_types<D3D12Model *> > >,0>
_TEXT	ENDS
; Function compile flags: /Odtp /ZI
;	COMDAT text$x
text$x	SEGMENT
_Whereptr$ = 0
_My_data$ = 8
_Oldfirst$ = 16
_UFirst$ = 24
_ULast$ = 32
_Whereoff$ = 40
_Length$1 = 48
_Count$2 = 56
$T3 = 128
$T4 = 152
$T5 = 160
tv171 = 168
tv76 = 168
this$ = 192
__$ReturnUdt$ = 200
_Where$ = 208
_First$ = 216
_Last$ = 224
?dtor$0@?0???$insert@V?$_Vector_iterator@V?$_Vector_val@U?$_Simple_types@PEAVD3D12Model@@@std@@@std@@@std@@$0A@@?$vector@PEAVD3D12Model@@V?$allocator@PEAVD3D12Model@@@std@@@std@@QEAA?AV?$_Vector_iterator@V?$_Vector_val@U?$_Simple_types@PEAVD3D12Model@@@std@@@std@@@1@V?$_Vector_const_iterator@V?$_Vector_val@U?$_Simple_types@PEAVD3D12Model@@@std@@@std@@@1@V21@1@Z@4HA PROC ; `std::vector<D3D12Model *,std::allocator<D3D12Model *> >::insert<std::_Vector_iterator<std::_Vector_val<std::_Simple_types<D3D12Model *> > >,0>'::`1'::dtor$0
  00000	40 55		 push	 rbp
  00002	48 83 ec 20	 sub	 rsp, 32			; 00000020H
  00006	48 8d 6a 30	 lea	 rbp, QWORD PTR [rdx+48]
  0000a	48 8b 8d e0 00
	00 00		 mov	 rcx, QWORD PTR _Last$[rbp]
  00011	e8 00 00 00 00	 call	 ??1?$_Vector_iterator@V?$_Vector_val@U?$_Simple_types@PEAVD3D12Model@@@std@@@std@@@std@@QEAA@XZ
  00016	48 83 c4 20	 add	 rsp, 32			; 00000020H
  0001a	5d		 pop	 rbp
  0001b	c3		 ret	 0
?dtor$0@?0???$insert@V?$_Vector_iterator@V?$_Vector_val@U?$_Simple_types@PEAVD3D12Model@@@std@@@std@@@std@@$0A@@?$vector@PEAVD3D12Model@@V?$allocator@PEAVD3D12Model@@@std@@@std@@QEAA?AV?$_Vector_iterator@V?$_Vector_val@U?$_Simple_types@PEAVD3D12Model@@@std@@@std@@@1@V?$_Vector_const_iterator@V?$_Vector_val@U?$_Simple_types@PEAVD3D12Model@@@std@@@std@@@1@V21@1@Z@4HA ENDP ; `std::vector<D3D12Model *,std::allocator<D3D12Model *> >::insert<std::_Vector_iterator<std::_Vector_val<std::_Simple_types<D3D12Model *> > >,0>'::`1'::dtor$0
text$x	ENDS
; Function compile flags: /Odtp /ZI
;	COMDAT text$x
text$x	SEGMENT
_Whereptr$ = 0
_My_data$ = 8
_Oldfirst$ = 16
_UFirst$ = 24
_ULast$ = 32
_Whereoff$ = 40
_Length$1 = 48
_Count$2 = 56
$T3 = 128
$T4 = 152
$T5 = 160
tv171 = 168
tv76 = 168
this$ = 192
__$ReturnUdt$ = 200
_Where$ = 208
_First$ = 216
_Last$ = 224
?dtor$1@?0???$insert@V?$_Vector_iterator@V?$_Vector_val@U?$_Simple_types@PEAVD3D12Model@@@std@@@std@@@std@@$0A@@?$vector@PEAVD3D12Model@@V?$allocator@PEAVD3D12Model@@@std@@@std@@QEAA?AV?$_Vector_iterator@V?$_Vector_val@U?$_Simple_types@PEAVD3D12Model@@@std@@@std@@@1@V?$_Vector_const_iterator@V?$_Vector_val@U?$_Simple_types@PEAVD3D12Model@@@std@@@std@@@1@V21@1@Z@4HA PROC ; `std::vector<D3D12Model *,std::allocator<D3D12Model *> >::insert<std::_Vector_iterator<std::_Vector_val<std::_Simple_types<D3D12Model *> > >,0>'::`1'::dtor$1
  00000	40 55		 push	 rbp
  00002	48 83 ec 20	 sub	 rsp, 32			; 00000020H
  00006	48 8d 6a 30	 lea	 rbp, QWORD PTR [rdx+48]
  0000a	48 8b 8d d8 00
	00 00		 mov	 rcx, QWORD PTR _First$[rbp]
  00011	e8 00 00 00 00	 call	 ??1?$_Vector_iterator@V?$_Vector_val@U?$_Simple_types@PEAVD3D12Model@@@std@@@std@@@std@@QEAA@XZ
  00016	48 83 c4 20	 add	 rsp, 32			; 00000020H
  0001a	5d		 pop	 rbp
  0001b	c3		 ret	 0
?dtor$1@?0???$insert@V?$_Vector_iterator@V?$_Vector_val@U?$_Simple_types@PEAVD3D12Model@@@std@@@std@@@std@@$0A@@?$vector@PEAVD3D12Model@@V?$allocator@PEAVD3D12Model@@@std@@@std@@QEAA?AV?$_Vector_iterator@V?$_Vector_val@U?$_Simple_types@PEAVD3D12Model@@@std@@@std@@@1@V?$_Vector_const_iterator@V?$_Vector_val@U?$_Simple_types@PEAVD3D12Model@@@std@@@std@@@1@V21@1@Z@4HA ENDP ; `std::vector<D3D12Model *,std::allocator<D3D12Model *> >::insert<std::_Vector_iterator<std::_Vector_val<std::_Simple_types<D3D12Model *> > >,0>'::`1'::dtor$1
text$x	ENDS
; Function compile flags: /Odtp /ZI
;	COMDAT text$x
text$x	SEGMENT
_Whereptr$ = 0
_My_data$ = 8
_Oldfirst$ = 16
_UFirst$ = 24
_ULast$ = 32
_Whereoff$ = 40
_Length$1 = 48
_Count$2 = 56
$T3 = 128
$T4 = 152
$T5 = 160
tv171 = 168
tv76 = 168
this$ = 192
__$ReturnUdt$ = 200
_Where$ = 208
_First$ = 216
_Last$ = 224
?dtor$2@?0???$insert@V?$_Vector_iterator@V?$_Vector_val@U?$_Simple_types@PEAVD3D12Model@@@std@@@std@@@std@@$0A@@?$vector@PEAVD3D12Model@@V?$allocator@PEAVD3D12Model@@@std@@@std@@QEAA?AV?$_Vector_iterator@V?$_Vector_val@U?$_Simple_types@PEAVD3D12Model@@@std@@@std@@@1@V?$_Vector_const_iterator@V?$_Vector_val@U?$_Simple_types@PEAVD3D12Model@@@std@@@std@@@1@V21@1@Z@4HA PROC ; `std::vector<D3D12Model *,std::allocator<D3D12Model *> >::insert<std::_Vector_iterator<std::_Vector_val<std::_Simple_types<D3D12Model *> > >,0>'::`1'::dtor$2
  00000	40 55		 push	 rbp
  00002	48 83 ec 20	 sub	 rsp, 32			; 00000020H
  00006	48 8d 6a 30	 lea	 rbp, QWORD PTR [rdx+48]
  0000a	48 8b 8d d0 00
	00 00		 mov	 rcx, QWORD PTR _Where$[rbp]
  00011	e8 00 00 00 00	 call	 ??1?$_Vector_const_iterator@V?$_Vector_val@U?$_Simple_types@PEAVD3D12Model@@@std@@@std@@@std@@QEAA@XZ
  00016	48 83 c4 20	 add	 rsp, 32			; 00000020H
  0001a	5d		 pop	 rbp
  0001b	c3		 ret	 0
?dtor$2@?0???$insert@V?$_Vector_iterator@V?$_Vector_val@U?$_Simple_types@PEAVD3D12Model@@@std@@@std@@@std@@$0A@@?$vector@PEAVD3D12Model@@V?$allocator@PEAVD3D12Model@@@std@@@std@@QEAA?AV?$_Vector_iterator@V?$_Vector_val@U?$_Simple_types@PEAVD3D12Model@@@std@@@std@@@1@V?$_Vector_const_iterator@V?$_Vector_val@U?$_Simple_types@PEAVD3D12Model@@@std@@@std@@@1@V21@1@Z@4HA ENDP ; `std::vector<D3D12Model *,std::allocator<D3D12Model *> >::insert<std::_Vector_iterator<std::_Vector_val<std::_Simple_types<D3D12Model *> > >,0>'::`1'::dtor$2
text$x	ENDS
; Function compile flags: /Odtp /ZI
;	COMDAT ??0?$_Vector_iterator@V?$_Vector_val@U?$_Simple_types@PEAVD3D12Model@@@std@@@std@@@std@@QEAA@PEAPEAVD3D12Model@@PEBU_Container_base12@1@@Z
_TEXT	SEGMENT
this$ = 80
__param0$ = 88
__param1$ = 96
??0?$_Vector_iterator@V?$_Vector_val@U?$_Simple_types@PEAVD3D12Model@@@std@@@std@@@std@@QEAA@PEAPEAVD3D12Model@@PEBU_Container_base12@1@@Z PROC ; std::_Vector_iterator<std::_Vector_val<std::_Simple_types<D3D12Model *> > >::_Vector_iterator<std::_Vector_val<std::_Simple_types<D3D12Model *> > >, COMDAT
$LN3:
  00000	4c 89 44 24 18	 mov	 QWORD PTR [rsp+24], r8
  00005	48 89 54 24 10	 mov	 QWORD PTR [rsp+16], rdx
  0000a	48 89 4c 24 08	 mov	 QWORD PTR [rsp+8], rcx
  0000f	55		 push	 rbp
  00010	48 83 ec 60	 sub	 rsp, 96			; 00000060H
  00014	48 8d 6c 24 20	 lea	 rbp, QWORD PTR [rsp+32]
  00019	4c 8b 45 60	 mov	 r8, QWORD PTR __param1$[rbp]
  0001d	48 8b 55 58	 mov	 rdx, QWORD PTR __param0$[rbp]
  00021	48 8b 4d 50	 mov	 rcx, QWORD PTR this$[rbp]
  00025	e8 00 00 00 00	 call	 ??0?$_Vector_const_iterator@V?$_Vector_val@U?$_Simple_types@PEAVD3D12Model@@@std@@@std@@@std@@QEAA@PEAPEAVD3D12Model@@PEBU_Container_base12@1@@Z ; std::_Vector_const_iterator<std::_Vector_val<std::_Simple_types<D3D12Model *> > >::_Vector_const_iterator<std::_Vector_val<std::_Simple_types<D3D12Model *> > >
  0002a	48 8b 45 50	 mov	 rax, QWORD PTR this$[rbp]
  0002e	48 8d 65 40	 lea	 rsp, QWORD PTR [rbp+64]
  00032	5d		 pop	 rbp
  00033	c3		 ret	 0
??0?$_Vector_iterator@V?$_Vector_val@U?$_Simple_types@PEAVD3D12Model@@@std@@@std@@@std@@QEAA@PEAPEAVD3D12Model@@PEBU_Container_base12@1@@Z ENDP ; std::_Vector_iterator<std::_Vector_val<std::_Simple_types<D3D12Model *> > >::_Vector_iterator<std::_Vector_val<std::_Simple_types<D3D12Model *> > >
_TEXT	ENDS
; Function compile flags: /Odtp /ZI
;	COMDAT ??1?$_Vector_iterator@V?$_Vector_val@U?$_Simple_types@PEAVD3D12Model@@@std@@@std@@@std@@QEAA@XZ
_TEXT	SEGMENT
this$ = 80
??1?$_Vector_iterator@V?$_Vector_val@U?$_Simple_types@PEAVD3D12Model@@@std@@@std@@@std@@QEAA@XZ PROC ; std::_Vector_iterator<std::_Vector_val<std::_Simple_types<D3D12Model *> > >::~_Vector_iterator<std::_Vector_val<std::_Simple_types<D3D12Model *> > >, COMDAT
$LN3:
  00000	48 89 4c 24 08	 mov	 QWORD PTR [rsp+8], rcx
  00005	55		 push	 rbp
  00006	48 83 ec 60	 sub	 rsp, 96			; 00000060H
  0000a	48 8d 6c 24 20	 lea	 rbp, QWORD PTR [rsp+32]
  0000f	48 8b 4d 50	 mov	 rcx, QWORD PTR this$[rbp]
  00013	e8 00 00 00 00	 call	 ??1?$_Vector_const_iterator@V?$_Vector_val@U?$_Simple_types@PEAVD3D12Model@@@std@@@std@@@std@@QEAA@XZ
  00018	48 8d 65 40	 lea	 rsp, QWORD PTR [rbp+64]
  0001c	5d		 pop	 rbp
  0001d	c3		 ret	 0
??1?$_Vector_iterator@V?$_Vector_val@U?$_Simple_types@PEAVD3D12Model@@@std@@@std@@@std@@QEAA@XZ ENDP ; std::_Vector_iterator<std::_Vector_val<std::_Simple_types<D3D12Model *> > >::~_Vector_iterator<std::_Vector_val<std::_Simple_types<D3D12Model *> > >
_TEXT	ENDS
; Function compile flags: /Odtp /ZI
; File C:\Program Files\Microsoft Visual Studio\2022\Preview\VC\Tools\MSVC\14.38.33030\include\vector
;	COMDAT ?_Unwrapped@?$_Vector_iterator@V?$_Vector_val@U?$_Simple_types@PEAVD3D12Model@@@std@@@std@@@std@@QEBAPEAPEAVD3D12Model@@XZ
_TEXT	SEGMENT
this$ = 80
?_Unwrapped@?$_Vector_iterator@V?$_Vector_val@U?$_Simple_types@PEAVD3D12Model@@@std@@@std@@@std@@QEBAPEAPEAVD3D12Model@@XZ PROC ; std::_Vector_iterator<std::_Vector_val<std::_Simple_types<D3D12Model *> > >::_Unwrapped, COMDAT

; 341  :     _NODISCARD _CONSTEXPR20 value_type* _Unwrapped() const noexcept {

$LN3:
  00000	48 89 4c 24 08	 mov	 QWORD PTR [rsp+8], rcx
  00005	55		 push	 rbp
  00006	48 83 ec 60	 sub	 rsp, 96			; 00000060H
  0000a	48 8d 6c 24 20	 lea	 rbp, QWORD PTR [rsp+32]
  0000f	48 8d 0d 00 00
	00 00		 lea	 rcx, OFFSET FLAT:__14F7CB70_vector
  00016	e8 00 00 00 00	 call	 __CheckForDebuggerJustMyCode

; 342  :         return _Unfancy(this->_Ptr);

  0001b	48 8b 45 50	 mov	 rax, QWORD PTR this$[rbp]
  0001f	48 8b 48 10	 mov	 rcx, QWORD PTR [rax+16]
  00023	e8 00 00 00 00	 call	 ??$_Unfancy@PEAVD3D12Model@@@std@@YAPEAPEAVD3D12Model@@PEAPEAV1@@Z ; std::_Unfancy<D3D12Model *>

; 343  :     }

  00028	48 8d 65 40	 lea	 rsp, QWORD PTR [rbp+64]
  0002c	5d		 pop	 rbp
  0002d	c3		 ret	 0
?_Unwrapped@?$_Vector_iterator@V?$_Vector_val@U?$_Simple_types@PEAVD3D12Model@@@std@@@std@@@std@@QEBAPEAPEAVD3D12Model@@XZ ENDP ; std::_Vector_iterator<std::_Vector_val<std::_Simple_types<D3D12Model *> > >::_Unwrapped
_TEXT	ENDS
; Function compile flags: /Odtp /ZI
;	COMDAT ??0?$_Vector_const_iterator@V?$_Vector_val@U?$_Simple_types@PEAVD3D12Model@@@std@@@std@@@std@@QEAA@$$QEAV01@@Z
_TEXT	SEGMENT
this$ = 80
__that$ = 88
??0?$_Vector_const_iterator@V?$_Vector_val@U?$_Simple_types@PEAVD3D12Model@@@std@@@std@@@std@@QEAA@$$QEAV01@@Z PROC ; std::_Vector_const_iterator<std::_Vector_val<std::_Simple_types<D3D12Model *> > >::_Vector_const_iterator<std::_Vector_val<std::_Simple_types<D3D12Model *> > >, COMDAT
$LN3:
  00000	48 89 54 24 10	 mov	 QWORD PTR [rsp+16], rdx
  00005	48 89 4c 24 08	 mov	 QWORD PTR [rsp+8], rcx
  0000a	55		 push	 rbp
  0000b	48 83 ec 60	 sub	 rsp, 96			; 00000060H
  0000f	48 8d 6c 24 20	 lea	 rbp, QWORD PTR [rsp+32]
  00014	48 8b 55 58	 mov	 rdx, QWORD PTR __that$[rbp]
  00018	48 8b 4d 50	 mov	 rcx, QWORD PTR this$[rbp]
  0001c	e8 00 00 00 00	 call	 ??0_Iterator_base12@std@@QEAA@AEBU01@@Z ; std::_Iterator_base12::_Iterator_base12
  00021	48 8b 45 50	 mov	 rax, QWORD PTR this$[rbp]
  00025	48 8b 4d 58	 mov	 rcx, QWORD PTR __that$[rbp]
  00029	48 8b 49 10	 mov	 rcx, QWORD PTR [rcx+16]
  0002d	48 89 48 10	 mov	 QWORD PTR [rax+16], rcx
  00031	48 8b 45 50	 mov	 rax, QWORD PTR this$[rbp]
  00035	48 8d 65 40	 lea	 rsp, QWORD PTR [rbp+64]
  00039	5d		 pop	 rbp
  0003a	c3		 ret	 0
??0?$_Vector_const_iterator@V?$_Vector_val@U?$_Simple_types@PEAVD3D12Model@@@std@@@std@@@std@@QEAA@$$QEAV01@@Z ENDP ; std::_Vector_const_iterator<std::_Vector_val<std::_Simple_types<D3D12Model *> > >::_Vector_const_iterator<std::_Vector_val<std::_Simple_types<D3D12Model *> > >
_TEXT	ENDS
; Function compile flags: /Odtp /ZI
;	COMDAT ??0?$_Vector_const_iterator@V?$_Vector_val@U?$_Simple_types@PEAVD3D12Model@@@std@@@std@@@std@@QEAA@AEBV01@@Z
_TEXT	SEGMENT
this$ = 80
__that$ = 88
??0?$_Vector_const_iterator@V?$_Vector_val@U?$_Simple_types@PEAVD3D12Model@@@std@@@std@@@std@@QEAA@AEBV01@@Z PROC ; std::_Vector_const_iterator<std::_Vector_val<std::_Simple_types<D3D12Model *> > >::_Vector_const_iterator<std::_Vector_val<std::_Simple_types<D3D12Model *> > >, COMDAT
$LN3:
  00000	48 89 54 24 10	 mov	 QWORD PTR [rsp+16], rdx
  00005	48 89 4c 24 08	 mov	 QWORD PTR [rsp+8], rcx
  0000a	55		 push	 rbp
  0000b	48 83 ec 60	 sub	 rsp, 96			; 00000060H
  0000f	48 8d 6c 24 20	 lea	 rbp, QWORD PTR [rsp+32]
  00014	48 8b 55 58	 mov	 rdx, QWORD PTR __that$[rbp]
  00018	48 8b 4d 50	 mov	 rcx, QWORD PTR this$[rbp]
  0001c	e8 00 00 00 00	 call	 ??0_Iterator_base12@std@@QEAA@AEBU01@@Z ; std::_Iterator_base12::_Iterator_base12
  00021	48 8b 45 50	 mov	 rax, QWORD PTR this$[rbp]
  00025	48 8b 4d 58	 mov	 rcx, QWORD PTR __that$[rbp]
  00029	48 8b 49 10	 mov	 rcx, QWORD PTR [rcx+16]
  0002d	48 89 48 10	 mov	 QWORD PTR [rax+16], rcx
  00031	48 8b 45 50	 mov	 rax, QWORD PTR this$[rbp]
  00035	48 8d 65 40	 lea	 rsp, QWORD PTR [rbp+64]
  00039	5d		 pop	 rbp
  0003a	c3		 ret	 0
??0?$_Vector_const_iterator@V?$_Vector_val@U?$_Simple_types@PEAVD3D12Model@@@std@@@std@@@std@@QEAA@AEBV01@@Z ENDP ; std::_Vector_const_iterator<std::_Vector_val<std::_Simple_types<D3D12Model *> > >::_Vector_const_iterator<std::_Vector_val<std::_Simple_types<D3D12Model *> > >
_TEXT	ENDS
; Function compile flags: /Odtp /ZI
;	COMDAT ??1?$_Vector_const_iterator@V?$_Vector_val@U?$_Simple_types@PEAVD3D12Model@@@std@@@std@@@std@@QEAA@XZ
_TEXT	SEGMENT
this$ = 80
??1?$_Vector_const_iterator@V?$_Vector_val@U?$_Simple_types@PEAVD3D12Model@@@std@@@std@@@std@@QEAA@XZ PROC ; std::_Vector_const_iterator<std::_Vector_val<std::_Simple_types<D3D12Model *> > >::~_Vector_const_iterator<std::_Vector_val<std::_Simple_types<D3D12Model *> > >, COMDAT
$LN3:
  00000	48 89 4c 24 08	 mov	 QWORD PTR [rsp+8], rcx
  00005	55		 push	 rbp
  00006	48 83 ec 60	 sub	 rsp, 96			; 00000060H
  0000a	48 8d 6c 24 20	 lea	 rbp, QWORD PTR [rsp+32]
  0000f	48 8b 4d 50	 mov	 rcx, QWORD PTR this$[rbp]
  00013	e8 00 00 00 00	 call	 ??1_Iterator_base12@std@@QEAA@XZ ; std::_Iterator_base12::~_Iterator_base12
  00018	48 8d 65 40	 lea	 rsp, QWORD PTR [rbp+64]
  0001c	5d		 pop	 rbp
  0001d	c3		 ret	 0
??1?$_Vector_const_iterator@V?$_Vector_val@U?$_Simple_types@PEAVD3D12Model@@@std@@@std@@@std@@QEAA@XZ ENDP ; std::_Vector_const_iterator<std::_Vector_val<std::_Simple_types<D3D12Model *> > >::~_Vector_const_iterator<std::_Vector_val<std::_Simple_types<D3D12Model *> > >
_TEXT	ENDS
; Function compile flags: /Odtp /ZI
; File C:\Program Files\Microsoft Visual Studio\2022\Preview\VC\Tools\MSVC\14.38.33030\include\vector
;	COMDAT ?_Verify_range@std@@YAXAEBV?$_Vector_const_iterator@V?$_Vector_val@U?$_Simple_types@PEAVD3D12Model@@@std@@@std@@@1@0@Z
_TEXT	SEGMENT
tv69 = 64
_First$ = 96
_Last$ = 104
?_Verify_range@std@@YAXAEBV?$_Vector_const_iterator@V?$_Vector_val@U?$_Simple_types@PEAVD3D12Model@@@std@@@std@@@1@0@Z PROC ; std::_Verify_range, COMDAT

; 205  :         const _Vector_const_iterator& _First, const _Vector_const_iterator& _Last) noexcept {

$LN21:
  00000	48 89 54 24 10	 mov	 QWORD PTR [rsp+16], rdx
  00005	48 89 4c 24 08	 mov	 QWORD PTR [rsp+8], rcx
  0000a	55		 push	 rbp
  0000b	48 81 ec 80 00
	00 00		 sub	 rsp, 128		; 00000080H
  00012	48 8d 6c 24 30	 lea	 rbp, QWORD PTR [rsp+48]
  00017	48 8d 0d 00 00
	00 00		 lea	 rcx, OFFSET FLAT:__14F7CB70_vector
  0001e	e8 00 00 00 00	 call	 __CheckForDebuggerJustMyCode
$LN4@Verify_ran:

; 206  :         _STL_VERIFY(_First._Getcont() == _Last._Getcont(), "vector iterators in range are from different containers");

  00023	48 8b 4d 60	 mov	 rcx, QWORD PTR _First$[rbp]
  00027	e8 00 00 00 00	 call	 ?_Getcont@_Iterator_base12@std@@QEBAPEBU_Container_base12@2@XZ ; std::_Iterator_base12::_Getcont
  0002c	48 89 45 40	 mov	 QWORD PTR tv69[rbp], rax
  00030	48 8b 4d 68	 mov	 rcx, QWORD PTR _Last$[rbp]
  00034	e8 00 00 00 00	 call	 ?_Getcont@_Iterator_base12@std@@QEBAPEBU_Container_base12@2@XZ ; std::_Iterator_base12::_Getcont
  00039	48 8b 4d 40	 mov	 rcx, QWORD PTR tv69[rbp]
  0003d	48 3b c8	 cmp	 rcx, rax
  00040	75 02		 jne	 SHORT $LN7@Verify_ran
  00042	eb 6b		 jmp	 SHORT $LN15@Verify_ran
$LN7@Verify_ran:
  00044	48 8d 05 00 00
	00 00		 lea	 rax, OFFSET FLAT:??_C@_0DI@PBEELKIF@vector?5iterators?5in?5range?5are?5f@
  0004b	48 89 44 24 28	 mov	 QWORD PTR [rsp+40], rax
  00050	48 8d 05 00 00
	00 00		 lea	 rax, OFFSET FLAT:??_C@_02DKCKIIND@?$CFs@
  00057	48 89 44 24 20	 mov	 QWORD PTR [rsp+32], rax
  0005c	45 33 c9	 xor	 r9d, r9d
  0005f	41 b8 ce 00 00
	00		 mov	 r8d, 206		; 000000ceH
  00065	48 8d 15 00 00
	00 00		 lea	 rdx, OFFSET FLAT:??_C@_0FP@IENHKCNK@C?3?2Program?5Files?2Microsoft?5Visu@
  0006c	b9 02 00 00 00	 mov	 ecx, 2
  00071	ff 15 00 00 00
	00		 call	 QWORD PTR __imp__CrtDbgReport
  00077	83 f8 01	 cmp	 eax, 1
  0007a	75 03		 jne	 SHORT $LN19@Verify_ran
  0007c	cc		 int	 3
  0007d	33 c0		 xor	 eax, eax
$LN19@Verify_ran:
  0007f	48 c7 44 24 20
	00 00 00 00	 mov	 QWORD PTR [rsp+32], 0
  00088	41 b9 ce 00 00
	00		 mov	 r9d, 206		; 000000ceH
  0008e	4c 8d 05 00 00
	00 00		 lea	 r8, OFFSET FLAT:??_C@_1LO@DMIPLFD@?$AAC?$AA?3?$AA?2?$AAP?$AAr?$AAo?$AAg?$AAr?$AAa?$AAm?$AA?5?$AAF?$AAi?$AAl?$AAe@
  00095	48 8d 15 00 00
	00 00		 lea	 rdx, OFFSET FLAT:??_C@_11LOCGONAA@@
  0009c	48 8d 0d 00 00
	00 00		 lea	 rcx, OFFSET FLAT:??_C@_1HE@KBMFDAFB@?$AA?$CC?$AAv?$AAe?$AAc?$AAt?$AAo?$AAr?$AA?5?$AAi?$AAt?$AAe?$AAr?$AAa?$AAt?$AAo@
  000a3	ff 15 00 00 00
	00		 call	 QWORD PTR __imp__invalid_parameter
  000a9	33 c0		 xor	 eax, eax
  000ab	85 c0		 test	 eax, eax
  000ad	75 95		 jne	 SHORT $LN7@Verify_ran
$LN15@Verify_ran:
  000af	33 c0		 xor	 eax, eax
  000b1	85 c0		 test	 eax, eax
  000b3	0f 85 6a ff ff
	ff		 jne	 $LN4@Verify_ran
$LN10@Verify_ran:

; 207  :         _STL_VERIFY(_First._Ptr <= _Last._Ptr, "vector iterator range transposed");

  000b9	48 8b 45 60	 mov	 rax, QWORD PTR _First$[rbp]
  000bd	48 8b 4d 68	 mov	 rcx, QWORD PTR _Last$[rbp]
  000c1	48 8b 49 10	 mov	 rcx, QWORD PTR [rcx+16]
  000c5	48 39 48 10	 cmp	 QWORD PTR [rax+16], rcx
  000c9	77 02		 ja	 SHORT $LN13@Verify_ran
  000cb	eb 6b		 jmp	 SHORT $LN17@Verify_ran
$LN13@Verify_ran:
  000cd	48 8d 05 00 00
	00 00		 lea	 rax, OFFSET FLAT:??_C@_0CB@LIAHLBAO@vector?5iterator?5range?5transpose@
  000d4	48 89 44 24 28	 mov	 QWORD PTR [rsp+40], rax
  000d9	48 8d 05 00 00
	00 00		 lea	 rax, OFFSET FLAT:??_C@_02DKCKIIND@?$CFs@
  000e0	48 89 44 24 20	 mov	 QWORD PTR [rsp+32], rax
  000e5	45 33 c9	 xor	 r9d, r9d
  000e8	41 b8 cf 00 00
	00		 mov	 r8d, 207		; 000000cfH
  000ee	48 8d 15 00 00
	00 00		 lea	 rdx, OFFSET FLAT:??_C@_0FP@IENHKCNK@C?3?2Program?5Files?2Microsoft?5Visu@
  000f5	b9 02 00 00 00	 mov	 ecx, 2
  000fa	ff 15 00 00 00
	00		 call	 QWORD PTR __imp__CrtDbgReport
  00100	83 f8 01	 cmp	 eax, 1
  00103	75 03		 jne	 SHORT $LN20@Verify_ran
  00105	cc		 int	 3
  00106	33 c0		 xor	 eax, eax
$LN20@Verify_ran:
  00108	48 c7 44 24 20
	00 00 00 00	 mov	 QWORD PTR [rsp+32], 0
  00111	41 b9 cf 00 00
	00		 mov	 r9d, 207		; 000000cfH
  00117	4c 8d 05 00 00
	00 00		 lea	 r8, OFFSET FLAT:??_C@_1LO@DMIPLFD@?$AAC?$AA?3?$AA?2?$AAP?$AAr?$AAo?$AAg?$AAr?$AAa?$AAm?$AA?5?$AAF?$AAi?$AAl?$AAe@
  0011e	48 8d 15 00 00
	00 00		 lea	 rdx, OFFSET FLAT:??_C@_11LOCGONAA@@
  00125	48 8d 0d 00 00
	00 00		 lea	 rcx, OFFSET FLAT:??_C@_1EG@ODKBEHFN@?$AA?$CC?$AAv?$AAe?$AAc?$AAt?$AAo?$AAr?$AA?5?$AAi?$AAt?$AAe?$AAr?$AAa?$AAt?$AAo@
  0012c	ff 15 00 00 00
	00		 call	 QWORD PTR __imp__invalid_parameter
  00132	33 c0		 xor	 eax, eax
  00134	85 c0		 test	 eax, eax
  00136	75 95		 jne	 SHORT $LN13@Verify_ran
$LN17@Verify_ran:
  00138	33 c0		 xor	 eax, eax
  0013a	85 c0		 test	 eax, eax
  0013c	0f 85 77 ff ff
	ff		 jne	 $LN10@Verify_ran

; 208  :     }

  00142	48 8d 65 50	 lea	 rsp, QWORD PTR [rbp+80]
  00146	5d		 pop	 rbp
  00147	c3		 ret	 0
?_Verify_range@std@@YAXAEBV?$_Vector_const_iterator@V?$_Vector_val@U?$_Simple_types@PEAVD3D12Model@@@std@@@std@@@1@0@Z ENDP ; std::_Verify_range
_TEXT	ENDS
; Function compile flags: /Odtp /ZI
; File C:\Program Files\Microsoft Visual Studio\2022\Preview\VC\Tools\MSVC\14.38.33030\include\vector
;	COMDAT ??0?$_Vector_const_iterator@V?$_Vector_val@U?$_Simple_types@PEAVD3D12Model@@@std@@@std@@@std@@QEAA@PEAPEAVD3D12Model@@PEBU_Container_base12@1@@Z
_TEXT	SEGMENT
this$ = 80
_Parg$ = 88
_Pvector$ = 96
??0?$_Vector_const_iterator@V?$_Vector_val@U?$_Simple_types@PEAVD3D12Model@@@std@@@std@@@std@@QEAA@PEAPEAVD3D12Model@@PEBU_Container_base12@1@@Z PROC ; std::_Vector_const_iterator<std::_Vector_val<std::_Simple_types<D3D12Model *> > >::_Vector_const_iterator<std::_Vector_val<std::_Simple_types<D3D12Model *> > >, COMDAT

; 43   :     _CONSTEXPR20 _Vector_const_iterator(_Tptr _Parg, const _Container_base* _Pvector) noexcept : _Ptr(_Parg) {

$LN3:
  00000	4c 89 44 24 18	 mov	 QWORD PTR [rsp+24], r8
  00005	48 89 54 24 10	 mov	 QWORD PTR [rsp+16], rdx
  0000a	48 89 4c 24 08	 mov	 QWORD PTR [rsp+8], rcx
  0000f	55		 push	 rbp
  00010	48 83 ec 60	 sub	 rsp, 96			; 00000060H
  00014	48 8d 6c 24 20	 lea	 rbp, QWORD PTR [rsp+32]
  00019	48 8d 0d 00 00
	00 00		 lea	 rcx, OFFSET FLAT:__14F7CB70_vector
  00020	e8 00 00 00 00	 call	 __CheckForDebuggerJustMyCode
  00025	48 8b 4d 50	 mov	 rcx, QWORD PTR this$[rbp]
  00029	e8 00 00 00 00	 call	 ??0_Iterator_base12@std@@QEAA@XZ ; std::_Iterator_base12::_Iterator_base12
  0002e	48 8b 45 50	 mov	 rax, QWORD PTR this$[rbp]
  00032	48 8b 4d 58	 mov	 rcx, QWORD PTR _Parg$[rbp]
  00036	48 89 48 10	 mov	 QWORD PTR [rax+16], rcx

; 44   :         this->_Adopt(_Pvector);

  0003a	48 8b 55 60	 mov	 rdx, QWORD PTR _Pvector$[rbp]
  0003e	48 8b 4d 50	 mov	 rcx, QWORD PTR this$[rbp]
  00042	e8 00 00 00 00	 call	 ?_Adopt@_Iterator_base12@std@@QEAAXPEBU_Container_base12@2@@Z ; std::_Iterator_base12::_Adopt

; 45   :     }

  00047	48 8b 45 50	 mov	 rax, QWORD PTR this$[rbp]
  0004b	48 8d 65 40	 lea	 rsp, QWORD PTR [rbp+64]
  0004f	5d		 pop	 rbp
  00050	c3		 ret	 0
??0?$_Vector_const_iterator@V?$_Vector_val@U?$_Simple_types@PEAVD3D12Model@@@std@@@std@@@std@@QEAA@PEAPEAVD3D12Model@@PEBU_Container_base12@1@@Z ENDP ; std::_Vector_const_iterator<std::_Vector_val<std::_Simple_types<D3D12Model *> > >::_Vector_const_iterator<std::_Vector_val<std::_Simple_types<D3D12Model *> > >
_TEXT	ENDS
; Function compile flags: /Odtp /ZI
; File C:\Users\nahmu\source\repos\Dark Engine\Dark Engine\Source\Runtime\Render\D3D12\D3D12Scene.cpp
;	COMDAT ?ResetModels@D3D12Scene@@QEAAXXZ
_TEXT	SEGMENT
this$ = 80
?ResetModels@D3D12Scene@@QEAAXXZ PROC			; D3D12Scene::ResetModels, COMDAT

; 26   : {

$LN3:
  00000	48 89 4c 24 08	 mov	 QWORD PTR [rsp+8], rcx
  00005	55		 push	 rbp
  00006	48 83 ec 60	 sub	 rsp, 96			; 00000060H
  0000a	48 8d 6c 24 20	 lea	 rbp, QWORD PTR [rsp+32]
  0000f	48 8d 0d 00 00
	00 00		 lea	 rcx, OFFSET FLAT:__BC1C32AF_D3D12Scene@cpp
  00016	e8 00 00 00 00	 call	 __CheckForDebuggerJustMyCode

; 27   : 	m_models.clear();

  0001b	48 8b 45 50	 mov	 rax, QWORD PTR this$[rbp]
  0001f	48 8b c8	 mov	 rcx, rax
  00022	e8 00 00 00 00	 call	 ?clear@?$vector@PEAVD3D12Model@@V?$allocator@PEAVD3D12Model@@@std@@@std@@QEAAXXZ ; std::vector<D3D12Model *,std::allocator<D3D12Model *> >::clear

; 28   : }

  00027	48 8d 65 40	 lea	 rsp, QWORD PTR [rbp+64]
  0002b	5d		 pop	 rbp
  0002c	c3		 ret	 0
?ResetModels@D3D12Scene@@QEAAXXZ ENDP			; D3D12Scene::ResetModels
_TEXT	ENDS
; Function compile flags: /Odtp /ZI
; File C:\Users\nahmu\source\repos\Dark Engine\Dark Engine\Source\Runtime\Render\D3D12\D3D12Scene.cpp
;	COMDAT ?SetModels@D3D12Scene@@QEAAXV?$vector@PEAVD3D12Model@@V?$allocator@PEAVD3D12Model@@@std@@@std@@@Z
_TEXT	SEGMENT
this$ = 80
models$ = 88
?SetModels@D3D12Scene@@QEAAXV?$vector@PEAVD3D12Model@@V?$allocator@PEAVD3D12Model@@@std@@@std@@@Z PROC ; D3D12Scene::SetModels, COMDAT

; 21   : {

$LN4:
  00000	48 89 54 24 10	 mov	 QWORD PTR [rsp+16], rdx
  00005	48 89 4c 24 08	 mov	 QWORD PTR [rsp+8], rcx
  0000a	55		 push	 rbp
  0000b	48 83 ec 60	 sub	 rsp, 96			; 00000060H
  0000f	48 8d 6c 24 20	 lea	 rbp, QWORD PTR [rsp+32]
  00014	48 8d 0d 00 00
	00 00		 lea	 rcx, OFFSET FLAT:__BC1C32AF_D3D12Scene@cpp
  0001b	e8 00 00 00 00	 call	 __CheckForDebuggerJustMyCode

; 22   : 	m_models = models;

  00020	48 8b 45 50	 mov	 rax, QWORD PTR this$[rbp]
  00024	48 8b 55 58	 mov	 rdx, QWORD PTR models$[rbp]
  00028	48 8b c8	 mov	 rcx, rax
  0002b	e8 00 00 00 00	 call	 ??4?$vector@PEAVD3D12Model@@V?$allocator@PEAVD3D12Model@@@std@@@std@@QEAAAEAV01@AEBV01@@Z ; std::vector<D3D12Model *,std::allocator<D3D12Model *> >::operator=
  00030	90		 npad	 1

; 23   : }

  00031	48 8b 4d 58	 mov	 rcx, QWORD PTR models$[rbp]
  00035	e8 00 00 00 00	 call	 ??1?$vector@PEAVD3D12Model@@V?$allocator@PEAVD3D12Model@@@std@@@std@@QEAA@XZ ; std::vector<D3D12Model *,std::allocator<D3D12Model *> >::~vector<D3D12Model *,std::allocator<D3D12Model *> >
  0003a	48 8d 65 40	 lea	 rsp, QWORD PTR [rbp+64]
  0003e	5d		 pop	 rbp
  0003f	c3		 ret	 0
?SetModels@D3D12Scene@@QEAAXV?$vector@PEAVD3D12Model@@V?$allocator@PEAVD3D12Model@@@std@@@std@@@Z ENDP ; D3D12Scene::SetModels
_TEXT	ENDS
; Function compile flags: /Odtp /ZI
;	COMDAT text$x
text$x	SEGMENT
this$ = 80
models$ = 88
?dtor$0@?0??SetModels@D3D12Scene@@QEAAXV?$vector@PEAVD3D12Model@@V?$allocator@PEAVD3D12Model@@@std@@@std@@@Z@4HA PROC ; `D3D12Scene::SetModels'::`1'::dtor$0
  00000	40 55		 push	 rbp
  00002	48 83 ec 20	 sub	 rsp, 32			; 00000020H
  00006	48 8d 6a 20	 lea	 rbp, QWORD PTR [rdx+32]
  0000a	48 8b 4d 58	 mov	 rcx, QWORD PTR models$[rbp]
  0000e	e8 00 00 00 00	 call	 ??1?$vector@PEAVD3D12Model@@V?$allocator@PEAVD3D12Model@@@std@@@std@@QEAA@XZ ; std::vector<D3D12Model *,std::allocator<D3D12Model *> >::~vector<D3D12Model *,std::allocator<D3D12Model *> >
  00013	48 83 c4 20	 add	 rsp, 32			; 00000020H
  00017	5d		 pop	 rbp
  00018	c3		 ret	 0
?dtor$0@?0??SetModels@D3D12Scene@@QEAAXV?$vector@PEAVD3D12Model@@V?$allocator@PEAVD3D12Model@@@std@@@std@@@Z@4HA ENDP ; `D3D12Scene::SetModels'::`1'::dtor$0
text$x	ENDS
; Function compile flags: /Odtp /ZI
; File C:\Users\nahmu\source\repos\Dark Engine\Dark Engine\Source\Runtime\Render\D3D12\D3D12Scene.cpp
;	COMDAT ?AddModels@D3D12Scene@@QEAAXV?$vector@PEAVD3D12Model@@V?$allocator@PEAVD3D12Model@@@std@@@std@@@Z
_TEXT	SEGMENT
$T1 = 64
$T2 = 88
$T3 = 96
$T4 = 120
$T5 = 128
$T6 = 152
$T7 = 160
$T8 = 184
tv150 = 208
tv144 = 216
tv152 = 224
tv142 = 232
tv133 = 240
tv66 = 248
tv154 = 256
tv156 = 264
tv87 = 272
this$ = 304
models$ = 312
?AddModels@D3D12Scene@@QEAAXV?$vector@PEAVD3D12Model@@V?$allocator@PEAVD3D12Model@@@std@@@std@@@Z PROC ; D3D12Scene::AddModels, COMDAT

; 15   : {

$LN9:
  00000	48 89 54 24 10	 mov	 QWORD PTR [rsp+16], rdx
  00005	48 89 4c 24 08	 mov	 QWORD PTR [rsp+8], rcx
  0000a	55		 push	 rbp
  0000b	48 81 ec 50 01
	00 00		 sub	 rsp, 336		; 00000150H
  00012	48 8d 6c 24 30	 lea	 rbp, QWORD PTR [rsp+48]
  00017	48 8d 0d 00 00
	00 00		 lea	 rcx, OFFSET FLAT:__BC1C32AF_D3D12Scene@cpp
  0001e	e8 00 00 00 00	 call	 __CheckForDebuggerJustMyCode

; 16   : 	models.insert(m_models.end(), models.begin(), models.end());

  00023	48 8d 45 40	 lea	 rax, QWORD PTR $T1[rbp]
  00027	48 89 45 58	 mov	 QWORD PTR $T2[rbp], rax
  0002b	48 8b 55 58	 mov	 rdx, QWORD PTR $T2[rbp]
  0002f	48 8b 8d 38 01
	00 00		 mov	 rcx, QWORD PTR models$[rbp]
  00036	e8 00 00 00 00	 call	 ?end@?$vector@PEAVD3D12Model@@V?$allocator@PEAVD3D12Model@@@std@@@std@@QEAA?AV?$_Vector_iterator@V?$_Vector_val@U?$_Simple_types@PEAVD3D12Model@@@std@@@std@@@2@XZ ; std::vector<D3D12Model *,std::allocator<D3D12Model *> >::end
  0003b	48 89 85 d0 00
	00 00		 mov	 QWORD PTR tv150[rbp], rax
  00042	48 8b 85 d0 00
	00 00		 mov	 rax, QWORD PTR tv150[rbp]
  00049	48 89 85 d8 00
	00 00		 mov	 QWORD PTR tv144[rbp], rax
  00050	48 8d 45 60	 lea	 rax, QWORD PTR $T3[rbp]
  00054	48 89 45 78	 mov	 QWORD PTR $T4[rbp], rax
  00058	48 8b 55 78	 mov	 rdx, QWORD PTR $T4[rbp]
  0005c	48 8b 8d 38 01
	00 00		 mov	 rcx, QWORD PTR models$[rbp]
  00063	e8 00 00 00 00	 call	 ?begin@?$vector@PEAVD3D12Model@@V?$allocator@PEAVD3D12Model@@@std@@@std@@QEAA?AV?$_Vector_iterator@V?$_Vector_val@U?$_Simple_types@PEAVD3D12Model@@@std@@@std@@@2@XZ ; std::vector<D3D12Model *,std::allocator<D3D12Model *> >::begin
  00068	48 89 85 e0 00
	00 00		 mov	 QWORD PTR tv152[rbp], rax
  0006f	48 8b 85 e0 00
	00 00		 mov	 rax, QWORD PTR tv152[rbp]
  00076	48 89 85 e8 00
	00 00		 mov	 QWORD PTR tv142[rbp], rax
  0007d	48 8d 85 80 00
	00 00		 lea	 rax, QWORD PTR $T5[rbp]
  00084	48 89 85 98 00
	00 00		 mov	 QWORD PTR $T6[rbp], rax
  0008b	48 8b 85 30 01
	00 00		 mov	 rax, QWORD PTR this$[rbp]
  00092	48 89 85 f0 00
	00 00		 mov	 QWORD PTR tv133[rbp], rax
  00099	48 8d 95 a0 00
	00 00		 lea	 rdx, QWORD PTR $T7[rbp]
  000a0	48 8b 8d f0 00
	00 00		 mov	 rcx, QWORD PTR tv133[rbp]
  000a7	e8 00 00 00 00	 call	 ?end@?$vector@PEAVD3D12Model@@V?$allocator@PEAVD3D12Model@@@std@@@std@@QEAA?AV?$_Vector_iterator@V?$_Vector_val@U?$_Simple_types@PEAVD3D12Model@@@std@@@std@@@2@XZ ; std::vector<D3D12Model *,std::allocator<D3D12Model *> >::end
  000ac	48 89 85 f8 00
	00 00		 mov	 QWORD PTR tv66[rbp], rax
  000b3	48 8b 85 f8 00
	00 00		 mov	 rax, QWORD PTR tv66[rbp]
  000ba	48 89 85 00 01
	00 00		 mov	 QWORD PTR tv154[rbp], rax
  000c1	48 8b 95 00 01
	00 00		 mov	 rdx, QWORD PTR tv154[rbp]
  000c8	48 8b 8d 98 00
	00 00		 mov	 rcx, QWORD PTR $T6[rbp]
  000cf	e8 00 00 00 00	 call	 ??0?$_Vector_const_iterator@V?$_Vector_val@U?$_Simple_types@PEAVD3D12Model@@@std@@@std@@@std@@QEAA@$$QEAV01@@Z
  000d4	48 89 85 08 01
	00 00		 mov	 QWORD PTR tv156[rbp], rax
  000db	48 8b 85 08 01
	00 00		 mov	 rax, QWORD PTR tv156[rbp]
  000e2	48 89 85 10 01
	00 00		 mov	 QWORD PTR tv87[rbp], rax
  000e9	48 8b 85 d8 00
	00 00		 mov	 rax, QWORD PTR tv144[rbp]
  000f0	48 89 44 24 20	 mov	 QWORD PTR [rsp+32], rax
  000f5	4c 8b 8d e8 00
	00 00		 mov	 r9, QWORD PTR tv142[rbp]
  000fc	4c 8b 85 10 01
	00 00		 mov	 r8, QWORD PTR tv87[rbp]
  00103	48 8d 95 b8 00
	00 00		 lea	 rdx, QWORD PTR $T8[rbp]
  0010a	48 8b 8d 38 01
	00 00		 mov	 rcx, QWORD PTR models$[rbp]
  00111	e8 00 00 00 00	 call	 ??$insert@V?$_Vector_iterator@V?$_Vector_val@U?$_Simple_types@PEAVD3D12Model@@@std@@@std@@@std@@$0A@@?$vector@PEAVD3D12Model@@V?$allocator@PEAVD3D12Model@@@std@@@std@@QEAA?AV?$_Vector_iterator@V?$_Vector_val@U?$_Simple_types@PEAVD3D12Model@@@std@@@std@@@1@V?$_Vector_const_iterator@V?$_Vector_val@U?$_Simple_types@PEAVD3D12Model@@@std@@@std@@@1@V21@1@Z ; std::vector<D3D12Model *,std::allocator<D3D12Model *> >::insert<std::_Vector_iterator<std::_Vector_val<std::_Simple_types<D3D12Model *> > >,0>
  00116	48 8d 8d b8 00
	00 00		 lea	 rcx, QWORD PTR $T8[rbp]
  0011d	e8 00 00 00 00	 call	 ??1?$_Vector_iterator@V?$_Vector_val@U?$_Simple_types@PEAVD3D12Model@@@std@@@std@@@std@@QEAA@XZ
  00122	90		 npad	 1
  00123	48 8d 8d a0 00
	00 00		 lea	 rcx, QWORD PTR $T7[rbp]
  0012a	e8 00 00 00 00	 call	 ??1?$_Vector_iterator@V?$_Vector_val@U?$_Simple_types@PEAVD3D12Model@@@std@@@std@@@std@@QEAA@XZ
  0012f	90		 npad	 1

; 17   : 
; 18   : }

  00130	48 8b 8d 38 01
	00 00		 mov	 rcx, QWORD PTR models$[rbp]
  00137	e8 00 00 00 00	 call	 ??1?$vector@PEAVD3D12Model@@V?$allocator@PEAVD3D12Model@@@std@@@std@@QEAA@XZ ; std::vector<D3D12Model *,std::allocator<D3D12Model *> >::~vector<D3D12Model *,std::allocator<D3D12Model *> >
  0013c	48 8d a5 20 01
	00 00		 lea	 rsp, QWORD PTR [rbp+288]
  00143	5d		 pop	 rbp
  00144	c3		 ret	 0
?AddModels@D3D12Scene@@QEAAXV?$vector@PEAVD3D12Model@@V?$allocator@PEAVD3D12Model@@@std@@@std@@@Z ENDP ; D3D12Scene::AddModels
_TEXT	ENDS
; Function compile flags: /Odtp /ZI
;	COMDAT text$x
text$x	SEGMENT
$T1 = 64
$T2 = 88
$T3 = 96
$T4 = 120
$T5 = 128
$T6 = 152
$T7 = 160
$T8 = 184
tv150 = 208
tv144 = 216
tv152 = 224
tv142 = 232
tv133 = 240
tv66 = 248
tv154 = 256
tv156 = 264
tv87 = 272
this$ = 304
models$ = 312
?dtor$0@?0??AddModels@D3D12Scene@@QEAAXV?$vector@PEAVD3D12Model@@V?$allocator@PEAVD3D12Model@@@std@@@std@@@Z@4HA PROC ; `D3D12Scene::AddModels'::`1'::dtor$0
  00000	40 55		 push	 rbp
  00002	48 83 ec 20	 sub	 rsp, 32			; 00000020H
  00006	48 8d 6a 30	 lea	 rbp, QWORD PTR [rdx+48]
  0000a	48 8b 8d 38 01
	00 00		 mov	 rcx, QWORD PTR models$[rbp]
  00011	e8 00 00 00 00	 call	 ??1?$vector@PEAVD3D12Model@@V?$allocator@PEAVD3D12Model@@@std@@@std@@QEAA@XZ ; std::vector<D3D12Model *,std::allocator<D3D12Model *> >::~vector<D3D12Model *,std::allocator<D3D12Model *> >
  00016	48 83 c4 20	 add	 rsp, 32			; 00000020H
  0001a	5d		 pop	 rbp
  0001b	c3		 ret	 0
?dtor$0@?0??AddModels@D3D12Scene@@QEAAXV?$vector@PEAVD3D12Model@@V?$allocator@PEAVD3D12Model@@@std@@@std@@@Z@4HA ENDP ; `D3D12Scene::AddModels'::`1'::dtor$0
text$x	ENDS
; Function compile flags: /Odtp /ZI
;	COMDAT text$x
text$x	SEGMENT
$T1 = 64
$T2 = 88
$T3 = 96
$T4 = 120
$T5 = 128
$T6 = 152
$T7 = 160
$T8 = 184
tv150 = 208
tv144 = 216
tv152 = 224
tv142 = 232
tv133 = 240
tv66 = 248
tv154 = 256
tv156 = 264
tv87 = 272
this$ = 304
models$ = 312
?dtor$3@?0??AddModels@D3D12Scene@@QEAAXV?$vector@PEAVD3D12Model@@V?$allocator@PEAVD3D12Model@@@std@@@std@@@Z@4HA PROC ; `D3D12Scene::AddModels'::`1'::dtor$3
  00000	40 55		 push	 rbp
  00002	48 83 ec 20	 sub	 rsp, 32			; 00000020H
  00006	48 8d 6a 30	 lea	 rbp, QWORD PTR [rdx+48]
  0000a	48 8d 8d a0 00
	00 00		 lea	 rcx, QWORD PTR $T7[rbp]
  00011	e8 00 00 00 00	 call	 ??1?$_Vector_iterator@V?$_Vector_val@U?$_Simple_types@PEAVD3D12Model@@@std@@@std@@@std@@QEAA@XZ
  00016	48 83 c4 20	 add	 rsp, 32			; 00000020H
  0001a	5d		 pop	 rbp
  0001b	c3		 ret	 0
?dtor$3@?0??AddModels@D3D12Scene@@QEAAXV?$vector@PEAVD3D12Model@@V?$allocator@PEAVD3D12Model@@@std@@@std@@@Z@4HA ENDP ; `D3D12Scene::AddModels'::`1'::dtor$3
text$x	ENDS
; Function compile flags: /Odtp /ZI
; File C:\Users\nahmu\source\repos\Dark Engine\Dark Engine\Source\Runtime\Render\D3D12\D3D12Scene.cpp
;	COMDAT ?AddModel@D3D12Scene@@QEAAXPEAVD3D12Model@@@Z
_TEXT	SEGMENT
tv69 = 64
this$ = 96
model$ = 104
?AddModel@D3D12Scene@@QEAAXPEAVD3D12Model@@@Z PROC	; D3D12Scene::AddModel, COMDAT

; 9    : {

$LN4:
  00000	48 89 54 24 10	 mov	 QWORD PTR [rsp+16], rdx
  00005	48 89 4c 24 08	 mov	 QWORD PTR [rsp+8], rcx
  0000a	55		 push	 rbp
  0000b	48 83 ec 70	 sub	 rsp, 112		; 00000070H
  0000f	48 8d 6c 24 20	 lea	 rbp, QWORD PTR [rsp+32]
  00014	48 8d 0d 00 00
	00 00		 lea	 rcx, OFFSET FLAT:__BC1C32AF_D3D12Scene@cpp
  0001b	e8 00 00 00 00	 call	 __CheckForDebuggerJustMyCode

; 10   : 	if(model)

  00020	48 83 7d 68 00	 cmp	 QWORD PTR model$[rbp], 0
  00025	74 15		 je	 SHORT $LN2@AddModel

; 11   : 		m_models.push_back(model);

  00027	48 8b 45 60	 mov	 rax, QWORD PTR this$[rbp]
  0002b	48 89 45 40	 mov	 QWORD PTR tv69[rbp], rax
  0002f	48 8d 55 68	 lea	 rdx, QWORD PTR model$[rbp]
  00033	48 8b 4d 40	 mov	 rcx, QWORD PTR tv69[rbp]
  00037	e8 00 00 00 00	 call	 ?push_back@?$vector@PEAVD3D12Model@@V?$allocator@PEAVD3D12Model@@@std@@@std@@QEAAXAEBQEAVD3D12Model@@@Z ; std::vector<D3D12Model *,std::allocator<D3D12Model *> >::push_back
$LN2@AddModel:

; 12   : }

  0003c	48 8d 65 50	 lea	 rsp, QWORD PTR [rbp+80]
  00040	5d		 pop	 rbp
  00041	c3		 ret	 0
?AddModel@D3D12Scene@@QEAAXPEAVD3D12Model@@@Z ENDP	; D3D12Scene::AddModel
_TEXT	ENDS
; Function compile flags: /Odtp /ZI
; File C:\Users\nahmu\source\repos\Dark Engine\Dark Engine\Source\Runtime\Render\D3D12\D3D12Scene.cpp
;	COMDAT ?SetCamera@D3D12Scene@@QEAAXUD3D12Camera@@@Z
_TEXT	SEGMENT
this$ = 96
camera$ = 104
?SetCamera@D3D12Scene@@QEAAXUD3D12Camera@@@Z PROC	; D3D12Scene::SetCamera, COMDAT

; 4    : {

$LN3:
  00000	48 89 54 24 10	 mov	 QWORD PTR [rsp+16], rdx
  00005	48 89 4c 24 08	 mov	 QWORD PTR [rsp+8], rcx
  0000a	55		 push	 rbp
  0000b	56		 push	 rsi
  0000c	57		 push	 rdi
  0000d	48 83 ec 60	 sub	 rsp, 96			; 00000060H
  00011	48 8d 6c 24 20	 lea	 rbp, QWORD PTR [rsp+32]
  00016	48 8d 0d 00 00
	00 00		 lea	 rcx, OFFSET FLAT:__BC1C32AF_D3D12Scene@cpp
  0001d	e8 00 00 00 00	 call	 __CheckForDebuggerJustMyCode

; 5    : 	m_camera = camera;

  00022	48 8b 45 60	 mov	 rax, QWORD PTR this$[rbp]
  00026	48 8d 78 20	 lea	 rdi, QWORD PTR [rax+32]
  0002a	48 8b 75 68	 mov	 rsi, QWORD PTR camera$[rbp]
  0002e	b9 20 00 00 00	 mov	 ecx, 32			; 00000020H
  00033	f3 a4		 rep movsb

; 6    : }

  00035	48 8d 65 40	 lea	 rsp, QWORD PTR [rbp+64]
  00039	5f		 pop	 rdi
  0003a	5e		 pop	 rsi
  0003b	5d		 pop	 rbp
  0003c	c3		 ret	 0
?SetCamera@D3D12Scene@@QEAAXUD3D12Camera@@@Z ENDP	; D3D12Scene::SetCamera
_TEXT	ENDS
; Function compile flags: /Odtp /ZI
; File C:\Program Files\Microsoft Visual Studio\2022\Preview\VC\Tools\MSVC\14.38.33030\include\xmemory
;	COMDAT ?_Get_first@?$_Compressed_pair@V?$allocator@PEAVD3D12Model@@@std@@V?$_Vector_val@U?$_Simple_types@PEAVD3D12Model@@@std@@@2@$00@std@@QEBAAEBV?$allocator@PEAVD3D12Model@@@2@XZ
_TEXT	SEGMENT
this$ = 80
?_Get_first@?$_Compressed_pair@V?$allocator@PEAVD3D12Model@@@std@@V?$_Vector_val@U?$_Simple_types@PEAVD3D12Model@@@std@@@2@$00@std@@QEBAAEBV?$allocator@PEAVD3D12Model@@@2@XZ PROC ; std::_Compressed_pair<std::allocator<D3D12Model *>,std::_Vector_val<std::_Simple_types<D3D12Model *> >,1>::_Get_first, COMDAT

; 1530 :     constexpr const _Ty1& _Get_first() const noexcept {

$LN3:
  00000	48 89 4c 24 08	 mov	 QWORD PTR [rsp+8], rcx
  00005	55		 push	 rbp
  00006	48 83 ec 60	 sub	 rsp, 96			; 00000060H
  0000a	48 8d 6c 24 20	 lea	 rbp, QWORD PTR [rsp+32]
  0000f	48 8d 0d 00 00
	00 00		 lea	 rcx, OFFSET FLAT:__67F55BEA_xmemory
  00016	e8 00 00 00 00	 call	 __CheckForDebuggerJustMyCode

; 1531 :         return *this;

  0001b	48 8b 45 50	 mov	 rax, QWORD PTR this$[rbp]

; 1532 :     }

  0001f	48 8d 65 40	 lea	 rsp, QWORD PTR [rbp+64]
  00023	5d		 pop	 rbp
  00024	c3		 ret	 0
?_Get_first@?$_Compressed_pair@V?$allocator@PEAVD3D12Model@@@std@@V?$_Vector_val@U?$_Simple_types@PEAVD3D12Model@@@std@@@2@$00@std@@QEBAAEBV?$allocator@PEAVD3D12Model@@@2@XZ ENDP ; std::_Compressed_pair<std::allocator<D3D12Model *>,std::_Vector_val<std::_Simple_types<D3D12Model *> >,1>::_Get_first
_TEXT	ENDS
; Function compile flags: /Odtp /ZI
; File C:\Program Files\Microsoft Visual Studio\2022\Preview\VC\Tools\MSVC\14.38.33030\include\xmemory
;	COMDAT ?_Get_first@?$_Compressed_pair@V?$allocator@PEAVD3D12Model@@@std@@V?$_Vector_val@U?$_Simple_types@PEAVD3D12Model@@@std@@@2@$00@std@@QEAAAEAV?$allocator@PEAVD3D12Model@@@2@XZ
_TEXT	SEGMENT
this$ = 80
?_Get_first@?$_Compressed_pair@V?$allocator@PEAVD3D12Model@@@std@@V?$_Vector_val@U?$_Simple_types@PEAVD3D12Model@@@std@@@2@$00@std@@QEAAAEAV?$allocator@PEAVD3D12Model@@@2@XZ PROC ; std::_Compressed_pair<std::allocator<D3D12Model *>,std::_Vector_val<std::_Simple_types<D3D12Model *> >,1>::_Get_first, COMDAT

; 1526 :     constexpr _Ty1& _Get_first() noexcept {

$LN3:
  00000	48 89 4c 24 08	 mov	 QWORD PTR [rsp+8], rcx
  00005	55		 push	 rbp
  00006	48 83 ec 60	 sub	 rsp, 96			; 00000060H
  0000a	48 8d 6c 24 20	 lea	 rbp, QWORD PTR [rsp+32]
  0000f	48 8d 0d 00 00
	00 00		 lea	 rcx, OFFSET FLAT:__67F55BEA_xmemory
  00016	e8 00 00 00 00	 call	 __CheckForDebuggerJustMyCode

; 1527 :         return *this;

  0001b	48 8b 45 50	 mov	 rax, QWORD PTR this$[rbp]

; 1528 :     }

  0001f	48 8d 65 40	 lea	 rsp, QWORD PTR [rbp+64]
  00023	5d		 pop	 rbp
  00024	c3		 ret	 0
?_Get_first@?$_Compressed_pair@V?$allocator@PEAVD3D12Model@@@std@@V?$_Vector_val@U?$_Simple_types@PEAVD3D12Model@@@std@@@2@$00@std@@QEAAAEAV?$allocator@PEAVD3D12Model@@@2@XZ ENDP ; std::_Compressed_pair<std::allocator<D3D12Model *>,std::_Vector_val<std::_Simple_types<D3D12Model *> >,1>::_Get_first
_TEXT	ENDS
; Function compile flags: /Odtp /ZI
; File C:\Program Files\Microsoft Visual Studio\2022\Preview\VC\Tools\MSVC\14.38.33030\include\vector
;	COMDAT ?_Make_iterator_offset@?$vector@PEAVD3D12Model@@V?$allocator@PEAVD3D12Model@@@std@@@std@@AEAA?AV?$_Vector_iterator@V?$_Vector_val@U?$_Simple_types@PEAVD3D12Model@@@std@@@std@@@2@_K@Z
_TEXT	SEGMENT
_My_data$ = 0
tv82 = 72
tv80 = 80
this$ = 112
__$ReturnUdt$ = 120
_Offset$ = 128
?_Make_iterator_offset@?$vector@PEAVD3D12Model@@V?$allocator@PEAVD3D12Model@@@std@@@std@@AEAA?AV?$_Vector_iterator@V?$_Vector_val@U?$_Simple_types@PEAVD3D12Model@@@std@@@std@@@2@_K@Z PROC ; std::vector<D3D12Model *,std::allocator<D3D12Model *> >::_Make_iterator_offset, COMDAT

; 2201 :     _NODISCARD _CONSTEXPR20 iterator _Make_iterator_offset(const size_type _Offset) noexcept {

$LN3:
  00000	4c 89 44 24 18	 mov	 QWORD PTR [rsp+24], r8
  00005	48 89 54 24 10	 mov	 QWORD PTR [rsp+16], rdx
  0000a	48 89 4c 24 08	 mov	 QWORD PTR [rsp+8], rcx
  0000f	55		 push	 rbp
  00010	48 81 ec 80 00
	00 00		 sub	 rsp, 128		; 00000080H
  00017	48 8d 6c 24 20	 lea	 rbp, QWORD PTR [rsp+32]
  0001c	48 8d 0d 00 00
	00 00		 lea	 rcx, OFFSET FLAT:__14F7CB70_vector
  00023	e8 00 00 00 00	 call	 __CheckForDebuggerJustMyCode

; 2202 :         // return the iterator begin() + _Offset without a debugging check
; 2203 :         auto& _My_data = _Mypair._Myval2;

  00028	48 8b 45 70	 mov	 rax, QWORD PTR this$[rbp]
  0002c	48 89 45 00	 mov	 QWORD PTR _My_data$[rbp], rax

; 2204 :         return iterator(_My_data._Myfirst + _Offset, _STD addressof(_My_data));

  00030	48 8b 4d 00	 mov	 rcx, QWORD PTR _My_data$[rbp]
  00034	e8 00 00 00 00	 call	 ??$addressof@V?$_Vector_val@U?$_Simple_types@PEAVD3D12Model@@@std@@@std@@@std@@YAPEAV?$_Vector_val@U?$_Simple_types@PEAVD3D12Model@@@std@@@0@AEAV10@@Z ; std::addressof<std::_Vector_val<std::_Simple_types<D3D12Model *> > >
  00039	48 89 45 48	 mov	 QWORD PTR tv82[rbp], rax
  0003d	48 8b 45 00	 mov	 rax, QWORD PTR _My_data$[rbp]
  00041	48 8b 40 08	 mov	 rax, QWORD PTR [rax+8]
  00045	48 8b 8d 80 00
	00 00		 mov	 rcx, QWORD PTR _Offset$[rbp]
  0004c	48 8d 04 c8	 lea	 rax, QWORD PTR [rax+rcx*8]
  00050	48 89 45 50	 mov	 QWORD PTR tv80[rbp], rax
  00054	4c 8b 45 48	 mov	 r8, QWORD PTR tv82[rbp]
  00058	48 8b 55 50	 mov	 rdx, QWORD PTR tv80[rbp]
  0005c	48 8b 4d 78	 mov	 rcx, QWORD PTR __$ReturnUdt$[rbp]
  00060	e8 00 00 00 00	 call	 ??0?$_Vector_iterator@V?$_Vector_val@U?$_Simple_types@PEAVD3D12Model@@@std@@@std@@@std@@QEAA@PEAPEAVD3D12Model@@PEBU_Container_base12@1@@Z
  00065	48 8b 45 78	 mov	 rax, QWORD PTR __$ReturnUdt$[rbp]

; 2205 :     }

  00069	48 8d 65 60	 lea	 rsp, QWORD PTR [rbp+96]
  0006d	5d		 pop	 rbp
  0006e	c3		 ret	 0
?_Make_iterator_offset@?$vector@PEAVD3D12Model@@V?$allocator@PEAVD3D12Model@@@std@@@std@@AEAA?AV?$_Vector_iterator@V?$_Vector_val@U?$_Simple_types@PEAVD3D12Model@@@std@@@std@@@2@_K@Z ENDP ; std::vector<D3D12Model *,std::allocator<D3D12Model *> >::_Make_iterator_offset
_TEXT	ENDS
; Function compile flags: /Odtp /ZI
; File C:\Program Files\Microsoft Visual Studio\2022\Preview\VC\Tools\MSVC\14.38.33030\include\vector
;	COMDAT ?_Getal@?$vector@PEAVD3D12Model@@V?$allocator@PEAVD3D12Model@@@std@@@std@@AEBAAEBV?$allocator@PEAVD3D12Model@@@2@XZ
_TEXT	SEGMENT
this$ = 80
?_Getal@?$vector@PEAVD3D12Model@@V?$allocator@PEAVD3D12Model@@@std@@@std@@AEBAAEBV?$allocator@PEAVD3D12Model@@@2@XZ PROC ; std::vector<D3D12Model *,std::allocator<D3D12Model *> >::_Getal, COMDAT

; 2193 :     _NODISCARD _CONSTEXPR20 const _Alty& _Getal() const noexcept {

$LN3:
  00000	48 89 4c 24 08	 mov	 QWORD PTR [rsp+8], rcx
  00005	55		 push	 rbp
  00006	48 83 ec 60	 sub	 rsp, 96			; 00000060H
  0000a	48 8d 6c 24 20	 lea	 rbp, QWORD PTR [rsp+32]
  0000f	48 8d 0d 00 00
	00 00		 lea	 rcx, OFFSET FLAT:__14F7CB70_vector
  00016	e8 00 00 00 00	 call	 __CheckForDebuggerJustMyCode

; 2194 :         return _Mypair._Get_first();

  0001b	48 8b 45 50	 mov	 rax, QWORD PTR this$[rbp]
  0001f	48 8b c8	 mov	 rcx, rax
  00022	e8 00 00 00 00	 call	 ?_Get_first@?$_Compressed_pair@V?$allocator@PEAVD3D12Model@@@std@@V?$_Vector_val@U?$_Simple_types@PEAVD3D12Model@@@std@@@2@$00@std@@QEBAAEBV?$allocator@PEAVD3D12Model@@@2@XZ ; std::_Compressed_pair<std::allocator<D3D12Model *>,std::_Vector_val<std::_Simple_types<D3D12Model *> >,1>::_Get_first

; 2195 :     }

  00027	48 8d 65 40	 lea	 rsp, QWORD PTR [rbp+64]
  0002b	5d		 pop	 rbp
  0002c	c3		 ret	 0
?_Getal@?$vector@PEAVD3D12Model@@V?$allocator@PEAVD3D12Model@@@std@@@std@@AEBAAEBV?$allocator@PEAVD3D12Model@@@2@XZ ENDP ; std::vector<D3D12Model *,std::allocator<D3D12Model *> >::_Getal
_TEXT	ENDS
; Function compile flags: /Odtp /ZI
; File C:\Program Files\Microsoft Visual Studio\2022\Preview\VC\Tools\MSVC\14.38.33030\include\vector
;	COMDAT ?_Getal@?$vector@PEAVD3D12Model@@V?$allocator@PEAVD3D12Model@@@std@@@std@@AEAAAEAV?$allocator@PEAVD3D12Model@@@2@XZ
_TEXT	SEGMENT
this$ = 80
?_Getal@?$vector@PEAVD3D12Model@@V?$allocator@PEAVD3D12Model@@@std@@@std@@AEAAAEAV?$allocator@PEAVD3D12Model@@@2@XZ PROC ; std::vector<D3D12Model *,std::allocator<D3D12Model *> >::_Getal, COMDAT

; 2189 :     _NODISCARD _CONSTEXPR20 _Alty& _Getal() noexcept {

$LN3:
  00000	48 89 4c 24 08	 mov	 QWORD PTR [rsp+8], rcx
  00005	55		 push	 rbp
  00006	48 83 ec 60	 sub	 rsp, 96			; 00000060H
  0000a	48 8d 6c 24 20	 lea	 rbp, QWORD PTR [rsp+32]
  0000f	48 8d 0d 00 00
	00 00		 lea	 rcx, OFFSET FLAT:__14F7CB70_vector
  00016	e8 00 00 00 00	 call	 __CheckForDebuggerJustMyCode

; 2190 :         return _Mypair._Get_first();

  0001b	48 8b 45 50	 mov	 rax, QWORD PTR this$[rbp]
  0001f	48 8b c8	 mov	 rcx, rax
  00022	e8 00 00 00 00	 call	 ?_Get_first@?$_Compressed_pair@V?$allocator@PEAVD3D12Model@@@std@@V?$_Vector_val@U?$_Simple_types@PEAVD3D12Model@@@std@@@2@$00@std@@QEAAAEAV?$allocator@PEAVD3D12Model@@@2@XZ ; std::_Compressed_pair<std::allocator<D3D12Model *>,std::_Vector_val<std::_Simple_types<D3D12Model *> >,1>::_Get_first

; 2191 :     }

  00027	48 8d 65 40	 lea	 rsp, QWORD PTR [rbp+64]
  0002b	5d		 pop	 rbp
  0002c	c3		 ret	 0
?_Getal@?$vector@PEAVD3D12Model@@V?$allocator@PEAVD3D12Model@@@std@@@std@@AEAAAEAV?$allocator@PEAVD3D12Model@@@2@XZ ENDP ; std::vector<D3D12Model *,std::allocator<D3D12Model *> >::_Getal
_TEXT	ENDS
; Function compile flags: /Odtp /ZI
; File C:\Program Files\Microsoft Visual Studio\2022\Preview\VC\Tools\MSVC\14.38.33030\include\vector
;	COMDAT ?_Orphan_range@?$vector@PEAVD3D12Model@@V?$allocator@PEAVD3D12Model@@@std@@@std@@AEBAXPEAPEAVD3D12Model@@0@Z
_TEXT	SEGMENT
this$ = 80
_First$ = 88
_Last$ = 96
?_Orphan_range@?$vector@PEAVD3D12Model@@V?$allocator@PEAVD3D12Model@@@std@@@std@@AEBAXPEAPEAVD3D12Model@@0@Z PROC ; std::vector<D3D12Model *,std::allocator<D3D12Model *> >::_Orphan_range, COMDAT

; 2174 :     _CONSTEXPR20 void _Orphan_range(pointer _First, pointer _Last) const {

$LN5:
  00000	4c 89 44 24 18	 mov	 QWORD PTR [rsp+24], r8
  00005	48 89 54 24 10	 mov	 QWORD PTR [rsp+16], rdx
  0000a	48 89 4c 24 08	 mov	 QWORD PTR [rsp+8], rcx
  0000f	55		 push	 rbp
  00010	48 83 ec 60	 sub	 rsp, 96			; 00000060H
  00014	48 8d 6c 24 20	 lea	 rbp, QWORD PTR [rsp+32]
  00019	48 8d 0d 00 00
	00 00		 lea	 rcx, OFFSET FLAT:__14F7CB70_vector
  00020	e8 00 00 00 00	 call	 __CheckForDebuggerJustMyCode

; 2175 :         // orphan iterators within specified (inclusive) range
; 2176 : #if _HAS_CXX20
; 2177 :         if (_STD is_constant_evaluated()) {

  00025	e8 00 00 00 00	 call	 ?is_constant_evaluated@std@@YA_NXZ ; std::is_constant_evaluated
  0002a	0f b6 c0	 movzx	 eax, al
  0002d	85 c0		 test	 eax, eax
  0002f	74 13		 je	 SHORT $LN2@Orphan_ran

; 2178 :             _Orphan_range_unlocked(_First, _Last);

  00031	4c 8b 45 60	 mov	 r8, QWORD PTR _Last$[rbp]
  00035	48 8b 55 58	 mov	 rdx, QWORD PTR _First$[rbp]
  00039	48 8b 4d 50	 mov	 rcx, QWORD PTR this$[rbp]
  0003d	e8 00 00 00 00	 call	 ?_Orphan_range_unlocked@?$vector@PEAVD3D12Model@@V?$allocator@PEAVD3D12Model@@@std@@@std@@AEBAXPEAPEAVD3D12Model@@0@Z ; std::vector<D3D12Model *,std::allocator<D3D12Model *> >::_Orphan_range_unlocked

; 2179 :         } else

  00042	eb 11		 jmp	 SHORT $LN3@Orphan_ran
$LN2@Orphan_ran:

; 2180 : #endif // _HAS_CXX20
; 2181 :         {
; 2182 :             _Orphan_range_locked(_First, _Last);

  00044	4c 8b 45 60	 mov	 r8, QWORD PTR _Last$[rbp]
  00048	48 8b 55 58	 mov	 rdx, QWORD PTR _First$[rbp]
  0004c	48 8b 4d 50	 mov	 rcx, QWORD PTR this$[rbp]
  00050	e8 00 00 00 00	 call	 ?_Orphan_range_locked@?$vector@PEAVD3D12Model@@V?$allocator@PEAVD3D12Model@@@std@@@std@@AEBAXPEAPEAVD3D12Model@@0@Z ; std::vector<D3D12Model *,std::allocator<D3D12Model *> >::_Orphan_range_locked
$LN3@Orphan_ran:

; 2183 :         }
; 2184 :     }

  00055	48 8d 65 40	 lea	 rsp, QWORD PTR [rbp+64]
  00059	5d		 pop	 rbp
  0005a	c3		 ret	 0
?_Orphan_range@?$vector@PEAVD3D12Model@@V?$allocator@PEAVD3D12Model@@@std@@@std@@AEBAXPEAPEAVD3D12Model@@0@Z ENDP ; std::vector<D3D12Model *,std::allocator<D3D12Model *> >::_Orphan_range
_TEXT	ENDS
; Function compile flags: /Odtp /ZI
; File C:\Program Files\Microsoft Visual Studio\2022\Preview\VC\Tools\MSVC\14.38.33030\include\vector
;	COMDAT ?_Orphan_range_locked@?$vector@PEAVD3D12Model@@V?$allocator@PEAVD3D12Model@@@std@@@std@@AEBAXPEAPEAVD3D12Model@@0@Z
_TEXT	SEGMENT
_Lock$ = 0
this$ = 96
_First$ = 104
_Last$ = 112
?_Orphan_range_locked@?$vector@PEAVD3D12Model@@V?$allocator@PEAVD3D12Model@@@std@@@std@@AEBAXPEAPEAVD3D12Model@@0@Z PROC ; std::vector<D3D12Model *,std::allocator<D3D12Model *> >::_Orphan_range_locked, COMDAT

; 2169 :     void _Orphan_range_locked(pointer _First, pointer _Last) const {

$LN4:
  00000	4c 89 44 24 18	 mov	 QWORD PTR [rsp+24], r8
  00005	48 89 54 24 10	 mov	 QWORD PTR [rsp+16], rdx
  0000a	48 89 4c 24 08	 mov	 QWORD PTR [rsp+8], rcx
  0000f	55		 push	 rbp
  00010	48 83 ec 70	 sub	 rsp, 112		; 00000070H
  00014	48 8d 6c 24 20	 lea	 rbp, QWORD PTR [rsp+32]
  00019	48 8d 0d 00 00
	00 00		 lea	 rcx, OFFSET FLAT:__14F7CB70_vector
  00020	e8 00 00 00 00	 call	 __CheckForDebuggerJustMyCode

; 2170 :         _Lockit _Lock(_LOCK_DEBUG);

  00025	ba 03 00 00 00	 mov	 edx, 3
  0002a	48 8d 4d 00	 lea	 rcx, QWORD PTR _Lock$[rbp]
  0002e	ff 15 00 00 00
	00		 call	 QWORD PTR __imp_??0_Lockit@std@@QEAA@H@Z
  00034	90		 npad	 1

; 2171 :         _Orphan_range_unlocked(_First, _Last);

  00035	4c 8b 45 70	 mov	 r8, QWORD PTR _Last$[rbp]
  00039	48 8b 55 68	 mov	 rdx, QWORD PTR _First$[rbp]
  0003d	48 8b 4d 60	 mov	 rcx, QWORD PTR this$[rbp]
  00041	e8 00 00 00 00	 call	 ?_Orphan_range_unlocked@?$vector@PEAVD3D12Model@@V?$allocator@PEAVD3D12Model@@@std@@@std@@AEBAXPEAPEAVD3D12Model@@0@Z ; std::vector<D3D12Model *,std::allocator<D3D12Model *> >::_Orphan_range_unlocked
  00046	90		 npad	 1

; 2172 :     }

  00047	48 8d 4d 00	 lea	 rcx, QWORD PTR _Lock$[rbp]
  0004b	ff 15 00 00 00
	00		 call	 QWORD PTR __imp_??1_Lockit@std@@QEAA@XZ
  00051	48 8d 65 50	 lea	 rsp, QWORD PTR [rbp+80]
  00055	5d		 pop	 rbp
  00056	c3		 ret	 0
?_Orphan_range_locked@?$vector@PEAVD3D12Model@@V?$allocator@PEAVD3D12Model@@@std@@@std@@AEBAXPEAPEAVD3D12Model@@0@Z ENDP ; std::vector<D3D12Model *,std::allocator<D3D12Model *> >::_Orphan_range_locked
_TEXT	ENDS
; Function compile flags: /Odtp /ZI
;	COMDAT text$x
text$x	SEGMENT
_Lock$ = 0
this$ = 96
_First$ = 104
_Last$ = 112
?dtor$0@?0??_Orphan_range_locked@?$vector@PEAVD3D12Model@@V?$allocator@PEAVD3D12Model@@@std@@@std@@AEBAXPEAPEAVD3D12Model@@0@Z@4HA PROC ; `std::vector<D3D12Model *,std::allocator<D3D12Model *> >::_Orphan_range_locked'::`1'::dtor$0
  00000	40 55		 push	 rbp
  00002	48 83 ec 20	 sub	 rsp, 32			; 00000020H
  00006	48 8d 6a 20	 lea	 rbp, QWORD PTR [rdx+32]
  0000a	48 8d 4d 00	 lea	 rcx, QWORD PTR _Lock$[rbp]
  0000e	ff 15 00 00 00
	00		 call	 QWORD PTR __imp_??1_Lockit@std@@QEAA@XZ
  00014	48 83 c4 20	 add	 rsp, 32			; 00000020H
  00018	5d		 pop	 rbp
  00019	c3		 ret	 0
?dtor$0@?0??_Orphan_range_locked@?$vector@PEAVD3D12Model@@V?$allocator@PEAVD3D12Model@@@std@@@std@@AEBAXPEAPEAVD3D12Model@@0@Z@4HA ENDP ; `std::vector<D3D12Model *,std::allocator<D3D12Model *> >::_Orphan_range_locked'::`1'::dtor$0
text$x	ENDS
; Function compile flags: /Odtp /ZI
; File C:\Program Files\Microsoft Visual Studio\2022\Preview\VC\Tools\MSVC\14.38.33030\include\vector
;	COMDAT ?_Orphan_range_unlocked@?$vector@PEAVD3D12Model@@V?$allocator@PEAVD3D12Model@@@std@@@std@@AEBAXPEAPEAVD3D12Model@@0@Z
_TEXT	SEGMENT
_Pnext$ = 0
_Pnextptr$1 = 8
_Temp$2 = 16
this$ = 112
_First$ = 120
_Last$ = 128
?_Orphan_range_unlocked@?$vector@PEAVD3D12Model@@V?$allocator@PEAVD3D12Model@@@std@@@std@@AEBAXPEAPEAVD3D12Model@@0@Z PROC ; std::vector<D3D12Model *,std::allocator<D3D12Model *> >::_Orphan_range_unlocked, COMDAT

; 2155 :     _CONSTEXPR20 void _Orphan_range_unlocked(pointer _First, pointer _Last) const {

$LN8:
  00000	4c 89 44 24 18	 mov	 QWORD PTR [rsp+24], r8
  00005	48 89 54 24 10	 mov	 QWORD PTR [rsp+16], rdx
  0000a	48 89 4c 24 08	 mov	 QWORD PTR [rsp+8], rcx
  0000f	55		 push	 rbp
  00010	48 81 ec 80 00
	00 00		 sub	 rsp, 128		; 00000080H
  00017	48 8d 6c 24 20	 lea	 rbp, QWORD PTR [rsp+32]
  0001c	48 8d 0d 00 00
	00 00		 lea	 rcx, OFFSET FLAT:__14F7CB70_vector
  00023	e8 00 00 00 00	 call	 __CheckForDebuggerJustMyCode

; 2156 :         _Iterator_base12** _Pnext = &_Mypair._Myval2._Myproxy->_Myfirstiter;

  00028	48 8b 45 70	 mov	 rax, QWORD PTR this$[rbp]
  0002c	48 8b 00	 mov	 rax, QWORD PTR [rax]
  0002f	48 83 c0 08	 add	 rax, 8
  00033	48 89 45 00	 mov	 QWORD PTR _Pnext$[rbp], rax
$LN2@Orphan_ran:

; 2157 :         while (*_Pnext) {

  00037	48 8b 45 00	 mov	 rax, QWORD PTR _Pnext$[rbp]
  0003b	48 83 38 00	 cmp	 QWORD PTR [rax], 0
  0003f	74 5b		 je	 SHORT $LN3@Orphan_ran

; 2158 :             const auto _Pnextptr = static_cast<const_iterator&>(**_Pnext)._Ptr;

  00041	48 8b 45 00	 mov	 rax, QWORD PTR _Pnext$[rbp]
  00045	48 8b 00	 mov	 rax, QWORD PTR [rax]
  00048	48 8b 40 10	 mov	 rax, QWORD PTR [rax+16]
  0004c	48 89 45 08	 mov	 QWORD PTR _Pnextptr$1[rbp], rax

; 2159 :             const auto _Temp     = *_Pnext;

  00050	48 8b 45 00	 mov	 rax, QWORD PTR _Pnext$[rbp]
  00054	48 8b 00	 mov	 rax, QWORD PTR [rax]
  00057	48 89 45 10	 mov	 QWORD PTR _Temp$2[rbp], rax

; 2160 :             if (_Pnextptr < _First || _Last < _Pnextptr) { // skip the iterator

  0005b	48 8b 45 78	 mov	 rax, QWORD PTR _First$[rbp]
  0005f	48 39 45 08	 cmp	 QWORD PTR _Pnextptr$1[rbp], rax
  00063	72 0d		 jb	 SHORT $LN6@Orphan_ran
  00065	48 8b 45 08	 mov	 rax, QWORD PTR _Pnextptr$1[rbp]
  00069	48 39 85 80 00
	00 00		 cmp	 QWORD PTR _Last$[rbp], rax
  00070	73 0e		 jae	 SHORT $LN4@Orphan_ran
$LN6@Orphan_ran:

; 2161 :                 _Pnext = &_Temp->_Mynextiter;

  00072	48 8b 45 10	 mov	 rax, QWORD PTR _Temp$2[rbp]
  00076	48 83 c0 08	 add	 rax, 8
  0007a	48 89 45 00	 mov	 QWORD PTR _Pnext$[rbp], rax

; 2162 :             } else { // orphan the iterator

  0007e	eb 1a		 jmp	 SHORT $LN5@Orphan_ran
$LN4@Orphan_ran:

; 2163 :                 _Temp->_Myproxy = nullptr;

  00080	48 8b 45 10	 mov	 rax, QWORD PTR _Temp$2[rbp]
  00084	48 c7 00 00 00
	00 00		 mov	 QWORD PTR [rax], 0

; 2164 :                 *_Pnext         = _Temp->_Mynextiter;

  0008b	48 8b 45 00	 mov	 rax, QWORD PTR _Pnext$[rbp]
  0008f	48 8b 4d 10	 mov	 rcx, QWORD PTR _Temp$2[rbp]
  00093	48 8b 49 08	 mov	 rcx, QWORD PTR [rcx+8]
  00097	48 89 08	 mov	 QWORD PTR [rax], rcx
$LN5@Orphan_ran:

; 2165 :             }
; 2166 :         }

  0009a	eb 9b		 jmp	 SHORT $LN2@Orphan_ran
$LN3@Orphan_ran:

; 2167 :     }

  0009c	48 8d 65 60	 lea	 rsp, QWORD PTR [rbp+96]
  000a0	5d		 pop	 rbp
  000a1	c3		 ret	 0
?_Orphan_range_unlocked@?$vector@PEAVD3D12Model@@V?$allocator@PEAVD3D12Model@@@std@@@std@@AEBAXPEAPEAVD3D12Model@@0@Z ENDP ; std::vector<D3D12Model *,std::allocator<D3D12Model *> >::_Orphan_range_unlocked
_TEXT	ENDS
; Function compile flags: /Odtp /ZI
; File C:\Program Files\Microsoft Visual Studio\2022\Preview\VC\Tools\MSVC\14.38.33030\include\vector
;	COMDAT ?_Xlength@?$vector@PEAVD3D12Model@@V?$allocator@PEAVD3D12Model@@@std@@@std@@CAXXZ
_TEXT	SEGMENT
?_Xlength@?$vector@PEAVD3D12Model@@V?$allocator@PEAVD3D12Model@@@std@@@std@@CAXXZ PROC ; std::vector<D3D12Model *,std::allocator<D3D12Model *> >::_Xlength, COMDAT

; 2146 :     [[noreturn]] static void _Xlength() {

$LN3:
  00000	40 55		 push	 rbp
  00002	48 83 ec 60	 sub	 rsp, 96			; 00000060H
  00006	48 8d 6c 24 20	 lea	 rbp, QWORD PTR [rsp+32]
  0000b	48 8d 0d 00 00
	00 00		 lea	 rcx, OFFSET FLAT:__14F7CB70_vector
  00012	e8 00 00 00 00	 call	 __CheckForDebuggerJustMyCode

; 2147 :         _Xlength_error("vector too long");

  00017	48 8d 0d 00 00
	00 00		 lea	 rcx, OFFSET FLAT:??_C@_0BA@FOIKENOD@vector?5too?5long@
  0001e	e8 00 00 00 00	 call	 ?_Xlength_error@std@@YAXPEBD@Z ; std::_Xlength_error
$LN2@Xlength:

; 2148 :     }

  00023	48 8d 65 40	 lea	 rsp, QWORD PTR [rbp+64]
  00027	5d		 pop	 rbp
  00028	c3		 ret	 0
?_Xlength@?$vector@PEAVD3D12Model@@V?$allocator@PEAVD3D12Model@@@std@@@std@@CAXXZ ENDP ; std::vector<D3D12Model *,std::allocator<D3D12Model *> >::_Xlength
_TEXT	ENDS
; Function compile flags: /Odtp /ZI
; File C:\Program Files\Microsoft Visual Studio\2022\Preview\VC\Tools\MSVC\14.38.33030\include\vector
;	COMDAT ?_Tidy@?$vector@PEAVD3D12Model@@V?$allocator@PEAVD3D12Model@@@std@@@std@@AEAAXXZ
_TEXT	SEGMENT
_Al$ = 0
_My_data$ = 8
_Myfirst$ = 16
_Mylast$ = 24
_Myend$ = 32
this$ = 128
?_Tidy@?$vector@PEAVD3D12Model@@V?$allocator@PEAVD3D12Model@@@std@@@std@@AEAAXXZ PROC ; std::vector<D3D12Model *,std::allocator<D3D12Model *> >::_Tidy, COMDAT

; 2044 :     _CONSTEXPR20 void _Tidy() noexcept { // free all storage

$LN4:
  00000	48 89 4c 24 08	 mov	 QWORD PTR [rsp+8], rcx
  00005	55		 push	 rbp
  00006	48 81 ec 90 00
	00 00		 sub	 rsp, 144		; 00000090H
  0000d	48 8d 6c 24 20	 lea	 rbp, QWORD PTR [rsp+32]
  00012	48 8d 0d 00 00
	00 00		 lea	 rcx, OFFSET FLAT:__14F7CB70_vector
  00019	e8 00 00 00 00	 call	 __CheckForDebuggerJustMyCode

; 2045 :         auto& _Al         = _Getal();

  0001e	48 8b 8d 80 00
	00 00		 mov	 rcx, QWORD PTR this$[rbp]
  00025	e8 00 00 00 00	 call	 ?_Getal@?$vector@PEAVD3D12Model@@V?$allocator@PEAVD3D12Model@@@std@@@std@@AEAAAEAV?$allocator@PEAVD3D12Model@@@2@XZ ; std::vector<D3D12Model *,std::allocator<D3D12Model *> >::_Getal
  0002a	48 89 45 00	 mov	 QWORD PTR _Al$[rbp], rax

; 2046 :         auto& _My_data    = _Mypair._Myval2;

  0002e	48 8b 85 80 00
	00 00		 mov	 rax, QWORD PTR this$[rbp]
  00035	48 89 45 08	 mov	 QWORD PTR _My_data$[rbp], rax

; 2047 :         pointer& _Myfirst = _My_data._Myfirst;

  00039	48 8b 45 08	 mov	 rax, QWORD PTR _My_data$[rbp]
  0003d	48 83 c0 08	 add	 rax, 8
  00041	48 89 45 10	 mov	 QWORD PTR _Myfirst$[rbp], rax

; 2048 :         pointer& _Mylast  = _My_data._Mylast;

  00045	48 8b 45 08	 mov	 rax, QWORD PTR _My_data$[rbp]
  00049	48 83 c0 10	 add	 rax, 16
  0004d	48 89 45 18	 mov	 QWORD PTR _Mylast$[rbp], rax

; 2049 :         pointer& _Myend   = _My_data._Myend;

  00051	48 8b 45 08	 mov	 rax, QWORD PTR _My_data$[rbp]
  00055	48 83 c0 18	 add	 rax, 24
  00059	48 89 45 20	 mov	 QWORD PTR _Myend$[rbp], rax

; 2050 : 
; 2051 :         _My_data._Orphan_all();

  0005d	48 8b 4d 08	 mov	 rcx, QWORD PTR _My_data$[rbp]
  00061	e8 00 00 00 00	 call	 ?_Orphan_all@_Container_base12@std@@QEAAXXZ ; std::_Container_base12::_Orphan_all

; 2052 : 
; 2053 :         if (_Myfirst) { // destroy and deallocate old array

  00066	48 8b 45 10	 mov	 rax, QWORD PTR _Myfirst$[rbp]
  0006a	48 83 38 00	 cmp	 QWORD PTR [rax], 0
  0006e	74 60		 je	 SHORT $LN2@Tidy

; 2054 :             _Destroy_range(_Myfirst, _Mylast, _Al);

  00070	4c 8b 45 00	 mov	 r8, QWORD PTR _Al$[rbp]
  00074	48 8b 45 18	 mov	 rax, QWORD PTR _Mylast$[rbp]
  00078	48 8b 10	 mov	 rdx, QWORD PTR [rax]
  0007b	48 8b 45 10	 mov	 rax, QWORD PTR _Myfirst$[rbp]
  0007f	48 8b 08	 mov	 rcx, QWORD PTR [rax]
  00082	e8 00 00 00 00	 call	 ??$_Destroy_range@V?$allocator@PEAVD3D12Model@@@std@@@std@@YAXPEAPEAVD3D12Model@@QEAPEAV1@AEAV?$allocator@PEAVD3D12Model@@@0@@Z ; std::_Destroy_range<std::allocator<D3D12Model *> >

; 2055 :             _ASAN_VECTOR_REMOVE;
; 2056 :             _Al.deallocate(_Myfirst, static_cast<size_type>(_Myend - _Myfirst));

  00087	48 8b 45 20	 mov	 rax, QWORD PTR _Myend$[rbp]
  0008b	48 8b 4d 10	 mov	 rcx, QWORD PTR _Myfirst$[rbp]
  0008f	48 8b 09	 mov	 rcx, QWORD PTR [rcx]
  00092	48 8b 00	 mov	 rax, QWORD PTR [rax]
  00095	48 2b c1	 sub	 rax, rcx
  00098	48 c1 f8 03	 sar	 rax, 3
  0009c	4c 8b c0	 mov	 r8, rax
  0009f	48 8b 45 10	 mov	 rax, QWORD PTR _Myfirst$[rbp]
  000a3	48 8b 10	 mov	 rdx, QWORD PTR [rax]
  000a6	48 8b 4d 00	 mov	 rcx, QWORD PTR _Al$[rbp]
  000aa	e8 00 00 00 00	 call	 ?deallocate@?$allocator@PEAVD3D12Model@@@std@@QEAAXQEAPEAVD3D12Model@@_K@Z ; std::allocator<D3D12Model *>::deallocate

; 2057 : 
; 2058 :             _Myfirst = nullptr;

  000af	48 8b 45 10	 mov	 rax, QWORD PTR _Myfirst$[rbp]
  000b3	48 c7 00 00 00
	00 00		 mov	 QWORD PTR [rax], 0

; 2059 :             _Mylast  = nullptr;

  000ba	48 8b 45 18	 mov	 rax, QWORD PTR _Mylast$[rbp]
  000be	48 c7 00 00 00
	00 00		 mov	 QWORD PTR [rax], 0

; 2060 :             _Myend   = nullptr;

  000c5	48 8b 45 20	 mov	 rax, QWORD PTR _Myend$[rbp]
  000c9	48 c7 00 00 00
	00 00		 mov	 QWORD PTR [rax], 0
$LN2@Tidy:

; 2061 :         }
; 2062 :     }

  000d0	48 8d 65 70	 lea	 rsp, QWORD PTR [rbp+112]
  000d4	5d		 pop	 rbp
  000d5	c3		 ret	 0
?_Tidy@?$vector@PEAVD3D12Model@@V?$allocator@PEAVD3D12Model@@@std@@@std@@AEAAXXZ ENDP ; std::vector<D3D12Model *,std::allocator<D3D12Model *> >::_Tidy
_TEXT	ENDS
; Function compile flags: /Odtp /ZI
; File C:\Program Files\Microsoft Visual Studio\2022\Preview\VC\Tools\MSVC\14.38.33030\include\vector
;	COMDAT ?_Change_array@?$vector@PEAVD3D12Model@@V?$allocator@PEAVD3D12Model@@@std@@@std@@AEAAXQEAPEAVD3D12Model@@_K1@Z
_TEXT	SEGMENT
_Al$ = 0
_My_data$ = 8
_Myfirst$ = 16
_Mylast$ = 24
_Myend$ = 32
this$ = 128
_Newvec$ = 136
_Newsize$ = 144
_Newcapacity$ = 152
?_Change_array@?$vector@PEAVD3D12Model@@V?$allocator@PEAVD3D12Model@@@std@@@std@@AEAAXQEAPEAVD3D12Model@@_K1@Z PROC ; std::vector<D3D12Model *,std::allocator<D3D12Model *> >::_Change_array, COMDAT

; 2022 :     _CONSTEXPR20 void _Change_array(const pointer _Newvec, const size_type _Newsize, const size_type _Newcapacity) {

$LN4:
  00000	4c 89 4c 24 20	 mov	 QWORD PTR [rsp+32], r9
  00005	4c 89 44 24 18	 mov	 QWORD PTR [rsp+24], r8
  0000a	48 89 54 24 10	 mov	 QWORD PTR [rsp+16], rdx
  0000f	48 89 4c 24 08	 mov	 QWORD PTR [rsp+8], rcx
  00014	55		 push	 rbp
  00015	48 81 ec 90 00
	00 00		 sub	 rsp, 144		; 00000090H
  0001c	48 8d 6c 24 20	 lea	 rbp, QWORD PTR [rsp+32]
  00021	48 8d 0d 00 00
	00 00		 lea	 rcx, OFFSET FLAT:__14F7CB70_vector
  00028	e8 00 00 00 00	 call	 __CheckForDebuggerJustMyCode

; 2023 :         // orphan all iterators, discard old array, acquire new array
; 2024 :         auto& _Al         = _Getal();

  0002d	48 8b 8d 80 00
	00 00		 mov	 rcx, QWORD PTR this$[rbp]
  00034	e8 00 00 00 00	 call	 ?_Getal@?$vector@PEAVD3D12Model@@V?$allocator@PEAVD3D12Model@@@std@@@std@@AEAAAEAV?$allocator@PEAVD3D12Model@@@2@XZ ; std::vector<D3D12Model *,std::allocator<D3D12Model *> >::_Getal
  00039	48 89 45 00	 mov	 QWORD PTR _Al$[rbp], rax

; 2025 :         auto& _My_data    = _Mypair._Myval2;

  0003d	48 8b 85 80 00
	00 00		 mov	 rax, QWORD PTR this$[rbp]
  00044	48 89 45 08	 mov	 QWORD PTR _My_data$[rbp], rax

; 2026 :         pointer& _Myfirst = _My_data._Myfirst;

  00048	48 8b 45 08	 mov	 rax, QWORD PTR _My_data$[rbp]
  0004c	48 83 c0 08	 add	 rax, 8
  00050	48 89 45 10	 mov	 QWORD PTR _Myfirst$[rbp], rax

; 2027 :         pointer& _Mylast  = _My_data._Mylast;

  00054	48 8b 45 08	 mov	 rax, QWORD PTR _My_data$[rbp]
  00058	48 83 c0 10	 add	 rax, 16
  0005c	48 89 45 18	 mov	 QWORD PTR _Mylast$[rbp], rax

; 2028 :         pointer& _Myend   = _My_data._Myend;

  00060	48 8b 45 08	 mov	 rax, QWORD PTR _My_data$[rbp]
  00064	48 83 c0 18	 add	 rax, 24
  00068	48 89 45 20	 mov	 QWORD PTR _Myend$[rbp], rax

; 2029 : 
; 2030 :         _My_data._Orphan_all();

  0006c	48 8b 4d 08	 mov	 rcx, QWORD PTR _My_data$[rbp]
  00070	e8 00 00 00 00	 call	 ?_Orphan_all@_Container_base12@std@@QEAAXXZ ; std::_Container_base12::_Orphan_all

; 2031 : 
; 2032 :         if (_Myfirst) { // destroy and deallocate old array

  00075	48 8b 45 10	 mov	 rax, QWORD PTR _Myfirst$[rbp]
  00079	48 83 38 00	 cmp	 QWORD PTR [rax], 0
  0007d	74 3f		 je	 SHORT $LN2@Change_arr

; 2033 :             _Destroy_range(_Myfirst, _Mylast, _Al);

  0007f	4c 8b 45 00	 mov	 r8, QWORD PTR _Al$[rbp]
  00083	48 8b 45 18	 mov	 rax, QWORD PTR _Mylast$[rbp]
  00087	48 8b 10	 mov	 rdx, QWORD PTR [rax]
  0008a	48 8b 45 10	 mov	 rax, QWORD PTR _Myfirst$[rbp]
  0008e	48 8b 08	 mov	 rcx, QWORD PTR [rax]
  00091	e8 00 00 00 00	 call	 ??$_Destroy_range@V?$allocator@PEAVD3D12Model@@@std@@@std@@YAXPEAPEAVD3D12Model@@QEAPEAV1@AEAV?$allocator@PEAVD3D12Model@@@0@@Z ; std::_Destroy_range<std::allocator<D3D12Model *> >

; 2034 :             _ASAN_VECTOR_REMOVE;
; 2035 :             _Al.deallocate(_Myfirst, static_cast<size_type>(_Myend - _Myfirst));

  00096	48 8b 45 20	 mov	 rax, QWORD PTR _Myend$[rbp]
  0009a	48 8b 4d 10	 mov	 rcx, QWORD PTR _Myfirst$[rbp]
  0009e	48 8b 09	 mov	 rcx, QWORD PTR [rcx]
  000a1	48 8b 00	 mov	 rax, QWORD PTR [rax]
  000a4	48 2b c1	 sub	 rax, rcx
  000a7	48 c1 f8 03	 sar	 rax, 3
  000ab	4c 8b c0	 mov	 r8, rax
  000ae	48 8b 45 10	 mov	 rax, QWORD PTR _Myfirst$[rbp]
  000b2	48 8b 10	 mov	 rdx, QWORD PTR [rax]
  000b5	48 8b 4d 00	 mov	 rcx, QWORD PTR _Al$[rbp]
  000b9	e8 00 00 00 00	 call	 ?deallocate@?$allocator@PEAVD3D12Model@@@std@@QEAAXQEAPEAVD3D12Model@@_K@Z ; std::allocator<D3D12Model *>::deallocate
$LN2@Change_arr:

; 2036 :         }
; 2037 : 
; 2038 :         _Myfirst = _Newvec;

  000be	48 8b 45 10	 mov	 rax, QWORD PTR _Myfirst$[rbp]
  000c2	48 8b 8d 88 00
	00 00		 mov	 rcx, QWORD PTR _Newvec$[rbp]
  000c9	48 89 08	 mov	 QWORD PTR [rax], rcx

; 2039 :         _Mylast  = _Newvec + _Newsize;

  000cc	48 8b 85 88 00
	00 00		 mov	 rax, QWORD PTR _Newvec$[rbp]
  000d3	48 8b 8d 90 00
	00 00		 mov	 rcx, QWORD PTR _Newsize$[rbp]
  000da	48 8d 04 c8	 lea	 rax, QWORD PTR [rax+rcx*8]
  000de	48 8b 4d 18	 mov	 rcx, QWORD PTR _Mylast$[rbp]
  000e2	48 89 01	 mov	 QWORD PTR [rcx], rax

; 2040 :         _Myend   = _Newvec + _Newcapacity;

  000e5	48 8b 85 88 00
	00 00		 mov	 rax, QWORD PTR _Newvec$[rbp]
  000ec	48 8b 8d 98 00
	00 00		 mov	 rcx, QWORD PTR _Newcapacity$[rbp]
  000f3	48 8d 04 c8	 lea	 rax, QWORD PTR [rax+rcx*8]
  000f7	48 8b 4d 20	 mov	 rcx, QWORD PTR _Myend$[rbp]
  000fb	48 89 01	 mov	 QWORD PTR [rcx], rax

; 2041 :         _ASAN_VECTOR_CREATE;
; 2042 :     }

  000fe	48 8d 65 70	 lea	 rsp, QWORD PTR [rbp+112]
  00102	5d		 pop	 rbp
  00103	c3		 ret	 0
?_Change_array@?$vector@PEAVD3D12Model@@V?$allocator@PEAVD3D12Model@@@std@@@std@@AEAAXQEAPEAVD3D12Model@@_K1@Z ENDP ; std::vector<D3D12Model *,std::allocator<D3D12Model *> >::_Change_array
_TEXT	ENDS
; Function compile flags: /Odtp /ZI
; File C:\Program Files\Microsoft Visual Studio\2022\Preview\VC\Tools\MSVC\14.38.33030\include\vector
;	COMDAT ?_Buy_raw@?$vector@PEAVD3D12Model@@V?$allocator@PEAVD3D12Model@@@std@@@std@@AEAAX_K@Z
_TEXT	SEGMENT
_My_data$ = 0
_Myfirst$ = 8
_Mylast$ = 16
_Myend$ = 24
_Newvec$ = 32
this$ = 128
_Newcapacity$ = 136
?_Buy_raw@?$vector@PEAVD3D12Model@@V?$allocator@PEAVD3D12Model@@@std@@@std@@AEAAX_K@Z PROC ; std::vector<D3D12Model *,std::allocator<D3D12Model *> >::_Buy_raw, COMDAT

; 1988 :     _CONSTEXPR20 void _Buy_raw(size_type _Newcapacity) {

$LN3:
  00000	48 89 54 24 10	 mov	 QWORD PTR [rsp+16], rdx
  00005	48 89 4c 24 08	 mov	 QWORD PTR [rsp+8], rcx
  0000a	55		 push	 rbp
  0000b	48 81 ec 90 00
	00 00		 sub	 rsp, 144		; 00000090H
  00012	48 8d 6c 24 20	 lea	 rbp, QWORD PTR [rsp+32]
  00017	48 8d 0d 00 00
	00 00		 lea	 rcx, OFFSET FLAT:__14F7CB70_vector
  0001e	e8 00 00 00 00	 call	 __CheckForDebuggerJustMyCode

; 1989 :         // allocate array with _Newcapacity elements
; 1990 :         auto& _My_data    = _Mypair._Myval2;

  00023	48 8b 85 80 00
	00 00		 mov	 rax, QWORD PTR this$[rbp]
  0002a	48 89 45 00	 mov	 QWORD PTR _My_data$[rbp], rax

; 1991 :         pointer& _Myfirst = _My_data._Myfirst;

  0002e	48 8b 45 00	 mov	 rax, QWORD PTR _My_data$[rbp]
  00032	48 83 c0 08	 add	 rax, 8
  00036	48 89 45 08	 mov	 QWORD PTR _Myfirst$[rbp], rax

; 1992 :         pointer& _Mylast  = _My_data._Mylast;

  0003a	48 8b 45 00	 mov	 rax, QWORD PTR _My_data$[rbp]
  0003e	48 83 c0 10	 add	 rax, 16
  00042	48 89 45 10	 mov	 QWORD PTR _Mylast$[rbp], rax

; 1993 :         pointer& _Myend   = _My_data._Myend;

  00046	48 8b 45 00	 mov	 rax, QWORD PTR _My_data$[rbp]
  0004a	48 83 c0 18	 add	 rax, 24
  0004e	48 89 45 18	 mov	 QWORD PTR _Myend$[rbp], rax

; 1994 : 
; 1995 :         _STL_INTERNAL_CHECK(!_Myfirst && !_Mylast && !_Myend); // check that *this is tidy
; 1996 :         _STL_INTERNAL_CHECK(0 < _Newcapacity && _Newcapacity <= max_size());
; 1997 : 
; 1998 :         const pointer _Newvec = _Allocate_at_least_helper(_Getal(), _Newcapacity);

  00052	48 8b 8d 80 00
	00 00		 mov	 rcx, QWORD PTR this$[rbp]
  00059	e8 00 00 00 00	 call	 ?_Getal@?$vector@PEAVD3D12Model@@V?$allocator@PEAVD3D12Model@@@std@@@std@@AEAAAEAV?$allocator@PEAVD3D12Model@@@2@XZ ; std::vector<D3D12Model *,std::allocator<D3D12Model *> >::_Getal
  0005e	48 8d 95 88 00
	00 00		 lea	 rdx, QWORD PTR _Newcapacity$[rbp]
  00065	48 8b c8	 mov	 rcx, rax
  00068	e8 00 00 00 00	 call	 ??$_Allocate_at_least_helper@V?$allocator@PEAVD3D12Model@@@std@@@std@@YAPEAPEAVD3D12Model@@AEAV?$allocator@PEAVD3D12Model@@@0@AEA_K@Z ; std::_Allocate_at_least_helper<std::allocator<D3D12Model *> >
  0006d	48 89 45 20	 mov	 QWORD PTR _Newvec$[rbp], rax

; 1999 :         _Myfirst              = _Newvec;

  00071	48 8b 45 08	 mov	 rax, QWORD PTR _Myfirst$[rbp]
  00075	48 8b 4d 20	 mov	 rcx, QWORD PTR _Newvec$[rbp]
  00079	48 89 08	 mov	 QWORD PTR [rax], rcx

; 2000 :         _Mylast               = _Newvec;

  0007c	48 8b 45 10	 mov	 rax, QWORD PTR _Mylast$[rbp]
  00080	48 8b 4d 20	 mov	 rcx, QWORD PTR _Newvec$[rbp]
  00084	48 89 08	 mov	 QWORD PTR [rax], rcx

; 2001 :         _Myend                = _Newvec + _Newcapacity;

  00087	48 8b 45 20	 mov	 rax, QWORD PTR _Newvec$[rbp]
  0008b	48 8b 8d 88 00
	00 00		 mov	 rcx, QWORD PTR _Newcapacity$[rbp]
  00092	48 8d 04 c8	 lea	 rax, QWORD PTR [rax+rcx*8]
  00096	48 8b 4d 18	 mov	 rcx, QWORD PTR _Myend$[rbp]
  0009a	48 89 01	 mov	 QWORD PTR [rcx], rax

; 2002 :     }

  0009d	48 8d 65 70	 lea	 rsp, QWORD PTR [rbp+112]
  000a1	5d		 pop	 rbp
  000a2	c3		 ret	 0
?_Buy_raw@?$vector@PEAVD3D12Model@@V?$allocator@PEAVD3D12Model@@@std@@@std@@AEAAX_K@Z ENDP ; std::vector<D3D12Model *,std::allocator<D3D12Model *> >::_Buy_raw
_TEXT	ENDS
; Function compile flags: /Odtp /ZI
; File C:\Program Files\Microsoft Visual Studio\2022\Preview\VC\Tools\MSVC\14.38.33030\include\vector
;	COMDAT ?_Calculate_growth@?$vector@PEAVD3D12Model@@V?$allocator@PEAVD3D12Model@@@std@@@std@@AEBA_K_K@Z
_TEXT	SEGMENT
_Oldcapacity$ = 0
_Max$ = 8
_Geometric$ = 16
this$ = 112
_Newsize$ = 120
?_Calculate_growth@?$vector@PEAVD3D12Model@@V?$allocator@PEAVD3D12Model@@@std@@@std@@AEBA_K_K@Z PROC ; std::vector<D3D12Model *,std::allocator<D3D12Model *> >::_Calculate_growth, COMDAT

; 1970 :     _CONSTEXPR20 size_type _Calculate_growth(const size_type _Newsize) const {

$LN5:
  00000	48 89 54 24 10	 mov	 QWORD PTR [rsp+16], rdx
  00005	48 89 4c 24 08	 mov	 QWORD PTR [rsp+8], rcx
  0000a	55		 push	 rbp
  0000b	48 81 ec 80 00
	00 00		 sub	 rsp, 128		; 00000080H
  00012	48 8d 6c 24 20	 lea	 rbp, QWORD PTR [rsp+32]
  00017	48 8d 0d 00 00
	00 00		 lea	 rcx, OFFSET FLAT:__14F7CB70_vector
  0001e	e8 00 00 00 00	 call	 __CheckForDebuggerJustMyCode

; 1971 :         // given _Oldcapacity and _Newsize, calculate geometric growth
; 1972 :         const size_type _Oldcapacity = capacity();

  00023	48 8b 4d 70	 mov	 rcx, QWORD PTR this$[rbp]
  00027	e8 00 00 00 00	 call	 ?capacity@?$vector@PEAVD3D12Model@@V?$allocator@PEAVD3D12Model@@@std@@@std@@QEBA_KXZ ; std::vector<D3D12Model *,std::allocator<D3D12Model *> >::capacity
  0002c	48 89 45 00	 mov	 QWORD PTR _Oldcapacity$[rbp], rax

; 1973 :         const auto _Max              = max_size();

  00030	48 8b 4d 70	 mov	 rcx, QWORD PTR this$[rbp]
  00034	e8 00 00 00 00	 call	 ?max_size@?$vector@PEAVD3D12Model@@V?$allocator@PEAVD3D12Model@@@std@@@std@@QEBA_KXZ ; std::vector<D3D12Model *,std::allocator<D3D12Model *> >::max_size
  00039	48 89 45 08	 mov	 QWORD PTR _Max$[rbp], rax

; 1974 : 
; 1975 :         if (_Oldcapacity > _Max - _Oldcapacity / 2) {

  0003d	33 d2		 xor	 edx, edx
  0003f	48 8b 45 00	 mov	 rax, QWORD PTR _Oldcapacity$[rbp]
  00043	b9 02 00 00 00	 mov	 ecx, 2
  00048	48 f7 f1	 div	 rcx
  0004b	48 8b 4d 08	 mov	 rcx, QWORD PTR _Max$[rbp]
  0004f	48 2b c8	 sub	 rcx, rax
  00052	48 8b c1	 mov	 rax, rcx
  00055	48 39 45 00	 cmp	 QWORD PTR _Oldcapacity$[rbp], rax
  00059	76 06		 jbe	 SHORT $LN2@Calculate_

; 1976 :             return _Max; // geometric growth would overflow

  0005b	48 8b 45 08	 mov	 rax, QWORD PTR _Max$[rbp]
  0005f	eb 30		 jmp	 SHORT $LN1@Calculate_
$LN2@Calculate_:

; 1977 :         }
; 1978 : 
; 1979 :         const size_type _Geometric = _Oldcapacity + _Oldcapacity / 2;

  00061	33 d2		 xor	 edx, edx
  00063	48 8b 45 00	 mov	 rax, QWORD PTR _Oldcapacity$[rbp]
  00067	b9 02 00 00 00	 mov	 ecx, 2
  0006c	48 f7 f1	 div	 rcx
  0006f	48 8b 4d 00	 mov	 rcx, QWORD PTR _Oldcapacity$[rbp]
  00073	48 03 c8	 add	 rcx, rax
  00076	48 8b c1	 mov	 rax, rcx
  00079	48 89 45 10	 mov	 QWORD PTR _Geometric$[rbp], rax

; 1980 : 
; 1981 :         if (_Geometric < _Newsize) {

  0007d	48 8b 45 78	 mov	 rax, QWORD PTR _Newsize$[rbp]
  00081	48 39 45 10	 cmp	 QWORD PTR _Geometric$[rbp], rax
  00085	73 06		 jae	 SHORT $LN3@Calculate_

; 1982 :             return _Newsize; // geometric growth would be insufficient

  00087	48 8b 45 78	 mov	 rax, QWORD PTR _Newsize$[rbp]
  0008b	eb 04		 jmp	 SHORT $LN1@Calculate_
$LN3@Calculate_:

; 1983 :         }
; 1984 : 
; 1985 :         return _Geometric; // geometric growth is sufficient

  0008d	48 8b 45 10	 mov	 rax, QWORD PTR _Geometric$[rbp]
$LN1@Calculate_:

; 1986 :     }

  00091	48 8d 65 60	 lea	 rsp, QWORD PTR [rbp+96]
  00095	5d		 pop	 rbp
  00096	c3		 ret	 0
?_Calculate_growth@?$vector@PEAVD3D12Model@@V?$allocator@PEAVD3D12Model@@@std@@@std@@AEBA_K_K@Z ENDP ; std::vector<D3D12Model *,std::allocator<D3D12Model *> >::_Calculate_growth
_TEXT	ENDS
; Function compile flags: /Odtp /ZI
; File C:\Program Files\Microsoft Visual Studio\2022\Preview\VC\Tools\MSVC\14.38.33030\include\vector
;	COMDAT ?capacity@?$vector@PEAVD3D12Model@@V?$allocator@PEAVD3D12Model@@@std@@@std@@QEBA_KXZ
_TEXT	SEGMENT
_My_data$ = 0
this$ = 96
?capacity@?$vector@PEAVD3D12Model@@V?$allocator@PEAVD3D12Model@@@std@@@std@@QEBA_KXZ PROC ; std::vector<D3D12Model *,std::allocator<D3D12Model *> >::capacity, COMDAT

; 1886 :     _NODISCARD _CONSTEXPR20 size_type capacity() const noexcept {

$LN3:
  00000	48 89 4c 24 08	 mov	 QWORD PTR [rsp+8], rcx
  00005	55		 push	 rbp
  00006	48 83 ec 70	 sub	 rsp, 112		; 00000070H
  0000a	48 8d 6c 24 20	 lea	 rbp, QWORD PTR [rsp+32]
  0000f	48 8d 0d 00 00
	00 00		 lea	 rcx, OFFSET FLAT:__14F7CB70_vector
  00016	e8 00 00 00 00	 call	 __CheckForDebuggerJustMyCode

; 1887 :         auto& _My_data = _Mypair._Myval2;

  0001b	48 8b 45 60	 mov	 rax, QWORD PTR this$[rbp]
  0001f	48 89 45 00	 mov	 QWORD PTR _My_data$[rbp], rax

; 1888 :         return static_cast<size_type>(_My_data._Myend - _My_data._Myfirst);

  00023	48 8b 45 00	 mov	 rax, QWORD PTR _My_data$[rbp]
  00027	48 8b 4d 00	 mov	 rcx, QWORD PTR _My_data$[rbp]
  0002b	48 8b 49 08	 mov	 rcx, QWORD PTR [rcx+8]
  0002f	48 8b 40 18	 mov	 rax, QWORD PTR [rax+24]
  00033	48 2b c1	 sub	 rax, rcx
  00036	48 c1 f8 03	 sar	 rax, 3

; 1889 :     }

  0003a	48 8d 65 50	 lea	 rsp, QWORD PTR [rbp+80]
  0003e	5d		 pop	 rbp
  0003f	c3		 ret	 0
?capacity@?$vector@PEAVD3D12Model@@V?$allocator@PEAVD3D12Model@@@std@@@std@@QEBA_KXZ ENDP ; std::vector<D3D12Model *,std::allocator<D3D12Model *> >::capacity
_TEXT	ENDS
; Function compile flags: /Odtp /ZI
; File C:\Program Files\Microsoft Visual Studio\2022\Preview\VC\Tools\MSVC\14.38.33030\include\vector
;	COMDAT ?max_size@?$vector@PEAVD3D12Model@@V?$allocator@PEAVD3D12Model@@@std@@@std@@QEBA_KXZ
_TEXT	SEGMENT
$T1 = 64
$T2 = 72
this$ = 96
?max_size@?$vector@PEAVD3D12Model@@V?$allocator@PEAVD3D12Model@@@std@@@std@@QEBA_KXZ PROC ; std::vector<D3D12Model *,std::allocator<D3D12Model *> >::max_size, COMDAT

; 1881 :     _NODISCARD _CONSTEXPR20 size_type max_size() const noexcept {

$LN3:
  00000	48 89 4c 24 08	 mov	 QWORD PTR [rsp+8], rcx
  00005	55		 push	 rbp
  00006	48 83 ec 70	 sub	 rsp, 112		; 00000070H
  0000a	48 8d 6c 24 20	 lea	 rbp, QWORD PTR [rsp+32]
  0000f	48 8d 0d 00 00
	00 00		 lea	 rcx, OFFSET FLAT:__14F7CB70_vector
  00016	e8 00 00 00 00	 call	 __CheckForDebuggerJustMyCode

; 1882 :         return (_STD min)(

  0001b	48 8b 4d 60	 mov	 rcx, QWORD PTR this$[rbp]
  0001f	e8 00 00 00 00	 call	 ?_Getal@?$vector@PEAVD3D12Model@@V?$allocator@PEAVD3D12Model@@@std@@@std@@AEBAAEBV?$allocator@PEAVD3D12Model@@@2@XZ ; std::vector<D3D12Model *,std::allocator<D3D12Model *> >::_Getal
  00024	48 8b c8	 mov	 rcx, rax
  00027	e8 00 00 00 00	 call	 ?max_size@?$_Default_allocator_traits@V?$allocator@PEAVD3D12Model@@@std@@@std@@SA_KAEBV?$allocator@PEAVD3D12Model@@@2@@Z ; std::_Default_allocator_traits<std::allocator<D3D12Model *> >::max_size
  0002c	48 89 45 40	 mov	 QWORD PTR $T1[rbp], rax
  00030	e8 00 00 00 00	 call	 ?max@?$numeric_limits@_J@std@@SA_JXZ ; std::numeric_limits<__int64>::max
  00035	48 89 45 48	 mov	 QWORD PTR $T2[rbp], rax
  00039	48 8d 55 40	 lea	 rdx, QWORD PTR $T1[rbp]
  0003d	48 8d 4d 48	 lea	 rcx, QWORD PTR $T2[rbp]
  00041	e8 00 00 00 00	 call	 ??$min@_K@std@@YAAEB_KAEB_K0@Z ; std::min<unsigned __int64>
  00046	48 8b 00	 mov	 rax, QWORD PTR [rax]

; 1883 :             static_cast<size_type>((numeric_limits<difference_type>::max)()), _Alty_traits::max_size(_Getal()));
; 1884 :     }

  00049	48 8d 65 50	 lea	 rsp, QWORD PTR [rbp+80]
  0004d	5d		 pop	 rbp
  0004e	c3		 ret	 0
?max_size@?$vector@PEAVD3D12Model@@V?$allocator@PEAVD3D12Model@@@std@@@std@@QEBA_KXZ ENDP ; std::vector<D3D12Model *,std::allocator<D3D12Model *> >::max_size
_TEXT	ENDS
; Function compile flags: /Odtp /ZI
; File C:\Program Files\Microsoft Visual Studio\2022\Preview\VC\Tools\MSVC\14.38.33030\include\vector
;	COMDAT ?end@?$vector@PEAVD3D12Model@@V?$allocator@PEAVD3D12Model@@@std@@@std@@QEAA?AV?$_Vector_iterator@V?$_Vector_val@U?$_Simple_types@PEAVD3D12Model@@@std@@@std@@@2@XZ
_TEXT	SEGMENT
_My_data$ = 0
tv80 = 72
tv78 = 80
this$ = 112
__$ReturnUdt$ = 120
?end@?$vector@PEAVD3D12Model@@V?$allocator@PEAVD3D12Model@@@std@@@std@@QEAA?AV?$_Vector_iterator@V?$_Vector_val@U?$_Simple_types@PEAVD3D12Model@@@std@@@std@@@2@XZ PROC ; std::vector<D3D12Model *,std::allocator<D3D12Model *> >::end, COMDAT

; 1813 :     _NODISCARD _CONSTEXPR20 iterator end() noexcept {

$LN3:
  00000	48 89 54 24 10	 mov	 QWORD PTR [rsp+16], rdx
  00005	48 89 4c 24 08	 mov	 QWORD PTR [rsp+8], rcx
  0000a	55		 push	 rbp
  0000b	48 81 ec 80 00
	00 00		 sub	 rsp, 128		; 00000080H
  00012	48 8d 6c 24 20	 lea	 rbp, QWORD PTR [rsp+32]
  00017	48 8d 0d 00 00
	00 00		 lea	 rcx, OFFSET FLAT:__14F7CB70_vector
  0001e	e8 00 00 00 00	 call	 __CheckForDebuggerJustMyCode

; 1814 :         auto& _My_data = _Mypair._Myval2;

  00023	48 8b 45 70	 mov	 rax, QWORD PTR this$[rbp]
  00027	48 89 45 00	 mov	 QWORD PTR _My_data$[rbp], rax

; 1815 :         return iterator(_My_data._Mylast, _STD addressof(_My_data));

  0002b	48 8b 4d 00	 mov	 rcx, QWORD PTR _My_data$[rbp]
  0002f	e8 00 00 00 00	 call	 ??$addressof@V?$_Vector_val@U?$_Simple_types@PEAVD3D12Model@@@std@@@std@@@std@@YAPEAV?$_Vector_val@U?$_Simple_types@PEAVD3D12Model@@@std@@@0@AEAV10@@Z ; std::addressof<std::_Vector_val<std::_Simple_types<D3D12Model *> > >
  00034	48 89 45 48	 mov	 QWORD PTR tv80[rbp], rax
  00038	48 8b 45 00	 mov	 rax, QWORD PTR _My_data$[rbp]
  0003c	48 8b 40 10	 mov	 rax, QWORD PTR [rax+16]
  00040	48 89 45 50	 mov	 QWORD PTR tv78[rbp], rax
  00044	4c 8b 45 48	 mov	 r8, QWORD PTR tv80[rbp]
  00048	48 8b 55 50	 mov	 rdx, QWORD PTR tv78[rbp]
  0004c	48 8b 4d 78	 mov	 rcx, QWORD PTR __$ReturnUdt$[rbp]
  00050	e8 00 00 00 00	 call	 ??0?$_Vector_iterator@V?$_Vector_val@U?$_Simple_types@PEAVD3D12Model@@@std@@@std@@@std@@QEAA@PEAPEAVD3D12Model@@PEBU_Container_base12@1@@Z
  00055	48 8b 45 78	 mov	 rax, QWORD PTR __$ReturnUdt$[rbp]

; 1816 :     }

  00059	48 8d 65 60	 lea	 rsp, QWORD PTR [rbp+96]
  0005d	5d		 pop	 rbp
  0005e	c3		 ret	 0
?end@?$vector@PEAVD3D12Model@@V?$allocator@PEAVD3D12Model@@@std@@@std@@QEAA?AV?$_Vector_iterator@V?$_Vector_val@U?$_Simple_types@PEAVD3D12Model@@@std@@@std@@@2@XZ ENDP ; std::vector<D3D12Model *,std::allocator<D3D12Model *> >::end
_TEXT	ENDS
; Function compile flags: /Odtp /ZI
; File C:\Program Files\Microsoft Visual Studio\2022\Preview\VC\Tools\MSVC\14.38.33030\include\vector
;	COMDAT ?begin@?$vector@PEAVD3D12Model@@V?$allocator@PEAVD3D12Model@@@std@@@std@@QEAA?AV?$_Vector_iterator@V?$_Vector_val@U?$_Simple_types@PEAVD3D12Model@@@std@@@std@@@2@XZ
_TEXT	SEGMENT
_My_data$ = 0
tv80 = 72
tv78 = 80
this$ = 112
__$ReturnUdt$ = 120
?begin@?$vector@PEAVD3D12Model@@V?$allocator@PEAVD3D12Model@@@std@@@std@@QEAA?AV?$_Vector_iterator@V?$_Vector_val@U?$_Simple_types@PEAVD3D12Model@@@std@@@std@@@2@XZ PROC ; std::vector<D3D12Model *,std::allocator<D3D12Model *> >::begin, COMDAT

; 1803 :     _NODISCARD _CONSTEXPR20 iterator begin() noexcept {

$LN3:
  00000	48 89 54 24 10	 mov	 QWORD PTR [rsp+16], rdx
  00005	48 89 4c 24 08	 mov	 QWORD PTR [rsp+8], rcx
  0000a	55		 push	 rbp
  0000b	48 81 ec 80 00
	00 00		 sub	 rsp, 128		; 00000080H
  00012	48 8d 6c 24 20	 lea	 rbp, QWORD PTR [rsp+32]
  00017	48 8d 0d 00 00
	00 00		 lea	 rcx, OFFSET FLAT:__14F7CB70_vector
  0001e	e8 00 00 00 00	 call	 __CheckForDebuggerJustMyCode

; 1804 :         auto& _My_data = _Mypair._Myval2;

  00023	48 8b 45 70	 mov	 rax, QWORD PTR this$[rbp]
  00027	48 89 45 00	 mov	 QWORD PTR _My_data$[rbp], rax

; 1805 :         return iterator(_My_data._Myfirst, _STD addressof(_My_data));

  0002b	48 8b 4d 00	 mov	 rcx, QWORD PTR _My_data$[rbp]
  0002f	e8 00 00 00 00	 call	 ??$addressof@V?$_Vector_val@U?$_Simple_types@PEAVD3D12Model@@@std@@@std@@@std@@YAPEAV?$_Vector_val@U?$_Simple_types@PEAVD3D12Model@@@std@@@0@AEAV10@@Z ; std::addressof<std::_Vector_val<std::_Simple_types<D3D12Model *> > >
  00034	48 89 45 48	 mov	 QWORD PTR tv80[rbp], rax
  00038	48 8b 45 00	 mov	 rax, QWORD PTR _My_data$[rbp]
  0003c	48 8b 40 08	 mov	 rax, QWORD PTR [rax+8]
  00040	48 89 45 50	 mov	 QWORD PTR tv78[rbp], rax
  00044	4c 8b 45 48	 mov	 r8, QWORD PTR tv80[rbp]
  00048	48 8b 55 50	 mov	 rdx, QWORD PTR tv78[rbp]
  0004c	48 8b 4d 78	 mov	 rcx, QWORD PTR __$ReturnUdt$[rbp]
  00050	e8 00 00 00 00	 call	 ??0?$_Vector_iterator@V?$_Vector_val@U?$_Simple_types@PEAVD3D12Model@@@std@@@std@@@std@@QEAA@PEAPEAVD3D12Model@@PEBU_Container_base12@1@@Z
  00055	48 8b 45 78	 mov	 rax, QWORD PTR __$ReturnUdt$[rbp]

; 1806 :     }

  00059	48 8d 65 60	 lea	 rsp, QWORD PTR [rbp+96]
  0005d	5d		 pop	 rbp
  0005e	c3		 ret	 0
?begin@?$vector@PEAVD3D12Model@@V?$allocator@PEAVD3D12Model@@@std@@@std@@QEAA?AV?$_Vector_iterator@V?$_Vector_val@U?$_Simple_types@PEAVD3D12Model@@@std@@@std@@@2@XZ ENDP ; std::vector<D3D12Model *,std::allocator<D3D12Model *> >::begin
_TEXT	ENDS
; Function compile flags: /Odtp /ZI
; File C:\Program Files\Microsoft Visual Studio\2022\Preview\VC\Tools\MSVC\14.38.33030\include\vector
;	COMDAT ?clear@?$vector@PEAVD3D12Model@@V?$allocator@PEAVD3D12Model@@@std@@@std@@QEAAXXZ
_TEXT	SEGMENT
_My_data$ = 0
_Myfirst$ = 8
_Mylast$ = 16
tv82 = 88
tv84 = 96
tv80 = 104
this$ = 128
?clear@?$vector@PEAVD3D12Model@@V?$allocator@PEAVD3D12Model@@@std@@@std@@QEAAXXZ PROC ; std::vector<D3D12Model *,std::allocator<D3D12Model *> >::clear, COMDAT

; 1770 :     _CONSTEXPR20 void clear() noexcept { // erase all

$LN4:
  00000	48 89 4c 24 08	 mov	 QWORD PTR [rsp+8], rcx
  00005	55		 push	 rbp
  00006	48 81 ec 90 00
	00 00		 sub	 rsp, 144		; 00000090H
  0000d	48 8d 6c 24 20	 lea	 rbp, QWORD PTR [rsp+32]
  00012	48 8d 0d 00 00
	00 00		 lea	 rcx, OFFSET FLAT:__14F7CB70_vector
  00019	e8 00 00 00 00	 call	 __CheckForDebuggerJustMyCode

; 1771 :         auto& _My_data    = _Mypair._Myval2;

  0001e	48 8b 85 80 00
	00 00		 mov	 rax, QWORD PTR this$[rbp]
  00025	48 89 45 00	 mov	 QWORD PTR _My_data$[rbp], rax

; 1772 :         pointer& _Myfirst = _My_data._Myfirst;

  00029	48 8b 45 00	 mov	 rax, QWORD PTR _My_data$[rbp]
  0002d	48 83 c0 08	 add	 rax, 8
  00031	48 89 45 08	 mov	 QWORD PTR _Myfirst$[rbp], rax

; 1773 :         pointer& _Mylast  = _My_data._Mylast;

  00035	48 8b 45 00	 mov	 rax, QWORD PTR _My_data$[rbp]
  00039	48 83 c0 10	 add	 rax, 16
  0003d	48 89 45 10	 mov	 QWORD PTR _Mylast$[rbp], rax

; 1774 : 
; 1775 :         if (_Myfirst == _Mylast) { // already empty, nothing to do

  00041	48 8b 45 08	 mov	 rax, QWORD PTR _Myfirst$[rbp]
  00045	48 8b 4d 10	 mov	 rcx, QWORD PTR _Mylast$[rbp]
  00049	48 8b 09	 mov	 rcx, QWORD PTR [rcx]
  0004c	48 39 08	 cmp	 QWORD PTR [rax], rcx
  0004f	75 02		 jne	 SHORT $LN2@clear

; 1776 :             // This is an optimization for debug mode: we can avoid taking the debug lock to invalidate iterators.
; 1777 :             // Note that when clearing an empty vector, this will preserve past-the-end iterators, which is allowed by
; 1778 :             // N4950 [sequence.reqmts]/54 "a.clear() [...] may invalidate the past-the-end iterator".
; 1779 :             return;

  00051	eb 4e		 jmp	 SHORT $LN1@clear
$LN2@clear:

; 1780 :         }
; 1781 : 
; 1782 :         _My_data._Orphan_all();

  00053	48 8b 4d 00	 mov	 rcx, QWORD PTR _My_data$[rbp]
  00057	e8 00 00 00 00	 call	 ?_Orphan_all@_Container_base12@std@@QEAAXXZ ; std::_Container_base12::_Orphan_all

; 1783 :         _Destroy_range(_Myfirst, _Mylast, _Getal());

  0005c	48 8b 8d 80 00
	00 00		 mov	 rcx, QWORD PTR this$[rbp]
  00063	e8 00 00 00 00	 call	 ?_Getal@?$vector@PEAVD3D12Model@@V?$allocator@PEAVD3D12Model@@@std@@@std@@AEAAAEAV?$allocator@PEAVD3D12Model@@@2@XZ ; std::vector<D3D12Model *,std::allocator<D3D12Model *> >::_Getal
  00068	48 89 45 58	 mov	 QWORD PTR tv82[rbp], rax
  0006c	48 8b 45 10	 mov	 rax, QWORD PTR _Mylast$[rbp]
  00070	48 8b 00	 mov	 rax, QWORD PTR [rax]
  00073	48 89 45 60	 mov	 QWORD PTR tv84[rbp], rax
  00077	48 8b 45 08	 mov	 rax, QWORD PTR _Myfirst$[rbp]
  0007b	48 8b 00	 mov	 rax, QWORD PTR [rax]
  0007e	48 89 45 68	 mov	 QWORD PTR tv80[rbp], rax
  00082	4c 8b 45 58	 mov	 r8, QWORD PTR tv82[rbp]
  00086	48 8b 55 60	 mov	 rdx, QWORD PTR tv84[rbp]
  0008a	48 8b 4d 68	 mov	 rcx, QWORD PTR tv80[rbp]
  0008e	e8 00 00 00 00	 call	 ??$_Destroy_range@V?$allocator@PEAVD3D12Model@@@std@@@std@@YAXPEAPEAVD3D12Model@@QEAPEAV1@AEAV?$allocator@PEAVD3D12Model@@@0@@Z ; std::_Destroy_range<std::allocator<D3D12Model *> >

; 1784 :         _ASAN_VECTOR_MODIFY(static_cast<difference_type>(_Myfirst - _Mylast)); // negative when destroying elements
; 1785 :         _Mylast = _Myfirst;

  00093	48 8b 45 10	 mov	 rax, QWORD PTR _Mylast$[rbp]
  00097	48 8b 4d 08	 mov	 rcx, QWORD PTR _Myfirst$[rbp]
  0009b	48 8b 09	 mov	 rcx, QWORD PTR [rcx]
  0009e	48 89 08	 mov	 QWORD PTR [rax], rcx
$LN1@clear:

; 1786 :     }

  000a1	48 8d 65 70	 lea	 rsp, QWORD PTR [rbp+112]
  000a5	5d		 pop	 rbp
  000a6	c3		 ret	 0
?clear@?$vector@PEAVD3D12Model@@V?$allocator@PEAVD3D12Model@@@std@@@std@@QEAAXXZ ENDP ; std::vector<D3D12Model *,std::allocator<D3D12Model *> >::clear
_TEXT	ENDS
; Function compile flags: /Odtp /ZI
; File C:\Program Files\Microsoft Visual Studio\2022\Preview\VC\Tools\MSVC\14.38.33030\include\vector
;	COMDAT ?_Clear_and_reserve_geometric@?$vector@PEAVD3D12Model@@V?$allocator@PEAVD3D12Model@@@std@@@std@@AEAAX_K@Z
_TEXT	SEGMENT
_Al$ = 0
_My_data$ = 8
_Myfirst$ = 16
_Mylast$ = 24
_Myend$ = 32
_Newcapacity$ = 40
this$ = 128
_Newsize$ = 136
?_Clear_and_reserve_geometric@?$vector@PEAVD3D12Model@@V?$allocator@PEAVD3D12Model@@@std@@@std@@AEAAX_K@Z PROC ; std::vector<D3D12Model *,std::allocator<D3D12Model *> >::_Clear_and_reserve_geometric, COMDAT

; 1654 :     _CONSTEXPR20 void _Clear_and_reserve_geometric(const size_type _Newsize) {

$LN5:
  00000	48 89 54 24 10	 mov	 QWORD PTR [rsp+16], rdx
  00005	48 89 4c 24 08	 mov	 QWORD PTR [rsp+8], rcx
  0000a	55		 push	 rbp
  0000b	48 81 ec 90 00
	00 00		 sub	 rsp, 144		; 00000090H
  00012	48 8d 6c 24 20	 lea	 rbp, QWORD PTR [rsp+32]
  00017	48 8d 0d 00 00
	00 00		 lea	 rcx, OFFSET FLAT:__14F7CB70_vector
  0001e	e8 00 00 00 00	 call	 __CheckForDebuggerJustMyCode

; 1655 :         auto& _Al         = _Getal();

  00023	48 8b 8d 80 00
	00 00		 mov	 rcx, QWORD PTR this$[rbp]
  0002a	e8 00 00 00 00	 call	 ?_Getal@?$vector@PEAVD3D12Model@@V?$allocator@PEAVD3D12Model@@@std@@@std@@AEAAAEAV?$allocator@PEAVD3D12Model@@@2@XZ ; std::vector<D3D12Model *,std::allocator<D3D12Model *> >::_Getal
  0002f	48 89 45 00	 mov	 QWORD PTR _Al$[rbp], rax

; 1656 :         auto& _My_data    = _Mypair._Myval2;

  00033	48 8b 85 80 00
	00 00		 mov	 rax, QWORD PTR this$[rbp]
  0003a	48 89 45 08	 mov	 QWORD PTR _My_data$[rbp], rax

; 1657 :         pointer& _Myfirst = _My_data._Myfirst;

  0003e	48 8b 45 08	 mov	 rax, QWORD PTR _My_data$[rbp]
  00042	48 83 c0 08	 add	 rax, 8
  00046	48 89 45 10	 mov	 QWORD PTR _Myfirst$[rbp], rax

; 1658 :         pointer& _Mylast  = _My_data._Mylast;

  0004a	48 8b 45 08	 mov	 rax, QWORD PTR _My_data$[rbp]
  0004e	48 83 c0 10	 add	 rax, 16
  00052	48 89 45 18	 mov	 QWORD PTR _Mylast$[rbp], rax

; 1659 :         pointer& _Myend   = _My_data._Myend;

  00056	48 8b 45 08	 mov	 rax, QWORD PTR _My_data$[rbp]
  0005a	48 83 c0 18	 add	 rax, 24
  0005e	48 89 45 20	 mov	 QWORD PTR _Myend$[rbp], rax

; 1660 : 
; 1661 : #if _ITERATOR_DEBUG_LEVEL != 0 && defined(_ENABLE_STL_INTERNAL_CHECK)
; 1662 :         _STL_INTERNAL_CHECK(_Newsize != 0);
; 1663 :         _Check_all_orphaned();
; 1664 : #endif // _ITERATOR_DEBUG_LEVEL != 0 && defined(_ENABLE_STL_INTERNAL_CHECK)
; 1665 : 
; 1666 :         if (_Newsize > max_size()) {

  00062	48 8b 8d 80 00
	00 00		 mov	 rcx, QWORD PTR this$[rbp]
  00069	e8 00 00 00 00	 call	 ?max_size@?$vector@PEAVD3D12Model@@V?$allocator@PEAVD3D12Model@@@std@@@std@@QEBA_KXZ ; std::vector<D3D12Model *,std::allocator<D3D12Model *> >::max_size
  0006e	48 39 85 88 00
	00 00		 cmp	 QWORD PTR _Newsize$[rbp], rax
  00075	76 05		 jbe	 SHORT $LN2@Clear_and_

; 1667 :             _Xlength();

  00077	e8 00 00 00 00	 call	 ?_Xlength@?$vector@PEAVD3D12Model@@V?$allocator@PEAVD3D12Model@@@std@@@std@@CAXXZ ; std::vector<D3D12Model *,std::allocator<D3D12Model *> >::_Xlength
$LN2@Clear_and_:

; 1668 :         }
; 1669 : 
; 1670 :         const size_type _Newcapacity = _Calculate_growth(_Newsize);

  0007c	48 8b 95 88 00
	00 00		 mov	 rdx, QWORD PTR _Newsize$[rbp]
  00083	48 8b 8d 80 00
	00 00		 mov	 rcx, QWORD PTR this$[rbp]
  0008a	e8 00 00 00 00	 call	 ?_Calculate_growth@?$vector@PEAVD3D12Model@@V?$allocator@PEAVD3D12Model@@@std@@@std@@AEBA_K_K@Z ; std::vector<D3D12Model *,std::allocator<D3D12Model *> >::_Calculate_growth
  0008f	48 89 45 28	 mov	 QWORD PTR _Newcapacity$[rbp], rax

; 1671 : 
; 1672 :         if (_Myfirst) { // destroy and deallocate old array

  00093	48 8b 45 10	 mov	 rax, QWORD PTR _Myfirst$[rbp]
  00097	48 83 38 00	 cmp	 QWORD PTR [rax], 0
  0009b	74 60		 je	 SHORT $LN3@Clear_and_

; 1673 :             _Destroy_range(_Myfirst, _Mylast, _Al);

  0009d	4c 8b 45 00	 mov	 r8, QWORD PTR _Al$[rbp]
  000a1	48 8b 45 18	 mov	 rax, QWORD PTR _Mylast$[rbp]
  000a5	48 8b 10	 mov	 rdx, QWORD PTR [rax]
  000a8	48 8b 45 10	 mov	 rax, QWORD PTR _Myfirst$[rbp]
  000ac	48 8b 08	 mov	 rcx, QWORD PTR [rax]
  000af	e8 00 00 00 00	 call	 ??$_Destroy_range@V?$allocator@PEAVD3D12Model@@@std@@@std@@YAXPEAPEAVD3D12Model@@QEAPEAV1@AEAV?$allocator@PEAVD3D12Model@@@0@@Z ; std::_Destroy_range<std::allocator<D3D12Model *> >

; 1674 :             _ASAN_VECTOR_REMOVE;
; 1675 :             _Al.deallocate(_Myfirst, static_cast<size_type>(_Myend - _Myfirst));

  000b4	48 8b 45 20	 mov	 rax, QWORD PTR _Myend$[rbp]
  000b8	48 8b 4d 10	 mov	 rcx, QWORD PTR _Myfirst$[rbp]
  000bc	48 8b 09	 mov	 rcx, QWORD PTR [rcx]
  000bf	48 8b 00	 mov	 rax, QWORD PTR [rax]
  000c2	48 2b c1	 sub	 rax, rcx
  000c5	48 c1 f8 03	 sar	 rax, 3
  000c9	4c 8b c0	 mov	 r8, rax
  000cc	48 8b 45 10	 mov	 rax, QWORD PTR _Myfirst$[rbp]
  000d0	48 8b 10	 mov	 rdx, QWORD PTR [rax]
  000d3	48 8b 4d 00	 mov	 rcx, QWORD PTR _Al$[rbp]
  000d7	e8 00 00 00 00	 call	 ?deallocate@?$allocator@PEAVD3D12Model@@@std@@QEAAXQEAPEAVD3D12Model@@_K@Z ; std::allocator<D3D12Model *>::deallocate

; 1676 : 
; 1677 :             _Myfirst = nullptr;

  000dc	48 8b 45 10	 mov	 rax, QWORD PTR _Myfirst$[rbp]
  000e0	48 c7 00 00 00
	00 00		 mov	 QWORD PTR [rax], 0

; 1678 :             _Mylast  = nullptr;

  000e7	48 8b 45 18	 mov	 rax, QWORD PTR _Mylast$[rbp]
  000eb	48 c7 00 00 00
	00 00		 mov	 QWORD PTR [rax], 0

; 1679 :             _Myend   = nullptr;

  000f2	48 8b 45 20	 mov	 rax, QWORD PTR _Myend$[rbp]
  000f6	48 c7 00 00 00
	00 00		 mov	 QWORD PTR [rax], 0
$LN3@Clear_and_:

; 1680 :         }
; 1681 : 
; 1682 :         _Buy_raw(_Newcapacity);

  000fd	48 8b 55 28	 mov	 rdx, QWORD PTR _Newcapacity$[rbp]
  00101	48 8b 8d 80 00
	00 00		 mov	 rcx, QWORD PTR this$[rbp]
  00108	e8 00 00 00 00	 call	 ?_Buy_raw@?$vector@PEAVD3D12Model@@V?$allocator@PEAVD3D12Model@@@std@@@std@@AEAAX_K@Z ; std::vector<D3D12Model *,std::allocator<D3D12Model *> >::_Buy_raw
$LN4@Clear_and_:

; 1683 :     }

  0010d	48 8d 65 70	 lea	 rsp, QWORD PTR [rbp+112]
  00111	5d		 pop	 rbp
  00112	c3		 ret	 0
?_Clear_and_reserve_geometric@?$vector@PEAVD3D12Model@@V?$allocator@PEAVD3D12Model@@@std@@@std@@AEAAX_K@Z ENDP ; std::vector<D3D12Model *,std::allocator<D3D12Model *> >::_Clear_and_reserve_geometric
_TEXT	ENDS
; Function compile flags: /Odtp /ZI
; File C:\Program Files\Microsoft Visual Studio\2022\Preview\VC\Tools\MSVC\14.38.33030\include\vector
;	COMDAT ??4?$vector@PEAVD3D12Model@@V?$allocator@PEAVD3D12Model@@@std@@@std@@QEAAAEAV01@AEBV01@@Z
_TEXT	SEGMENT
_Al$ = 0
_Right_al$ = 8
_Right_data$ = 16
this$ = 112
_Right$ = 120
??4?$vector@PEAVD3D12Model@@V?$allocator@PEAVD3D12Model@@@std@@@std@@QEAAAEAV01@AEBV01@@Z PROC ; std::vector<D3D12Model *,std::allocator<D3D12Model *> >::operator=, COMDAT

; 1481 :     _CONSTEXPR20 vector& operator=(const vector& _Right) {

$LN4:
  00000	48 89 54 24 10	 mov	 QWORD PTR [rsp+16], rdx
  00005	48 89 4c 24 08	 mov	 QWORD PTR [rsp+8], rcx
  0000a	55		 push	 rbp
  0000b	48 81 ec 80 00
	00 00		 sub	 rsp, 128		; 00000080H
  00012	48 8d 6c 24 20	 lea	 rbp, QWORD PTR [rsp+32]
  00017	48 8d 0d 00 00
	00 00		 lea	 rcx, OFFSET FLAT:__14F7CB70_vector
  0001e	e8 00 00 00 00	 call	 __CheckForDebuggerJustMyCode

; 1482 :         if (this == _STD addressof(_Right)) {

  00023	48 8b 4d 78	 mov	 rcx, QWORD PTR _Right$[rbp]
  00027	e8 00 00 00 00	 call	 ??$addressof@$$CBV?$vector@PEAVD3D12Model@@V?$allocator@PEAVD3D12Model@@@std@@@std@@@std@@YAPEBV?$vector@PEAVD3D12Model@@V?$allocator@PEAVD3D12Model@@@std@@@0@AEBV10@@Z ; std::addressof<std::vector<D3D12Model *,std::allocator<D3D12Model *> > const >
  0002c	48 39 45 70	 cmp	 QWORD PTR this$[rbp], rax
  00030	75 06		 jne	 SHORT $LN2@operator

; 1483 :             return *this;

  00032	48 8b 45 70	 mov	 rax, QWORD PTR this$[rbp]
  00036	eb 5e		 jmp	 SHORT $LN1@operator
$LN2@operator:

; 1484 :         }
; 1485 : 
; 1486 :         auto& _Al       = _Getal();

  00038	48 8b 4d 70	 mov	 rcx, QWORD PTR this$[rbp]
  0003c	e8 00 00 00 00	 call	 ?_Getal@?$vector@PEAVD3D12Model@@V?$allocator@PEAVD3D12Model@@@std@@@std@@AEAAAEAV?$allocator@PEAVD3D12Model@@@2@XZ ; std::vector<D3D12Model *,std::allocator<D3D12Model *> >::_Getal
  00041	48 89 45 00	 mov	 QWORD PTR _Al$[rbp], rax

; 1487 :         auto& _Right_al = _Right._Getal();

  00045	48 8b 4d 78	 mov	 rcx, QWORD PTR _Right$[rbp]
  00049	e8 00 00 00 00	 call	 ?_Getal@?$vector@PEAVD3D12Model@@V?$allocator@PEAVD3D12Model@@@std@@@std@@AEBAAEBV?$allocator@PEAVD3D12Model@@@2@XZ ; std::vector<D3D12Model *,std::allocator<D3D12Model *> >::_Getal
  0004e	48 89 45 08	 mov	 QWORD PTR _Right_al$[rbp], rax

; 1488 :         if constexpr (_Choose_pocca_v<_Alty>) {
; 1489 :             if (_Al != _Right_al) {
; 1490 :                 _Tidy();
; 1491 :                 _Mypair._Myval2._Reload_proxy(_GET_PROXY_ALLOCATOR(_Alty, _Al), _GET_PROXY_ALLOCATOR(_Alty, _Right_al));
; 1492 :             }
; 1493 :         }
; 1494 : 
; 1495 :         _Pocca(_Al, _Right_al);

  00052	48 8b 55 08	 mov	 rdx, QWORD PTR _Right_al$[rbp]
  00056	48 8b 4d 00	 mov	 rcx, QWORD PTR _Al$[rbp]
  0005a	e8 00 00 00 00	 call	 ??$_Pocca@V?$allocator@PEAVD3D12Model@@@std@@@std@@YAXAEAV?$allocator@PEAVD3D12Model@@@0@AEBV10@@Z ; std::_Pocca<std::allocator<D3D12Model *> >

; 1496 :         auto& _Right_data = _Right._Mypair._Myval2;

  0005f	48 8b 45 78	 mov	 rax, QWORD PTR _Right$[rbp]
  00063	48 89 45 10	 mov	 QWORD PTR _Right_data$[rbp], rax

; 1497 :         _Assign_counted_range(_Right_data._Myfirst, static_cast<size_type>(_Right_data._Mylast - _Right_data._Myfirst));

  00067	48 8b 45 10	 mov	 rax, QWORD PTR _Right_data$[rbp]
  0006b	48 8b 4d 10	 mov	 rcx, QWORD PTR _Right_data$[rbp]
  0006f	48 8b 49 08	 mov	 rcx, QWORD PTR [rcx+8]
  00073	48 8b 40 10	 mov	 rax, QWORD PTR [rax+16]
  00077	48 2b c1	 sub	 rax, rcx
  0007a	48 c1 f8 03	 sar	 rax, 3
  0007e	4c 8b c0	 mov	 r8, rax
  00081	48 8b 45 10	 mov	 rax, QWORD PTR _Right_data$[rbp]
  00085	48 8b 50 08	 mov	 rdx, QWORD PTR [rax+8]
  00089	48 8b 4d 70	 mov	 rcx, QWORD PTR this$[rbp]
  0008d	e8 00 00 00 00	 call	 ??$_Assign_counted_range@PEAPEAVD3D12Model@@@?$vector@PEAVD3D12Model@@V?$allocator@PEAVD3D12Model@@@std@@@std@@AEAAXPEAPEAVD3D12Model@@_K@Z ; std::vector<D3D12Model *,std::allocator<D3D12Model *> >::_Assign_counted_range<D3D12Model * *>

; 1498 : 
; 1499 :         return *this;

  00092	48 8b 45 70	 mov	 rax, QWORD PTR this$[rbp]
$LN1@operator:

; 1500 :     }

  00096	48 8d 65 60	 lea	 rsp, QWORD PTR [rbp+96]
  0009a	5d		 pop	 rbp
  0009b	c3		 ret	 0
??4?$vector@PEAVD3D12Model@@V?$allocator@PEAVD3D12Model@@@std@@@std@@QEAAAEAV01@AEBV01@@Z ENDP ; std::vector<D3D12Model *,std::allocator<D3D12Model *> >::operator=
_TEXT	ENDS
; Function compile flags: /Odtp /ZI
; File C:\Program Files\Microsoft Visual Studio\2022\Preview\VC\Tools\MSVC\14.38.33030\include\vector
;	COMDAT ?push_back@?$vector@PEAVD3D12Model@@V?$allocator@PEAVD3D12Model@@@std@@@std@@QEAAXAEBQEAVD3D12Model@@@Z
_TEXT	SEGMENT
this$ = 80
_Val$ = 88
?push_back@?$vector@PEAVD3D12Model@@V?$allocator@PEAVD3D12Model@@@std@@@std@@QEAAXAEBQEAVD3D12Model@@@Z PROC ; std::vector<D3D12Model *,std::allocator<D3D12Model *> >::push_back, COMDAT

; 871  :     _CONSTEXPR20 void push_back(const _Ty& _Val) { // insert element at end, provide strong guarantee

$LN3:
  00000	48 89 54 24 10	 mov	 QWORD PTR [rsp+16], rdx
  00005	48 89 4c 24 08	 mov	 QWORD PTR [rsp+8], rcx
  0000a	55		 push	 rbp
  0000b	48 83 ec 60	 sub	 rsp, 96			; 00000060H
  0000f	48 8d 6c 24 20	 lea	 rbp, QWORD PTR [rsp+32]
  00014	48 8d 0d 00 00
	00 00		 lea	 rcx, OFFSET FLAT:__14F7CB70_vector
  0001b	e8 00 00 00 00	 call	 __CheckForDebuggerJustMyCode

; 872  :         _Emplace_one_at_back(_Val);

  00020	48 8b 55 58	 mov	 rdx, QWORD PTR _Val$[rbp]
  00024	48 8b 4d 50	 mov	 rcx, QWORD PTR this$[rbp]
  00028	e8 00 00 00 00	 call	 ??$_Emplace_one_at_back@AEBQEAVD3D12Model@@@?$vector@PEAVD3D12Model@@V?$allocator@PEAVD3D12Model@@@std@@@std@@AEAAAEAPEAVD3D12Model@@AEBQEAV2@@Z ; std::vector<D3D12Model *,std::allocator<D3D12Model *> >::_Emplace_one_at_back<D3D12Model * const &>

; 873  :     }

  0002d	48 8d 65 40	 lea	 rsp, QWORD PTR [rbp+64]
  00031	5d		 pop	 rbp
  00032	c3		 ret	 0
?push_back@?$vector@PEAVD3D12Model@@V?$allocator@PEAVD3D12Model@@@std@@@std@@QEAAXAEBQEAVD3D12Model@@@Z ENDP ; std::vector<D3D12Model *,std::allocator<D3D12Model *> >::push_back
_TEXT	ENDS
; Function compile flags: /Odtp /ZI
; File C:\Program Files\Microsoft Visual Studio\2022\Preview\VC\Tools\MSVC\14.38.33030\include\vector
;	COMDAT ??1?$vector@PEAVD3D12Model@@V?$allocator@PEAVD3D12Model@@@std@@@std@@QEAA@XZ
_TEXT	SEGMENT
_Alproxy$ = 0
$S1$ = 8
$T1 = 73
this$ = 112
??1?$vector@PEAVD3D12Model@@V?$allocator@PEAVD3D12Model@@@std@@@std@@QEAA@XZ PROC ; std::vector<D3D12Model *,std::allocator<D3D12Model *> >::~vector<D3D12Model *,std::allocator<D3D12Model *> >, COMDAT

; 765  :     _CONSTEXPR20 ~vector() noexcept {

$LN3:
  00000	48 89 4c 24 08	 mov	 QWORD PTR [rsp+8], rcx
  00005	55		 push	 rbp
  00006	48 81 ec 80 00
	00 00		 sub	 rsp, 128		; 00000080H
  0000d	48 8d 6c 24 20	 lea	 rbp, QWORD PTR [rsp+32]
  00012	48 8d 0d 00 00
	00 00		 lea	 rcx, OFFSET FLAT:__14F7CB70_vector
  00019	e8 00 00 00 00	 call	 __CheckForDebuggerJustMyCode

; 766  :         _Tidy();

  0001e	48 8b 4d 70	 mov	 rcx, QWORD PTR this$[rbp]
  00022	e8 00 00 00 00	 call	 ?_Tidy@?$vector@PEAVD3D12Model@@V?$allocator@PEAVD3D12Model@@@std@@@std@@AEAAXXZ ; std::vector<D3D12Model *,std::allocator<D3D12Model *> >::_Tidy

; 767  : #if _ITERATOR_DEBUG_LEVEL != 0
; 768  :         auto&& _Alproxy = _GET_PROXY_ALLOCATOR(_Alty, _Getal());

  00027	48 8b 4d 70	 mov	 rcx, QWORD PTR this$[rbp]
  0002b	e8 00 00 00 00	 call	 ?_Getal@?$vector@PEAVD3D12Model@@V?$allocator@PEAVD3D12Model@@@std@@@std@@AEAAAEAV?$allocator@PEAVD3D12Model@@@2@XZ ; std::vector<D3D12Model *,std::allocator<D3D12Model *> >::_Getal
  00030	48 8b d0	 mov	 rdx, rax
  00033	48 8d 4d 08	 lea	 rcx, QWORD PTR $S1$[rbp]
  00037	e8 00 00 00 00	 call	 ??$?0PEAVD3D12Model@@@?$allocator@U_Container_proxy@std@@@std@@QEAA@AEBV?$allocator@PEAVD3D12Model@@@1@@Z ; std::allocator<std::_Container_proxy>::allocator<std::_Container_proxy><D3D12Model *>
  0003c	48 8d 45 08	 lea	 rax, QWORD PTR $S1$[rbp]
  00040	48 89 45 00	 mov	 QWORD PTR _Alproxy$[rbp], rax

; 769  :         _Delete_plain_internal(_Alproxy, _STD exchange(_Mypair._Myval2._Myproxy, nullptr));

  00044	48 c7 45 49 00
	00 00 00	 mov	 QWORD PTR $T1[rbp], 0
  0004c	48 8b 45 70	 mov	 rax, QWORD PTR this$[rbp]
  00050	48 8d 55 49	 lea	 rdx, QWORD PTR $T1[rbp]
  00054	48 8b c8	 mov	 rcx, rax
  00057	e8 00 00 00 00	 call	 ??$exchange@PEAU_Container_proxy@std@@$$T@std@@YAPEAU_Container_proxy@0@AEAPEAU10@$$QEA$$T@Z ; std::exchange<std::_Container_proxy *,std::nullptr_t>
  0005c	48 8b d0	 mov	 rdx, rax
  0005f	48 8b 4d 00	 mov	 rcx, QWORD PTR _Alproxy$[rbp]
  00063	e8 00 00 00 00	 call	 ??$_Delete_plain_internal@V?$allocator@U_Container_proxy@std@@@std@@@std@@YAXAEAV?$allocator@U_Container_proxy@std@@@0@QEAU_Container_proxy@0@@Z ; std::_Delete_plain_internal<std::allocator<std::_Container_proxy> >

; 770  : #endif // _ITERATOR_DEBUG_LEVEL != 0
; 771  :     }

  00068	48 8d 65 60	 lea	 rsp, QWORD PTR [rbp+96]
  0006c	5d		 pop	 rbp
  0006d	c3		 ret	 0
??1?$vector@PEAVD3D12Model@@V?$allocator@PEAVD3D12Model@@@std@@@std@@QEAA@XZ ENDP ; std::vector<D3D12Model *,std::allocator<D3D12Model *> >::~vector<D3D12Model *,std::allocator<D3D12Model *> >
_TEXT	ENDS
; Function compile flags: /Odtp /ZI
; File C:\Program Files\Microsoft Visual Studio\2022\Preview\VC\Tools\MSVC\14.38.33030\include\xmemory
;	COMDAT ?max_size@?$_Default_allocator_traits@V?$allocator@PEAVD3D12Model@@@std@@@std@@SA_KAEBV?$allocator@PEAVD3D12Model@@@2@@Z
_TEXT	SEGMENT
__formal$ = 80
?max_size@?$_Default_allocator_traits@V?$allocator@PEAVD3D12Model@@@std@@@std@@SA_KAEBV?$allocator@PEAVD3D12Model@@@2@@Z PROC ; std::_Default_allocator_traits<std::allocator<D3D12Model *> >::max_size, COMDAT

; 736  :     _NODISCARD static _CONSTEXPR20 size_type max_size(const _Alloc&) noexcept {

$LN3:
  00000	48 89 4c 24 08	 mov	 QWORD PTR [rsp+8], rcx
  00005	55		 push	 rbp
  00006	48 83 ec 60	 sub	 rsp, 96			; 00000060H
  0000a	48 8d 6c 24 20	 lea	 rbp, QWORD PTR [rsp+32]
  0000f	48 8d 0d 00 00
	00 00		 lea	 rcx, OFFSET FLAT:__67F55BEA_xmemory
  00016	e8 00 00 00 00	 call	 __CheckForDebuggerJustMyCode

; 737  :         return static_cast<size_t>(-1) / sizeof(value_type);

  0001b	48 b8 ff ff ff
	ff ff ff ff 1f	 mov	 rax, 2305843009213693951 ; 1fffffffffffffffH

; 738  :     }

  00025	48 8d 65 40	 lea	 rsp, QWORD PTR [rbp+64]
  00029	5d		 pop	 rbp
  0002a	c3		 ret	 0
?max_size@?$_Default_allocator_traits@V?$allocator@PEAVD3D12Model@@@std@@@std@@SA_KAEBV?$allocator@PEAVD3D12Model@@@2@@Z ENDP ; std::_Default_allocator_traits<std::allocator<D3D12Model *> >::max_size
_TEXT	ENDS
; Function compile flags: /Odtp /ZI
; File C:\Program Files\Microsoft Visual Studio\2022\Preview\VC\Tools\MSVC\14.38.33030\include\xmemory
;	COMDAT ?allocate@?$allocator@PEAVD3D12Model@@@std@@QEAAPEAPEAVD3D12Model@@_K@Z
_TEXT	SEGMENT
this$ = 80
_Count$ = 88
?allocate@?$allocator@PEAVD3D12Model@@@std@@QEAAPEAPEAVD3D12Model@@_K@Z PROC ; std::allocator<D3D12Model *>::allocate, COMDAT

; 976  :     _NODISCARD_RAW_PTR_ALLOC _CONSTEXPR20 __declspec(allocator) _Ty* allocate(_CRT_GUARDOVERFLOW const size_t _Count) {

$LN3:
  00000	48 89 54 24 10	 mov	 QWORD PTR [rsp+16], rdx
  00005	48 89 4c 24 08	 mov	 QWORD PTR [rsp+8], rcx
  0000a	55		 push	 rbp
  0000b	48 83 ec 60	 sub	 rsp, 96			; 00000060H
  0000f	48 8d 6c 24 20	 lea	 rbp, QWORD PTR [rsp+32]
  00014	48 8d 0d 00 00
	00 00		 lea	 rcx, OFFSET FLAT:__67F55BEA_xmemory
  0001b	e8 00 00 00 00	 call	 __CheckForDebuggerJustMyCode

; 977  :         static_assert(sizeof(value_type) > 0, "value_type must be complete before calling allocate.");
; 978  :         return static_cast<_Ty*>(_Allocate<_New_alignof<_Ty>>(_Get_size_of_n<sizeof(_Ty)>(_Count)));

  00020	48 8b 4d 58	 mov	 rcx, QWORD PTR _Count$[rbp]
  00024	e8 00 00 00 00	 call	 ??$_Get_size_of_n@$07@std@@YA_K_K@Z ; std::_Get_size_of_n<8>
  00029	48 8b c8	 mov	 rcx, rax
  0002c	e8 00 00 00 00	 call	 ??$_Allocate@$0BA@U_Default_allocate_traits@std@@$0A@@std@@YAPEAX_K@Z ; std::_Allocate<16,std::_Default_allocate_traits,0>

; 979  :     }

  00031	48 8d 65 40	 lea	 rsp, QWORD PTR [rbp+64]
  00035	5d		 pop	 rbp
  00036	c3		 ret	 0
?allocate@?$allocator@PEAVD3D12Model@@@std@@QEAAPEAPEAVD3D12Model@@_K@Z ENDP ; std::allocator<D3D12Model *>::allocate
_TEXT	ENDS
; Function compile flags: /Odtp /ZI
; File C:\Program Files\Microsoft Visual Studio\2022\Preview\VC\Tools\MSVC\14.38.33030\include\xmemory
;	COMDAT ?deallocate@?$allocator@PEAVD3D12Model@@@std@@QEAAXQEAPEAVD3D12Model@@_K@Z
_TEXT	SEGMENT
this$ = 80
_Ptr$ = 88
_Count$ = 96
?deallocate@?$allocator@PEAVD3D12Model@@@std@@QEAAXQEAPEAVD3D12Model@@_K@Z PROC ; std::allocator<D3D12Model *>::deallocate, COMDAT

; 970  :     _CONSTEXPR20 void deallocate(_Ty* const _Ptr, const size_t _Count) {

$LN13:
  00000	4c 89 44 24 18	 mov	 QWORD PTR [rsp+24], r8
  00005	48 89 54 24 10	 mov	 QWORD PTR [rsp+16], rdx
  0000a	48 89 4c 24 08	 mov	 QWORD PTR [rsp+8], rcx
  0000f	55		 push	 rbp
  00010	48 83 ec 70	 sub	 rsp, 112		; 00000070H
  00014	48 8d 6c 24 30	 lea	 rbp, QWORD PTR [rsp+48]
  00019	48 8d 0d 00 00
	00 00		 lea	 rcx, OFFSET FLAT:__67F55BEA_xmemory
  00020	e8 00 00 00 00	 call	 __CheckForDebuggerJustMyCode
$LN4@deallocate:

; 971  :         _STL_ASSERT(_Ptr != nullptr || _Count == 0, "null pointer cannot point to a block of non-zero size");

  00025	48 83 7d 58 00	 cmp	 QWORD PTR _Ptr$[rbp], 0
  0002a	75 07		 jne	 SHORT $LN10@deallocate
  0002c	48 83 7d 60 00	 cmp	 QWORD PTR _Count$[rbp], 0
  00031	75 02		 jne	 SHORT $LN8@deallocate
$LN10@deallocate:
  00033	eb 6b		 jmp	 SHORT $LN9@deallocate
$LN8@deallocate:
$LN7@deallocate:
  00035	48 8d 05 00 00
	00 00		 lea	 rax, OFFSET FLAT:??_C@_0DG@KGHKKGBC@null?5pointer?5cannot?5point?5to?5a?5@
  0003c	48 89 44 24 28	 mov	 QWORD PTR [rsp+40], rax
  00041	48 8d 05 00 00
	00 00		 lea	 rax, OFFSET FLAT:??_C@_02DKCKIIND@?$CFs@
  00048	48 89 44 24 20	 mov	 QWORD PTR [rsp+32], rax
  0004d	45 33 c9	 xor	 r9d, r9d
  00050	41 b8 cb 03 00
	00		 mov	 r8d, 971		; 000003cbH
  00056	48 8d 15 00 00
	00 00		 lea	 rdx, OFFSET FLAT:??_C@_0GA@FLDGEGM@C?3?2Program?5Files?2Microsoft?5Visu@
  0005d	b9 02 00 00 00	 mov	 ecx, 2
  00062	ff 15 00 00 00
	00		 call	 QWORD PTR __imp__CrtDbgReport
  00068	83 f8 01	 cmp	 eax, 1
  0006b	75 03		 jne	 SHORT $LN12@deallocate
  0006d	cc		 int	 3
  0006e	33 c0		 xor	 eax, eax
$LN12@deallocate:
  00070	48 c7 44 24 20
	00 00 00 00	 mov	 QWORD PTR [rsp+32], 0
  00079	41 b9 cb 03 00
	00		 mov	 r9d, 971		; 000003cbH
  0007f	4c 8d 05 00 00
	00 00		 lea	 r8, OFFSET FLAT:??_C@_1MA@IKJDCOIC@?$AAC?$AA?3?$AA?2?$AAP?$AAr?$AAo?$AAg?$AAr?$AAa?$AAm?$AA?5?$AAF?$AAi?$AAl?$AAe@
  00086	48 8d 15 00 00
	00 00		 lea	 rdx, OFFSET FLAT:??_C@_11LOCGONAA@@
  0008d	48 8d 0d 00 00
	00 00		 lea	 rcx, OFFSET FLAT:??_C@_1HA@FACCKGGH@?$AA?$CC?$AAn?$AAu?$AAl?$AAl?$AA?5?$AAp?$AAo?$AAi?$AAn?$AAt?$AAe?$AAr?$AA?5?$AAc@
  00094	ff 15 00 00 00
	00		 call	 QWORD PTR __imp__invalid_parameter
  0009a	33 c0		 xor	 eax, eax
  0009c	85 c0		 test	 eax, eax
  0009e	75 95		 jne	 SHORT $LN7@deallocate
$LN9@deallocate:
  000a0	33 c0		 xor	 eax, eax
  000a2	85 c0		 test	 eax, eax
  000a4	0f 85 7b ff ff
	ff		 jne	 $LN4@deallocate

; 972  :         // no overflow check on the following multiply; we assume _Allocate did that check
; 973  :         _Deallocate<_New_alignof<_Ty>>(_Ptr, sizeof(_Ty) * _Count);

  000aa	48 8b 45 60	 mov	 rax, QWORD PTR _Count$[rbp]
  000ae	48 c1 e0 03	 shl	 rax, 3
  000b2	48 8b d0	 mov	 rdx, rax
  000b5	48 8b 4d 58	 mov	 rcx, QWORD PTR _Ptr$[rbp]
  000b9	e8 00 00 00 00	 call	 ??$_Deallocate@$0BA@$0A@@std@@YAXPEAX_K@Z ; std::_Deallocate<16,0>

; 974  :     }

  000be	48 8d 65 40	 lea	 rsp, QWORD PTR [rbp+64]
  000c2	5d		 pop	 rbp
  000c3	c3		 ret	 0
?deallocate@?$allocator@PEAVD3D12Model@@@std@@QEAAXQEAPEAVD3D12Model@@_K@Z ENDP ; std::allocator<D3D12Model *>::deallocate
_TEXT	ENDS
; Function compile flags: /Odtp /ZI
; File C:\Program Files\Microsoft Visual Studio\2022\Preview\VC\Tools\MSVC\14.38.33030\include\utility
;	COMDAT ??$exchange@PEAU_Iterator_base12@std@@$$T@std@@YAPEAU_Iterator_base12@0@AEAPEAU10@$$QEA$$T@Z
_TEXT	SEGMENT
_Old_val$ = 0
_Val$ = 96
_New_val$ = 104
??$exchange@PEAU_Iterator_base12@std@@$$T@std@@YAPEAU_Iterator_base12@0@AEAPEAU10@$$QEA$$T@Z PROC ; std::exchange<std::_Iterator_base12 *,std::nullptr_t>, COMDAT

; 760  :     conjunction_v<is_nothrow_move_constructible<_Ty>, is_nothrow_assignable<_Ty&, _Other>>) {

$LN3:
  00000	48 89 54 24 10	 mov	 QWORD PTR [rsp+16], rdx
  00005	48 89 4c 24 08	 mov	 QWORD PTR [rsp+8], rcx
  0000a	55		 push	 rbp
  0000b	48 83 ec 70	 sub	 rsp, 112		; 00000070H
  0000f	48 8d 6c 24 20	 lea	 rbp, QWORD PTR [rsp+32]
  00014	48 8d 0d 00 00
	00 00		 lea	 rcx, OFFSET FLAT:__0D603829_utility
  0001b	e8 00 00 00 00	 call	 __CheckForDebuggerJustMyCode

; 761  :     // assign _New_val to _Val, return previous _Val
; 762  :     _Ty _Old_val = static_cast<_Ty&&>(_Val);

  00020	48 8b 45 60	 mov	 rax, QWORD PTR _Val$[rbp]
  00024	48 8b 00	 mov	 rax, QWORD PTR [rax]
  00027	48 89 45 00	 mov	 QWORD PTR _Old_val$[rbp], rax

; 763  :     _Val         = static_cast<_Other&&>(_New_val);

  0002b	48 8b 45 60	 mov	 rax, QWORD PTR _Val$[rbp]
  0002f	48 8b 4d 68	 mov	 rcx, QWORD PTR _New_val$[rbp]
  00033	48 8b 09	 mov	 rcx, QWORD PTR [rcx]
  00036	48 89 08	 mov	 QWORD PTR [rax], rcx

; 764  :     return _Old_val;

  00039	48 8b 45 00	 mov	 rax, QWORD PTR _Old_val$[rbp]

; 765  : }

  0003d	48 8d 65 50	 lea	 rsp, QWORD PTR [rbp+80]
  00041	5d		 pop	 rbp
  00042	c3		 ret	 0
??$exchange@PEAU_Iterator_base12@std@@$$T@std@@YAPEAU_Iterator_base12@0@AEAPEAU10@$$QEA$$T@Z ENDP ; std::exchange<std::_Iterator_base12 *,std::nullptr_t>
_TEXT	ENDS
; Function compile flags: /Odtp /ZI
; File C:\Program Files\Microsoft Visual Studio\2022\Preview\VC\Tools\MSVC\14.38.33030\include\xmemory
;	COMDAT ?_Orphan_me_locked_v3@_Iterator_base12@std@@AEAAXXZ
_TEXT	SEGMENT
_Lock$ = 0
this$ = 96
?_Orphan_me_locked_v3@_Iterator_base12@std@@AEAAXXZ PROC ; std::_Iterator_base12::_Orphan_me_locked_v3, COMDAT

; 1362 :     void _Orphan_me_locked_v3() noexcept {

$LN3:
  00000	48 89 4c 24 08	 mov	 QWORD PTR [rsp+8], rcx
  00005	55		 push	 rbp
  00006	48 83 ec 70	 sub	 rsp, 112		; 00000070H
  0000a	48 8d 6c 24 20	 lea	 rbp, QWORD PTR [rsp+32]
  0000f	48 8d 0d 00 00
	00 00		 lea	 rcx, OFFSET FLAT:__67F55BEA_xmemory
  00016	e8 00 00 00 00	 call	 __CheckForDebuggerJustMyCode

; 1363 :         _Lockit _Lock(_LOCK_DEBUG);

  0001b	ba 03 00 00 00	 mov	 edx, 3
  00020	48 8d 4d 00	 lea	 rcx, QWORD PTR _Lock$[rbp]
  00024	ff 15 00 00 00
	00		 call	 QWORD PTR __imp_??0_Lockit@std@@QEAA@H@Z

; 1364 :         _Orphan_me_unlocked_v3();

  0002a	48 8b 4d 60	 mov	 rcx, QWORD PTR this$[rbp]
  0002e	e8 00 00 00 00	 call	 ?_Orphan_me_unlocked_v3@_Iterator_base12@std@@AEAAXXZ ; std::_Iterator_base12::_Orphan_me_unlocked_v3

; 1365 :     }

  00033	48 8d 4d 00	 lea	 rcx, QWORD PTR _Lock$[rbp]
  00037	ff 15 00 00 00
	00		 call	 QWORD PTR __imp_??1_Lockit@std@@QEAA@XZ
  0003d	48 8d 65 50	 lea	 rsp, QWORD PTR [rbp+80]
  00041	5d		 pop	 rbp
  00042	c3		 ret	 0
?_Orphan_me_locked_v3@_Iterator_base12@std@@AEAAXXZ ENDP ; std::_Iterator_base12::_Orphan_me_locked_v3
_TEXT	ENDS
; Function compile flags: /Odtp /ZI
; File C:\Program Files\Microsoft Visual Studio\2022\Preview\VC\Tools\MSVC\14.38.33030\include\xmemory
;	COMDAT ?_Orphan_me_unlocked_v3@_Iterator_base12@std@@AEAAXXZ
_TEXT	SEGMENT
_Pnext$ = 0
this$ = 96
?_Orphan_me_unlocked_v3@_Iterator_base12@std@@AEAAXXZ PROC ; std::_Iterator_base12::_Orphan_me_unlocked_v3, COMDAT

; 1346 :     _CONSTEXPR20 void _Orphan_me_unlocked_v3() noexcept {

$LN15:
  00000	48 89 4c 24 08	 mov	 QWORD PTR [rsp+8], rcx
  00005	55		 push	 rbp
  00006	48 81 ec 80 00
	00 00		 sub	 rsp, 128		; 00000080H
  0000d	48 8d 6c 24 30	 lea	 rbp, QWORD PTR [rsp+48]
  00012	48 8d 0d 00 00
	00 00		 lea	 rcx, OFFSET FLAT:__67F55BEA_xmemory
  00019	e8 00 00 00 00	 call	 __CheckForDebuggerJustMyCode

; 1347 :         if (!_Myproxy) { // already orphaned

  0001e	48 8b 45 60	 mov	 rax, QWORD PTR this$[rbp]
  00022	48 83 38 00	 cmp	 QWORD PTR [rax], 0
  00026	75 05		 jne	 SHORT $LN10@Orphan_me_

; 1348 :             return;

  00028	e9 ce 00 00 00	 jmp	 $LN1@Orphan_me_
$LN10@Orphan_me_:

; 1349 :         }
; 1350 : 
; 1351 :         // adopted, remove self from list
; 1352 :         _Iterator_base12** _Pnext = &_Myproxy->_Myfirstiter;

  0002d	48 8b 45 60	 mov	 rax, QWORD PTR this$[rbp]
  00031	48 8b 00	 mov	 rax, QWORD PTR [rax]
  00034	48 83 c0 08	 add	 rax, 8
  00038	48 89 45 00	 mov	 QWORD PTR _Pnext$[rbp], rax
$LN2@Orphan_me_:

; 1353 :         while (*_Pnext && *_Pnext != this) {

  0003c	48 8b 45 00	 mov	 rax, QWORD PTR _Pnext$[rbp]
  00040	48 83 38 00	 cmp	 QWORD PTR [rax], 0
  00044	74 1e		 je	 SHORT $LN6@Orphan_me_
  00046	48 8b 45 00	 mov	 rax, QWORD PTR _Pnext$[rbp]
  0004a	48 8b 4d 60	 mov	 rcx, QWORD PTR this$[rbp]
  0004e	48 39 08	 cmp	 QWORD PTR [rax], rcx
  00051	74 11		 je	 SHORT $LN6@Orphan_me_

; 1354 :             _Pnext = &(*_Pnext)->_Mynextiter;

  00053	48 8b 45 00	 mov	 rax, QWORD PTR _Pnext$[rbp]
  00057	48 8b 00	 mov	 rax, QWORD PTR [rax]
  0005a	48 83 c0 08	 add	 rax, 8
  0005e	48 89 45 00	 mov	 QWORD PTR _Pnext$[rbp], rax

; 1355 :         }

  00062	eb d8		 jmp	 SHORT $LN2@Orphan_me_
$LN6@Orphan_me_:

; 1356 : 
; 1357 :         _STL_VERIFY(*_Pnext, "ITERATOR LIST CORRUPTED!");

  00064	48 8b 45 00	 mov	 rax, QWORD PTR _Pnext$[rbp]
  00068	48 83 38 00	 cmp	 QWORD PTR [rax], 0
  0006c	74 02		 je	 SHORT $LN9@Orphan_me_
  0006e	eb 6b		 jmp	 SHORT $LN12@Orphan_me_
$LN9@Orphan_me_:
  00070	48 8d 05 00 00
	00 00		 lea	 rax, OFFSET FLAT:??_C@_0BJ@LFDBABJJ@ITERATOR?5LIST?5CORRUPTED?$CB@
  00077	48 89 44 24 28	 mov	 QWORD PTR [rsp+40], rax
  0007c	48 8d 05 00 00
	00 00		 lea	 rax, OFFSET FLAT:??_C@_02DKCKIIND@?$CFs@
  00083	48 89 44 24 20	 mov	 QWORD PTR [rsp+32], rax
  00088	45 33 c9	 xor	 r9d, r9d
  0008b	41 b8 4d 05 00
	00		 mov	 r8d, 1357		; 0000054dH
  00091	48 8d 15 00 00
	00 00		 lea	 rdx, OFFSET FLAT:??_C@_0GA@FLDGEGM@C?3?2Program?5Files?2Microsoft?5Visu@
  00098	b9 02 00 00 00	 mov	 ecx, 2
  0009d	ff 15 00 00 00
	00		 call	 QWORD PTR __imp__CrtDbgReport
  000a3	83 f8 01	 cmp	 eax, 1
  000a6	75 03		 jne	 SHORT $LN14@Orphan_me_
  000a8	cc		 int	 3
  000a9	33 c0		 xor	 eax, eax
$LN14@Orphan_me_:
  000ab	48 c7 44 24 20
	00 00 00 00	 mov	 QWORD PTR [rsp+32], 0
  000b4	41 b9 4d 05 00
	00		 mov	 r9d, 1357		; 0000054dH
  000ba	4c 8d 05 00 00
	00 00		 lea	 r8, OFFSET FLAT:??_C@_1MA@IKJDCOIC@?$AAC?$AA?3?$AA?2?$AAP?$AAr?$AAo?$AAg?$AAr?$AAa?$AAm?$AA?5?$AAF?$AAi?$AAl?$AAe@
  000c1	48 8d 15 00 00
	00 00		 lea	 rdx, OFFSET FLAT:??_C@_11LOCGONAA@@
  000c8	48 8d 0d 00 00
	00 00		 lea	 rcx, OFFSET FLAT:??_C@_1DG@PLBPCAEM@?$AA?$CC?$AAI?$AAT?$AAE?$AAR?$AAA?$AAT?$AAO?$AAR?$AA?5?$AAL?$AAI?$AAS?$AAT?$AA?5@
  000cf	ff 15 00 00 00
	00		 call	 QWORD PTR __imp__invalid_parameter
  000d5	33 c0		 xor	 eax, eax
  000d7	85 c0		 test	 eax, eax
  000d9	75 95		 jne	 SHORT $LN9@Orphan_me_
$LN12@Orphan_me_:
  000db	33 c0		 xor	 eax, eax
  000dd	85 c0		 test	 eax, eax
  000df	75 83		 jne	 SHORT $LN6@Orphan_me_

; 1358 :         *_Pnext  = _Mynextiter;

  000e1	48 8b 45 00	 mov	 rax, QWORD PTR _Pnext$[rbp]
  000e5	48 8b 4d 60	 mov	 rcx, QWORD PTR this$[rbp]
  000e9	48 8b 49 08	 mov	 rcx, QWORD PTR [rcx+8]
  000ed	48 89 08	 mov	 QWORD PTR [rax], rcx

; 1359 :         _Myproxy = nullptr;

  000f0	48 8b 45 60	 mov	 rax, QWORD PTR this$[rbp]
  000f4	48 c7 00 00 00
	00 00		 mov	 QWORD PTR [rax], 0
$LN1@Orphan_me_:

; 1360 :     }

  000fb	48 8d 65 50	 lea	 rsp, QWORD PTR [rbp+80]
  000ff	5d		 pop	 rbp
  00100	c3		 ret	 0
?_Orphan_me_unlocked_v3@_Iterator_base12@std@@AEAAXXZ ENDP ; std::_Iterator_base12::_Orphan_me_unlocked_v3
_TEXT	ENDS
; Function compile flags: /Odtp /ZI
; File C:\Program Files\Microsoft Visual Studio\2022\Preview\VC\Tools\MSVC\14.38.33030\include\xmemory
;	COMDAT ?_Adopt_locked@_Iterator_base12@std@@AEAAXPEBU_Container_base12@2@@Z
_TEXT	SEGMENT
_Lock$ = 0
this$ = 96
_Parent$ = 104
?_Adopt_locked@_Iterator_base12@std@@AEAAXPEBU_Container_base12@2@@Z PROC ; std::_Iterator_base12::_Adopt_locked, COMDAT

; 1341 :     void _Adopt_locked(const _Container_base12* _Parent) noexcept {

$LN3:
  00000	48 89 54 24 10	 mov	 QWORD PTR [rsp+16], rdx
  00005	48 89 4c 24 08	 mov	 QWORD PTR [rsp+8], rcx
  0000a	55		 push	 rbp
  0000b	48 83 ec 70	 sub	 rsp, 112		; 00000070H
  0000f	48 8d 6c 24 20	 lea	 rbp, QWORD PTR [rsp+32]
  00014	48 8d 0d 00 00
	00 00		 lea	 rcx, OFFSET FLAT:__67F55BEA_xmemory
  0001b	e8 00 00 00 00	 call	 __CheckForDebuggerJustMyCode

; 1342 :         _Lockit _Lock(_LOCK_DEBUG);

  00020	ba 03 00 00 00	 mov	 edx, 3
  00025	48 8d 4d 00	 lea	 rcx, QWORD PTR _Lock$[rbp]
  00029	ff 15 00 00 00
	00		 call	 QWORD PTR __imp_??0_Lockit@std@@QEAA@H@Z

; 1343 :         _Adopt_unlocked(_Parent);

  0002f	48 8b 55 68	 mov	 rdx, QWORD PTR _Parent$[rbp]
  00033	48 8b 4d 60	 mov	 rcx, QWORD PTR this$[rbp]
  00037	e8 00 00 00 00	 call	 ?_Adopt_unlocked@_Iterator_base12@std@@AEAAXPEBU_Container_base12@2@@Z ; std::_Iterator_base12::_Adopt_unlocked

; 1344 :     }

  0003c	48 8d 4d 00	 lea	 rcx, QWORD PTR _Lock$[rbp]
  00040	ff 15 00 00 00
	00		 call	 QWORD PTR __imp_??1_Lockit@std@@QEAA@XZ
  00046	48 8d 65 50	 lea	 rsp, QWORD PTR [rbp+80]
  0004a	5d		 pop	 rbp
  0004b	c3		 ret	 0
?_Adopt_locked@_Iterator_base12@std@@AEAAXPEBU_Container_base12@2@@Z ENDP ; std::_Iterator_base12::_Adopt_locked
_TEXT	ENDS
; Function compile flags: /Odtp /ZI
; File C:\Program Files\Microsoft Visual Studio\2022\Preview\VC\Tools\MSVC\14.38.33030\include\xmemory
;	COMDAT ?_Adopt_unlocked@_Iterator_base12@std@@AEAAXPEBU_Container_base12@2@@Z
_TEXT	SEGMENT
_Parent_proxy$ = 0
this$ = 96
_Parent$ = 104
?_Adopt_unlocked@_Iterator_base12@std@@AEAAXPEBU_Container_base12@2@@Z PROC ; std::_Iterator_base12::_Adopt_unlocked, COMDAT

; 1324 :     _CONSTEXPR20 void _Adopt_unlocked(const _Container_base12* _Parent) noexcept {

$LN6:
  00000	48 89 54 24 10	 mov	 QWORD PTR [rsp+16], rdx
  00005	48 89 4c 24 08	 mov	 QWORD PTR [rsp+8], rcx
  0000a	55		 push	 rbp
  0000b	48 83 ec 70	 sub	 rsp, 112		; 00000070H
  0000f	48 8d 6c 24 20	 lea	 rbp, QWORD PTR [rsp+32]
  00014	48 8d 0d 00 00
	00 00		 lea	 rcx, OFFSET FLAT:__67F55BEA_xmemory
  0001b	e8 00 00 00 00	 call	 __CheckForDebuggerJustMyCode

; 1325 :         if (!_Parent) {

  00020	48 83 7d 68 00	 cmp	 QWORD PTR _Parent$[rbp], 0
  00025	75 0b		 jne	 SHORT $LN2@Adopt_unlo

; 1326 :             _Orphan_me_unlocked_v3();

  00027	48 8b 4d 60	 mov	 rcx, QWORD PTR this$[rbp]
  0002b	e8 00 00 00 00	 call	 ?_Orphan_me_unlocked_v3@_Iterator_base12@std@@AEAAXXZ ; std::_Iterator_base12::_Orphan_me_unlocked_v3

; 1327 :             return;

  00030	eb 52		 jmp	 SHORT $LN1@Adopt_unlo
$LN2@Adopt_unlo:

; 1328 :         }
; 1329 : 
; 1330 :         _Container_proxy* _Parent_proxy = _Parent->_Myproxy;

  00032	48 8b 45 68	 mov	 rax, QWORD PTR _Parent$[rbp]
  00036	48 8b 00	 mov	 rax, QWORD PTR [rax]
  00039	48 89 45 00	 mov	 QWORD PTR _Parent_proxy$[rbp], rax

; 1331 :         if (_Myproxy != _Parent_proxy) { // change parentage

  0003d	48 8b 45 60	 mov	 rax, QWORD PTR this$[rbp]
  00041	48 8b 4d 00	 mov	 rcx, QWORD PTR _Parent_proxy$[rbp]
  00045	48 39 08	 cmp	 QWORD PTR [rax], rcx
  00048	74 3a		 je	 SHORT $LN1@Adopt_unlo

; 1332 :             if (_Myproxy) { // adopted, remove self from list

  0004a	48 8b 45 60	 mov	 rax, QWORD PTR this$[rbp]
  0004e	48 83 38 00	 cmp	 QWORD PTR [rax], 0
  00052	74 09		 je	 SHORT $LN4@Adopt_unlo

; 1333 :                 _Orphan_me_unlocked_v3();

  00054	48 8b 4d 60	 mov	 rcx, QWORD PTR this$[rbp]
  00058	e8 00 00 00 00	 call	 ?_Orphan_me_unlocked_v3@_Iterator_base12@std@@AEAAXXZ ; std::_Iterator_base12::_Orphan_me_unlocked_v3
$LN4@Adopt_unlo:

; 1334 :             }
; 1335 :             _Mynextiter                 = _Parent_proxy->_Myfirstiter;

  0005d	48 8b 45 60	 mov	 rax, QWORD PTR this$[rbp]
  00061	48 8b 4d 00	 mov	 rcx, QWORD PTR _Parent_proxy$[rbp]
  00065	48 8b 49 08	 mov	 rcx, QWORD PTR [rcx+8]
  00069	48 89 48 08	 mov	 QWORD PTR [rax+8], rcx

; 1336 :             _Parent_proxy->_Myfirstiter = this;

  0006d	48 8b 45 00	 mov	 rax, QWORD PTR _Parent_proxy$[rbp]
  00071	48 8b 4d 60	 mov	 rcx, QWORD PTR this$[rbp]
  00075	48 89 48 08	 mov	 QWORD PTR [rax+8], rcx

; 1337 :             _Myproxy                    = _Parent_proxy;

  00079	48 8b 45 60	 mov	 rax, QWORD PTR this$[rbp]
  0007d	48 8b 4d 00	 mov	 rcx, QWORD PTR _Parent_proxy$[rbp]
  00081	48 89 08	 mov	 QWORD PTR [rax], rcx
$LN1@Adopt_unlo:

; 1338 :         }
; 1339 :     }

  00084	48 8d 65 50	 lea	 rsp, QWORD PTR [rbp+80]
  00088	5d		 pop	 rbp
  00089	c3		 ret	 0
?_Adopt_unlocked@_Iterator_base12@std@@AEAAXPEBU_Container_base12@2@@Z ENDP ; std::_Iterator_base12::_Adopt_unlocked
_TEXT	ENDS
; Function compile flags: /Odtp /ZI
; File C:\Program Files\Microsoft Visual Studio\2022\Preview\VC\Tools\MSVC\14.38.33030\include\xmemory
;	COMDAT ?_Assign_locked@_Iterator_base12@std@@AEAAXAEBU12@@Z
_TEXT	SEGMENT
_Lock$ = 0
this$ = 96
_Right$ = 104
?_Assign_locked@_Iterator_base12@std@@AEAAXAEBU12@@Z PROC ; std::_Iterator_base12::_Assign_locked, COMDAT

; 1319 :     void _Assign_locked(const _Iterator_base12& _Right) noexcept {

$LN3:
  00000	48 89 54 24 10	 mov	 QWORD PTR [rsp+16], rdx
  00005	48 89 4c 24 08	 mov	 QWORD PTR [rsp+8], rcx
  0000a	55		 push	 rbp
  0000b	48 83 ec 70	 sub	 rsp, 112		; 00000070H
  0000f	48 8d 6c 24 20	 lea	 rbp, QWORD PTR [rsp+32]
  00014	48 8d 0d 00 00
	00 00		 lea	 rcx, OFFSET FLAT:__67F55BEA_xmemory
  0001b	e8 00 00 00 00	 call	 __CheckForDebuggerJustMyCode

; 1320 :         _Lockit _Lock(_LOCK_DEBUG);

  00020	ba 03 00 00 00	 mov	 edx, 3
  00025	48 8d 4d 00	 lea	 rcx, QWORD PTR _Lock$[rbp]
  00029	ff 15 00 00 00
	00		 call	 QWORD PTR __imp_??0_Lockit@std@@QEAA@H@Z

; 1321 :         _Assign_unlocked(_Right);

  0002f	48 8b 55 68	 mov	 rdx, QWORD PTR _Right$[rbp]
  00033	48 8b 4d 60	 mov	 rcx, QWORD PTR this$[rbp]
  00037	e8 00 00 00 00	 call	 ?_Assign_unlocked@_Iterator_base12@std@@AEAAXAEBU12@@Z ; std::_Iterator_base12::_Assign_unlocked

; 1322 :     }

  0003c	48 8d 4d 00	 lea	 rcx, QWORD PTR _Lock$[rbp]
  00040	ff 15 00 00 00
	00		 call	 QWORD PTR __imp_??1_Lockit@std@@QEAA@XZ
  00046	48 8d 65 50	 lea	 rsp, QWORD PTR [rbp+80]
  0004a	5d		 pop	 rbp
  0004b	c3		 ret	 0
?_Assign_locked@_Iterator_base12@std@@AEAAXAEBU12@@Z ENDP ; std::_Iterator_base12::_Assign_locked
_TEXT	ENDS
; Function compile flags: /Odtp /ZI
; File C:\Program Files\Microsoft Visual Studio\2022\Preview\VC\Tools\MSVC\14.38.33030\include\xmemory
;	COMDAT ?_Assign_unlocked@_Iterator_base12@std@@AEAAXAEBU12@@Z
_TEXT	SEGMENT
this$ = 80
_Right$ = 88
?_Assign_unlocked@_Iterator_base12@std@@AEAAXAEBU12@@Z PROC ; std::_Iterator_base12::_Assign_unlocked, COMDAT

; 1307 :     _CONSTEXPR20 void _Assign_unlocked(const _Iterator_base12& _Right) noexcept {

$LN6:
  00000	48 89 54 24 10	 mov	 QWORD PTR [rsp+16], rdx
  00005	48 89 4c 24 08	 mov	 QWORD PTR [rsp+8], rcx
  0000a	55		 push	 rbp
  0000b	48 83 ec 60	 sub	 rsp, 96			; 00000060H
  0000f	48 8d 6c 24 20	 lea	 rbp, QWORD PTR [rsp+32]
  00014	48 8d 0d 00 00
	00 00		 lea	 rcx, OFFSET FLAT:__67F55BEA_xmemory
  0001b	e8 00 00 00 00	 call	 __CheckForDebuggerJustMyCode

; 1308 :         if (_Myproxy == _Right._Myproxy) {

  00020	48 8b 45 50	 mov	 rax, QWORD PTR this$[rbp]
  00024	48 8b 4d 58	 mov	 rcx, QWORD PTR _Right$[rbp]
  00028	48 8b 09	 mov	 rcx, QWORD PTR [rcx]
  0002b	48 39 08	 cmp	 QWORD PTR [rax], rcx
  0002e	75 02		 jne	 SHORT $LN2@Assign_unl

; 1309 :             return;

  00030	eb 28		 jmp	 SHORT $LN1@Assign_unl
$LN2@Assign_unl:

; 1310 :         }
; 1311 : 
; 1312 :         if (_Right._Myproxy) {

  00032	48 8b 45 58	 mov	 rax, QWORD PTR _Right$[rbp]
  00036	48 83 38 00	 cmp	 QWORD PTR [rax], 0
  0003a	74 15		 je	 SHORT $LN3@Assign_unl

; 1313 :             _Adopt_unlocked(_Right._Myproxy->_Mycont);

  0003c	48 8b 45 58	 mov	 rax, QWORD PTR _Right$[rbp]
  00040	48 8b 00	 mov	 rax, QWORD PTR [rax]
  00043	48 8b 10	 mov	 rdx, QWORD PTR [rax]
  00046	48 8b 4d 50	 mov	 rcx, QWORD PTR this$[rbp]
  0004a	e8 00 00 00 00	 call	 ?_Adopt_unlocked@_Iterator_base12@std@@AEAAXPEBU_Container_base12@2@@Z ; std::_Iterator_base12::_Adopt_unlocked

; 1314 :         } else { // becoming invalid, disown current parent

  0004f	eb 09		 jmp	 SHORT $LN1@Assign_unl
$LN3@Assign_unl:

; 1315 :             _Orphan_me_unlocked_v3();

  00051	48 8b 4d 50	 mov	 rcx, QWORD PTR this$[rbp]
  00055	e8 00 00 00 00	 call	 ?_Orphan_me_unlocked_v3@_Iterator_base12@std@@AEAAXXZ ; std::_Iterator_base12::_Orphan_me_unlocked_v3
$LN1@Assign_unl:

; 1316 :         }
; 1317 :     }

  0005a	48 8d 65 40	 lea	 rsp, QWORD PTR [rbp+64]
  0005e	5d		 pop	 rbp
  0005f	c3		 ret	 0
?_Assign_unlocked@_Iterator_base12@std@@AEAAXAEBU12@@Z ENDP ; std::_Iterator_base12::_Assign_unlocked
_TEXT	ENDS
; Function compile flags: /Odtp /ZI
; File C:\Program Files\Microsoft Visual Studio\2022\Preview\VC\Tools\MSVC\14.38.33030\include\xmemory
;	COMDAT ?_Getcont@_Iterator_base12@std@@QEBAPEBU_Container_base12@2@XZ
_TEXT	SEGMENT
tv68 = 64
this$ = 96
?_Getcont@_Iterator_base12@std@@QEBAPEBU_Container_base12@2@XZ PROC ; std::_Iterator_base12::_Getcont, COMDAT

; 1296 :     _CONSTEXPR20 const _Container_base12* _Getcont() const noexcept {

$LN5:
  00000	48 89 4c 24 08	 mov	 QWORD PTR [rsp+8], rcx
  00005	55		 push	 rbp
  00006	48 83 ec 70	 sub	 rsp, 112		; 00000070H
  0000a	48 8d 6c 24 20	 lea	 rbp, QWORD PTR [rsp+32]
  0000f	48 8d 0d 00 00
	00 00		 lea	 rcx, OFFSET FLAT:__67F55BEA_xmemory
  00016	e8 00 00 00 00	 call	 __CheckForDebuggerJustMyCode

; 1297 :         return _Myproxy ? _Myproxy->_Mycont : nullptr;

  0001b	48 8b 45 60	 mov	 rax, QWORD PTR this$[rbp]
  0001f	48 83 38 00	 cmp	 QWORD PTR [rax], 0
  00023	74 10		 je	 SHORT $LN3@Getcont
  00025	48 8b 45 60	 mov	 rax, QWORD PTR this$[rbp]
  00029	48 8b 00	 mov	 rax, QWORD PTR [rax]
  0002c	48 8b 00	 mov	 rax, QWORD PTR [rax]
  0002f	48 89 45 40	 mov	 QWORD PTR tv68[rbp], rax
  00033	eb 08		 jmp	 SHORT $LN4@Getcont
$LN3@Getcont:
  00035	48 c7 45 40 00
	00 00 00	 mov	 QWORD PTR tv68[rbp], 0
$LN4@Getcont:
  0003d	48 8b 45 40	 mov	 rax, QWORD PTR tv68[rbp]

; 1298 :     }

  00041	48 8d 65 50	 lea	 rsp, QWORD PTR [rbp+80]
  00045	5d		 pop	 rbp
  00046	c3		 ret	 0
?_Getcont@_Iterator_base12@std@@QEBAPEBU_Container_base12@2@XZ ENDP ; std::_Iterator_base12::_Getcont
_TEXT	ENDS
; Function compile flags: /Odtp /ZI
; File C:\Program Files\Microsoft Visual Studio\2022\Preview\VC\Tools\MSVC\14.38.33030\include\xmemory
;	COMDAT ?_Adopt@_Iterator_base12@std@@QEAAXPEBU_Container_base12@2@@Z
_TEXT	SEGMENT
this$ = 80
_Parent$ = 88
?_Adopt@_Iterator_base12@std@@QEAAXPEBU_Container_base12@2@@Z PROC ; std::_Iterator_base12::_Adopt, COMDAT

; 1276 :     _CONSTEXPR20 void _Adopt(const _Container_base12* _Parent) noexcept {

$LN5:
  00000	48 89 54 24 10	 mov	 QWORD PTR [rsp+16], rdx
  00005	48 89 4c 24 08	 mov	 QWORD PTR [rsp+8], rcx
  0000a	55		 push	 rbp
  0000b	48 83 ec 60	 sub	 rsp, 96			; 00000060H
  0000f	48 8d 6c 24 20	 lea	 rbp, QWORD PTR [rsp+32]
  00014	48 8d 0d 00 00
	00 00		 lea	 rcx, OFFSET FLAT:__67F55BEA_xmemory
  0001b	e8 00 00 00 00	 call	 __CheckForDebuggerJustMyCode

; 1277 : #if _HAS_CXX20
; 1278 :         if (_STD is_constant_evaluated()) {

  00020	e8 00 00 00 00	 call	 ?is_constant_evaluated@std@@YA_NXZ ; std::is_constant_evaluated
  00025	0f b6 c0	 movzx	 eax, al
  00028	85 c0		 test	 eax, eax
  0002a	74 0f		 je	 SHORT $LN2@Adopt

; 1279 :             _Adopt_unlocked(_Parent);

  0002c	48 8b 55 58	 mov	 rdx, QWORD PTR _Parent$[rbp]
  00030	48 8b 4d 50	 mov	 rcx, QWORD PTR this$[rbp]
  00034	e8 00 00 00 00	 call	 ?_Adopt_unlocked@_Iterator_base12@std@@AEAAXPEBU_Container_base12@2@@Z ; std::_Iterator_base12::_Adopt_unlocked

; 1280 :         } else

  00039	eb 0d		 jmp	 SHORT $LN3@Adopt
$LN2@Adopt:

; 1281 : #endif // _HAS_CXX20
; 1282 :         {
; 1283 :             _Adopt_locked(_Parent);

  0003b	48 8b 55 58	 mov	 rdx, QWORD PTR _Parent$[rbp]
  0003f	48 8b 4d 50	 mov	 rcx, QWORD PTR this$[rbp]
  00043	e8 00 00 00 00	 call	 ?_Adopt_locked@_Iterator_base12@std@@AEAAXPEBU_Container_base12@2@@Z ; std::_Iterator_base12::_Adopt_locked
$LN3@Adopt:

; 1284 :         }
; 1285 :     }

  00048	48 8d 65 40	 lea	 rsp, QWORD PTR [rbp+64]
  0004c	5d		 pop	 rbp
  0004d	c3		 ret	 0
?_Adopt@_Iterator_base12@std@@QEAAXPEBU_Container_base12@2@@Z ENDP ; std::_Iterator_base12::_Adopt
_TEXT	ENDS
; Function compile flags: /Odtp /ZI
; File C:\Program Files\Microsoft Visual Studio\2022\Preview\VC\Tools\MSVC\14.38.33030\include\xmemory
;	COMDAT ??1_Iterator_base12@std@@QEAA@XZ
_TEXT	SEGMENT
this$ = 80
??1_Iterator_base12@std@@QEAA@XZ PROC			; std::_Iterator_base12::~_Iterator_base12, COMDAT

; 1265 :     _CONSTEXPR20 ~_Iterator_base12() noexcept {

$LN5:
  00000	48 89 4c 24 08	 mov	 QWORD PTR [rsp+8], rcx
  00005	55		 push	 rbp
  00006	48 83 ec 60	 sub	 rsp, 96			; 00000060H
  0000a	48 8d 6c 24 20	 lea	 rbp, QWORD PTR [rsp+32]
  0000f	48 8d 0d 00 00
	00 00		 lea	 rcx, OFFSET FLAT:__67F55BEA_xmemory
  00016	e8 00 00 00 00	 call	 __CheckForDebuggerJustMyCode

; 1266 : #if _HAS_CXX20
; 1267 :         if (_STD is_constant_evaluated()) {

  0001b	e8 00 00 00 00	 call	 ?is_constant_evaluated@std@@YA_NXZ ; std::is_constant_evaluated
  00020	0f b6 c0	 movzx	 eax, al
  00023	85 c0		 test	 eax, eax
  00025	74 0b		 je	 SHORT $LN2@Iterator_b

; 1268 :             _Orphan_me_unlocked_v3();

  00027	48 8b 4d 50	 mov	 rcx, QWORD PTR this$[rbp]
  0002b	e8 00 00 00 00	 call	 ?_Orphan_me_unlocked_v3@_Iterator_base12@std@@AEAAXXZ ; std::_Iterator_base12::_Orphan_me_unlocked_v3

; 1269 :         } else

  00030	eb 09		 jmp	 SHORT $LN3@Iterator_b
$LN2@Iterator_b:

; 1270 : #endif // _HAS_CXX20
; 1271 :         {
; 1272 :             _Orphan_me_locked_v3();

  00032	48 8b 4d 50	 mov	 rcx, QWORD PTR this$[rbp]
  00036	e8 00 00 00 00	 call	 ?_Orphan_me_locked_v3@_Iterator_base12@std@@AEAAXXZ ; std::_Iterator_base12::_Orphan_me_locked_v3
$LN3@Iterator_b:

; 1273 :         }
; 1274 :     }

  0003b	48 8d 65 40	 lea	 rsp, QWORD PTR [rbp+64]
  0003f	5d		 pop	 rbp
  00040	c3		 ret	 0
??1_Iterator_base12@std@@QEAA@XZ ENDP			; std::_Iterator_base12::~_Iterator_base12
_TEXT	ENDS
; Function compile flags: /Odtp /ZI
; File C:\Program Files\Microsoft Visual Studio\2022\Preview\VC\Tools\MSVC\14.38.33030\include\xmemory
;	COMDAT ??4_Iterator_base12@std@@QEAAAEAU01@AEBU01@@Z
_TEXT	SEGMENT
this$ = 80
_Right$ = 88
??4_Iterator_base12@std@@QEAAAEAU01@AEBU01@@Z PROC	; std::_Iterator_base12::operator=, COMDAT

; 1248 :     _CONSTEXPR20 _Iterator_base12& operator=(const _Iterator_base12& _Right) noexcept {

$LN5:
  00000	48 89 54 24 10	 mov	 QWORD PTR [rsp+16], rdx
  00005	48 89 4c 24 08	 mov	 QWORD PTR [rsp+8], rcx
  0000a	55		 push	 rbp
  0000b	48 83 ec 60	 sub	 rsp, 96			; 00000060H
  0000f	48 8d 6c 24 20	 lea	 rbp, QWORD PTR [rsp+32]
  00014	48 8d 0d 00 00
	00 00		 lea	 rcx, OFFSET FLAT:__67F55BEA_xmemory
  0001b	e8 00 00 00 00	 call	 __CheckForDebuggerJustMyCode

; 1249 : #if _ITERATOR_DEBUG_LEVEL == 2
; 1250 : #if _HAS_CXX20
; 1251 :         if (_STD is_constant_evaluated()) {

  00020	e8 00 00 00 00	 call	 ?is_constant_evaluated@std@@YA_NXZ ; std::is_constant_evaluated
  00025	0f b6 c0	 movzx	 eax, al
  00028	85 c0		 test	 eax, eax
  0002a	74 0f		 je	 SHORT $LN2@operator

; 1252 :             _Assign_unlocked(_Right);

  0002c	48 8b 55 58	 mov	 rdx, QWORD PTR _Right$[rbp]
  00030	48 8b 4d 50	 mov	 rcx, QWORD PTR this$[rbp]
  00034	e8 00 00 00 00	 call	 ?_Assign_unlocked@_Iterator_base12@std@@AEAAXAEBU12@@Z ; std::_Iterator_base12::_Assign_unlocked

; 1253 :         } else

  00039	eb 0d		 jmp	 SHORT $LN3@operator
$LN2@operator:

; 1254 : #endif // _HAS_CXX20
; 1255 :         {
; 1256 :             _Assign_locked(_Right);

  0003b	48 8b 55 58	 mov	 rdx, QWORD PTR _Right$[rbp]
  0003f	48 8b 4d 50	 mov	 rcx, QWORD PTR this$[rbp]
  00043	e8 00 00 00 00	 call	 ?_Assign_locked@_Iterator_base12@std@@AEAAXAEBU12@@Z ; std::_Iterator_base12::_Assign_locked
$LN3@operator:

; 1257 :         }
; 1258 : #else // ^^^ _ITERATOR_DEBUG_LEVEL == 2 / _ITERATOR_DEBUG_LEVEL != 2 vvv
; 1259 :         _Myproxy = _Right._Myproxy;
; 1260 : #endif // _ITERATOR_DEBUG_LEVEL != 2
; 1261 :         return *this;

  00048	48 8b 45 50	 mov	 rax, QWORD PTR this$[rbp]

; 1262 :     }

  0004c	48 8d 65 40	 lea	 rsp, QWORD PTR [rbp+64]
  00050	5d		 pop	 rbp
  00051	c3		 ret	 0
??4_Iterator_base12@std@@QEAAAEAU01@AEBU01@@Z ENDP	; std::_Iterator_base12::operator=
_TEXT	ENDS
; Function compile flags: /Odtp /ZI
; File C:\Program Files\Microsoft Visual Studio\2022\Preview\VC\Tools\MSVC\14.38.33030\include\xmemory
;	COMDAT ??0_Iterator_base12@std@@QEAA@AEBU01@@Z
_TEXT	SEGMENT
this$ = 80
_Right$ = 88
??0_Iterator_base12@std@@QEAA@AEBU01@@Z PROC		; std::_Iterator_base12::_Iterator_base12, COMDAT

; 1244 :     _CONSTEXPR20 _Iterator_base12(const _Iterator_base12& _Right) noexcept {

$LN3:
  00000	48 89 54 24 10	 mov	 QWORD PTR [rsp+16], rdx
  00005	48 89 4c 24 08	 mov	 QWORD PTR [rsp+8], rcx
  0000a	55		 push	 rbp
  0000b	48 83 ec 60	 sub	 rsp, 96			; 00000060H
  0000f	48 8d 6c 24 20	 lea	 rbp, QWORD PTR [rsp+32]
  00014	48 8d 0d 00 00
	00 00		 lea	 rcx, OFFSET FLAT:__67F55BEA_xmemory
  0001b	e8 00 00 00 00	 call	 __CheckForDebuggerJustMyCode

; 1247 : 
; 1248 :     _CONSTEXPR20 _Iterator_base12& operator=(const _Iterator_base12& _Right) noexcept {
; 1249 : #if _ITERATOR_DEBUG_LEVEL == 2
; 1250 : #if _HAS_CXX20
; 1251 :         if (_STD is_constant_evaluated()) {
; 1252 :             _Assign_unlocked(_Right);
; 1253 :         } else
; 1254 : #endif // _HAS_CXX20
; 1255 :         {
; 1256 :             _Assign_locked(_Right);
; 1257 :         }
; 1258 : #else // ^^^ _ITERATOR_DEBUG_LEVEL == 2 / _ITERATOR_DEBUG_LEVEL != 2 vvv
; 1259 :         _Myproxy = _Right._Myproxy;
; 1260 : #endif // _ITERATOR_DEBUG_LEVEL != 2
; 1261 :         return *this;
; 1262 :     }
; 1263 : 
; 1264 : #if _ITERATOR_DEBUG_LEVEL == 2
; 1265 :     _CONSTEXPR20 ~_Iterator_base12() noexcept {
; 1266 : #if _HAS_CXX20
; 1267 :         if (_STD is_constant_evaluated()) {
; 1268 :             _Orphan_me_unlocked_v3();
; 1269 :         } else
; 1270 : #endif // _HAS_CXX20
; 1271 :         {
; 1272 :             _Orphan_me_locked_v3();
; 1273 :         }
; 1274 :     }
; 1275 : 
; 1276 :     _CONSTEXPR20 void _Adopt(const _Container_base12* _Parent) noexcept {
; 1277 : #if _HAS_CXX20
; 1278 :         if (_STD is_constant_evaluated()) {
; 1279 :             _Adopt_unlocked(_Parent);
; 1280 :         } else
; 1281 : #endif // _HAS_CXX20
; 1282 :         {
; 1283 :             _Adopt_locked(_Parent);
; 1284 :         }
; 1285 :     }
; 1286 : #else // ^^^ _ITERATOR_DEBUG_LEVEL == 2 / _ITERATOR_DEBUG_LEVEL != 2 vvv
; 1287 :     _CONSTEXPR20 void _Adopt(const _Container_base12* _Parent) noexcept {
; 1288 :         if (_Parent) { // have a parent, do adoption
; 1289 :             _Myproxy = _Parent->_Myproxy;
; 1290 :         } else { // no future parent, just disown current parent
; 1291 :             _Myproxy = nullptr;
; 1292 :         }
; 1293 :     }
; 1294 : #endif // _ITERATOR_DEBUG_LEVEL != 2
; 1295 : 
; 1296 :     _CONSTEXPR20 const _Container_base12* _Getcont() const noexcept {
; 1297 :         return _Myproxy ? _Myproxy->_Mycont : nullptr;
; 1298 :     }
; 1299 : 
; 1300 :     static constexpr bool _Unwrap_when_unverified = _ITERATOR_DEBUG_LEVEL == 0;
; 1301 : 
; 1302 :     mutable _Container_proxy* _Myproxy    = nullptr;

  00020	48 8b 45 50	 mov	 rax, QWORD PTR this$[rbp]
  00024	48 c7 00 00 00
	00 00		 mov	 QWORD PTR [rax], 0

; 1303 :     mutable _Iterator_base12* _Mynextiter = nullptr;

  0002b	48 8b 45 50	 mov	 rax, QWORD PTR this$[rbp]
  0002f	48 c7 40 08 00
	00 00 00	 mov	 QWORD PTR [rax+8], 0

; 1245 :         *this = _Right;

  00037	48 8b 55 58	 mov	 rdx, QWORD PTR _Right$[rbp]
  0003b	48 8b 4d 50	 mov	 rcx, QWORD PTR this$[rbp]
  0003f	e8 00 00 00 00	 call	 ??4_Iterator_base12@std@@QEAAAEAU01@AEBU01@@Z ; std::_Iterator_base12::operator=

; 1246 :     }

  00044	48 8b 45 50	 mov	 rax, QWORD PTR this$[rbp]
  00048	48 8d 65 40	 lea	 rsp, QWORD PTR [rbp+64]
  0004c	5d		 pop	 rbp
  0004d	c3		 ret	 0
??0_Iterator_base12@std@@QEAA@AEBU01@@Z ENDP		; std::_Iterator_base12::_Iterator_base12
_TEXT	ENDS
; Function compile flags: /Odtp /ZI
; File C:\Program Files\Microsoft Visual Studio\2022\Preview\VC\Tools\MSVC\14.38.33030\include\xmemory
;	COMDAT ??0_Iterator_base12@std@@QEAA@XZ
_TEXT	SEGMENT
this$ = 80
??0_Iterator_base12@std@@QEAA@XZ PROC			; std::_Iterator_base12::_Iterator_base12, COMDAT

; 1242 :     _CONSTEXPR20 _Iterator_base12() noexcept = default; // construct orphaned iterator

$LN3:
  00000	48 89 4c 24 08	 mov	 QWORD PTR [rsp+8], rcx
  00005	55		 push	 rbp
  00006	48 83 ec 60	 sub	 rsp, 96			; 00000060H
  0000a	48 8d 6c 24 20	 lea	 rbp, QWORD PTR [rsp+32]
  0000f	48 8d 0d 00 00
	00 00		 lea	 rcx, OFFSET FLAT:__67F55BEA_xmemory
  00016	e8 00 00 00 00	 call	 __CheckForDebuggerJustMyCode

; 1243 : 
; 1244 :     _CONSTEXPR20 _Iterator_base12(const _Iterator_base12& _Right) noexcept {
; 1245 :         *this = _Right;
; 1246 :     }
; 1247 : 
; 1248 :     _CONSTEXPR20 _Iterator_base12& operator=(const _Iterator_base12& _Right) noexcept {
; 1249 : #if _ITERATOR_DEBUG_LEVEL == 2
; 1250 : #if _HAS_CXX20
; 1251 :         if (_STD is_constant_evaluated()) {
; 1252 :             _Assign_unlocked(_Right);
; 1253 :         } else
; 1254 : #endif // _HAS_CXX20
; 1255 :         {
; 1256 :             _Assign_locked(_Right);
; 1257 :         }
; 1258 : #else // ^^^ _ITERATOR_DEBUG_LEVEL == 2 / _ITERATOR_DEBUG_LEVEL != 2 vvv
; 1259 :         _Myproxy = _Right._Myproxy;
; 1260 : #endif // _ITERATOR_DEBUG_LEVEL != 2
; 1261 :         return *this;
; 1262 :     }
; 1263 : 
; 1264 : #if _ITERATOR_DEBUG_LEVEL == 2
; 1265 :     _CONSTEXPR20 ~_Iterator_base12() noexcept {
; 1266 : #if _HAS_CXX20
; 1267 :         if (_STD is_constant_evaluated()) {
; 1268 :             _Orphan_me_unlocked_v3();
; 1269 :         } else
; 1270 : #endif // _HAS_CXX20
; 1271 :         {
; 1272 :             _Orphan_me_locked_v3();
; 1273 :         }
; 1274 :     }
; 1275 : 
; 1276 :     _CONSTEXPR20 void _Adopt(const _Container_base12* _Parent) noexcept {
; 1277 : #if _HAS_CXX20
; 1278 :         if (_STD is_constant_evaluated()) {
; 1279 :             _Adopt_unlocked(_Parent);
; 1280 :         } else
; 1281 : #endif // _HAS_CXX20
; 1282 :         {
; 1283 :             _Adopt_locked(_Parent);
; 1284 :         }
; 1285 :     }
; 1286 : #else // ^^^ _ITERATOR_DEBUG_LEVEL == 2 / _ITERATOR_DEBUG_LEVEL != 2 vvv
; 1287 :     _CONSTEXPR20 void _Adopt(const _Container_base12* _Parent) noexcept {
; 1288 :         if (_Parent) { // have a parent, do adoption
; 1289 :             _Myproxy = _Parent->_Myproxy;
; 1290 :         } else { // no future parent, just disown current parent
; 1291 :             _Myproxy = nullptr;
; 1292 :         }
; 1293 :     }
; 1294 : #endif // _ITERATOR_DEBUG_LEVEL != 2
; 1295 : 
; 1296 :     _CONSTEXPR20 const _Container_base12* _Getcont() const noexcept {
; 1297 :         return _Myproxy ? _Myproxy->_Mycont : nullptr;
; 1298 :     }
; 1299 : 
; 1300 :     static constexpr bool _Unwrap_when_unverified = _ITERATOR_DEBUG_LEVEL == 0;
; 1301 : 
; 1302 :     mutable _Container_proxy* _Myproxy    = nullptr;

  0001b	48 8b 45 50	 mov	 rax, QWORD PTR this$[rbp]
  0001f	48 c7 00 00 00
	00 00		 mov	 QWORD PTR [rax], 0

; 1303 :     mutable _Iterator_base12* _Mynextiter = nullptr;

  00026	48 8b 45 50	 mov	 rax, QWORD PTR this$[rbp]
  0002a	48 c7 40 08 00
	00 00 00	 mov	 QWORD PTR [rax+8], 0

; 1242 :     _CONSTEXPR20 _Iterator_base12() noexcept = default; // construct orphaned iterator

  00032	48 8b 45 50	 mov	 rax, QWORD PTR this$[rbp]
  00036	48 8d 65 40	 lea	 rsp, QWORD PTR [rbp+64]
  0003a	5d		 pop	 rbp
  0003b	c3		 ret	 0
??0_Iterator_base12@std@@QEAA@XZ ENDP			; std::_Iterator_base12::_Iterator_base12
_TEXT	ENDS
; Function compile flags: /Odtp /ZI
; File C:\Program Files\Microsoft Visual Studio\2022\Preview\VC\Tools\MSVC\14.38.33030\include\xmemory
;	COMDAT ?_Orphan_all_locked_v3@_Container_base12@std@@AEAAXXZ
_TEXT	SEGMENT
_Lock$ = 0
this$ = 96
?_Orphan_all_locked_v3@_Container_base12@std@@AEAAXXZ PROC ; std::_Container_base12::_Orphan_all_locked_v3, COMDAT

; 1229 :     void _Orphan_all_locked_v3() noexcept {

$LN3:
  00000	48 89 4c 24 08	 mov	 QWORD PTR [rsp+8], rcx
  00005	55		 push	 rbp
  00006	48 83 ec 70	 sub	 rsp, 112		; 00000070H
  0000a	48 8d 6c 24 20	 lea	 rbp, QWORD PTR [rsp+32]
  0000f	48 8d 0d 00 00
	00 00		 lea	 rcx, OFFSET FLAT:__67F55BEA_xmemory
  00016	e8 00 00 00 00	 call	 __CheckForDebuggerJustMyCode

; 1230 :         _Lockit _Lock(_LOCK_DEBUG);

  0001b	ba 03 00 00 00	 mov	 edx, 3
  00020	48 8d 4d 00	 lea	 rcx, QWORD PTR _Lock$[rbp]
  00024	ff 15 00 00 00
	00		 call	 QWORD PTR __imp_??0_Lockit@std@@QEAA@H@Z

; 1231 :         _Orphan_all_unlocked_v3();

  0002a	48 8b 4d 60	 mov	 rcx, QWORD PTR this$[rbp]
  0002e	e8 00 00 00 00	 call	 ?_Orphan_all_unlocked_v3@_Container_base12@std@@AEAAXXZ ; std::_Container_base12::_Orphan_all_unlocked_v3

; 1232 :     }

  00033	48 8d 4d 00	 lea	 rcx, QWORD PTR _Lock$[rbp]
  00037	ff 15 00 00 00
	00		 call	 QWORD PTR __imp_??1_Lockit@std@@QEAA@XZ
  0003d	48 8d 65 50	 lea	 rsp, QWORD PTR [rbp+80]
  00041	5d		 pop	 rbp
  00042	c3		 ret	 0
?_Orphan_all_locked_v3@_Container_base12@std@@AEAAXXZ ENDP ; std::_Container_base12::_Orphan_all_locked_v3
_TEXT	ENDS
; Function compile flags: /Odtp /ZI
; File C:\Program Files\Microsoft Visual Studio\2022\Preview\VC\Tools\MSVC\14.38.33030\include\xmemory
;	COMDAT ?_Orphan_all_unlocked_v3@_Container_base12@std@@AEAAXXZ
_TEXT	SEGMENT
_Pnext$1 = 0
$T2 = 72
this$ = 96
?_Orphan_all_unlocked_v3@_Container_base12@std@@AEAAXXZ PROC ; std::_Container_base12::_Orphan_all_unlocked_v3, COMDAT

; 1369 : _CONSTEXPR20 void _Container_base12::_Orphan_all_unlocked_v3() noexcept {

$LN7:
  00000	48 89 4c 24 08	 mov	 QWORD PTR [rsp+8], rcx
  00005	55		 push	 rbp
  00006	48 83 ec 70	 sub	 rsp, 112		; 00000070H
  0000a	48 8d 6c 24 20	 lea	 rbp, QWORD PTR [rsp+32]
  0000f	48 8d 0d 00 00
	00 00		 lea	 rcx, OFFSET FLAT:__67F55BEA_xmemory
  00016	e8 00 00 00 00	 call	 __CheckForDebuggerJustMyCode

; 1370 :     if (!_Myproxy) { // no proxy, already done

  0001b	48 8b 45 60	 mov	 rax, QWORD PTR this$[rbp]
  0001f	48 83 38 00	 cmp	 QWORD PTR [rax], 0
  00023	75 02		 jne	 SHORT $LN5@Orphan_all

; 1371 :         return;

  00025	eb 45		 jmp	 SHORT $LN1@Orphan_all
$LN5@Orphan_all:

; 1372 :     }
; 1373 : 
; 1374 :     // proxy allocated, drain it
; 1375 :     for (auto _Pnext = _STD exchange(_Myproxy->_Myfirstiter, nullptr); _Pnext; _Pnext = _Pnext->_Mynextiter) {

  00027	48 c7 45 48 00
	00 00 00	 mov	 QWORD PTR $T2[rbp], 0
  0002f	48 8b 45 60	 mov	 rax, QWORD PTR this$[rbp]
  00033	48 8b 00	 mov	 rax, QWORD PTR [rax]
  00036	48 83 c0 08	 add	 rax, 8
  0003a	48 8d 55 48	 lea	 rdx, QWORD PTR $T2[rbp]
  0003e	48 8b c8	 mov	 rcx, rax
  00041	e8 00 00 00 00	 call	 ??$exchange@PEAU_Iterator_base12@std@@$$T@std@@YAPEAU_Iterator_base12@0@AEAPEAU10@$$QEA$$T@Z ; std::exchange<std::_Iterator_base12 *,std::nullptr_t>
  00046	48 89 45 00	 mov	 QWORD PTR _Pnext$1[rbp], rax
  0004a	eb 0c		 jmp	 SHORT $LN4@Orphan_all
$LN2@Orphan_all:
  0004c	48 8b 45 00	 mov	 rax, QWORD PTR _Pnext$1[rbp]
  00050	48 8b 40 08	 mov	 rax, QWORD PTR [rax+8]
  00054	48 89 45 00	 mov	 QWORD PTR _Pnext$1[rbp], rax
$LN4@Orphan_all:
  00058	48 83 7d 00 00	 cmp	 QWORD PTR _Pnext$1[rbp], 0
  0005d	74 0d		 je	 SHORT $LN1@Orphan_all

; 1376 :         _Pnext->_Myproxy = nullptr;

  0005f	48 8b 45 00	 mov	 rax, QWORD PTR _Pnext$1[rbp]
  00063	48 c7 00 00 00
	00 00		 mov	 QWORD PTR [rax], 0

; 1377 :     }

  0006a	eb e0		 jmp	 SHORT $LN2@Orphan_all
$LN1@Orphan_all:

; 1378 : }

  0006c	48 8d 65 50	 lea	 rsp, QWORD PTR [rbp+80]
  00070	5d		 pop	 rbp
  00071	c3		 ret	 0
?_Orphan_all_unlocked_v3@_Container_base12@std@@AEAAXXZ ENDP ; std::_Container_base12::_Orphan_all_unlocked_v3
_TEXT	ENDS
; Function compile flags: /Odtp /ZI
; File C:\Program Files\Microsoft Visual Studio\2022\Preview\VC\Tools\MSVC\14.38.33030\include\xmemory
;	COMDAT ?_Orphan_all@_Container_base12@std@@QEAAXXZ
_TEXT	SEGMENT
this$ = 80
?_Orphan_all@_Container_base12@std@@QEAAXXZ PROC	; std::_Container_base12::_Orphan_all, COMDAT

; 1380 : _CONSTEXPR20 void _Container_base12::_Orphan_all() noexcept {

$LN5:
  00000	48 89 4c 24 08	 mov	 QWORD PTR [rsp+8], rcx
  00005	55		 push	 rbp
  00006	48 83 ec 60	 sub	 rsp, 96			; 00000060H
  0000a	48 8d 6c 24 20	 lea	 rbp, QWORD PTR [rsp+32]
  0000f	48 8d 0d 00 00
	00 00		 lea	 rcx, OFFSET FLAT:__67F55BEA_xmemory
  00016	e8 00 00 00 00	 call	 __CheckForDebuggerJustMyCode

; 1381 : #if _ITERATOR_DEBUG_LEVEL == 2
; 1382 : #if _HAS_CXX20
; 1383 :     if (_STD is_constant_evaluated()) {

  0001b	e8 00 00 00 00	 call	 ?is_constant_evaluated@std@@YA_NXZ ; std::is_constant_evaluated
  00020	0f b6 c0	 movzx	 eax, al
  00023	85 c0		 test	 eax, eax
  00025	74 0b		 je	 SHORT $LN2@Orphan_all

; 1384 :         _Orphan_all_unlocked_v3();

  00027	48 8b 4d 50	 mov	 rcx, QWORD PTR this$[rbp]
  0002b	e8 00 00 00 00	 call	 ?_Orphan_all_unlocked_v3@_Container_base12@std@@AEAAXXZ ; std::_Container_base12::_Orphan_all_unlocked_v3

; 1385 :     } else

  00030	eb 09		 jmp	 SHORT $LN3@Orphan_all
$LN2@Orphan_all:

; 1386 : #endif // _HAS_CXX20
; 1387 :     {
; 1388 :         _Orphan_all_locked_v3();

  00032	48 8b 4d 50	 mov	 rcx, QWORD PTR this$[rbp]
  00036	e8 00 00 00 00	 call	 ?_Orphan_all_locked_v3@_Container_base12@std@@AEAAXXZ ; std::_Container_base12::_Orphan_all_locked_v3
$LN3@Orphan_all:

; 1389 :     }
; 1390 : #endif // _ITERATOR_DEBUG_LEVEL == 2
; 1391 : }

  0003b	48 8d 65 40	 lea	 rsp, QWORD PTR [rbp+64]
  0003f	5d		 pop	 rbp
  00040	c3		 ret	 0
?_Orphan_all@_Container_base12@std@@QEAAXXZ ENDP	; std::_Container_base12::_Orphan_all
_TEXT	ENDS
; Function compile flags: /Odtp /ZI
; File C:\Program Files\Microsoft Visual Studio\2022\Preview\VC\Tools\MSVC\14.38.33030\include\xmemory
;	COMDAT ?_Adjust_manually_vector_aligned@std@@YAXAEAPEAXAEA_K@Z
_TEXT	SEGMENT
_Ptr_user$ = 0
_Ptr_container$ = 8
_Min_back_shift$ = 16
_Back_shift$ = 24
_Ptr$ = 112
_Bytes$ = 120
?_Adjust_manually_vector_aligned@std@@YAXAEAPEAXAEA_K@Z PROC ; std::_Adjust_manually_vector_aligned, COMDAT

; 154  : inline void _Adjust_manually_vector_aligned(void*& _Ptr, size_t& _Bytes) {

$LN21:
  00000	48 89 54 24 10	 mov	 QWORD PTR [rsp+16], rdx
  00005	48 89 4c 24 08	 mov	 QWORD PTR [rsp+8], rcx
  0000a	55		 push	 rbp
  0000b	48 81 ec 90 00
	00 00		 sub	 rsp, 144		; 00000090H
  00012	48 8d 6c 24 30	 lea	 rbp, QWORD PTR [rsp+48]
  00017	48 8d 0d 00 00
	00 00		 lea	 rcx, OFFSET FLAT:__67F55BEA_xmemory
  0001e	e8 00 00 00 00	 call	 __CheckForDebuggerJustMyCode

; 155  :     // adjust parameters from _Allocate_manually_vector_aligned to pass to operator delete
; 156  :     _Bytes += _Non_user_size;

  00023	48 8b 45 78	 mov	 rax, QWORD PTR _Bytes$[rbp]
  00027	48 8b 00	 mov	 rax, QWORD PTR [rax]
  0002a	48 83 c0 2f	 add	 rax, 47			; 0000002fH
  0002e	48 8b 4d 78	 mov	 rcx, QWORD PTR _Bytes$[rbp]
  00032	48 89 01	 mov	 QWORD PTR [rcx], rax

; 157  : 
; 158  :     const uintptr_t* const _Ptr_user = static_cast<uintptr_t*>(_Ptr);

  00035	48 8b 45 70	 mov	 rax, QWORD PTR _Ptr$[rbp]
  00039	48 8b 00	 mov	 rax, QWORD PTR [rax]
  0003c	48 89 45 00	 mov	 QWORD PTR _Ptr_user$[rbp], rax

; 159  :     const uintptr_t _Ptr_container   = _Ptr_user[-1];

  00040	b8 08 00 00 00	 mov	 eax, 8
  00045	48 6b c0 ff	 imul	 rax, rax, -1
  00049	48 8b 4d 00	 mov	 rcx, QWORD PTR _Ptr_user$[rbp]
  0004d	48 8b 04 01	 mov	 rax, QWORD PTR [rcx+rax]
  00051	48 89 45 08	 mov	 QWORD PTR _Ptr_container$[rbp], rax
$LN4@Adjust_man:

; 160  : 
; 161  :     // If the following asserts, it likely means that we are performing
; 162  :     // an aligned delete on memory coming from an unaligned allocation.
; 163  :     _STL_ASSERT(_Ptr_user[-2] == _Big_allocation_sentinel, "invalid argument");

  00055	b8 08 00 00 00	 mov	 eax, 8
  0005a	48 6b c0 fe	 imul	 rax, rax, -2
  0005e	48 8b 4d 00	 mov	 rcx, QWORD PTR _Ptr_user$[rbp]
  00062	48 ba fa fa fa
	fa fa fa fa fa	 mov	 rdx, -361700864190383366 ; fafafafafafafafaH
  0006c	48 39 14 01	 cmp	 QWORD PTR [rcx+rax], rdx
  00070	75 02		 jne	 SHORT $LN14@Adjust_man
  00072	eb 77		 jmp	 SHORT $LN15@Adjust_man
$LN14@Adjust_man:
$LN7@Adjust_man:
  00074	8b 05 00 00 00
	00		 mov	 eax, DWORD PTR ?__LINE__Var@?0??_Adjust_manually_vector_aligned@std@@YAXAEAPEAXAEA_K@Z@4JA
  0007a	83 c0 09	 add	 eax, 9
  0007d	48 8d 0d 00 00
	00 00		 lea	 rcx, OFFSET FLAT:??_C@_0BB@FCMFBGOM@invalid?5argument@
  00084	48 89 4c 24 28	 mov	 QWORD PTR [rsp+40], rcx
  00089	48 8d 0d 00 00
	00 00		 lea	 rcx, OFFSET FLAT:??_C@_02DKCKIIND@?$CFs@
  00090	48 89 4c 24 20	 mov	 QWORD PTR [rsp+32], rcx
  00095	45 33 c9	 xor	 r9d, r9d
  00098	44 8b c0	 mov	 r8d, eax
  0009b	48 8d 15 00 00
	00 00		 lea	 rdx, OFFSET FLAT:??_C@_0GA@FLDGEGM@C?3?2Program?5Files?2Microsoft?5Visu@
  000a2	b9 02 00 00 00	 mov	 ecx, 2
  000a7	ff 15 00 00 00
	00		 call	 QWORD PTR __imp__CrtDbgReport
  000ad	83 f8 01	 cmp	 eax, 1
  000b0	75 03		 jne	 SHORT $LN19@Adjust_man
  000b2	cc		 int	 3
  000b3	33 c0		 xor	 eax, eax
$LN19@Adjust_man:
  000b5	8b 05 00 00 00
	00		 mov	 eax, DWORD PTR ?__LINE__Var@?0??_Adjust_manually_vector_aligned@std@@YAXAEAPEAXAEA_K@Z@4JA
  000bb	83 c0 09	 add	 eax, 9
  000be	48 c7 44 24 20
	00 00 00 00	 mov	 QWORD PTR [rsp+32], 0
  000c7	44 8b c8	 mov	 r9d, eax
  000ca	4c 8d 05 00 00
	00 00		 lea	 r8, OFFSET FLAT:??_C@_1MA@IKJDCOIC@?$AAC?$AA?3?$AA?2?$AAP?$AAr?$AAo?$AAg?$AAr?$AAa?$AAm?$AA?5?$AAF?$AAi?$AAl?$AAe@
  000d1	48 8d 15 00 00
	00 00		 lea	 rdx, OFFSET FLAT:??_C@_11LOCGONAA@@
  000d8	48 8d 0d 00 00
	00 00		 lea	 rcx, OFFSET FLAT:??_C@_1CG@JNLFBNGN@?$AA?$CC?$AAi?$AAn?$AAv?$AAa?$AAl?$AAi?$AAd?$AA?5?$AAa?$AAr?$AAg?$AAu?$AAm?$AAe@
  000df	ff 15 00 00 00
	00		 call	 QWORD PTR __imp__invalid_parameter
  000e5	33 c0		 xor	 eax, eax
  000e7	85 c0		 test	 eax, eax
  000e9	75 89		 jne	 SHORT $LN7@Adjust_man
$LN15@Adjust_man:
  000eb	33 c0		 xor	 eax, eax
  000ed	85 c0		 test	 eax, eax
  000ef	0f 85 60 ff ff
	ff		 jne	 $LN4@Adjust_man

; 164  : 
; 165  :     // Extra paranoia on aligned allocation/deallocation; ensure _Ptr_container is
; 166  :     // in range [_Min_back_shift, _Non_user_size]
; 167  : #ifdef _DEBUG
; 168  :     constexpr uintptr_t _Min_back_shift = 2 * sizeof(void*);

  000f5	48 c7 45 10 10
	00 00 00	 mov	 QWORD PTR _Min_back_shift$[rbp], 16

; 169  : #else // ^^^ _DEBUG / !_DEBUG vvv
; 170  :     constexpr uintptr_t _Min_back_shift = sizeof(void*);
; 171  : #endif // _DEBUG
; 172  :     const uintptr_t _Back_shift = reinterpret_cast<uintptr_t>(_Ptr) - _Ptr_container;

  000fd	48 8b 45 70	 mov	 rax, QWORD PTR _Ptr$[rbp]
  00101	48 8b 4d 08	 mov	 rcx, QWORD PTR _Ptr_container$[rbp]
  00105	48 8b 00	 mov	 rax, QWORD PTR [rax]
  00108	48 2b c1	 sub	 rax, rcx
  0010b	48 89 45 18	 mov	 QWORD PTR _Back_shift$[rbp], rax
$LN10@Adjust_man:

; 173  :     _STL_VERIFY(_Back_shift >= _Min_back_shift && _Back_shift <= _Non_user_size, "invalid argument");

  0010f	48 83 7d 18 10	 cmp	 QWORD PTR _Back_shift$[rbp], 16
  00114	72 09		 jb	 SHORT $LN16@Adjust_man
  00116	48 83 7d 18 2f	 cmp	 QWORD PTR _Back_shift$[rbp], 47 ; 0000002fH
  0011b	77 02		 ja	 SHORT $LN16@Adjust_man
  0011d	eb 77		 jmp	 SHORT $LN17@Adjust_man
$LN16@Adjust_man:
$LN13@Adjust_man:
  0011f	8b 05 00 00 00
	00		 mov	 eax, DWORD PTR ?__LINE__Var@?0??_Adjust_manually_vector_aligned@std@@YAXAEAPEAXAEA_K@Z@4JA
  00125	83 c0 13	 add	 eax, 19
  00128	48 8d 0d 00 00
	00 00		 lea	 rcx, OFFSET FLAT:??_C@_0BB@FCMFBGOM@invalid?5argument@
  0012f	48 89 4c 24 28	 mov	 QWORD PTR [rsp+40], rcx
  00134	48 8d 0d 00 00
	00 00		 lea	 rcx, OFFSET FLAT:??_C@_02DKCKIIND@?$CFs@
  0013b	48 89 4c 24 20	 mov	 QWORD PTR [rsp+32], rcx
  00140	45 33 c9	 xor	 r9d, r9d
  00143	44 8b c0	 mov	 r8d, eax
  00146	48 8d 15 00 00
	00 00		 lea	 rdx, OFFSET FLAT:??_C@_0GA@FLDGEGM@C?3?2Program?5Files?2Microsoft?5Visu@
  0014d	b9 02 00 00 00	 mov	 ecx, 2
  00152	ff 15 00 00 00
	00		 call	 QWORD PTR __imp__CrtDbgReport
  00158	83 f8 01	 cmp	 eax, 1
  0015b	75 03		 jne	 SHORT $LN20@Adjust_man
  0015d	cc		 int	 3
  0015e	33 c0		 xor	 eax, eax
$LN20@Adjust_man:
  00160	8b 05 00 00 00
	00		 mov	 eax, DWORD PTR ?__LINE__Var@?0??_Adjust_manually_vector_aligned@std@@YAXAEAPEAXAEA_K@Z@4JA
  00166	83 c0 13	 add	 eax, 19
  00169	48 c7 44 24 20
	00 00 00 00	 mov	 QWORD PTR [rsp+32], 0
  00172	44 8b c8	 mov	 r9d, eax
  00175	4c 8d 05 00 00
	00 00		 lea	 r8, OFFSET FLAT:??_C@_1MA@IKJDCOIC@?$AAC?$AA?3?$AA?2?$AAP?$AAr?$AAo?$AAg?$AAr?$AAa?$AAm?$AA?5?$AAF?$AAi?$AAl?$AAe@
  0017c	48 8d 15 00 00
	00 00		 lea	 rdx, OFFSET FLAT:??_C@_11LOCGONAA@@
  00183	48 8d 0d 00 00
	00 00		 lea	 rcx, OFFSET FLAT:??_C@_1CG@JNLFBNGN@?$AA?$CC?$AAi?$AAn?$AAv?$AAa?$AAl?$AAi?$AAd?$AA?5?$AAa?$AAr?$AAg?$AAu?$AAm?$AAe@
  0018a	ff 15 00 00 00
	00		 call	 QWORD PTR __imp__invalid_parameter
  00190	33 c0		 xor	 eax, eax
  00192	85 c0		 test	 eax, eax
  00194	75 89		 jne	 SHORT $LN13@Adjust_man
$LN17@Adjust_man:
  00196	33 c0		 xor	 eax, eax
  00198	85 c0		 test	 eax, eax
  0019a	0f 85 6f ff ff
	ff		 jne	 $LN10@Adjust_man

; 174  :     _Ptr = reinterpret_cast<void*>(_Ptr_container);

  001a0	48 8b 45 70	 mov	 rax, QWORD PTR _Ptr$[rbp]
  001a4	48 8b 4d 08	 mov	 rcx, QWORD PTR _Ptr_container$[rbp]
  001a8	48 89 08	 mov	 QWORD PTR [rax], rcx

; 175  : }

  001ab	48 8d 65 60	 lea	 rsp, QWORD PTR [rbp+96]
  001af	5d		 pop	 rbp
  001b0	c3		 ret	 0
?_Adjust_manually_vector_aligned@std@@YAXAEAPEAXAEA_K@Z ENDP ; std::_Adjust_manually_vector_aligned
_TEXT	ENDS
; Function compile flags: /Odtp /ZI
; File C:\Program Files\Microsoft Visual Studio\2022\Preview\VC\Tools\MSVC\14.38.33030\include\xmemory
;	COMDAT ?_Allocate@_Default_allocate_traits@std@@SAPEAX_K@Z
_TEXT	SEGMENT
_Bytes$ = 80
?_Allocate@_Default_allocate_traits@std@@SAPEAX_K@Z PROC ; std::_Default_allocate_traits::_Allocate, COMDAT

; 85   :         void* _Allocate(const size_t _Bytes) {

$LN3:
  00000	48 89 4c 24 08	 mov	 QWORD PTR [rsp+8], rcx
  00005	55		 push	 rbp
  00006	48 83 ec 60	 sub	 rsp, 96			; 00000060H
  0000a	48 8d 6c 24 20	 lea	 rbp, QWORD PTR [rsp+32]
  0000f	48 8d 0d 00 00
	00 00		 lea	 rcx, OFFSET FLAT:__67F55BEA_xmemory
  00016	e8 00 00 00 00	 call	 __CheckForDebuggerJustMyCode

; 86   :         return ::operator new(_Bytes);

  0001b	48 8b 4d 50	 mov	 rcx, QWORD PTR _Bytes$[rbp]
  0001f	e8 00 00 00 00	 call	 ??2@YAPEAX_K@Z		; operator new

; 87   :     }

  00024	48 8d 65 40	 lea	 rsp, QWORD PTR [rbp+64]
  00028	5d		 pop	 rbp
  00029	c3		 ret	 0
?_Allocate@_Default_allocate_traits@std@@SAPEAX_K@Z ENDP ; std::_Default_allocate_traits::_Allocate
_TEXT	ENDS
; Function compile flags: /Odtp /ZI
; File C:\Program Files\Microsoft Visual Studio\2022\Preview\VC\Tools\MSVC\14.38.33030\include\exception
;	COMDAT ?_Throw_bad_array_new_length@std@@YAXXZ
_TEXT	SEGMENT
$T1 = 64
?_Throw_bad_array_new_length@std@@YAXXZ PROC		; std::_Throw_bad_array_new_length, COMDAT

; 330  : [[noreturn]] inline void _Throw_bad_array_new_length() {

$LN3:
  00000	40 55		 push	 rbp
  00002	48 81 ec 80 00
	00 00		 sub	 rsp, 128		; 00000080H
  00009	48 8d 6c 24 20	 lea	 rbp, QWORD PTR [rsp+32]
  0000e	48 8d 0d 00 00
	00 00		 lea	 rcx, OFFSET FLAT:__2DED1E19_exception
  00015	e8 00 00 00 00	 call	 __CheckForDebuggerJustMyCode

; 331  :     _THROW(bad_array_new_length{});

  0001a	48 8d 4d 40	 lea	 rcx, QWORD PTR $T1[rbp]
  0001e	e8 00 00 00 00	 call	 ??0bad_array_new_length@std@@QEAA@XZ ; std::bad_array_new_length::bad_array_new_length
  00023	48 8d 15 00 00
	00 00		 lea	 rdx, OFFSET FLAT:_TI3?AVbad_array_new_length@std@@
  0002a	48 8d 4d 40	 lea	 rcx, QWORD PTR $T1[rbp]
  0002e	e8 00 00 00 00	 call	 _CxxThrowException
$LN2@Throw_bad_:

; 332  : }

  00033	48 8d 65 60	 lea	 rsp, QWORD PTR [rbp+96]
  00037	5d		 pop	 rbp
  00038	c3		 ret	 0
?_Throw_bad_array_new_length@std@@YAXXZ ENDP		; std::_Throw_bad_array_new_length
_TEXT	ENDS
; Function compile flags: /Odtp /ZI
;	COMDAT ??_Gbad_array_new_length@std@@UEAAPEAXI@Z
_TEXT	SEGMENT
this$ = 80
__flags$ = 88
??_Gbad_array_new_length@std@@UEAAPEAXI@Z PROC		; std::bad_array_new_length::`scalar deleting destructor', COMDAT
$LN4:
  00000	89 54 24 10	 mov	 DWORD PTR [rsp+16], edx
  00004	48 89 4c 24 08	 mov	 QWORD PTR [rsp+8], rcx
  00009	55		 push	 rbp
  0000a	48 83 ec 60	 sub	 rsp, 96			; 00000060H
  0000e	48 8d 6c 24 20	 lea	 rbp, QWORD PTR [rsp+32]
  00013	48 8b 4d 50	 mov	 rcx, QWORD PTR this$[rbp]
  00017	e8 00 00 00 00	 call	 ??1bad_array_new_length@std@@UEAA@XZ
  0001c	8b 45 58	 mov	 eax, DWORD PTR __flags$[rbp]
  0001f	83 e0 01	 and	 eax, 1
  00022	85 c0		 test	 eax, eax
  00024	74 0e		 je	 SHORT $LN2@scalar
  00026	ba 18 00 00 00	 mov	 edx, 24
  0002b	48 8b 4d 50	 mov	 rcx, QWORD PTR this$[rbp]
  0002f	e8 00 00 00 00	 call	 ??3@YAXPEAX_K@Z		; operator delete
$LN2@scalar:
  00034	48 8b 45 50	 mov	 rax, QWORD PTR this$[rbp]
  00038	48 8d 65 40	 lea	 rsp, QWORD PTR [rbp+64]
  0003c	5d		 pop	 rbp
  0003d	c3		 ret	 0
??_Gbad_array_new_length@std@@UEAAPEAXI@Z ENDP		; std::bad_array_new_length::`scalar deleting destructor'
_TEXT	ENDS
; Function compile flags: /Odtp /ZI
;	COMDAT ??0bad_array_new_length@std@@QEAA@AEBV01@@Z
_TEXT	SEGMENT
this$ = 80
__that$ = 88
??0bad_array_new_length@std@@QEAA@AEBV01@@Z PROC	; std::bad_array_new_length::bad_array_new_length, COMDAT
$LN3:
  00000	48 89 54 24 10	 mov	 QWORD PTR [rsp+16], rdx
  00005	48 89 4c 24 08	 mov	 QWORD PTR [rsp+8], rcx
  0000a	55		 push	 rbp
  0000b	48 83 ec 60	 sub	 rsp, 96			; 00000060H
  0000f	48 8d 6c 24 20	 lea	 rbp, QWORD PTR [rsp+32]
  00014	48 8b 55 58	 mov	 rdx, QWORD PTR __that$[rbp]
  00018	48 8b 4d 50	 mov	 rcx, QWORD PTR this$[rbp]
  0001c	e8 00 00 00 00	 call	 ??0bad_alloc@std@@QEAA@AEBV01@@Z
  00021	48 8b 45 50	 mov	 rax, QWORD PTR this$[rbp]
  00025	48 8d 0d 00 00
	00 00		 lea	 rcx, OFFSET FLAT:??_7bad_array_new_length@std@@6B@
  0002c	48 89 08	 mov	 QWORD PTR [rax], rcx
  0002f	48 8b 45 50	 mov	 rax, QWORD PTR this$[rbp]
  00033	48 8d 65 40	 lea	 rsp, QWORD PTR [rbp+64]
  00037	5d		 pop	 rbp
  00038	c3		 ret	 0
??0bad_array_new_length@std@@QEAA@AEBV01@@Z ENDP	; std::bad_array_new_length::bad_array_new_length
_TEXT	ENDS
; Function compile flags: /Odtp /ZI
;	COMDAT ??1bad_array_new_length@std@@UEAA@XZ
_TEXT	SEGMENT
this$ = 80
??1bad_array_new_length@std@@UEAA@XZ PROC		; std::bad_array_new_length::~bad_array_new_length, COMDAT
$LN3:
  00000	48 89 4c 24 08	 mov	 QWORD PTR [rsp+8], rcx
  00005	55		 push	 rbp
  00006	48 83 ec 60	 sub	 rsp, 96			; 00000060H
  0000a	48 8d 6c 24 20	 lea	 rbp, QWORD PTR [rsp+32]
  0000f	48 8b 4d 50	 mov	 rcx, QWORD PTR this$[rbp]
  00013	e8 00 00 00 00	 call	 ??1bad_alloc@std@@UEAA@XZ
  00018	48 8d 65 40	 lea	 rsp, QWORD PTR [rbp+64]
  0001c	5d		 pop	 rbp
  0001d	c3		 ret	 0
??1bad_array_new_length@std@@UEAA@XZ ENDP		; std::bad_array_new_length::~bad_array_new_length
_TEXT	ENDS
; Function compile flags: /Odtp /ZI
; File C:\Program Files\Microsoft Visual Studio\2022\Preview\VC\Tools\MSVC\14.38.33030\include\vcruntime_exception.h
;	COMDAT ??0bad_array_new_length@std@@QEAA@XZ
_TEXT	SEGMENT
this$ = 80
??0bad_array_new_length@std@@QEAA@XZ PROC		; std::bad_array_new_length::bad_array_new_length, COMDAT

; 141  :     {

$LN3:
  00000	48 89 4c 24 08	 mov	 QWORD PTR [rsp+8], rcx
  00005	55		 push	 rbp
  00006	48 83 ec 60	 sub	 rsp, 96			; 00000060H
  0000a	48 8d 6c 24 20	 lea	 rbp, QWORD PTR [rsp+32]
  0000f	48 8d 0d 00 00
	00 00		 lea	 rcx, OFFSET FLAT:__7280C444_vcruntime_exception@h
  00016	e8 00 00 00 00	 call	 __CheckForDebuggerJustMyCode

; 140  :         : bad_alloc("bad array new length")

  0001b	48 8d 15 00 00
	00 00		 lea	 rdx, OFFSET FLAT:??_C@_0BF@KINCDENJ@bad?5array?5new?5length@
  00022	48 8b 4d 50	 mov	 rcx, QWORD PTR this$[rbp]
  00026	e8 00 00 00 00	 call	 ??0bad_alloc@std@@AEAA@QEBD@Z ; std::bad_alloc::bad_alloc

; 141  :     {

  0002b	48 8b 45 50	 mov	 rax, QWORD PTR this$[rbp]
  0002f	48 8d 0d 00 00
	00 00		 lea	 rcx, OFFSET FLAT:??_7bad_array_new_length@std@@6B@
  00036	48 89 08	 mov	 QWORD PTR [rax], rcx

; 142  :     }

  00039	48 8b 45 50	 mov	 rax, QWORD PTR this$[rbp]
  0003d	48 8d 65 40	 lea	 rsp, QWORD PTR [rbp+64]
  00041	5d		 pop	 rbp
  00042	c3		 ret	 0
??0bad_array_new_length@std@@QEAA@XZ ENDP		; std::bad_array_new_length::bad_array_new_length
_TEXT	ENDS
; Function compile flags: /Odtp /ZI
;	COMDAT ??_Gbad_alloc@std@@UEAAPEAXI@Z
_TEXT	SEGMENT
this$ = 80
__flags$ = 88
??_Gbad_alloc@std@@UEAAPEAXI@Z PROC			; std::bad_alloc::`scalar deleting destructor', COMDAT
$LN4:
  00000	89 54 24 10	 mov	 DWORD PTR [rsp+16], edx
  00004	48 89 4c 24 08	 mov	 QWORD PTR [rsp+8], rcx
  00009	55		 push	 rbp
  0000a	48 83 ec 60	 sub	 rsp, 96			; 00000060H
  0000e	48 8d 6c 24 20	 lea	 rbp, QWORD PTR [rsp+32]
  00013	48 8b 4d 50	 mov	 rcx, QWORD PTR this$[rbp]
  00017	e8 00 00 00 00	 call	 ??1bad_alloc@std@@UEAA@XZ
  0001c	8b 45 58	 mov	 eax, DWORD PTR __flags$[rbp]
  0001f	83 e0 01	 and	 eax, 1
  00022	85 c0		 test	 eax, eax
  00024	74 0e		 je	 SHORT $LN2@scalar
  00026	ba 18 00 00 00	 mov	 edx, 24
  0002b	48 8b 4d 50	 mov	 rcx, QWORD PTR this$[rbp]
  0002f	e8 00 00 00 00	 call	 ??3@YAXPEAX_K@Z		; operator delete
$LN2@scalar:
  00034	48 8b 45 50	 mov	 rax, QWORD PTR this$[rbp]
  00038	48 8d 65 40	 lea	 rsp, QWORD PTR [rbp+64]
  0003c	5d		 pop	 rbp
  0003d	c3		 ret	 0
??_Gbad_alloc@std@@UEAAPEAXI@Z ENDP			; std::bad_alloc::`scalar deleting destructor'
_TEXT	ENDS
; Function compile flags: /Odtp /ZI
;	COMDAT ??0bad_alloc@std@@QEAA@AEBV01@@Z
_TEXT	SEGMENT
this$ = 80
__that$ = 88
??0bad_alloc@std@@QEAA@AEBV01@@Z PROC			; std::bad_alloc::bad_alloc, COMDAT
$LN3:
  00000	48 89 54 24 10	 mov	 QWORD PTR [rsp+16], rdx
  00005	48 89 4c 24 08	 mov	 QWORD PTR [rsp+8], rcx
  0000a	55		 push	 rbp
  0000b	48 83 ec 60	 sub	 rsp, 96			; 00000060H
  0000f	48 8d 6c 24 20	 lea	 rbp, QWORD PTR [rsp+32]
  00014	48 8b 55 58	 mov	 rdx, QWORD PTR __that$[rbp]
  00018	48 8b 4d 50	 mov	 rcx, QWORD PTR this$[rbp]
  0001c	e8 00 00 00 00	 call	 ??0exception@std@@QEAA@AEBV01@@Z ; std::exception::exception
  00021	48 8b 45 50	 mov	 rax, QWORD PTR this$[rbp]
  00025	48 8d 0d 00 00
	00 00		 lea	 rcx, OFFSET FLAT:??_7bad_alloc@std@@6B@
  0002c	48 89 08	 mov	 QWORD PTR [rax], rcx
  0002f	48 8b 45 50	 mov	 rax, QWORD PTR this$[rbp]
  00033	48 8d 65 40	 lea	 rsp, QWORD PTR [rbp+64]
  00037	5d		 pop	 rbp
  00038	c3		 ret	 0
??0bad_alloc@std@@QEAA@AEBV01@@Z ENDP			; std::bad_alloc::bad_alloc
_TEXT	ENDS
; Function compile flags: /Odtp /ZI
;	COMDAT ??1bad_alloc@std@@UEAA@XZ
_TEXT	SEGMENT
this$ = 80
??1bad_alloc@std@@UEAA@XZ PROC				; std::bad_alloc::~bad_alloc, COMDAT
$LN3:
  00000	48 89 4c 24 08	 mov	 QWORD PTR [rsp+8], rcx
  00005	55		 push	 rbp
  00006	48 83 ec 60	 sub	 rsp, 96			; 00000060H
  0000a	48 8d 6c 24 20	 lea	 rbp, QWORD PTR [rsp+32]
  0000f	48 8b 4d 50	 mov	 rcx, QWORD PTR this$[rbp]
  00013	e8 00 00 00 00	 call	 ??1exception@std@@UEAA@XZ ; std::exception::~exception
  00018	48 8d 65 40	 lea	 rsp, QWORD PTR [rbp+64]
  0001c	5d		 pop	 rbp
  0001d	c3		 ret	 0
??1bad_alloc@std@@UEAA@XZ ENDP				; std::bad_alloc::~bad_alloc
_TEXT	ENDS
; Function compile flags: /Odtp /ZI
; File C:\Program Files\Microsoft Visual Studio\2022\Preview\VC\Tools\MSVC\14.38.33030\include\vcruntime_exception.h
;	COMDAT ??0bad_alloc@std@@AEAA@QEBD@Z
_TEXT	SEGMENT
this$ = 80
_Message$ = 88
??0bad_alloc@std@@AEAA@QEBD@Z PROC			; std::bad_alloc::bad_alloc, COMDAT

; 130  :     {

$LN3:
  00000	48 89 54 24 10	 mov	 QWORD PTR [rsp+16], rdx
  00005	48 89 4c 24 08	 mov	 QWORD PTR [rsp+8], rcx
  0000a	55		 push	 rbp
  0000b	48 83 ec 60	 sub	 rsp, 96			; 00000060H
  0000f	48 8d 6c 24 20	 lea	 rbp, QWORD PTR [rsp+32]
  00014	48 8d 0d 00 00
	00 00		 lea	 rcx, OFFSET FLAT:__7280C444_vcruntime_exception@h
  0001b	e8 00 00 00 00	 call	 __CheckForDebuggerJustMyCode

; 129  :         : exception(_Message, 1)

  00020	41 b8 01 00 00
	00		 mov	 r8d, 1
  00026	48 8b 55 58	 mov	 rdx, QWORD PTR _Message$[rbp]
  0002a	48 8b 4d 50	 mov	 rcx, QWORD PTR this$[rbp]
  0002e	e8 00 00 00 00	 call	 ??0exception@std@@QEAA@QEBDH@Z ; std::exception::exception

; 130  :     {

  00033	48 8b 45 50	 mov	 rax, QWORD PTR this$[rbp]
  00037	48 8d 0d 00 00
	00 00		 lea	 rcx, OFFSET FLAT:??_7bad_alloc@std@@6B@
  0003e	48 89 08	 mov	 QWORD PTR [rax], rcx

; 131  :     }

  00041	48 8b 45 50	 mov	 rax, QWORD PTR this$[rbp]
  00045	48 8d 65 40	 lea	 rsp, QWORD PTR [rbp+64]
  00049	5d		 pop	 rbp
  0004a	c3		 ret	 0
??0bad_alloc@std@@AEAA@QEBD@Z ENDP			; std::bad_alloc::bad_alloc
_TEXT	ENDS
; Function compile flags: /Odtp /ZI
;	COMDAT ??_Gexception@std@@UEAAPEAXI@Z
_TEXT	SEGMENT
this$ = 80
__flags$ = 88
??_Gexception@std@@UEAAPEAXI@Z PROC			; std::exception::`scalar deleting destructor', COMDAT
$LN4:
  00000	89 54 24 10	 mov	 DWORD PTR [rsp+16], edx
  00004	48 89 4c 24 08	 mov	 QWORD PTR [rsp+8], rcx
  00009	55		 push	 rbp
  0000a	48 83 ec 60	 sub	 rsp, 96			; 00000060H
  0000e	48 8d 6c 24 20	 lea	 rbp, QWORD PTR [rsp+32]
  00013	48 8b 4d 50	 mov	 rcx, QWORD PTR this$[rbp]
  00017	e8 00 00 00 00	 call	 ??1exception@std@@UEAA@XZ ; std::exception::~exception
  0001c	8b 45 58	 mov	 eax, DWORD PTR __flags$[rbp]
  0001f	83 e0 01	 and	 eax, 1
  00022	85 c0		 test	 eax, eax
  00024	74 0e		 je	 SHORT $LN2@scalar
  00026	ba 18 00 00 00	 mov	 edx, 24
  0002b	48 8b 4d 50	 mov	 rcx, QWORD PTR this$[rbp]
  0002f	e8 00 00 00 00	 call	 ??3@YAXPEAX_K@Z		; operator delete
$LN2@scalar:
  00034	48 8b 45 50	 mov	 rax, QWORD PTR this$[rbp]
  00038	48 8d 65 40	 lea	 rsp, QWORD PTR [rbp+64]
  0003c	5d		 pop	 rbp
  0003d	c3		 ret	 0
??_Gexception@std@@UEAAPEAXI@Z ENDP			; std::exception::`scalar deleting destructor'
_TEXT	ENDS
; Function compile flags: /Odtp /ZI
; File C:\Program Files\Microsoft Visual Studio\2022\Preview\VC\Tools\MSVC\14.38.33030\include\vcruntime_exception.h
;	COMDAT ?what@exception@std@@UEBAPEBDXZ
_TEXT	SEGMENT
tv69 = 64
this$ = 96
?what@exception@std@@UEBAPEBDXZ PROC			; std::exception::what, COMDAT

; 94   :     {

$LN5:
  00000	48 89 4c 24 08	 mov	 QWORD PTR [rsp+8], rcx
  00005	55		 push	 rbp
  00006	48 83 ec 70	 sub	 rsp, 112		; 00000070H
  0000a	48 8d 6c 24 20	 lea	 rbp, QWORD PTR [rsp+32]
  0000f	48 8d 0d 00 00
	00 00		 lea	 rcx, OFFSET FLAT:__7280C444_vcruntime_exception@h
  00016	e8 00 00 00 00	 call	 __CheckForDebuggerJustMyCode

; 95   :         return _Data._What ? _Data._What : "Unknown exception";

  0001b	48 8b 45 60	 mov	 rax, QWORD PTR this$[rbp]
  0001f	48 83 78 08 00	 cmp	 QWORD PTR [rax+8], 0
  00024	74 0e		 je	 SHORT $LN3@what
  00026	48 8b 45 60	 mov	 rax, QWORD PTR this$[rbp]
  0002a	48 8b 40 08	 mov	 rax, QWORD PTR [rax+8]
  0002e	48 89 45 40	 mov	 QWORD PTR tv69[rbp], rax
  00032	eb 0b		 jmp	 SHORT $LN4@what
$LN3@what:
  00034	48 8d 05 00 00
	00 00		 lea	 rax, OFFSET FLAT:??_C@_0BC@EOODALEL@Unknown?5exception@
  0003b	48 89 45 40	 mov	 QWORD PTR tv69[rbp], rax
$LN4@what:
  0003f	48 8b 45 40	 mov	 rax, QWORD PTR tv69[rbp]

; 96   :     }

  00043	48 8d 65 50	 lea	 rsp, QWORD PTR [rbp+80]
  00047	5d		 pop	 rbp
  00048	c3		 ret	 0
?what@exception@std@@UEBAPEBDXZ ENDP			; std::exception::what
_TEXT	ENDS
; Function compile flags: /Odtp /ZI
; File C:\Program Files\Microsoft Visual Studio\2022\Preview\VC\Tools\MSVC\14.38.33030\include\vcruntime_exception.h
;	COMDAT ??1exception@std@@UEAA@XZ
_TEXT	SEGMENT
this$ = 80
??1exception@std@@UEAA@XZ PROC				; std::exception::~exception, COMDAT

; 89   :     {

$LN3:
  00000	48 89 4c 24 08	 mov	 QWORD PTR [rsp+8], rcx
  00005	55		 push	 rbp
  00006	48 83 ec 60	 sub	 rsp, 96			; 00000060H
  0000a	48 8d 6c 24 20	 lea	 rbp, QWORD PTR [rsp+32]
  0000f	48 8d 0d 00 00
	00 00		 lea	 rcx, OFFSET FLAT:__7280C444_vcruntime_exception@h
  00016	e8 00 00 00 00	 call	 __CheckForDebuggerJustMyCode
  0001b	48 8b 45 50	 mov	 rax, QWORD PTR this$[rbp]
  0001f	48 8d 0d 00 00
	00 00		 lea	 rcx, OFFSET FLAT:??_7exception@std@@6B@
  00026	48 89 08	 mov	 QWORD PTR [rax], rcx

; 90   :         __std_exception_destroy(&_Data);

  00029	48 8b 45 50	 mov	 rax, QWORD PTR this$[rbp]
  0002d	48 83 c0 08	 add	 rax, 8
  00031	48 8b c8	 mov	 rcx, rax
  00034	e8 00 00 00 00	 call	 __std_exception_destroy

; 91   :     }

  00039	48 8d 65 40	 lea	 rsp, QWORD PTR [rbp+64]
  0003d	5d		 pop	 rbp
  0003e	c3		 ret	 0
??1exception@std@@UEAA@XZ ENDP				; std::exception::~exception
_TEXT	ENDS
; Function compile flags: /Odtp /ZI
; File C:\Program Files\Microsoft Visual Studio\2022\Preview\VC\Tools\MSVC\14.38.33030\include\vcruntime_exception.h
;	COMDAT ??0exception@std@@QEAA@AEBV01@@Z
_TEXT	SEGMENT
this$ = 96
_Other$ = 104
??0exception@std@@QEAA@AEBV01@@Z PROC			; std::exception::exception, COMDAT

; 72   :     {

$LN3:
  00000	48 89 54 24 10	 mov	 QWORD PTR [rsp+16], rdx
  00005	48 89 4c 24 08	 mov	 QWORD PTR [rsp+8], rcx
  0000a	55		 push	 rbp
  0000b	57		 push	 rdi
  0000c	48 83 ec 68	 sub	 rsp, 104		; 00000068H
  00010	48 8d 6c 24 20	 lea	 rbp, QWORD PTR [rsp+32]
  00015	48 8d 0d 00 00
	00 00		 lea	 rcx, OFFSET FLAT:__7280C444_vcruntime_exception@h
  0001c	e8 00 00 00 00	 call	 __CheckForDebuggerJustMyCode
  00021	48 8b 45 60	 mov	 rax, QWORD PTR this$[rbp]
  00025	48 8d 0d 00 00
	00 00		 lea	 rcx, OFFSET FLAT:??_7exception@std@@6B@
  0002c	48 89 08	 mov	 QWORD PTR [rax], rcx

; 71   :         : _Data()

  0002f	48 8b 45 60	 mov	 rax, QWORD PTR this$[rbp]
  00033	48 83 c0 08	 add	 rax, 8
  00037	48 8b f8	 mov	 rdi, rax
  0003a	33 c0		 xor	 eax, eax
  0003c	b9 10 00 00 00	 mov	 ecx, 16
  00041	f3 aa		 rep stosb

; 73   :         __std_exception_copy(&_Other._Data, &_Data);

  00043	48 8b 45 60	 mov	 rax, QWORD PTR this$[rbp]
  00047	48 83 c0 08	 add	 rax, 8
  0004b	48 8b 4d 68	 mov	 rcx, QWORD PTR _Other$[rbp]
  0004f	48 83 c1 08	 add	 rcx, 8
  00053	48 8b d0	 mov	 rdx, rax
  00056	e8 00 00 00 00	 call	 __std_exception_copy

; 74   :     }

  0005b	48 8b 45 60	 mov	 rax, QWORD PTR this$[rbp]
  0005f	48 8d 65 48	 lea	 rsp, QWORD PTR [rbp+72]
  00063	5f		 pop	 rdi
  00064	5d		 pop	 rbp
  00065	c3		 ret	 0
??0exception@std@@QEAA@AEBV01@@Z ENDP			; std::exception::exception
_TEXT	ENDS
; Function compile flags: /Odtp /ZI
; File C:\Program Files\Microsoft Visual Studio\2022\Preview\VC\Tools\MSVC\14.38.33030\include\vcruntime_exception.h
;	COMDAT ??0exception@std@@QEAA@QEBDH@Z
_TEXT	SEGMENT
this$ = 96
_Message$ = 104
__formal$ = 112
??0exception@std@@QEAA@QEBDH@Z PROC			; std::exception::exception, COMDAT

; 66   :     {

$LN3:
  00000	44 89 44 24 18	 mov	 DWORD PTR [rsp+24], r8d
  00005	48 89 54 24 10	 mov	 QWORD PTR [rsp+16], rdx
  0000a	48 89 4c 24 08	 mov	 QWORD PTR [rsp+8], rcx
  0000f	55		 push	 rbp
  00010	57		 push	 rdi
  00011	48 83 ec 68	 sub	 rsp, 104		; 00000068H
  00015	48 8d 6c 24 20	 lea	 rbp, QWORD PTR [rsp+32]
  0001a	48 8d 0d 00 00
	00 00		 lea	 rcx, OFFSET FLAT:__7280C444_vcruntime_exception@h
  00021	e8 00 00 00 00	 call	 __CheckForDebuggerJustMyCode
  00026	48 8b 45 60	 mov	 rax, QWORD PTR this$[rbp]
  0002a	48 8d 0d 00 00
	00 00		 lea	 rcx, OFFSET FLAT:??_7exception@std@@6B@
  00031	48 89 08	 mov	 QWORD PTR [rax], rcx

; 65   :         : _Data()

  00034	48 8b 45 60	 mov	 rax, QWORD PTR this$[rbp]
  00038	48 83 c0 08	 add	 rax, 8
  0003c	48 8b f8	 mov	 rdi, rax
  0003f	33 c0		 xor	 eax, eax
  00041	b9 10 00 00 00	 mov	 ecx, 16
  00046	f3 aa		 rep stosb

; 67   :         _Data._What = _Message;

  00048	48 8b 45 60	 mov	 rax, QWORD PTR this$[rbp]
  0004c	48 8b 4d 68	 mov	 rcx, QWORD PTR _Message$[rbp]
  00050	48 89 48 08	 mov	 QWORD PTR [rax+8], rcx

; 68   :     }

  00054	48 8b 45 60	 mov	 rax, QWORD PTR this$[rbp]
  00058	48 8d 65 48	 lea	 rsp, QWORD PTR [rbp+72]
  0005c	5f		 pop	 rdi
  0005d	5d		 pop	 rbp
  0005e	c3		 ret	 0
??0exception@std@@QEAA@QEBDH@Z ENDP			; std::exception::exception
_TEXT	ENDS
; Function compile flags: /Odtp /ZI
; File C:\Program Files\Microsoft Visual Studio\2022\Preview\VC\Tools\MSVC\14.38.33030\include\limits
;	COMDAT ?max@?$numeric_limits@_J@std@@SA_JXZ
_TEXT	SEGMENT
?max@?$numeric_limits@_J@std@@SA_JXZ PROC		; std::numeric_limits<__int64>::max, COMDAT

; 635  :     _NODISCARD static constexpr long long(max)() noexcept {

$LN3:
  00000	40 55		 push	 rbp
  00002	48 83 ec 60	 sub	 rsp, 96			; 00000060H
  00006	48 8d 6c 24 20	 lea	 rbp, QWORD PTR [rsp+32]
  0000b	48 8d 0d 00 00
	00 00		 lea	 rcx, OFFSET FLAT:__595ABB90_limits
  00012	e8 00 00 00 00	 call	 __CheckForDebuggerJustMyCode

; 636  :         return LLONG_MAX;

  00017	48 b8 ff ff ff
	ff ff ff ff 7f	 mov	 rax, 9223372036854775807 ; 7fffffffffffffffH

; 637  :     }

  00021	48 8d 65 40	 lea	 rsp, QWORD PTR [rbp+64]
  00025	5d		 pop	 rbp
  00026	c3		 ret	 0
?max@?$numeric_limits@_J@std@@SA_JXZ ENDP		; std::numeric_limits<__int64>::max
_TEXT	ENDS
; Function compile flags: /Odtp /ZI
; File C:\Program Files\Microsoft Visual Studio\2022\Preview\VC\Tools\MSVC\14.38.33030\include\xtr1common
;	COMDAT ?is_constant_evaluated@std@@YA_NXZ
_TEXT	SEGMENT
?is_constant_evaluated@std@@YA_NXZ PROC			; std::is_constant_evaluated, COMDAT

; 178  : _EXPORT_STD _NODISCARD constexpr bool is_constant_evaluated() noexcept {

$LN3:
  00000	40 55		 push	 rbp
  00002	48 83 ec 60	 sub	 rsp, 96			; 00000060H
  00006	48 8d 6c 24 20	 lea	 rbp, QWORD PTR [rsp+32]
  0000b	48 8d 0d 00 00
	00 00		 lea	 rcx, OFFSET FLAT:__9A2CA802_xtr1common
  00012	e8 00 00 00 00	 call	 __CheckForDebuggerJustMyCode

; 179  :     return __builtin_is_constant_evaluated();

  00017	32 c0		 xor	 al, al

; 180  : }

  00019	48 8d 65 40	 lea	 rsp, QWORD PTR [rbp+64]
  0001d	5d		 pop	 rbp
  0001e	c3		 ret	 0
?is_constant_evaluated@std@@YA_NXZ ENDP			; std::is_constant_evaluated
_TEXT	ENDS
; Function compile flags: /Odtp /ZI
;	COMDAT ??_E?$ComPtr@UIUnknown@@@WRL@Microsoft@@QEAAPEAXI@Z
_TEXT	SEGMENT
this$ = 80
__flags$ = 88
??_E?$ComPtr@UIUnknown@@@WRL@Microsoft@@QEAAPEAXI@Z PROC ; Microsoft::WRL::ComPtr<IUnknown>::`vector deleting destructor', COMDAT
$LN6:
  00000	89 54 24 10	 mov	 DWORD PTR [rsp+16], edx
  00004	48 89 4c 24 08	 mov	 QWORD PTR [rsp+8], rcx
  00009	55		 push	 rbp
  0000a	48 83 ec 60	 sub	 rsp, 96			; 00000060H
  0000e	48 8d 6c 24 20	 lea	 rbp, QWORD PTR [rsp+32]
  00013	8b 45 58	 mov	 eax, DWORD PTR __flags$[rbp]
  00016	83 e0 02	 and	 eax, 2
  00019	85 c0		 test	 eax, eax
  0001b	74 51		 je	 SHORT $LN2@vector
  0001d	4c 8d 0d 00 00
	00 00		 lea	 r9, OFFSET FLAT:??1?$ComPtr@UIUnknown@@@WRL@Microsoft@@QEAA@XZ ; Microsoft::WRL::ComPtr<IUnknown>::~ComPtr<IUnknown>
  00024	48 8b 45 50	 mov	 rax, QWORD PTR this$[rbp]
  00028	4c 8b 40 f8	 mov	 r8, QWORD PTR [rax-8]
  0002c	ba 08 00 00 00	 mov	 edx, 8
  00031	48 8b 4d 50	 mov	 rcx, QWORD PTR this$[rbp]
  00035	e8 00 00 00 00	 call	 ??_M@YAXPEAX_K1P6AX0@Z@Z
  0003a	8b 45 58	 mov	 eax, DWORD PTR __flags$[rbp]
  0003d	83 e0 01	 and	 eax, 1
  00040	85 c0		 test	 eax, eax
  00042	74 20		 je	 SHORT $LN3@vector
  00044	48 8b 45 50	 mov	 rax, QWORD PTR this$[rbp]
  00048	48 8b 40 f8	 mov	 rax, QWORD PTR [rax-8]
  0004c	48 8d 04 c5 08
	00 00 00	 lea	 rax, QWORD PTR [rax*8+8]
  00054	48 8b 4d 50	 mov	 rcx, QWORD PTR this$[rbp]
  00058	48 83 e9 08	 sub	 rcx, 8
  0005c	48 8b d0	 mov	 rdx, rax
  0005f	e8 00 00 00 00	 call	 ??_V@YAXPEAX_K@Z	; operator delete[]
$LN3@vector:
  00064	48 8b 45 50	 mov	 rax, QWORD PTR this$[rbp]
  00068	48 83 e8 08	 sub	 rax, 8
  0006c	eb 25		 jmp	 SHORT $LN1@vector
$LN2@vector:
  0006e	48 8b 4d 50	 mov	 rcx, QWORD PTR this$[rbp]
  00072	e8 00 00 00 00	 call	 ??1?$ComPtr@UIUnknown@@@WRL@Microsoft@@QEAA@XZ ; Microsoft::WRL::ComPtr<IUnknown>::~ComPtr<IUnknown>
  00077	8b 45 58	 mov	 eax, DWORD PTR __flags$[rbp]
  0007a	83 e0 01	 and	 eax, 1
  0007d	85 c0		 test	 eax, eax
  0007f	74 0e		 je	 SHORT $LN4@vector
  00081	ba 08 00 00 00	 mov	 edx, 8
  00086	48 8b 4d 50	 mov	 rcx, QWORD PTR this$[rbp]
  0008a	e8 00 00 00 00	 call	 ??3@YAXPEAX_K@Z		; operator delete
$LN4@vector:
  0008f	48 8b 45 50	 mov	 rax, QWORD PTR this$[rbp]
$LN1@vector:
  00093	48 8d 65 40	 lea	 rsp, QWORD PTR [rbp+64]
  00097	5d		 pop	 rbp
  00098	c3		 ret	 0
??_E?$ComPtr@UIUnknown@@@WRL@Microsoft@@QEAAPEAXI@Z ENDP ; Microsoft::WRL::ComPtr<IUnknown>::`vector deleting destructor'
_TEXT	ENDS
; Function compile flags: /Odtp /ZI
; File C:\Program Files (x86)\Windows Kits\10\Include\10.0.22621.0\winrt\wrl\client.h
;	COMDAT ??1?$ComPtr@UIUnknown@@@WRL@Microsoft@@QEAA@XZ
_TEXT	SEGMENT
this$ = 80
??1?$ComPtr@UIUnknown@@@WRL@Microsoft@@QEAA@XZ PROC	; Microsoft::WRL::ComPtr<IUnknown>::~ComPtr<IUnknown>, COMDAT

; 289  :     {

$LN3:
  00000	48 89 4c 24 08	 mov	 QWORD PTR [rsp+8], rcx
  00005	55		 push	 rbp
  00006	48 83 ec 60	 sub	 rsp, 96			; 00000060H
  0000a	48 8d 6c 24 20	 lea	 rbp, QWORD PTR [rsp+32]
  0000f	48 8d 0d 00 00
	00 00		 lea	 rcx, OFFSET FLAT:__F7423081_client@h
  00016	e8 00 00 00 00	 call	 __CheckForDebuggerJustMyCode

; 290  :         InternalRelease();

  0001b	48 8b 4d 50	 mov	 rcx, QWORD PTR this$[rbp]
  0001f	e8 00 00 00 00	 call	 ?InternalRelease@?$ComPtr@UIUnknown@@@WRL@Microsoft@@IEAAKXZ ; Microsoft::WRL::ComPtr<IUnknown>::InternalRelease

; 291  :     }

  00024	48 8d 65 40	 lea	 rsp, QWORD PTR [rbp+64]
  00028	5d		 pop	 rbp
  00029	c3		 ret	 0
??1?$ComPtr@UIUnknown@@@WRL@Microsoft@@QEAA@XZ ENDP	; Microsoft::WRL::ComPtr<IUnknown>::~ComPtr<IUnknown>
_TEXT	ENDS
; Function compile flags: /Odtp /ZI
; File C:\Program Files (x86)\Windows Kits\10\Include\10.0.22621.0\winrt\wrl\client.h
;	COMDAT ?InternalRelease@?$ComPtr@UIUnknown@@@WRL@Microsoft@@IEAAKXZ
_TEXT	SEGMENT
ref$ = 0
temp$ = 8
this$ = 96
?InternalRelease@?$ComPtr@UIUnknown@@@WRL@Microsoft@@IEAAKXZ PROC ; Microsoft::WRL::ComPtr<IUnknown>::InternalRelease, COMDAT

; 228  :     {

$LN4:
  00000	48 89 4c 24 08	 mov	 QWORD PTR [rsp+8], rcx
  00005	55		 push	 rbp
  00006	48 83 ec 70	 sub	 rsp, 112		; 00000070H
  0000a	48 8d 6c 24 20	 lea	 rbp, QWORD PTR [rsp+32]
  0000f	48 8d 0d 00 00
	00 00		 lea	 rcx, OFFSET FLAT:__F7423081_client@h
  00016	e8 00 00 00 00	 call	 __CheckForDebuggerJustMyCode

; 229  :         unsigned long ref = 0;

  0001b	c7 45 00 00 00
	00 00		 mov	 DWORD PTR ref$[rbp], 0

; 230  :         T* temp = ptr_;

  00022	48 8b 45 60	 mov	 rax, QWORD PTR this$[rbp]
  00026	48 8b 00	 mov	 rax, QWORD PTR [rax]
  00029	48 89 45 08	 mov	 QWORD PTR temp$[rbp], rax

; 231  : 
; 232  :         if (temp != nullptr)

  0002d	48 83 7d 08 00	 cmp	 QWORD PTR temp$[rbp], 0
  00032	74 1c		 je	 SHORT $LN2@InternalRe

; 233  :         {
; 234  :             ptr_ = nullptr;

  00034	48 8b 45 60	 mov	 rax, QWORD PTR this$[rbp]
  00038	48 c7 00 00 00
	00 00		 mov	 QWORD PTR [rax], 0

; 235  :             ref = temp->Release();

  0003f	48 8b 45 08	 mov	 rax, QWORD PTR temp$[rbp]
  00043	48 8b 00	 mov	 rax, QWORD PTR [rax]
  00046	48 8b 4d 08	 mov	 rcx, QWORD PTR temp$[rbp]
  0004a	ff 50 10	 call	 QWORD PTR [rax+16]
  0004d	89 45 00	 mov	 DWORD PTR ref$[rbp], eax
$LN2@InternalRe:

; 236  :         }
; 237  : 
; 238  :         return ref;

  00050	8b 45 00	 mov	 eax, DWORD PTR ref$[rbp]

; 239  :     }

  00053	48 8d 65 50	 lea	 rsp, QWORD PTR [rbp+80]
  00057	5d		 pop	 rbp
  00058	c3		 ret	 0
?InternalRelease@?$ComPtr@UIUnknown@@@WRL@Microsoft@@IEAAKXZ ENDP ; Microsoft::WRL::ComPtr<IUnknown>::InternalRelease
_TEXT	ENDS
; Function compile flags: /Odtp /ZI
; File C:\Program Files\Microsoft Visual Studio\2022\Preview\VC\Tools\MSVC\14.38.33030\include\vcruntime_new.h
;	COMDAT ??2@YAPEAX_KPEAX@Z
_TEXT	SEGMENT
_Size$ = 80
_Where$ = 88
??2@YAPEAX_KPEAX@Z PROC					; operator new, COMDAT

; 168  :     {

$LN3:
  00000	48 89 54 24 10	 mov	 QWORD PTR [rsp+16], rdx
  00005	48 89 4c 24 08	 mov	 QWORD PTR [rsp+8], rcx
  0000a	55		 push	 rbp
  0000b	48 83 ec 60	 sub	 rsp, 96			; 00000060H
  0000f	48 8d 6c 24 20	 lea	 rbp, QWORD PTR [rsp+32]
  00014	48 8d 0d 00 00
	00 00		 lea	 rcx, OFFSET FLAT:__84C50014_vcruntime_new@h
  0001b	e8 00 00 00 00	 call	 __CheckForDebuggerJustMyCode

; 169  :         (void)_Size;
; 170  :         return _Where;

  00020	48 8b 45 58	 mov	 rax, QWORD PTR _Where$[rbp]

; 171  :     }

  00024	48 8d 65 40	 lea	 rsp, QWORD PTR [rbp+64]
  00028	5d		 pop	 rbp
  00029	c3		 ret	 0
??2@YAPEAX_KPEAX@Z ENDP					; operator new
_TEXT	ENDS
END
