; Listing generated by Microsoft (R) Optimizing Compiler Version 19.38.33030.0 

include listing.inc

INCLUDELIB MSVCRTD
INCLUDELIB OLDNAMES

PUBLIC	?g_XMSinCoefficients0@DirectX@@3UXMVECTORF32@1@B ; DirectX::g_XMSinCoefficients0
PUBLIC	?g_XMSinCoefficients1@DirectX@@3UXMVECTORF32@1@B ; DirectX::g_XMSinCoefficients1
PUBLIC	?g_XMCosCoefficients0@DirectX@@3UXMVECTORF32@1@B ; DirectX::g_XMCosCoefficients0
PUBLIC	?g_XMCosCoefficients1@DirectX@@3UXMVECTORF32@1@B ; DirectX::g_XMCosCoefficients1
PUBLIC	?g_XMTanCoefficients0@DirectX@@3UXMVECTORF32@1@B ; DirectX::g_XMTanCoefficients0
PUBLIC	?g_XMTanCoefficients1@DirectX@@3UXMVECTORF32@1@B ; DirectX::g_XMTanCoefficients1
PUBLIC	?g_XMTanCoefficients2@DirectX@@3UXMVECTORF32@1@B ; DirectX::g_XMTanCoefficients2
PUBLIC	?g_XMArcCoefficients0@DirectX@@3UXMVECTORF32@1@B ; DirectX::g_XMArcCoefficients0
PUBLIC	?g_XMArcCoefficients1@DirectX@@3UXMVECTORF32@1@B ; DirectX::g_XMArcCoefficients1
PUBLIC	?g_XMATanCoefficients0@DirectX@@3UXMVECTORF32@1@B ; DirectX::g_XMATanCoefficients0
PUBLIC	?g_XMATanCoefficients1@DirectX@@3UXMVECTORF32@1@B ; DirectX::g_XMATanCoefficients1
PUBLIC	?g_XMATanEstCoefficients0@DirectX@@3UXMVECTORF32@1@B ; DirectX::g_XMATanEstCoefficients0
PUBLIC	?g_XMATanEstCoefficients1@DirectX@@3UXMVECTORF32@1@B ; DirectX::g_XMATanEstCoefficients1
PUBLIC	?g_XMTanEstCoefficients@DirectX@@3UXMVECTORF32@1@B ; DirectX::g_XMTanEstCoefficients
PUBLIC	?g_XMArcEstCoefficients@DirectX@@3UXMVECTORF32@1@B ; DirectX::g_XMArcEstCoefficients
PUBLIC	?g_XMPiConstants0@DirectX@@3UXMVECTORF32@1@B	; DirectX::g_XMPiConstants0
PUBLIC	?g_XMIdentityR0@DirectX@@3UXMVECTORF32@1@B	; DirectX::g_XMIdentityR0
PUBLIC	?g_XMIdentityR1@DirectX@@3UXMVECTORF32@1@B	; DirectX::g_XMIdentityR1
PUBLIC	?g_XMIdentityR2@DirectX@@3UXMVECTORF32@1@B	; DirectX::g_XMIdentityR2
PUBLIC	?g_XMIdentityR3@DirectX@@3UXMVECTORF32@1@B	; DirectX::g_XMIdentityR3
PUBLIC	?g_XMNegIdentityR0@DirectX@@3UXMVECTORF32@1@B	; DirectX::g_XMNegIdentityR0
PUBLIC	?g_XMNegIdentityR1@DirectX@@3UXMVECTORF32@1@B	; DirectX::g_XMNegIdentityR1
PUBLIC	?g_XMNegIdentityR2@DirectX@@3UXMVECTORF32@1@B	; DirectX::g_XMNegIdentityR2
PUBLIC	?g_XMNegIdentityR3@DirectX@@3UXMVECTORF32@1@B	; DirectX::g_XMNegIdentityR3
PUBLIC	?g_XMNegativeZero@DirectX@@3UXMVECTORU32@1@B	; DirectX::g_XMNegativeZero
PUBLIC	?g_XMNegate3@DirectX@@3UXMVECTORU32@1@B		; DirectX::g_XMNegate3
PUBLIC	?g_XMMaskXY@DirectX@@3UXMVECTORU32@1@B		; DirectX::g_XMMaskXY
PUBLIC	?g_XMMask3@DirectX@@3UXMVECTORU32@1@B		; DirectX::g_XMMask3
PUBLIC	?g_XMMaskX@DirectX@@3UXMVECTORU32@1@B		; DirectX::g_XMMaskX
PUBLIC	?g_XMMaskY@DirectX@@3UXMVECTORU32@1@B		; DirectX::g_XMMaskY
PUBLIC	?g_XMMaskZ@DirectX@@3UXMVECTORU32@1@B		; DirectX::g_XMMaskZ
PUBLIC	?g_XMMaskW@DirectX@@3UXMVECTORU32@1@B		; DirectX::g_XMMaskW
PUBLIC	?g_XMOne@DirectX@@3UXMVECTORF32@1@B		; DirectX::g_XMOne
PUBLIC	?g_XMOne3@DirectX@@3UXMVECTORF32@1@B		; DirectX::g_XMOne3
PUBLIC	?g_XMZero@DirectX@@3UXMVECTORF32@1@B		; DirectX::g_XMZero
PUBLIC	?g_XMTwo@DirectX@@3UXMVECTORF32@1@B		; DirectX::g_XMTwo
PUBLIC	?g_XMFour@DirectX@@3UXMVECTORF32@1@B		; DirectX::g_XMFour
PUBLIC	?g_XMSix@DirectX@@3UXMVECTORF32@1@B		; DirectX::g_XMSix
PUBLIC	?g_XMNegativeOne@DirectX@@3UXMVECTORF32@1@B	; DirectX::g_XMNegativeOne
PUBLIC	?g_XMOneHalf@DirectX@@3UXMVECTORF32@1@B		; DirectX::g_XMOneHalf
PUBLIC	?g_XMNegativeOneHalf@DirectX@@3UXMVECTORF32@1@B	; DirectX::g_XMNegativeOneHalf
PUBLIC	?g_XMNegativeTwoPi@DirectX@@3UXMVECTORF32@1@B	; DirectX::g_XMNegativeTwoPi
PUBLIC	?g_XMNegativePi@DirectX@@3UXMVECTORF32@1@B	; DirectX::g_XMNegativePi
PUBLIC	?g_XMHalfPi@DirectX@@3UXMVECTORF32@1@B		; DirectX::g_XMHalfPi
PUBLIC	?g_XMPi@DirectX@@3UXMVECTORF32@1@B		; DirectX::g_XMPi
PUBLIC	?g_XMReciprocalPi@DirectX@@3UXMVECTORF32@1@B	; DirectX::g_XMReciprocalPi
PUBLIC	?g_XMTwoPi@DirectX@@3UXMVECTORF32@1@B		; DirectX::g_XMTwoPi
PUBLIC	?g_XMReciprocalTwoPi@DirectX@@3UXMVECTORF32@1@B	; DirectX::g_XMReciprocalTwoPi
PUBLIC	?g_XMEpsilon@DirectX@@3UXMVECTORF32@1@B		; DirectX::g_XMEpsilon
PUBLIC	?g_XMInfinity@DirectX@@3UXMVECTORI32@1@B	; DirectX::g_XMInfinity
PUBLIC	?g_XMQNaN@DirectX@@3UXMVECTORI32@1@B		; DirectX::g_XMQNaN
PUBLIC	?g_XMQNaNTest@DirectX@@3UXMVECTORI32@1@B	; DirectX::g_XMQNaNTest
PUBLIC	?g_XMAbsMask@DirectX@@3UXMVECTORI32@1@B		; DirectX::g_XMAbsMask
PUBLIC	?g_XMFltMin@DirectX@@3UXMVECTORI32@1@B		; DirectX::g_XMFltMin
PUBLIC	?g_XMFltMax@DirectX@@3UXMVECTORI32@1@B		; DirectX::g_XMFltMax
PUBLIC	?g_XMNegOneMask@DirectX@@3UXMVECTORU32@1@B	; DirectX::g_XMNegOneMask
PUBLIC	?g_XMMaskA8R8G8B8@DirectX@@3UXMVECTORU32@1@B	; DirectX::g_XMMaskA8R8G8B8
PUBLIC	?g_XMFlipA8R8G8B8@DirectX@@3UXMVECTORU32@1@B	; DirectX::g_XMFlipA8R8G8B8
PUBLIC	?g_XMFixAA8R8G8B8@DirectX@@3UXMVECTORF32@1@B	; DirectX::g_XMFixAA8R8G8B8
PUBLIC	?g_XMNormalizeA8R8G8B8@DirectX@@3UXMVECTORF32@1@B ; DirectX::g_XMNormalizeA8R8G8B8
PUBLIC	?g_XMMaskA2B10G10R10@DirectX@@3UXMVECTORU32@1@B	; DirectX::g_XMMaskA2B10G10R10
PUBLIC	?g_XMFlipA2B10G10R10@DirectX@@3UXMVECTORU32@1@B	; DirectX::g_XMFlipA2B10G10R10
PUBLIC	?g_XMFixAA2B10G10R10@DirectX@@3UXMVECTORF32@1@B	; DirectX::g_XMFixAA2B10G10R10
PUBLIC	?g_XMNormalizeA2B10G10R10@DirectX@@3UXMVECTORF32@1@B ; DirectX::g_XMNormalizeA2B10G10R10
PUBLIC	?g_XMMaskX16Y16@DirectX@@3UXMVECTORU32@1@B	; DirectX::g_XMMaskX16Y16
PUBLIC	?g_XMFlipX16Y16@DirectX@@3UXMVECTORI32@1@B	; DirectX::g_XMFlipX16Y16
PUBLIC	?g_XMFixX16Y16@DirectX@@3UXMVECTORF32@1@B	; DirectX::g_XMFixX16Y16
PUBLIC	?g_XMNormalizeX16Y16@DirectX@@3UXMVECTORF32@1@B	; DirectX::g_XMNormalizeX16Y16
PUBLIC	?g_XMMaskX16Y16Z16W16@DirectX@@3UXMVECTORU32@1@B ; DirectX::g_XMMaskX16Y16Z16W16
PUBLIC	?g_XMFlipX16Y16Z16W16@DirectX@@3UXMVECTORI32@1@B ; DirectX::g_XMFlipX16Y16Z16W16
PUBLIC	?g_XMFixX16Y16Z16W16@DirectX@@3UXMVECTORF32@1@B	; DirectX::g_XMFixX16Y16Z16W16
PUBLIC	?g_XMNormalizeX16Y16Z16W16@DirectX@@3UXMVECTORF32@1@B ; DirectX::g_XMNormalizeX16Y16Z16W16
PUBLIC	?g_XMNoFraction@DirectX@@3UXMVECTORF32@1@B	; DirectX::g_XMNoFraction
PUBLIC	?g_XMMaskByte@DirectX@@3UXMVECTORI32@1@B	; DirectX::g_XMMaskByte
PUBLIC	?g_XMNegateX@DirectX@@3UXMVECTORF32@1@B		; DirectX::g_XMNegateX
PUBLIC	?g_XMNegateY@DirectX@@3UXMVECTORF32@1@B		; DirectX::g_XMNegateY
PUBLIC	?g_XMNegateZ@DirectX@@3UXMVECTORF32@1@B		; DirectX::g_XMNegateZ
PUBLIC	?g_XMNegateW@DirectX@@3UXMVECTORF32@1@B		; DirectX::g_XMNegateW
PUBLIC	?g_XMSelect0101@DirectX@@3UXMVECTORU32@1@B	; DirectX::g_XMSelect0101
PUBLIC	?g_XMSelect1010@DirectX@@3UXMVECTORU32@1@B	; DirectX::g_XMSelect1010
PUBLIC	?g_XMOneHalfMinusEpsilon@DirectX@@3UXMVECTORI32@1@B ; DirectX::g_XMOneHalfMinusEpsilon
PUBLIC	?g_XMSelect1000@DirectX@@3UXMVECTORU32@1@B	; DirectX::g_XMSelect1000
PUBLIC	?g_XMSelect1100@DirectX@@3UXMVECTORU32@1@B	; DirectX::g_XMSelect1100
PUBLIC	?g_XMSelect1110@DirectX@@3UXMVECTORU32@1@B	; DirectX::g_XMSelect1110
PUBLIC	?g_XMSelect1011@DirectX@@3UXMVECTORU32@1@B	; DirectX::g_XMSelect1011
PUBLIC	?g_XMFixupY16@DirectX@@3UXMVECTORF32@1@B	; DirectX::g_XMFixupY16
PUBLIC	?g_XMFixupY16W16@DirectX@@3UXMVECTORF32@1@B	; DirectX::g_XMFixupY16W16
PUBLIC	?g_XMFlipY@DirectX@@3UXMVECTORU32@1@B		; DirectX::g_XMFlipY
PUBLIC	?g_XMFlipZ@DirectX@@3UXMVECTORU32@1@B		; DirectX::g_XMFlipZ
PUBLIC	?g_XMFlipW@DirectX@@3UXMVECTORU32@1@B		; DirectX::g_XMFlipW
PUBLIC	?g_XMFlipYZ@DirectX@@3UXMVECTORU32@1@B		; DirectX::g_XMFlipYZ
PUBLIC	?g_XMFlipZW@DirectX@@3UXMVECTORU32@1@B		; DirectX::g_XMFlipZW
PUBLIC	?g_XMFlipYW@DirectX@@3UXMVECTORU32@1@B		; DirectX::g_XMFlipYW
PUBLIC	?g_XMMaskDec4@DirectX@@3UXMVECTORI32@1@B	; DirectX::g_XMMaskDec4
PUBLIC	?g_XMXorDec4@DirectX@@3UXMVECTORI32@1@B		; DirectX::g_XMXorDec4
PUBLIC	?g_XMAddUDec4@DirectX@@3UXMVECTORF32@1@B	; DirectX::g_XMAddUDec4
PUBLIC	?g_XMAddDec4@DirectX@@3UXMVECTORF32@1@B		; DirectX::g_XMAddDec4
PUBLIC	?g_XMMulDec4@DirectX@@3UXMVECTORF32@1@B		; DirectX::g_XMMulDec4
PUBLIC	?g_XMMaskByte4@DirectX@@3UXMVECTORU32@1@B	; DirectX::g_XMMaskByte4
PUBLIC	?g_XMXorByte4@DirectX@@3UXMVECTORI32@1@B	; DirectX::g_XMXorByte4
PUBLIC	?g_XMAddByte4@DirectX@@3UXMVECTORF32@1@B	; DirectX::g_XMAddByte4
PUBLIC	?g_XMFixUnsigned@DirectX@@3UXMVECTORF32@1@B	; DirectX::g_XMFixUnsigned
PUBLIC	?g_XMMaxInt@DirectX@@3UXMVECTORF32@1@B		; DirectX::g_XMMaxInt
PUBLIC	?g_XMMaxUInt@DirectX@@3UXMVECTORF32@1@B		; DirectX::g_XMMaxUInt
PUBLIC	?g_XMUnsignedFix@DirectX@@3UXMVECTORF32@1@B	; DirectX::g_XMUnsignedFix
PUBLIC	?g_XMsrgbScale@DirectX@@3UXMVECTORF32@1@B	; DirectX::g_XMsrgbScale
PUBLIC	?g_XMsrgbA@DirectX@@3UXMVECTORF32@1@B		; DirectX::g_XMsrgbA
PUBLIC	?g_XMsrgbA1@DirectX@@3UXMVECTORF32@1@B		; DirectX::g_XMsrgbA1
PUBLIC	?g_XMExponentBias@DirectX@@3UXMVECTORI32@1@B	; DirectX::g_XMExponentBias
PUBLIC	?g_XMSubnormalExponent@DirectX@@3UXMVECTORI32@1@B ; DirectX::g_XMSubnormalExponent
PUBLIC	?g_XMNumTrailing@DirectX@@3UXMVECTORI32@1@B	; DirectX::g_XMNumTrailing
PUBLIC	?g_XMMinNormal@DirectX@@3UXMVECTORI32@1@B	; DirectX::g_XMMinNormal
PUBLIC	?g_XMNegInfinity@DirectX@@3UXMVECTORU32@1@B	; DirectX::g_XMNegInfinity
PUBLIC	?g_XMNegQNaN@DirectX@@3UXMVECTORU32@1@B		; DirectX::g_XMNegQNaN
PUBLIC	?g_XMBin128@DirectX@@3UXMVECTORI32@1@B		; DirectX::g_XMBin128
PUBLIC	?g_XMBinNeg150@DirectX@@3UXMVECTORU32@1@B	; DirectX::g_XMBinNeg150
PUBLIC	?g_XM253@DirectX@@3UXMVECTORI32@1@B		; DirectX::g_XM253
PUBLIC	?g_XMExpEst1@DirectX@@3UXMVECTORF32@1@B		; DirectX::g_XMExpEst1
PUBLIC	?g_XMExpEst2@DirectX@@3UXMVECTORF32@1@B		; DirectX::g_XMExpEst2
PUBLIC	?g_XMExpEst3@DirectX@@3UXMVECTORF32@1@B		; DirectX::g_XMExpEst3
PUBLIC	?g_XMExpEst4@DirectX@@3UXMVECTORF32@1@B		; DirectX::g_XMExpEst4
PUBLIC	?g_XMExpEst5@DirectX@@3UXMVECTORF32@1@B		; DirectX::g_XMExpEst5
PUBLIC	?g_XMExpEst6@DirectX@@3UXMVECTORF32@1@B		; DirectX::g_XMExpEst6
PUBLIC	?g_XMExpEst7@DirectX@@3UXMVECTORF32@1@B		; DirectX::g_XMExpEst7
PUBLIC	?g_XMLogEst0@DirectX@@3UXMVECTORF32@1@B		; DirectX::g_XMLogEst0
PUBLIC	?g_XMLogEst1@DirectX@@3UXMVECTORF32@1@B		; DirectX::g_XMLogEst1
PUBLIC	?g_XMLogEst2@DirectX@@3UXMVECTORF32@1@B		; DirectX::g_XMLogEst2
PUBLIC	?g_XMLogEst3@DirectX@@3UXMVECTORF32@1@B		; DirectX::g_XMLogEst3
PUBLIC	?g_XMLogEst4@DirectX@@3UXMVECTORF32@1@B		; DirectX::g_XMLogEst4
PUBLIC	?g_XMLogEst5@DirectX@@3UXMVECTORF32@1@B		; DirectX::g_XMLogEst5
PUBLIC	?g_XMLogEst6@DirectX@@3UXMVECTORF32@1@B		; DirectX::g_XMLogEst6
PUBLIC	?g_XMLogEst7@DirectX@@3UXMVECTORF32@1@B		; DirectX::g_XMLogEst7
PUBLIC	?g_XMLgE@DirectX@@3UXMVECTORF32@1@B		; DirectX::g_XMLgE
PUBLIC	?g_XMInvLgE@DirectX@@3UXMVECTORF32@1@B		; DirectX::g_XMInvLgE
PUBLIC	?g_XMLg10@DirectX@@3UXMVECTORF32@1@B		; DirectX::g_XMLg10
PUBLIC	?g_XMInvLg10@DirectX@@3UXMVECTORF32@1@B		; DirectX::g_XMInvLg10
PUBLIC	?g_UByteMax@DirectX@@3UXMVECTORF32@1@B		; DirectX::g_UByteMax
PUBLIC	?g_ByteMin@DirectX@@3UXMVECTORF32@1@B		; DirectX::g_ByteMin
PUBLIC	?g_ByteMax@DirectX@@3UXMVECTORF32@1@B		; DirectX::g_ByteMax
PUBLIC	?g_ShortMin@DirectX@@3UXMVECTORF32@1@B		; DirectX::g_ShortMin
PUBLIC	?g_ShortMax@DirectX@@3UXMVECTORF32@1@B		; DirectX::g_ShortMax
PUBLIC	?g_UShortMax@DirectX@@3UXMVECTORF32@1@B		; DirectX::g_UShortMax
PUBLIC	__pobjectentryfirst
PUBLIC	__pobjectentrymid
PUBLIC	__pobjectentrylast
PUBLIC	?DefaultDelegateCheckMode@WRL@Microsoft@@3W4DelegateCheckMode@12@B ; Microsoft::WRL::DefaultDelegateCheckMode
msvcjmc	SEGMENT
__4A250794_concurrencysal@h DB 01H
__64794009_sal@h DB 01H
__A3E7195B_vadefs@h DB 01H
__978626E5_vcruntime@h DB 01H
__735B63F8_xkeycheck@h DB 01H
__142C9C9C_yvals_core@h DB 01H
__659C5902_limits@h DB 01H
__BE829F50_climits DB 01H
__9A2CA802_xtr1common DB 01H
__51ADDFC3_intrin0@inl@h DB 01H
__FC9FC984_intrin0@h DB 01H
__F3EA4CCC___msvc_bit_utils@hpp DB 01H
__DBEA773D_stdint@h DB 01H
__87335CDF_cstdint DB 01H
__1B0272D9_corecrt@h DB 01H
__BB16330F_corecrt_math@h DB 01H
__3BF2A406_math@h DB 01H
__45DED006_corecrt_malloc@h DB 01H
__13F5961F_stddef@h DB 01H
__FD6DBD68_corecrt_search@h DB 01H
__E2E33A61_corecrt_wstdlib@h DB 01H
__6E5ACABA_stdlib@h DB 01H
__3A6DBDA2_cstdlib DB 01H
__B9985323_float@h DB 01H
__3FBCF6F4_cfloat DB 01H
__44420885_corecrt_stdio_config@h DB 01H
__AB601D8D_corecrt_wstdio@h DB 01H
__C1EC35D3_stdio@h DB 01H
__4CF83D73_cstdio DB 01H
__61CC25A1_errno@h DB 01H
__4CB5F942_vcruntime_string@h DB 01H
__E4C945B4_corecrt_memcpy_s@h DB 01H
__EF1F6BBA_corecrt_wconio@h DB 01H
__74484FB3_corecrt_wctype@h DB 01H
__3D1D430C_corecrt_wdirect@h DB 01H
__8ECB7138_corecrt_share@h DB 01H
__DB7FEBA6_corecrt_wio@h DB 01H
__9A9F0068_corecrt_wprocess@h DB 01H
__6490AEC5_corecrt_wstring@h DB 01H
__369A9BC3_corecrt_wtime@h DB 01H
__CE789B9D_types@h DB 01H
__9901C817_stat@h DB 01H
__3FCAD62E_wchar@h DB 01H
__D673EB20_cwchar DB 01H
__595ABB90_limits DB 01H
__84C50014_vcruntime_new@h DB 01H
__7A6EC116_vcruntime_new_debug@h DB 01H
__935DC21B_crtdbg@h DB 01H
__E5B2708F_crtdefs@h DB 01H
__61229A4B_use_ansi@h DB 01H
__8C2D0B1D_yvals@h DB 01H
__9FA6670F_cstddef DB 01H
__3DF2A533_type_traits DB 01H
__FA77ED4C_malloc@h DB 01H
__89766DA4_corecrt_terminate@h DB 01H
__35BB339F_eh@h DB 01H
__7280C444_vcruntime_exception@h DB 01H
__2DED1E19_exception DB 01H
__A5D71DBC_new DB 01H
__27E192CF_xatomic@h DB 01H
__50E371A7_initializer_list DB 01H
__339AE60A_concepts DB 01H
__C3788713_compare DB 01H
__0D603829_utility DB 01H
__874288EA___msvc_iter_core@hpp DB 01H
__8EAFF484_corecrt_memory@h DB 01H
__E8295E1E_string@h DB 01H
__76FF1542_cstring DB 01H
__B7320FC0_xutility DB 01H
__A0E057FF_tuple DB 01H
__67F55BEA_xmemory DB 01H
__A0A2F5C0_xpolymorphic_allocator@h DB 01H
__C671E263___msvc_sanitizer_annotate_container@hpp DB 01H
__14F7CB70_vector DB 01H
__FBEF5BAE_Array@h DB 01H
__95B36E16_iosfwd DB 01H
__1326DD76_xstring DB 01H
__1EC467ED_ctype@h DB 01H
__4333DAD4_cctype DB 01H
__91273182_string DB 01H
__9024636E_DarkString@h DB 01H
__0ED14FEE_winpackagefamily@h DB 01H
__F92EF742_winapifamily@h DB 01H
__22E515EB_sdkddkver@h DB 01H
__73193115_excpt@h DB 01H
__EF35C9F2_stdarg@h DB 01H
__29F49F40_specstrings_undef@h DB 01H
__D0F42932_specstrings_strict@h DB 01H
__F00405FD_sdv_driverspecs@h DB 01H
__173E09CA_driverspecs@h DB 01H
__9A452361_specstrings@h DB 01H
__98517906_kernelspecs@h DB 01H
__D3497022_basetsd@h DB 01H
__7FCB5136_guiddef@h DB 01H
__FF8A9E11_pshpack4@h DB 01H
__D5438902_poppack@h DB 01H
__FB07E2A3_pshpack2@h DB 01H
__F6906775_pshpack8@h DB 01H
__F9415CFA_pshpack1@h DB 01H
__E58C6F1C_apiset@h DB 01H
__A5C52262_ktmtypes@h DB 01H
__FBBA8F9D_winnt@h DB 01H
__A32D3D2C_minwindef@h DB 01H
__7D798299_windef@h DB 01H
__9AE108E9_apisetcconv@h DB 01H
__9CE53D2C_minwinbase@h DB 01H
__5D0AA210_apiquery2@h DB 01H
__4DD4E726_processenv@h DB 01H
__3575CC96_fileapi@h DB 01H
__8EA220E6_fileapifromapp@h DB 01H
__BF9B31FE_debugapi@h DB 01H
__C3AFE134_utilapiset@h DB 01H
__76F69E51_handleapi@h DB 01H
__7E63D784_errhandlingapi@h DB 01H
__FFA7003C_fibersapi@h DB 01H
__8971CECF_namedpipeapi@h DB 01H
__46C9D8A6_profileapi@h DB 01H
__98D4F0A3_heapapi@h DB 01H
__50EF2A88_ioapiset@h DB 01H
__92EA1464_synchapi@h DB 01H
__A53D8AED_interlockedapi@h DB 01H
__B506CAAF_processthreadsapi@h DB 01H
__FF735694_sysinfoapi@h DB 01H
__29589789_memoryapi@h DB 01H
__E9C7A663_enclaveapi@h DB 01H
__D035F9F7_threadpoollegacyapiset@h DB 01H
__C899130C_threadpoolapiset@h DB 01H
__E0441EE7_jobapi@h DB 01H
__CEF86838_jobapi2@h DB 01H
__35AC6B9A_wow64apiset@h DB 01H
__C8AE41A5_libloaderapi@h DB 01H
__CC9E232D_securitybaseapi@h DB 01H
__C9D0C9B8_namespaceapi@h DB 01H
__30FF9CAD_systemtopologyapi@h DB 01H
__4D358795_processtopologyapi@h DB 01H
__40446D10_securityappcontainer@h DB 01H
__3A952EDF_realtimeapiset@h DB 01H
__F4865F4B_winerror@h DB 01H
__53C1BD93_timezoneapi@h DB 01H
__1FFBEDBF_winbase@h DB 01H
__43D3FA34_wingdi@h DB 01H
__D24A7391_tvout@h DB 01H
__7713A6C8_winuser@h DB 01H
__0B345F71_datetimeapi@h DB 01H
__9AC6960C_winnls@h DB 01H
__973A40A8_stringapiset@h DB 01H
__CC46FEE2_wincontypes@h DB 01H
__97D70BE1_consoleapi@h DB 01H
__27EC5E18_consoleapi2@h DB 01H
__262E342F_consoleapi3@h DB 01H
__641DCD70_wincon@h DB 01H
__5A96C7A7_verrsrc@h DB 01H
__B69C6FF2_winver@h DB 01H
__7AEB8C37_reason@h DB 01H
__59F1A8A9_winreg@h DB 01H
__EE0E2B7F_wnnc@h DB 01H
__DCDB7054_winnetwk@h DB 01H
__EDC72EEB_cderr@h DB 01H
__95F9199D_dde@h DB 01H
__66427627_ddeml@h DB 01H
__957C29A0_dlgs@h DB 01H
__12EA15AF_lzexpand@h DB 01H
__62131F15_mmsyscom@h DB 01H
__47E68D49_mciapi@h DB 01H
__5D7DD356_mmiscapi@h DB 01H
__7223D2EF_mmiscapi2@h DB 01H
__A330DBB3_playsoundapi@h DB 01H
__601B366F_mmeapi@h DB 01H
__1134ADD5_timeapi@h DB 01H
__93F2265A_joystickapi@h DB 01H
__DF6EB4E3_mmsystem@h DB 01H
__BD641FCB_nb30@h DB 01H
__DF8704F0_rpcdcep@h DB 01H
__5C6CA7BB_rpcdce@h DB 01H
__853533C4_rpcnsi@h DB 01H
__2D2406C3_rpcnterr@h DB 01H
__64521D71_rpcasync@h DB 01H
__AADCBA08_rpc@h DB 01H
__19E26CFF_shellapi@h DB 01H
__1E9F31D3_winperf@h DB 01H
__832A4112_inaddr@h DB 01H
__32C6F875_winsock@h DB 01H
__7953A3F8_bcrypt@h DB 01H
__E4169492_ncrypt@h DB 01H
__AF3DDDC3_dpapi@h DB 01H
__D1E23BF2_wincrypt@h DB 01H
__82AB4779_winefs@h DB 01H
__1FE431C9_rpcnsip@h DB 01H
__2B741F2D_rpcsal@h DB 01H
__92623256_rpcndr@h DB 01H
__9C18532E_wtypesbase@h DB 01H
__EA2E1D6D_wtypes@h DB 01H
__7DDD9F45_winioctl@h DB 01H
__E550A843_winsmcrd@h DB 01H
__9809C1BA_winscard@h DB 01H
__EA174FA4_prsht@h DB 01H
__0E1BD114_winspool@h DB 01H
__30B1AFDA_unknwnbase@h DB 01H
__328C1996_objidlbase@h DB 01H
__C4E06B6A_cguid@h DB 01H
__434718C5_combaseapi@h DB 01H
__DE6FDEF1_unknwn@h DB 01H
__CCE0BACC_objidl@h DB 01H
__8C7011E5_oaidl@h DB 01H
__2E0B7863_propidlbase@h DB 01H
__BF4CF2EC_coml2api@h DB 01H
__6D897344_oleidl@h DB 01H
__1129FC2C_servprov@h DB 01H
__757952E4_msxml@h DB 01H
__B1191D53_urlmon@h DB 01H
__404D1A47_propidl@h DB 01H
__A1C63593_objbase@h DB 01H
__C1B0A9CB_oleauto@h DB 01H
__24EAF61F_ole2@h DB 01H
__2B1843DA_commdlg@h DB 01H
__81DDEDE3_stralign@h DB 01H
__2134D1B4_winsvc@h DB 01H
__11C07376_mcx@h DB 01H
__577CE3E7_ime_cmodes@h DB 01H
__1E72C31E_imm@h DB 01H
__E15BF856_windows@h DB 01H
__C868A340_OCIdl@h DB 01H
__90AD1CBB_dxgicommon@h DB 01H
__DBA3F304_dxgiformat@h DB 01H
__4B98FDD9_d3dcommon@h DB 01H
__30CE95B1_d3d12sdklayers@h DB 01H
__AD50D478_d3d12@h DB 01H
__4B899F3E_setjmp@h DB 01H
__A40231C8_mmintrin@h DB 01H
__17534AB1_xmmintrin@h DB 01H
__7231C37D_emmintrin@h DB 01H
__AD90ABF4_pmmintrin@h DB 01H
__1D49D876_tmmintrin@h DB 01H
__3472CDF5_smmintrin@h DB 01H
__51104439_nmmintrin@h DB 01H
__84ABBE77_wmmintrin@h DB 01H
__4F3FF370_zmmintrin@h DB 01H
__782B51BA_immintrin@h DB 01H
__C2E8B0FF_ammintrin@h DB 01H
__6DBF2349_intrin@h DB 01H
__19139D6C_assert@h DB 01H
__85ADA900_DirectXMathConvert@inl DB 01H
__411BBCFA_DirectXMathVector@inl DB 01H
__4AFE615D_DirectXMathMatrix@inl DB 01H
__98B66FFE_DirectXMathMisc@inl DB 01H
__E6E853B5_DirectXMath@h DB 01H
__ED560F7A_VertexTypes@h DB 01H
__EBD162FD_dxgitype@h DB 01H
__F473F334_dxgi@h DB 01H
__3532CEB3_dxgi1_2@h DB 01H
__34F0A484_dxgi1_3@h DB 01H
__31BFB201_dxgi1_4@h DB 01H
__307DD836_dxgi1_5@h DB 01H
__323B666F_dxgi1_6@h DB 01H
__CAFE1B4D_d3d11shader@h DB 01H
__F3732788_d3d12shader@h DB 01H
__2CACEFC0_d3dcompiler@h DB 01H
__F2FF8333_hstring@h DB 01H
__4BAE0D45_inspectable@h DB 01H
__2E21A007_weakreference@h DB 01H
__ADF9C41F_activation@h DB 01H
__847F1726_roapi@h DB 01H
__0AE89165_def@h DB 01H
__087FBF63_internal@h DB 01H
__F7423081_client@h DB 01H
__12FD3F40_WinString@h DB 01H
__6F9C91B0_new@h DB 01H
__247BB969_restrictedErrorInfo@h DB 01H
__05F5D399_roerrorapi@h DB 01H
__73CE9EEE_implements@h DB 01H
__94D81D1E_ftm@h DB 01H
__5611F633_intsafe@h DB 01H
__5DD10A16_corewrappers@h DB 01H
__B8B3BDBE_module@h DB 01H
__D6FCE5BE_eventtoken@h DB 01H
__3D51D5E6_event@h DB 01H
__0691033D_wrl@h DB 01H
__B629FA8A_d3dx12@h DB 01H
__DC39B1D9_D3D12@h DB 01H
__4C7DEF31_D3D12Types@h DB 01H
__1FF1BD98_D3D12Mesh@h DB 01H
__06C34EBE_cmath DB 01H
__52656974_list DB 01H
__B566F9C5_xbit_ops@h DB 01H
__1B8E3698_xnode_handle@h DB 01H
__696C8ED8_xhash DB 01H
__3DA11C4D_unordered_map DB 01H
__93AC6E75_vcruntime_typeinfo@h DB 01H
__C7EDFCD9_typeinfo DB 01H
__4F9CF3B8_xatomic_wait@h DB 01H
__0A9237D2_time@h DB 01H
__C070D2B6_ctime DB 01H
__01F6EC81_xtimec@h DB 01H
__006CADF8_xthreads@h DB 01H
__326FE752_atomic DB 01H
__E5F4B71E_memory DB 01H
__B51A3A23_Core@h DB 01H
__98E9BF8D_TUniquePtr@h DB 01H
__EAA52A7A_D3D12Camera@h DB 01H
__68B439B4_D3D12Texture@h DB 01H
__466C4D22_D3D12Utils@h DB 01H
__45275B9D_D3D12Resource@h DB 01H
__6A70D710_ratio DB 01H
__E71D1BFE___msvc_chrono@hpp DB 01H
__E9739B8C___msvc_system_error_abi@hpp DB 01H
__D1D94988_cerrno DB 01H
__A4A32444_stdexcept DB 01H
__57B442CC_xcall_once@h DB 01H
__24B81E12_xerrc@h DB 01H
__E8E950EC_system_error DB 01H
__F491F32A_vcruntime_startup@h DB 01H
__005E73E1_corecrt_startup@h DB 01H
__8B12B2C4_process@h DB 01H
__57ED3434_stop_token DB 01H
__3EB9CFA8_thread DB 01H
__78DDDD40_mutex DB 01H
__F579D361_condition_variable DB 01H
__623F2C13_functional DB 01H
__939B7473_pplinterface@h DB 01H
__C04D7773_ppltaskscheduler@h DB 01H
__28EB43BF_pplcancellation_token@h DB 01H
__1ECFE15C_pplwin@h DB 01H
__C7215CCD_algorithm DB 01H
__701F1162_ppltasks@h DB 01H
__C772B2A3_future DB 01H
__910B10F8_GraphicsMemory@h DB 01H
__9AEE646B_ResourceUploadBatch@h DB 01H
__CA9F0661_BufferHelpers@h DB 01H
__7F2737F9_D3D12Mesh@cpp DB 01H
msvcjmc	ENDS
;	COMDAT ?DefaultDelegateCheckMode@WRL@Microsoft@@3W4DelegateCheckMode@12@B
CONST	SEGMENT
?DefaultDelegateCheckMode@WRL@Microsoft@@3W4DelegateCheckMode@12@B DD 01H ; Microsoft::WRL::DefaultDelegateCheckMode
CONST	ENDS
;	COMDAT __pobjectentrylast
minATL$__z	SEGMENT
__pobjectentrylast DQ 0000000000000000H
minATL$__z	ENDS
;	COMDAT __pobjectentrymid
minATL$__m	SEGMENT
__pobjectentrymid DQ 0000000000000000H
minATL$__m	ENDS
;	COMDAT __pobjectentryfirst
minATL$__a	SEGMENT
__pobjectentryfirst DQ 0000000000000000H
minATL$__a	ENDS
;	COMDAT ?g_UShortMax@DirectX@@3UXMVECTORF32@1@B
CONST	SEGMENT
?g_UShortMax@DirectX@@3UXMVECTORF32@1@B DD 0477fff00r ; 65535 ; DirectX::g_UShortMax
	DD	0477fff00r			; 65535
	DD	0477fff00r			; 65535
	DD	0477fff00r			; 65535
CONST	ENDS
;	COMDAT ?g_ShortMax@DirectX@@3UXMVECTORF32@1@B
CONST	SEGMENT
?g_ShortMax@DirectX@@3UXMVECTORF32@1@B DD 046fffe00r ; 32767 ; DirectX::g_ShortMax
	DD	046fffe00r			; 32767
	DD	046fffe00r			; 32767
	DD	046fffe00r			; 32767
CONST	ENDS
;	COMDAT ?g_ShortMin@DirectX@@3UXMVECTORF32@1@B
CONST	SEGMENT
?g_ShortMin@DirectX@@3UXMVECTORF32@1@B DD 0c6fffe00r ; -32767 ; DirectX::g_ShortMin
	DD	0c6fffe00r			; -32767
	DD	0c6fffe00r			; -32767
	DD	0c6fffe00r			; -32767
CONST	ENDS
;	COMDAT ?g_ByteMax@DirectX@@3UXMVECTORF32@1@B
CONST	SEGMENT
?g_ByteMax@DirectX@@3UXMVECTORF32@1@B DD 042fe0000r ; 127 ; DirectX::g_ByteMax
	DD	042fe0000r			; 127
	DD	042fe0000r			; 127
	DD	042fe0000r			; 127
CONST	ENDS
;	COMDAT ?g_ByteMin@DirectX@@3UXMVECTORF32@1@B
CONST	SEGMENT
?g_ByteMin@DirectX@@3UXMVECTORF32@1@B DD 0c2fe0000r ; -127 ; DirectX::g_ByteMin
	DD	0c2fe0000r			; -127
	DD	0c2fe0000r			; -127
	DD	0c2fe0000r			; -127
CONST	ENDS
;	COMDAT ?g_UByteMax@DirectX@@3UXMVECTORF32@1@B
CONST	SEGMENT
?g_UByteMax@DirectX@@3UXMVECTORF32@1@B DD 0437f0000r ; 255 ; DirectX::g_UByteMax
	DD	0437f0000r			; 255
	DD	0437f0000r			; 255
	DD	0437f0000r			; 255
CONST	ENDS
;	COMDAT ?g_XMInvLg10@DirectX@@3UXMVECTORF32@1@B
CONST	SEGMENT
?g_XMInvLg10@DirectX@@3UXMVECTORF32@1@B DD 03e9a209br ; 0.30103 ; DirectX::g_XMInvLg10
	DD	03e9a209br			; 0.30103
	DD	03e9a209br			; 0.30103
	DD	03e9a209br			; 0.30103
CONST	ENDS
;	COMDAT ?g_XMLg10@DirectX@@3UXMVECTORF32@1@B
CONST	SEGMENT
?g_XMLg10@DirectX@@3UXMVECTORF32@1@B DD 040549a78r ; 3.32193 ; DirectX::g_XMLg10
	DD	040549a78r			; 3.32193
	DD	040549a78r			; 3.32193
	DD	040549a78r			; 3.32193
CONST	ENDS
;	COMDAT ?g_XMInvLgE@DirectX@@3UXMVECTORF32@1@B
CONST	SEGMENT
?g_XMInvLgE@DirectX@@3UXMVECTORF32@1@B DD 03f317218r ; 0.693147 ; DirectX::g_XMInvLgE
	DD	03f317218r			; 0.693147
	DD	03f317218r			; 0.693147
	DD	03f317218r			; 0.693147
CONST	ENDS
;	COMDAT ?g_XMLgE@DirectX@@3UXMVECTORF32@1@B
CONST	SEGMENT
?g_XMLgE@DirectX@@3UXMVECTORF32@1@B DD 03fb8aa3br ; 1.4427 ; DirectX::g_XMLgE
	DD	03fb8aa3br			; 1.4427
	DD	03fb8aa3br			; 1.4427
	DD	03fb8aa3br			; 1.4427
CONST	ENDS
;	COMDAT ?g_XMLogEst7@DirectX@@3UXMVECTORF32@1@B
CONST	SEGMENT
?g_XMLogEst7@DirectX@@3UXMVECTORF32@1@B DD 0bc2d4f59r ; -0.010578 ; DirectX::g_XMLogEst7
	DD	0bc2d4f59r			; -0.010578
	DD	0bc2d4f59r			; -0.010578
	DD	0bc2d4f59r			; -0.010578
CONST	ENDS
;	COMDAT ?g_XMLogEst6@DirectX@@3UXMVECTORF32@1@B
CONST	SEGMENT
?g_XMLogEst6@DirectX@@3UXMVECTORF32@1@B DD 03d6a1405r ; 0.057148 ; DirectX::g_XMLogEst6
	DD	03d6a1405r			; 0.057148
	DD	03d6a1405r			; 0.057148
	DD	03d6a1405r			; 0.057148
CONST	ENDS
;	COMDAT ?g_XMLogEst5@DirectX@@3UXMVECTORF32@1@B
CONST	SEGMENT
?g_XMLogEst5@DirectX@@3UXMVECTORF32@1@B DD 0be153261r ; -0.1457 ; DirectX::g_XMLogEst5
	DD	0be153261r			; -0.1457
	DD	0be153261r			; -0.1457
	DD	0be153261r			; -0.1457
CONST	ENDS
;	COMDAT ?g_XMLogEst4@DirectX@@3UXMVECTORF32@1@B
CONST	SEGMENT
?g_XMLogEst4@DirectX@@3UXMVECTORF32@1@B DD 03e7e8e61r ; 0.24859 ; DirectX::g_XMLogEst4
	DD	03e7e8e61r			; 0.24859
	DD	03e7e8e61r			; 0.24859
	DD	03e7e8e61r			; 0.24859
CONST	ENDS
;	COMDAT ?g_XMLogEst3@DirectX@@3UXMVECTORF32@1@B
CONST	SEGMENT
?g_XMLogEst3@DirectX@@3UXMVECTORF32@1@B DD 0beb359der ; -0.350295 ; DirectX::g_XMLogEst3
	DD	0beb359der			; -0.350295
	DD	0beb359der			; -0.350295
	DD	0beb359der			; -0.350295
CONST	ENDS
;	COMDAT ?g_XMLogEst2@DirectX@@3UXMVECTORF32@1@B
CONST	SEGMENT
?g_XMLogEst2@DirectX@@3UXMVECTORF32@1@B DD 03ef571d2r ; 0.479384 ; DirectX::g_XMLogEst2
	DD	03ef571d2r			; 0.479384
	DD	03ef571d2r			; 0.479384
	DD	03ef571d2r			; 0.479384
CONST	ENDS
;	COMDAT ?g_XMLogEst1@DirectX@@3UXMVECTORF32@1@B
CONST	SEGMENT
?g_XMLogEst1@DirectX@@3UXMVECTORF32@1@B DD 0bf38a351r ; -0.721242 ; DirectX::g_XMLogEst1
	DD	0bf38a351r			; -0.721242
	DD	0bf38a351r			; -0.721242
	DD	0bf38a351r			; -0.721242
CONST	ENDS
;	COMDAT ?g_XMLogEst0@DirectX@@3UXMVECTORF32@1@B
CONST	SEGMENT
?g_XMLogEst0@DirectX@@3UXMVECTORF32@1@B DD 03fb8aa2ar ; 1.44269 ; DirectX::g_XMLogEst0
	DD	03fb8aa2ar			; 1.44269
	DD	03fb8aa2ar			; 1.44269
	DD	03fb8aa2ar			; 1.44269
CONST	ENDS
;	COMDAT ?g_XMExpEst7@DirectX@@3UXMVECTORF32@1@B
CONST	SEGMENT
?g_XMExpEst7@DirectX@@3UXMVECTORF32@1@B DD 0b7364261r ; -1.08635e-05 ; DirectX::g_XMExpEst7
	DD	0b7364261r			; -1.08635e-05
	DD	0b7364261r			; -1.08635e-05
	DD	0b7364261r			; -1.08635e-05
CONST	ENDS
;	COMDAT ?g_XMExpEst6@DirectX@@3UXMVECTORF32@1@B
CONST	SEGMENT
?g_XMExpEst6@DirectX@@3UXMVECTORF32@1@B DD 0391aa7d7r ; 0.000147491 ; DirectX::g_XMExpEst6
	DD	0391aa7d7r			; 0.000147491
	DD	0391aa7d7r			; 0.000147491
	DD	0391aa7d7r			; 0.000147491
CONST	ENDS
;	COMDAT ?g_XMExpEst5@DirectX@@3UXMVECTORF32@1@B
CONST	SEGMENT
?g_XMExpEst5@DirectX@@3UXMVECTORF32@1@B DD 0baae1854r ; -0.00132824 ; DirectX::g_XMExpEst5
	DD	0baae1854r			; -0.00132824
	DD	0baae1854r			; -0.00132824
	DD	0baae1854r			; -0.00132824
CONST	ENDS
;	COMDAT ?g_XMExpEst4@DirectX@@3UXMVECTORF32@1@B
CONST	SEGMENT
?g_XMExpEst4@DirectX@@3UXMVECTORF32@1@B DD 03c1d8c54r ; 0.00961598 ; DirectX::g_XMExpEst4
	DD	03c1d8c54r			; 0.00961598
	DD	03c1d8c54r			; 0.00961598
	DD	03c1d8c54r			; 0.00961598
CONST	ENDS
;	COMDAT ?g_XMExpEst3@DirectX@@3UXMVECTORF32@1@B
CONST	SEGMENT
?g_XMExpEst3@DirectX@@3UXMVECTORF32@1@B DD 0bd6357car ; -0.0555036 ; DirectX::g_XMExpEst3
	DD	0bd6357car			; -0.0555036
	DD	0bd6357car			; -0.0555036
	DD	0bd6357car			; -0.0555036
CONST	ENDS
;	COMDAT ?g_XMExpEst2@DirectX@@3UXMVECTORF32@1@B
CONST	SEGMENT
?g_XMExpEst2@DirectX@@3UXMVECTORF32@1@B DD 03e75fdedr ; 0.240226 ; DirectX::g_XMExpEst2
	DD	03e75fdedr			; 0.240226
	DD	03e75fdedr			; 0.240226
	DD	03e75fdedr			; 0.240226
CONST	ENDS
;	COMDAT ?g_XMExpEst1@DirectX@@3UXMVECTORF32@1@B
CONST	SEGMENT
?g_XMExpEst1@DirectX@@3UXMVECTORF32@1@B DD 0bf317218r ; -0.693147 ; DirectX::g_XMExpEst1
	DD	0bf317218r			; -0.693147
	DD	0bf317218r			; -0.693147
	DD	0bf317218r			; -0.693147
CONST	ENDS
;	COMDAT ?g_XM253@DirectX@@3UXMVECTORI32@1@B
CONST	SEGMENT
?g_XM253@DirectX@@3UXMVECTORI32@1@B DD 0fdH		; DirectX::g_XM253
	DD	0fdH
	DD	0fdH
	DD	0fdH
CONST	ENDS
;	COMDAT ?g_XMBinNeg150@DirectX@@3UXMVECTORU32@1@B
CONST	SEGMENT
?g_XMBinNeg150@DirectX@@3UXMVECTORU32@1@B DD 0c3160000H	; DirectX::g_XMBinNeg150
	DD	0c3160000H
	DD	0c3160000H
	DD	0c3160000H
CONST	ENDS
;	COMDAT ?g_XMBin128@DirectX@@3UXMVECTORI32@1@B
CONST	SEGMENT
?g_XMBin128@DirectX@@3UXMVECTORI32@1@B DD 043000000H	; DirectX::g_XMBin128
	DD	043000000H
	DD	043000000H
	DD	043000000H
CONST	ENDS
;	COMDAT ?g_XMNegQNaN@DirectX@@3UXMVECTORU32@1@B
CONST	SEGMENT
?g_XMNegQNaN@DirectX@@3UXMVECTORU32@1@B DD 0ffc00000H	; DirectX::g_XMNegQNaN
	DD	0ffc00000H
	DD	0ffc00000H
	DD	0ffc00000H
CONST	ENDS
;	COMDAT ?g_XMNegInfinity@DirectX@@3UXMVECTORU32@1@B
CONST	SEGMENT
?g_XMNegInfinity@DirectX@@3UXMVECTORU32@1@B DD 0ff800000H ; DirectX::g_XMNegInfinity
	DD	0ff800000H
	DD	0ff800000H
	DD	0ff800000H
CONST	ENDS
;	COMDAT ?g_XMMinNormal@DirectX@@3UXMVECTORI32@1@B
CONST	SEGMENT
?g_XMMinNormal@DirectX@@3UXMVECTORI32@1@B DD 0800000H	; DirectX::g_XMMinNormal
	DD	0800000H
	DD	0800000H
	DD	0800000H
CONST	ENDS
;	COMDAT ?g_XMNumTrailing@DirectX@@3UXMVECTORI32@1@B
CONST	SEGMENT
?g_XMNumTrailing@DirectX@@3UXMVECTORI32@1@B DD 017H	; DirectX::g_XMNumTrailing
	DD	017H
	DD	017H
	DD	017H
CONST	ENDS
;	COMDAT ?g_XMSubnormalExponent@DirectX@@3UXMVECTORI32@1@B
CONST	SEGMENT
?g_XMSubnormalExponent@DirectX@@3UXMVECTORI32@1@B DD 0ffffff82H ; DirectX::g_XMSubnormalExponent
	DD	0ffffff82H
	DD	0ffffff82H
	DD	0ffffff82H
CONST	ENDS
;	COMDAT ?g_XMExponentBias@DirectX@@3UXMVECTORI32@1@B
CONST	SEGMENT
?g_XMExponentBias@DirectX@@3UXMVECTORI32@1@B DD 07fH	; DirectX::g_XMExponentBias
	DD	07fH
	DD	07fH
	DD	07fH
CONST	ENDS
;	COMDAT ?g_XMsrgbA1@DirectX@@3UXMVECTORF32@1@B
CONST	SEGMENT
?g_XMsrgbA1@DirectX@@3UXMVECTORF32@1@B DD 03f870a3dr ; 1.055 ; DirectX::g_XMsrgbA1
	DD	03f870a3dr			; 1.055
	DD	03f870a3dr			; 1.055
	DD	03f800000r			; 1
CONST	ENDS
;	COMDAT ?g_XMsrgbA@DirectX@@3UXMVECTORF32@1@B
CONST	SEGMENT
?g_XMsrgbA@DirectX@@3UXMVECTORF32@1@B DD 03d6147aer ; 0.055 ; DirectX::g_XMsrgbA
	DD	03d6147aer			; 0.055
	DD	03d6147aer			; 0.055
	DD	000000000r			; 0
CONST	ENDS
;	COMDAT ?g_XMsrgbScale@DirectX@@3UXMVECTORF32@1@B
CONST	SEGMENT
?g_XMsrgbScale@DirectX@@3UXMVECTORF32@1@B DD 0414eb852r ; 12.92 ; DirectX::g_XMsrgbScale
	DD	0414eb852r			; 12.92
	DD	0414eb852r			; 12.92
	DD	03f800000r			; 1
CONST	ENDS
;	COMDAT ?g_XMUnsignedFix@DirectX@@3UXMVECTORF32@1@B
CONST	SEGMENT
?g_XMUnsignedFix@DirectX@@3UXMVECTORF32@1@B DD 04f000000r ; 2.14748e+09 ; DirectX::g_XMUnsignedFix
	DD	04f000000r			; 2.14748e+09
	DD	04f000000r			; 2.14748e+09
	DD	04f000000r			; 2.14748e+09
CONST	ENDS
;	COMDAT ?g_XMMaxUInt@DirectX@@3UXMVECTORF32@1@B
CONST	SEGMENT
?g_XMMaxUInt@DirectX@@3UXMVECTORF32@1@B DD 04f7fffffr ; 4.29497e+09 ; DirectX::g_XMMaxUInt
	DD	04f7fffffr			; 4.29497e+09
	DD	04f7fffffr			; 4.29497e+09
	DD	04f7fffffr			; 4.29497e+09
CONST	ENDS
;	COMDAT ?g_XMMaxInt@DirectX@@3UXMVECTORF32@1@B
CONST	SEGMENT
?g_XMMaxInt@DirectX@@3UXMVECTORF32@1@B DD 04effffffr ; 2.14748e+09 ; DirectX::g_XMMaxInt
	DD	04effffffr			; 2.14748e+09
	DD	04effffffr			; 2.14748e+09
	DD	04effffffr			; 2.14748e+09
CONST	ENDS
;	COMDAT ?g_XMFixUnsigned@DirectX@@3UXMVECTORF32@1@B
CONST	SEGMENT
?g_XMFixUnsigned@DirectX@@3UXMVECTORF32@1@B DD 04f000000r ; 2.14748e+09 ; DirectX::g_XMFixUnsigned
	DD	04f000000r			; 2.14748e+09
	DD	04f000000r			; 2.14748e+09
	DD	04f000000r			; 2.14748e+09
CONST	ENDS
;	COMDAT ?g_XMAddByte4@DirectX@@3UXMVECTORF32@1@B
CONST	SEGMENT
?g_XMAddByte4@DirectX@@3UXMVECTORF32@1@B DD 0c3000000r ; -128 ; DirectX::g_XMAddByte4
	DD	0c7000000r			; -32768
	DD	0cb000000r			; -8.38861e+06
	DD	000000000r			; 0
CONST	ENDS
;	COMDAT ?g_XMXorByte4@DirectX@@3UXMVECTORI32@1@B
CONST	SEGMENT
?g_XMXorByte4@DirectX@@3UXMVECTORI32@1@B DD 080H	; DirectX::g_XMXorByte4
	DD	08000H
	DD	0800000H
	DD	00H
CONST	ENDS
;	COMDAT ?g_XMMaskByte4@DirectX@@3UXMVECTORU32@1@B
CONST	SEGMENT
?g_XMMaskByte4@DirectX@@3UXMVECTORU32@1@B DD 0ffH	; DirectX::g_XMMaskByte4
	DD	0ff00H
	DD	0ff0000H
	DD	0ff000000H
CONST	ENDS
;	COMDAT ?g_XMMulDec4@DirectX@@3UXMVECTORF32@1@B
CONST	SEGMENT
?g_XMMulDec4@DirectX@@3UXMVECTORF32@1@B DD 03f800000r ; 1 ; DirectX::g_XMMulDec4
	DD	03a800000r			; 0.000976562
	DD	035800000r			; 9.53674e-07
	DD	030800000r			; 9.31323e-10
CONST	ENDS
;	COMDAT ?g_XMAddDec4@DirectX@@3UXMVECTORF32@1@B
CONST	SEGMENT
?g_XMAddDec4@DirectX@@3UXMVECTORF32@1@B DD 0c4000000r ; -512 ; DirectX::g_XMAddDec4
	DD	0c9000000r			; -524288
	DD	0ce000000r			; -5.36871e+08
	DD	000000000r			; 0
CONST	ENDS
;	COMDAT ?g_XMAddUDec4@DirectX@@3UXMVECTORF32@1@B
CONST	SEGMENT
?g_XMAddUDec4@DirectX@@3UXMVECTORF32@1@B DD 000000000r ; 0 ; DirectX::g_XMAddUDec4
	DD	000000000r			; 0
	DD	000000000r			; 0
	DD	04f000000r			; 2.14748e+09
CONST	ENDS
;	COMDAT ?g_XMXorDec4@DirectX@@3UXMVECTORI32@1@B
CONST	SEGMENT
?g_XMXorDec4@DirectX@@3UXMVECTORI32@1@B DD 0200H	; DirectX::g_XMXorDec4
	DD	080000H
	DD	020000000H
	DD	00H
CONST	ENDS
;	COMDAT ?g_XMMaskDec4@DirectX@@3UXMVECTORI32@1@B
CONST	SEGMENT
?g_XMMaskDec4@DirectX@@3UXMVECTORI32@1@B DD 03ffH	; DirectX::g_XMMaskDec4
	DD	0ffc00H
	DD	03ff00000H
	DD	0c0000000H
CONST	ENDS
;	COMDAT ?g_XMFlipYW@DirectX@@3UXMVECTORU32@1@B
CONST	SEGMENT
?g_XMFlipYW@DirectX@@3UXMVECTORU32@1@B DD 00H		; DirectX::g_XMFlipYW
	DD	080000000H
	DD	00H
	DD	080000000H
CONST	ENDS
;	COMDAT ?g_XMFlipZW@DirectX@@3UXMVECTORU32@1@B
CONST	SEGMENT
?g_XMFlipZW@DirectX@@3UXMVECTORU32@1@B DD 00H		; DirectX::g_XMFlipZW
	DD	00H
	DD	080000000H
	DD	080000000H
CONST	ENDS
;	COMDAT ?g_XMFlipYZ@DirectX@@3UXMVECTORU32@1@B
CONST	SEGMENT
?g_XMFlipYZ@DirectX@@3UXMVECTORU32@1@B DD 00H		; DirectX::g_XMFlipYZ
	DD	080000000H
	DD	080000000H
	DD	00H
CONST	ENDS
;	COMDAT ?g_XMFlipW@DirectX@@3UXMVECTORU32@1@B
CONST	SEGMENT
?g_XMFlipW@DirectX@@3UXMVECTORU32@1@B DD 00H		; DirectX::g_XMFlipW
	DD	00H
	DD	00H
	DD	080000000H
CONST	ENDS
;	COMDAT ?g_XMFlipZ@DirectX@@3UXMVECTORU32@1@B
CONST	SEGMENT
?g_XMFlipZ@DirectX@@3UXMVECTORU32@1@B DD 00H		; DirectX::g_XMFlipZ
	DD	00H
	DD	080000000H
	DD	00H
CONST	ENDS
;	COMDAT ?g_XMFlipY@DirectX@@3UXMVECTORU32@1@B
CONST	SEGMENT
?g_XMFlipY@DirectX@@3UXMVECTORU32@1@B DD 00H		; DirectX::g_XMFlipY
	DD	080000000H
	DD	00H
	DD	00H
CONST	ENDS
;	COMDAT ?g_XMFixupY16W16@DirectX@@3UXMVECTORF32@1@B
CONST	SEGMENT
?g_XMFixupY16W16@DirectX@@3UXMVECTORF32@1@B DD 03f800000r ; 1 ; DirectX::g_XMFixupY16W16
	DD	03f800000r			; 1
	DD	037800000r			; 1.52588e-05
	DD	037800000r			; 1.52588e-05
CONST	ENDS
;	COMDAT ?g_XMFixupY16@DirectX@@3UXMVECTORF32@1@B
CONST	SEGMENT
?g_XMFixupY16@DirectX@@3UXMVECTORF32@1@B DD 03f800000r ; 1 ; DirectX::g_XMFixupY16
	DD	037800000r			; 1.52588e-05
	DD	000000000r			; 0
	DD	000000000r			; 0
CONST	ENDS
;	COMDAT ?g_XMSelect1011@DirectX@@3UXMVECTORU32@1@B
CONST	SEGMENT
?g_XMSelect1011@DirectX@@3UXMVECTORU32@1@B DD 0ffffffffH ; DirectX::g_XMSelect1011
	DD	00H
	DD	0ffffffffH
	DD	0ffffffffH
CONST	ENDS
;	COMDAT ?g_XMSelect1110@DirectX@@3UXMVECTORU32@1@B
CONST	SEGMENT
?g_XMSelect1110@DirectX@@3UXMVECTORU32@1@B DD 0ffffffffH ; DirectX::g_XMSelect1110
	DD	0ffffffffH
	DD	0ffffffffH
	DD	00H
CONST	ENDS
;	COMDAT ?g_XMSelect1100@DirectX@@3UXMVECTORU32@1@B
CONST	SEGMENT
?g_XMSelect1100@DirectX@@3UXMVECTORU32@1@B DD 0ffffffffH ; DirectX::g_XMSelect1100
	DD	0ffffffffH
	DD	00H
	DD	00H
CONST	ENDS
;	COMDAT ?g_XMSelect1000@DirectX@@3UXMVECTORU32@1@B
CONST	SEGMENT
?g_XMSelect1000@DirectX@@3UXMVECTORU32@1@B DD 0ffffffffH ; DirectX::g_XMSelect1000
	DD	00H
	DD	00H
	DD	00H
CONST	ENDS
;	COMDAT ?g_XMOneHalfMinusEpsilon@DirectX@@3UXMVECTORI32@1@B
CONST	SEGMENT
?g_XMOneHalfMinusEpsilon@DirectX@@3UXMVECTORI32@1@B DD 03efffffdH ; DirectX::g_XMOneHalfMinusEpsilon
	DD	03efffffdH
	DD	03efffffdH
	DD	03efffffdH
CONST	ENDS
;	COMDAT ?g_XMSelect1010@DirectX@@3UXMVECTORU32@1@B
CONST	SEGMENT
?g_XMSelect1010@DirectX@@3UXMVECTORU32@1@B DD 0ffffffffH ; DirectX::g_XMSelect1010
	DD	00H
	DD	0ffffffffH
	DD	00H
CONST	ENDS
;	COMDAT ?g_XMSelect0101@DirectX@@3UXMVECTORU32@1@B
CONST	SEGMENT
?g_XMSelect0101@DirectX@@3UXMVECTORU32@1@B DD 00H	; DirectX::g_XMSelect0101
	DD	0ffffffffH
	DD	00H
	DD	0ffffffffH
CONST	ENDS
;	COMDAT ?g_XMNegateW@DirectX@@3UXMVECTORF32@1@B
CONST	SEGMENT
?g_XMNegateW@DirectX@@3UXMVECTORF32@1@B DD 03f800000r ; 1 ; DirectX::g_XMNegateW
	DD	03f800000r			; 1
	DD	03f800000r			; 1
	DD	0bf800000r			; -1
CONST	ENDS
;	COMDAT ?g_XMNegateZ@DirectX@@3UXMVECTORF32@1@B
CONST	SEGMENT
?g_XMNegateZ@DirectX@@3UXMVECTORF32@1@B DD 03f800000r ; 1 ; DirectX::g_XMNegateZ
	DD	03f800000r			; 1
	DD	0bf800000r			; -1
	DD	03f800000r			; 1
CONST	ENDS
;	COMDAT ?g_XMNegateY@DirectX@@3UXMVECTORF32@1@B
CONST	SEGMENT
?g_XMNegateY@DirectX@@3UXMVECTORF32@1@B DD 03f800000r ; 1 ; DirectX::g_XMNegateY
	DD	0bf800000r			; -1
	DD	03f800000r			; 1
	DD	03f800000r			; 1
CONST	ENDS
;	COMDAT ?g_XMNegateX@DirectX@@3UXMVECTORF32@1@B
CONST	SEGMENT
?g_XMNegateX@DirectX@@3UXMVECTORF32@1@B DD 0bf800000r ; -1 ; DirectX::g_XMNegateX
	DD	03f800000r			; 1
	DD	03f800000r			; 1
	DD	03f800000r			; 1
CONST	ENDS
;	COMDAT ?g_XMMaskByte@DirectX@@3UXMVECTORI32@1@B
CONST	SEGMENT
?g_XMMaskByte@DirectX@@3UXMVECTORI32@1@B DD 0ffH	; DirectX::g_XMMaskByte
	DD	0ffH
	DD	0ffH
	DD	0ffH
CONST	ENDS
;	COMDAT ?g_XMNoFraction@DirectX@@3UXMVECTORF32@1@B
CONST	SEGMENT
?g_XMNoFraction@DirectX@@3UXMVECTORF32@1@B DD 04b000000r ; 8.38861e+06 ; DirectX::g_XMNoFraction
	DD	04b000000r			; 8.38861e+06
	DD	04b000000r			; 8.38861e+06
	DD	04b000000r			; 8.38861e+06
CONST	ENDS
;	COMDAT ?g_XMNormalizeX16Y16Z16W16@DirectX@@3UXMVECTORF32@1@B
CONST	SEGMENT
?g_XMNormalizeX16Y16Z16W16@DirectX@@3UXMVECTORF32@1@B DD 038000100r ; 3.05185e-05 ; DirectX::g_XMNormalizeX16Y16Z16W16
	DD	038000100r			; 3.05185e-05
	DD	030000100r			; 4.65675e-10
	DD	030000100r			; 4.65675e-10
CONST	ENDS
;	COMDAT ?g_XMFixX16Y16Z16W16@DirectX@@3UXMVECTORF32@1@B
CONST	SEGMENT
?g_XMFixX16Y16Z16W16@DirectX@@3UXMVECTORF32@1@B DD 0c7000000r ; -32768 ; DirectX::g_XMFixX16Y16Z16W16
	DD	0c7000000r			; -32768
	DD	000000000r			; 0
	DD	000000000r			; 0
CONST	ENDS
;	COMDAT ?g_XMFlipX16Y16Z16W16@DirectX@@3UXMVECTORI32@1@B
CONST	SEGMENT
?g_XMFlipX16Y16Z16W16@DirectX@@3UXMVECTORI32@1@B DD 08000H ; DirectX::g_XMFlipX16Y16Z16W16
	DD	08000H
	DD	00H
	DD	00H
CONST	ENDS
;	COMDAT ?g_XMMaskX16Y16Z16W16@DirectX@@3UXMVECTORU32@1@B
CONST	SEGMENT
?g_XMMaskX16Y16Z16W16@DirectX@@3UXMVECTORU32@1@B DD 0ffffH ; DirectX::g_XMMaskX16Y16Z16W16
	DD	0ffffH
	DD	0ffff0000H
	DD	0ffff0000H
CONST	ENDS
;	COMDAT ?g_XMNormalizeX16Y16@DirectX@@3UXMVECTORF32@1@B
CONST	SEGMENT
?g_XMNormalizeX16Y16@DirectX@@3UXMVECTORF32@1@B DD 038000100r ; 3.05185e-05 ; DirectX::g_XMNormalizeX16Y16
	DD	030000100r			; 4.65675e-10
	DD	000000000r			; 0
	DD	000000000r			; 0
CONST	ENDS
;	COMDAT ?g_XMFixX16Y16@DirectX@@3UXMVECTORF32@1@B
CONST	SEGMENT
?g_XMFixX16Y16@DirectX@@3UXMVECTORF32@1@B DD 0c7000000r ; -32768 ; DirectX::g_XMFixX16Y16
	DD	000000000r			; 0
	DD	000000000r			; 0
	DD	000000000r			; 0
CONST	ENDS
;	COMDAT ?g_XMFlipX16Y16@DirectX@@3UXMVECTORI32@1@B
CONST	SEGMENT
?g_XMFlipX16Y16@DirectX@@3UXMVECTORI32@1@B DD 08000H	; DirectX::g_XMFlipX16Y16
	DD	00H
	DD	00H
	DD	00H
CONST	ENDS
;	COMDAT ?g_XMMaskX16Y16@DirectX@@3UXMVECTORU32@1@B
CONST	SEGMENT
?g_XMMaskX16Y16@DirectX@@3UXMVECTORU32@1@B DD 0ffffH	; DirectX::g_XMMaskX16Y16
	DD	0ffff0000H
	DD	00H
	DD	00H
CONST	ENDS
;	COMDAT ?g_XMNormalizeA2B10G10R10@DirectX@@3UXMVECTORF32@1@B
CONST	SEGMENT
?g_XMNormalizeA2B10G10R10@DirectX@@3UXMVECTORF32@1@B DD 03b004020r ; 0.00195695 ; DirectX::g_XMNormalizeA2B10G10R10
	DD	036004020r			; 1.91108e-06
	DD	031004020r			; 1.86629e-09
	DD	02faaaaabr			; 3.10441e-10
CONST	ENDS
;	COMDAT ?g_XMFixAA2B10G10R10@DirectX@@3UXMVECTORF32@1@B
CONST	SEGMENT
?g_XMFixAA2B10G10R10@DirectX@@3UXMVECTORF32@1@B DD 0c4000000r ; -512 ; DirectX::g_XMFixAA2B10G10R10
	DD	0c9000000r			; -524288
	DD	0ce000000r			; -5.36871e+08
	DD	04f000000r			; 2.14748e+09
CONST	ENDS
;	COMDAT ?g_XMFlipA2B10G10R10@DirectX@@3UXMVECTORU32@1@B
CONST	SEGMENT
?g_XMFlipA2B10G10R10@DirectX@@3UXMVECTORU32@1@B DD 0200H ; DirectX::g_XMFlipA2B10G10R10
	DD	080000H
	DD	020000000H
	DD	080000000H
CONST	ENDS
;	COMDAT ?g_XMMaskA2B10G10R10@DirectX@@3UXMVECTORU32@1@B
CONST	SEGMENT
?g_XMMaskA2B10G10R10@DirectX@@3UXMVECTORU32@1@B DD 03ffH ; DirectX::g_XMMaskA2B10G10R10
	DD	0ffc00H
	DD	03ff00000H
	DD	0c0000000H
CONST	ENDS
;	COMDAT ?g_XMNormalizeA8R8G8B8@DirectX@@3UXMVECTORF32@1@B
CONST	SEGMENT
?g_XMNormalizeA8R8G8B8@DirectX@@3UXMVECTORF32@1@B DD 033808081r ; 5.98384e-08 ; DirectX::g_XMNormalizeA8R8G8B8
	DD	037808081r			; 1.53186e-05
	DD	03b808081r			; 0.00392157
	DD	02f808081r			; 2.33744e-10
CONST	ENDS
;	COMDAT ?g_XMFixAA8R8G8B8@DirectX@@3UXMVECTORF32@1@B
CONST	SEGMENT
?g_XMFixAA8R8G8B8@DirectX@@3UXMVECTORF32@1@B DD 000000000r ; 0 ; DirectX::g_XMFixAA8R8G8B8
	DD	000000000r			; 0
	DD	000000000r			; 0
	DD	04f000000r			; 2.14748e+09
CONST	ENDS
;	COMDAT ?g_XMFlipA8R8G8B8@DirectX@@3UXMVECTORU32@1@B
CONST	SEGMENT
?g_XMFlipA8R8G8B8@DirectX@@3UXMVECTORU32@1@B DD 00H	; DirectX::g_XMFlipA8R8G8B8
	DD	00H
	DD	00H
	DD	080000000H
CONST	ENDS
;	COMDAT ?g_XMMaskA8R8G8B8@DirectX@@3UXMVECTORU32@1@B
CONST	SEGMENT
?g_XMMaskA8R8G8B8@DirectX@@3UXMVECTORU32@1@B DD 0ff0000H ; DirectX::g_XMMaskA8R8G8B8
	DD	0ff00H
	DD	0ffH
	DD	0ff000000H
CONST	ENDS
;	COMDAT ?g_XMNegOneMask@DirectX@@3UXMVECTORU32@1@B
CONST	SEGMENT
?g_XMNegOneMask@DirectX@@3UXMVECTORU32@1@B DD 0ffffffffH ; DirectX::g_XMNegOneMask
	DD	0ffffffffH
	DD	0ffffffffH
	DD	0ffffffffH
CONST	ENDS
;	COMDAT ?g_XMFltMax@DirectX@@3UXMVECTORI32@1@B
CONST	SEGMENT
?g_XMFltMax@DirectX@@3UXMVECTORI32@1@B DD 07f7fffffH	; DirectX::g_XMFltMax
	DD	07f7fffffH
	DD	07f7fffffH
	DD	07f7fffffH
CONST	ENDS
;	COMDAT ?g_XMFltMin@DirectX@@3UXMVECTORI32@1@B
CONST	SEGMENT
?g_XMFltMin@DirectX@@3UXMVECTORI32@1@B DD 0800000H	; DirectX::g_XMFltMin
	DD	0800000H
	DD	0800000H
	DD	0800000H
CONST	ENDS
;	COMDAT ?g_XMAbsMask@DirectX@@3UXMVECTORI32@1@B
CONST	SEGMENT
?g_XMAbsMask@DirectX@@3UXMVECTORI32@1@B DD 07fffffffH	; DirectX::g_XMAbsMask
	DD	07fffffffH
	DD	07fffffffH
	DD	07fffffffH
CONST	ENDS
;	COMDAT ?g_XMQNaNTest@DirectX@@3UXMVECTORI32@1@B
CONST	SEGMENT
?g_XMQNaNTest@DirectX@@3UXMVECTORI32@1@B DD 07fffffH	; DirectX::g_XMQNaNTest
	DD	07fffffH
	DD	07fffffH
	DD	07fffffH
CONST	ENDS
;	COMDAT ?g_XMQNaN@DirectX@@3UXMVECTORI32@1@B
CONST	SEGMENT
?g_XMQNaN@DirectX@@3UXMVECTORI32@1@B DD 07fc00000H	; DirectX::g_XMQNaN
	DD	07fc00000H
	DD	07fc00000H
	DD	07fc00000H
CONST	ENDS
;	COMDAT ?g_XMInfinity@DirectX@@3UXMVECTORI32@1@B
CONST	SEGMENT
?g_XMInfinity@DirectX@@3UXMVECTORI32@1@B DD 07f800000H	; DirectX::g_XMInfinity
	DD	07f800000H
	DD	07f800000H
	DD	07f800000H
CONST	ENDS
;	COMDAT ?g_XMEpsilon@DirectX@@3UXMVECTORF32@1@B
CONST	SEGMENT
?g_XMEpsilon@DirectX@@3UXMVECTORF32@1@B DD 034000000r ; 1.19209e-07 ; DirectX::g_XMEpsilon
	DD	034000000r			; 1.19209e-07
	DD	034000000r			; 1.19209e-07
	DD	034000000r			; 1.19209e-07
CONST	ENDS
;	COMDAT ?g_XMReciprocalTwoPi@DirectX@@3UXMVECTORF32@1@B
CONST	SEGMENT
?g_XMReciprocalTwoPi@DirectX@@3UXMVECTORF32@1@B DD 03e22f983r ; 0.159155 ; DirectX::g_XMReciprocalTwoPi
	DD	03e22f983r			; 0.159155
	DD	03e22f983r			; 0.159155
	DD	03e22f983r			; 0.159155
CONST	ENDS
;	COMDAT ?g_XMTwoPi@DirectX@@3UXMVECTORF32@1@B
CONST	SEGMENT
?g_XMTwoPi@DirectX@@3UXMVECTORF32@1@B DD 040c90fdbr ; 6.28319 ; DirectX::g_XMTwoPi
	DD	040c90fdbr			; 6.28319
	DD	040c90fdbr			; 6.28319
	DD	040c90fdbr			; 6.28319
CONST	ENDS
;	COMDAT ?g_XMReciprocalPi@DirectX@@3UXMVECTORF32@1@B
CONST	SEGMENT
?g_XMReciprocalPi@DirectX@@3UXMVECTORF32@1@B DD 03ea2f983r ; 0.31831 ; DirectX::g_XMReciprocalPi
	DD	03ea2f983r			; 0.31831
	DD	03ea2f983r			; 0.31831
	DD	03ea2f983r			; 0.31831
CONST	ENDS
;	COMDAT ?g_XMPi@DirectX@@3UXMVECTORF32@1@B
CONST	SEGMENT
?g_XMPi@DirectX@@3UXMVECTORF32@1@B DD 040490fdbr ; 3.14159 ; DirectX::g_XMPi
	DD	040490fdbr			; 3.14159
	DD	040490fdbr			; 3.14159
	DD	040490fdbr			; 3.14159
CONST	ENDS
;	COMDAT ?g_XMHalfPi@DirectX@@3UXMVECTORF32@1@B
CONST	SEGMENT
?g_XMHalfPi@DirectX@@3UXMVECTORF32@1@B DD 03fc90fdbr ; 1.5708 ; DirectX::g_XMHalfPi
	DD	03fc90fdbr			; 1.5708
	DD	03fc90fdbr			; 1.5708
	DD	03fc90fdbr			; 1.5708
CONST	ENDS
;	COMDAT ?g_XMNegativePi@DirectX@@3UXMVECTORF32@1@B
CONST	SEGMENT
?g_XMNegativePi@DirectX@@3UXMVECTORF32@1@B DD 0c0490fdbr ; -3.14159 ; DirectX::g_XMNegativePi
	DD	0c0490fdbr			; -3.14159
	DD	0c0490fdbr			; -3.14159
	DD	0c0490fdbr			; -3.14159
CONST	ENDS
;	COMDAT ?g_XMNegativeTwoPi@DirectX@@3UXMVECTORF32@1@B
CONST	SEGMENT
?g_XMNegativeTwoPi@DirectX@@3UXMVECTORF32@1@B DD 0c0c90fdbr ; -6.28319 ; DirectX::g_XMNegativeTwoPi
	DD	0c0c90fdbr			; -6.28319
	DD	0c0c90fdbr			; -6.28319
	DD	0c0c90fdbr			; -6.28319
CONST	ENDS
;	COMDAT ?g_XMNegativeOneHalf@DirectX@@3UXMVECTORF32@1@B
CONST	SEGMENT
?g_XMNegativeOneHalf@DirectX@@3UXMVECTORF32@1@B DD 0bf000000r ; -0.5 ; DirectX::g_XMNegativeOneHalf
	DD	0bf000000r			; -0.5
	DD	0bf000000r			; -0.5
	DD	0bf000000r			; -0.5
CONST	ENDS
;	COMDAT ?g_XMOneHalf@DirectX@@3UXMVECTORF32@1@B
CONST	SEGMENT
?g_XMOneHalf@DirectX@@3UXMVECTORF32@1@B DD 03f000000r ; 0.5 ; DirectX::g_XMOneHalf
	DD	03f000000r			; 0.5
	DD	03f000000r			; 0.5
	DD	03f000000r			; 0.5
CONST	ENDS
;	COMDAT ?g_XMNegativeOne@DirectX@@3UXMVECTORF32@1@B
CONST	SEGMENT
?g_XMNegativeOne@DirectX@@3UXMVECTORF32@1@B DD 0bf800000r ; -1 ; DirectX::g_XMNegativeOne
	DD	0bf800000r			; -1
	DD	0bf800000r			; -1
	DD	0bf800000r			; -1
CONST	ENDS
;	COMDAT ?g_XMSix@DirectX@@3UXMVECTORF32@1@B
CONST	SEGMENT
?g_XMSix@DirectX@@3UXMVECTORF32@1@B DD 040c00000r ; 6	; DirectX::g_XMSix
	DD	040c00000r			; 6
	DD	040c00000r			; 6
	DD	040c00000r			; 6
CONST	ENDS
;	COMDAT ?g_XMFour@DirectX@@3UXMVECTORF32@1@B
CONST	SEGMENT
?g_XMFour@DirectX@@3UXMVECTORF32@1@B DD 040800000r ; 4	; DirectX::g_XMFour
	DD	040800000r			; 4
	DD	040800000r			; 4
	DD	040800000r			; 4
CONST	ENDS
;	COMDAT ?g_XMTwo@DirectX@@3UXMVECTORF32@1@B
CONST	SEGMENT
?g_XMTwo@DirectX@@3UXMVECTORF32@1@B DD 040000000r ; 2	; DirectX::g_XMTwo
	DD	040000000r			; 2
	DD	040000000r			; 2
	DD	040000000r			; 2
CONST	ENDS
;	COMDAT ?g_XMZero@DirectX@@3UXMVECTORF32@1@B
CONST	SEGMENT
?g_XMZero@DirectX@@3UXMVECTORF32@1@B DD 000000000r ; 0	; DirectX::g_XMZero
	DD	000000000r			; 0
	DD	000000000r			; 0
	DD	000000000r			; 0
CONST	ENDS
;	COMDAT ?g_XMOne3@DirectX@@3UXMVECTORF32@1@B
CONST	SEGMENT
?g_XMOne3@DirectX@@3UXMVECTORF32@1@B DD 03f800000r ; 1	; DirectX::g_XMOne3
	DD	03f800000r			; 1
	DD	03f800000r			; 1
	DD	000000000r			; 0
CONST	ENDS
;	COMDAT ?g_XMOne@DirectX@@3UXMVECTORF32@1@B
CONST	SEGMENT
?g_XMOne@DirectX@@3UXMVECTORF32@1@B DD 03f800000r ; 1	; DirectX::g_XMOne
	DD	03f800000r			; 1
	DD	03f800000r			; 1
	DD	03f800000r			; 1
CONST	ENDS
;	COMDAT ?g_XMMaskW@DirectX@@3UXMVECTORU32@1@B
CONST	SEGMENT
?g_XMMaskW@DirectX@@3UXMVECTORU32@1@B DD 00H		; DirectX::g_XMMaskW
	DD	00H
	DD	00H
	DD	0ffffffffH
CONST	ENDS
;	COMDAT ?g_XMMaskZ@DirectX@@3UXMVECTORU32@1@B
CONST	SEGMENT
?g_XMMaskZ@DirectX@@3UXMVECTORU32@1@B DD 00H		; DirectX::g_XMMaskZ
	DD	00H
	DD	0ffffffffH
	DD	00H
CONST	ENDS
;	COMDAT ?g_XMMaskY@DirectX@@3UXMVECTORU32@1@B
CONST	SEGMENT
?g_XMMaskY@DirectX@@3UXMVECTORU32@1@B DD 00H		; DirectX::g_XMMaskY
	DD	0ffffffffH
	DD	00H
	DD	00H
CONST	ENDS
;	COMDAT ?g_XMMaskX@DirectX@@3UXMVECTORU32@1@B
CONST	SEGMENT
?g_XMMaskX@DirectX@@3UXMVECTORU32@1@B DD 0ffffffffH	; DirectX::g_XMMaskX
	DD	00H
	DD	00H
	DD	00H
CONST	ENDS
;	COMDAT ?g_XMMask3@DirectX@@3UXMVECTORU32@1@B
CONST	SEGMENT
?g_XMMask3@DirectX@@3UXMVECTORU32@1@B DD 0ffffffffH	; DirectX::g_XMMask3
	DD	0ffffffffH
	DD	0ffffffffH
	DD	00H
CONST	ENDS
;	COMDAT ?g_XMMaskXY@DirectX@@3UXMVECTORU32@1@B
CONST	SEGMENT
?g_XMMaskXY@DirectX@@3UXMVECTORU32@1@B DD 0ffffffffH	; DirectX::g_XMMaskXY
	DD	0ffffffffH
	DD	00H
	DD	00H
CONST	ENDS
;	COMDAT ?g_XMNegate3@DirectX@@3UXMVECTORU32@1@B
CONST	SEGMENT
?g_XMNegate3@DirectX@@3UXMVECTORU32@1@B DD 080000000H	; DirectX::g_XMNegate3
	DD	080000000H
	DD	080000000H
	DD	00H
CONST	ENDS
;	COMDAT ?g_XMNegativeZero@DirectX@@3UXMVECTORU32@1@B
CONST	SEGMENT
?g_XMNegativeZero@DirectX@@3UXMVECTORU32@1@B DD 080000000H ; DirectX::g_XMNegativeZero
	DD	080000000H
	DD	080000000H
	DD	080000000H
CONST	ENDS
;	COMDAT ?g_XMNegIdentityR3@DirectX@@3UXMVECTORF32@1@B
CONST	SEGMENT
?g_XMNegIdentityR3@DirectX@@3UXMVECTORF32@1@B DD 000000000r ; 0 ; DirectX::g_XMNegIdentityR3
	DD	000000000r			; 0
	DD	000000000r			; 0
	DD	0bf800000r			; -1
CONST	ENDS
;	COMDAT ?g_XMNegIdentityR2@DirectX@@3UXMVECTORF32@1@B
CONST	SEGMENT
?g_XMNegIdentityR2@DirectX@@3UXMVECTORF32@1@B DD 000000000r ; 0 ; DirectX::g_XMNegIdentityR2
	DD	000000000r			; 0
	DD	0bf800000r			; -1
	DD	000000000r			; 0
CONST	ENDS
;	COMDAT ?g_XMNegIdentityR1@DirectX@@3UXMVECTORF32@1@B
CONST	SEGMENT
?g_XMNegIdentityR1@DirectX@@3UXMVECTORF32@1@B DD 000000000r ; 0 ; DirectX::g_XMNegIdentityR1
	DD	0bf800000r			; -1
	DD	000000000r			; 0
	DD	000000000r			; 0
CONST	ENDS
;	COMDAT ?g_XMNegIdentityR0@DirectX@@3UXMVECTORF32@1@B
CONST	SEGMENT
?g_XMNegIdentityR0@DirectX@@3UXMVECTORF32@1@B DD 0bf800000r ; -1 ; DirectX::g_XMNegIdentityR0
	DD	000000000r			; 0
	DD	000000000r			; 0
	DD	000000000r			; 0
CONST	ENDS
;	COMDAT ?g_XMIdentityR3@DirectX@@3UXMVECTORF32@1@B
CONST	SEGMENT
?g_XMIdentityR3@DirectX@@3UXMVECTORF32@1@B DD 000000000r ; 0 ; DirectX::g_XMIdentityR3
	DD	000000000r			; 0
	DD	000000000r			; 0
	DD	03f800000r			; 1
CONST	ENDS
;	COMDAT ?g_XMIdentityR2@DirectX@@3UXMVECTORF32@1@B
CONST	SEGMENT
?g_XMIdentityR2@DirectX@@3UXMVECTORF32@1@B DD 000000000r ; 0 ; DirectX::g_XMIdentityR2
	DD	000000000r			; 0
	DD	03f800000r			; 1
	DD	000000000r			; 0
CONST	ENDS
;	COMDAT ?g_XMIdentityR1@DirectX@@3UXMVECTORF32@1@B
CONST	SEGMENT
?g_XMIdentityR1@DirectX@@3UXMVECTORF32@1@B DD 000000000r ; 0 ; DirectX::g_XMIdentityR1
	DD	03f800000r			; 1
	DD	000000000r			; 0
	DD	000000000r			; 0
CONST	ENDS
;	COMDAT ?g_XMIdentityR0@DirectX@@3UXMVECTORF32@1@B
CONST	SEGMENT
?g_XMIdentityR0@DirectX@@3UXMVECTORF32@1@B DD 03f800000r ; 1 ; DirectX::g_XMIdentityR0
	DD	000000000r			; 0
	DD	000000000r			; 0
	DD	000000000r			; 0
CONST	ENDS
;	COMDAT ?g_XMPiConstants0@DirectX@@3UXMVECTORF32@1@B
CONST	SEGMENT
?g_XMPiConstants0@DirectX@@3UXMVECTORF32@1@B DD 040490fdbr ; 3.14159 ; DirectX::g_XMPiConstants0
	DD	040c90fdbr			; 6.28319
	DD	03ea2f983r			; 0.31831
	DD	03e22f983r			; 0.159155
CONST	ENDS
;	COMDAT ?g_XMArcEstCoefficients@DirectX@@3UXMVECTORF32@1@B
CONST	SEGMENT
?g_XMArcEstCoefficients@DirectX@@3UXMVECTORF32@1@B DD 03fc90da4r ; 1.57073 ; DirectX::g_XMArcEstCoefficients
	DD	0be593484r			; -0.212114
	DD	03d981627r			; 0.074261
	DD	0bc996e30r			; -0.0187293
CONST	ENDS
;	COMDAT ?g_XMTanEstCoefficients@DirectX@@3UXMVECTORF32@1@B
CONST	SEGMENT
?g_XMTanEstCoefficients@DirectX@@3UXMVECTORF32@1@B DD 0401ef9dbr ; 2.484 ; DirectX::g_XMTanEstCoefficients
	DD	0be482f23r			; -0.195492
	DD	0401de9e6r			; 2.4674
	DD	03ea2f983r			; 0.31831
CONST	ENDS
;	COMDAT ?g_XMATanEstCoefficients1@DirectX@@3UXMVECTORF32@1@B
CONST	SEGMENT
?g_XMATanEstCoefficients1@DirectX@@3UXMVECTORF32@1@B DD 0bea91d04r ; -0.330299 ; DirectX::g_XMATanEstCoefficients1
	DD	03e3876e2r			; 0.180141
	DD	0bdae5a36r			; -0.085133
	DD	03caaae5fr			; 0.0208351
CONST	ENDS
;	COMDAT ?g_XMATanEstCoefficients0@DirectX@@3UXMVECTORF32@1@B
CONST	SEGMENT
?g_XMATanEstCoefficients0@DirectX@@3UXMVECTORF32@1@B DD 03f7ff738r ; 0.999866 ; DirectX::g_XMATanEstCoefficients0
	DD	03f7ff738r			; 0.999866
	DD	03f7ff738r			; 0.999866
	DD	03f7ff738r			; 0.999866
CONST	ENDS
;	COMDAT ?g_XMATanCoefficients1@DirectX@@3UXMVECTORF32@1@B
CONST	SEGMENT
?g_XMATanCoefficients1@DirectX@@3UXMVECTORF32@1@B DD 0bd9a3174r ; -0.0752896 ; DirectX::g_XMATanCoefficients1
	DD	03d2fc1fer			; 0.0429096
	DD	0bc846e02r			; -0.0161657
	DD	03b3bd74ar			; 0.00286623
CONST	ENDS
;	COMDAT ?g_XMATanCoefficients0@DirectX@@3UXMVECTORF32@1@B
CONST	SEGMENT
?g_XMATanCoefficients0@DirectX@@3UXMVECTORF32@1@B DD 0beaaaa6cr ; -0.333331 ; DirectX::g_XMATanCoefficients0
	DD	03e4cbbe5r			; 0.199936
	DD	0be117fc7r			; -0.142089
	DD	03dda3d83r			; 0.106563
CONST	ENDS
;	COMDAT ?g_XMArcCoefficients1@DirectX@@3UXMVECTORF32@1@B
CONST	SEGMENT
?g_XMArcCoefficients1@DirectX@@3UXMVECTORF32@1@B DD 03cfd10f8r ; 0.0308919 ; DirectX::g_XMArcCoefficients1
	DD	0bc8bfc66r			; -0.0170881
	DD	03bda90c5r			; 0.00667009
	DD	0baa57a2cr			; -0.00126249
CONST	ENDS
;	COMDAT ?g_XMArcCoefficients0@DirectX@@3UXMVECTORF32@1@B
CONST	SEGMENT
?g_XMArcCoefficients0@DirectX@@3UXMVECTORF32@1@B DD 03fc90fdar ; 1.5708 ; DirectX::g_XMArcCoefficients0
	DD	0be5bbfcar			; -0.214599
	DD	03db63a9er			; 0.088979
	DD	0bd4d8392r			; -0.0501743
CONST	ENDS
;	COMDAT ?g_XMTanCoefficients2@DirectX@@3UXMVECTORF32@1@B
CONST	SEGMENT
?g_XMTanCoefficients2@DirectX@@3UXMVECTORF32@1@B DD 03a1aac12r ; 0.000590027 ; DirectX::g_XMTanCoefficients2
	DD	0397abeb9r			; 0.000239129
	DD	038cb3f0cr			; 9.69154e-05
	DD	03824bec9r			; 3.92783e-05
CONST	ENDS
;	COMDAT ?g_XMTanCoefficients1@DirectX@@3UXMVECTORF32@1@B
CONST	SEGMENT
?g_XMTanCoefficients1@DirectX@@3UXMVECTORF32@1@B DD 03cb327a4r ; 0.0218695 ; DirectX::g_XMTanCoefficients1
	DD	03c11371br			; 0.00886324
	DD	03b6b69e9r			; 0.00359213
	DD	03abed1b3r			; 0.00145583
CONST	ENDS
;	COMDAT ?g_XMTanCoefficients0@DirectX@@3UXMVECTORF32@1@B
CONST	SEGMENT
?g_XMTanCoefficients0@DirectX@@3UXMVECTORF32@1@B DD 03f800000r ; 1 ; DirectX::g_XMTanCoefficients0
	DD	03eaaaaabr			; 0.333333
	DD	03e088889r			; 0.133333
	DD	03d5d0dd1r			; 0.0539683
CONST	ENDS
;	COMDAT ?g_XMCosCoefficients1@DirectX@@3UXMVECTORF32@1@B
CONST	SEGMENT
?g_XMCosCoefficients1@DirectX@@3UXMVECTORF32@1@B DD 0b48bdd11r ; -2.60516e-07 ; DirectX::g_XMCosCoefficients1
	DD	0befff67er			; -0.499927
	DD	03d29f587r			; 0.0414939
	DD	0baa69fdbr			; -0.00127124
CONST	ENDS
;	COMDAT ?g_XMCosCoefficients0@DirectX@@3UXMVECTORF32@1@B
CONST	SEGMENT
?g_XMCosCoefficients0@DirectX@@3UXMVECTORF32@1@B DD 0bf000000r ; -0.5 ; DirectX::g_XMCosCoefficients0
	DD	03d2aaaa3r			; 0.0416666
	DD	0bab609aar			; -0.00138884
	DD	037cfb4c2r			; 2.47605e-05
CONST	ENDS
;	COMDAT ?g_XMSinCoefficients1@DirectX@@3UXMVECTORF32@1@B
CONST	SEGMENT
?g_XMSinCoefficients1@DirectX@@3UXMVECTORF32@1@B DD 0b2cd365br ; -2.38899e-08 ; DirectX::g_XMSinCoefficients1
	DD	0be2aa888r			; -0.166659
	DD	03c08373cr			; 0.00831395
	DD	0b9423ec8r			; -0.000185247
CONST	ENDS
;	COMDAT ?g_XMSinCoefficients0@DirectX@@3UXMVECTORF32@1@B
CONST	SEGMENT
?g_XMSinCoefficients0@DirectX@@3UXMVECTORF32@1@B DD 0be2aaaabr ; -0.166667 ; DirectX::g_XMSinCoefficients0
	DD	03c088886r			; 0.00833333
	DD	0b9500bf1r			; -0.000198409
	DD	03638b88er			; 2.75256e-06
CONST	ENDS
PUBLIC	?is_constant_evaluated@std@@YA_NXZ		; std::is_constant_evaluated
PUBLIC	?max@?$numeric_limits@_J@std@@SA_JXZ		; std::numeric_limits<__int64>::max
PUBLIC	??2@YAPEAX_KPEAX@Z				; operator new
PUBLIC	??0exception@std@@QEAA@QEBD@Z			; std::exception::exception
PUBLIC	??0exception@std@@QEAA@QEBDH@Z			; std::exception::exception
PUBLIC	??0exception@std@@QEAA@AEBV01@@Z		; std::exception::exception
PUBLIC	??1exception@std@@UEAA@XZ			; std::exception::~exception
PUBLIC	?what@exception@std@@UEBAPEBDXZ			; std::exception::what
PUBLIC	??_Gexception@std@@UEAAPEAXI@Z			; std::exception::`scalar deleting destructor'
PUBLIC	??0bad_alloc@std@@AEAA@QEBD@Z			; std::bad_alloc::bad_alloc
PUBLIC	??1bad_alloc@std@@UEAA@XZ			; std::bad_alloc::~bad_alloc
PUBLIC	??0bad_alloc@std@@QEAA@AEBV01@@Z		; std::bad_alloc::bad_alloc
PUBLIC	??_Gbad_alloc@std@@UEAAPEAXI@Z			; std::bad_alloc::`scalar deleting destructor'
PUBLIC	??0bad_array_new_length@std@@QEAA@XZ		; std::bad_array_new_length::bad_array_new_length
PUBLIC	??1bad_array_new_length@std@@UEAA@XZ		; std::bad_array_new_length::~bad_array_new_length
PUBLIC	??0bad_array_new_length@std@@QEAA@AEBV01@@Z	; std::bad_array_new_length::bad_array_new_length
PUBLIC	??_Gbad_array_new_length@std@@UEAAPEAXI@Z	; std::bad_array_new_length::`scalar deleting destructor'
PUBLIC	?_Throw_bad_array_new_length@std@@YAXXZ		; std::_Throw_bad_array_new_length
PUBLIC	?_Allocate@_Default_allocate_traits@std@@SAPEAX_K@Z ; std::_Default_allocate_traits::_Allocate
PUBLIC	?_Adjust_manually_vector_aligned@std@@YAXAEAPEAXAEA_K@Z ; std::_Adjust_manually_vector_aligned
PUBLIC	??0_Container_proxy@std@@QEAA@PEAU_Container_base12@1@@Z ; std::_Container_proxy::_Container_proxy
PUBLIC	??0_Container_base12@std@@QEAA@XZ		; std::_Container_base12::_Container_base12
PUBLIC	?_Orphan_all@_Container_base12@std@@QEAAXXZ	; std::_Container_base12::_Orphan_all
PUBLIC	?_Orphan_all_unlocked_v3@_Container_base12@std@@AEAAXXZ ; std::_Container_base12::_Orphan_all_unlocked_v3
PUBLIC	?_Orphan_all_locked_v3@_Container_base12@std@@AEAAXXZ ; std::_Container_base12::_Orphan_all_locked_v3
PUBLIC	??$exchange@PEAU_Iterator_base12@std@@$$T@std@@YAPEAU_Iterator_base12@0@AEAPEAU10@$$QEA$$T@Z ; std::exchange<std::_Iterator_base12 *,std::nullptr_t>
PUBLIC	?_Release@_Basic_container_proxy_ptr12@std@@QEAAXXZ ; std::_Basic_container_proxy_ptr12::_Release
PUBLIC	??0_Basic_container_proxy_ptr12@std@@IEAA@XZ	; std::_Basic_container_proxy_ptr12::_Basic_container_proxy_ptr12
PUBLIC	??$addressof@U_Container_base12@std@@@std@@YAPEAU_Container_base12@0@AEAU10@@Z ; std::addressof<std::_Container_base12>
PUBLIC	??$_Construct_in_place@U_Container_proxy@std@@PEAU_Container_base12@2@@std@@YAXAEAU_Container_proxy@0@$$QEAPEAU_Container_base12@0@@Z ; std::_Construct_in_place<std::_Container_proxy,std::_Container_base12 *>
PUBLIC	?copy@?$_Char_traits@DH@std@@SAPEADQEADQEBD_K@Z	; std::_Char_traits<char,int>::copy
PUBLIC	?assign@?$_Char_traits@DH@std@@SAXAEADAEBD@Z	; std::_Char_traits<char,int>::assign
PUBLIC	?length@?$_Narrow_char_traits@DH@std@@SA_KQEBD@Z ; std::_Narrow_char_traits<char,int>::length
PUBLIC	?assign@?$_Narrow_char_traits@DH@std@@SAXAEADAEBD@Z ; std::_Narrow_char_traits<char,int>::assign
PUBLIC	?_Xlen_string@std@@YAXXZ			; std::_Xlen_string
PUBLIC	??0?$allocator@D@std@@QEAA@XZ			; std::allocator<char>::allocator<char>
PUBLIC	?deallocate@?$allocator@D@std@@QEAAXQEAD_K@Z	; std::allocator<char>::deallocate
PUBLIC	?allocate@?$allocator@D@std@@QEAAPEAD_K@Z	; std::allocator<char>::allocate
PUBLIC	?max_size@?$_Default_allocator_traits@V?$allocator@D@std@@@std@@SA_KAEBV?$allocator@D@2@@Z ; std::_Default_allocator_traits<std::allocator<char> >::max_size
PUBLIC	??0?$_String_val@U?$_Simple_types@D@std@@@std@@QEAA@XZ ; std::_String_val<std::_Simple_types<char> >::_String_val<std::_Simple_types<char> >
PUBLIC	?_Large_string_engaged@?$_String_val@U?$_Simple_types@D@std@@@std@@QEBA_NXZ ; std::_String_val<std::_Simple_types<char> >::_Large_string_engaged
PUBLIC	?_Activate_SSO_buffer@?$_String_val@U?$_Simple_types@D@std@@@std@@QEAAXXZ ; std::_String_val<std::_Simple_types<char> >::_Activate_SSO_buffer
PUBLIC	??0_Bxty@?$_String_val@U?$_Simple_types@D@std@@@std@@QEAA@XZ ; std::_String_val<std::_Simple_types<char> >::_Bxty::_Bxty
PUBLIC	??1_Bxty@?$_String_val@U?$_Simple_types@D@std@@@std@@QEAA@XZ ; std::_String_val<std::_Simple_types<char> >::_Bxty::~_Bxty
PUBLIC	??1?$_String_val@U?$_Simple_types@D@std@@@std@@QEAA@XZ ; std::_String_val<std::_Simple_types<char> >::~_String_val<std::_Simple_types<char> >
PUBLIC	??0?$basic_string@DU?$char_traits@D@std@@V?$allocator@D@2@@std@@QEAA@XZ ; std::basic_string<char,std::char_traits<char>,std::allocator<char> >::basic_string<char,std::char_traits<char>,std::allocator<char> >
PUBLIC	??0?$basic_string@DU?$char_traits@D@std@@V?$allocator@D@2@@std@@QEAA@QEBD@Z ; std::basic_string<char,std::char_traits<char>,std::allocator<char> >::basic_string<char,std::char_traits<char>,std::allocator<char> >
PUBLIC	?_Start_element_lifetimes@?$basic_string@DU?$char_traits@D@std@@V?$allocator@D@2@@std@@CAXQEAD_K@Z ; std::basic_string<char,std::char_traits<char>,std::allocator<char> >::_Start_element_lifetimes
PUBLIC	??1?$basic_string@DU?$char_traits@D@std@@V?$allocator@D@2@@std@@QEAA@XZ ; std::basic_string<char,std::char_traits<char>,std::allocator<char> >::~basic_string<char,std::char_traits<char>,std::allocator<char> >
PUBLIC	?max_size@?$basic_string@DU?$char_traits@D@std@@V?$allocator@D@2@@std@@QEBA_KXZ ; std::basic_string<char,std::char_traits<char>,std::allocator<char> >::max_size
PUBLIC	?_Calculate_growth@?$basic_string@DU?$char_traits@D@std@@V?$allocator@D@2@@std@@CA_K_K00@Z ; std::basic_string<char,std::char_traits<char>,std::allocator<char> >::_Calculate_growth
PUBLIC	?_Calculate_growth@?$basic_string@DU?$char_traits@D@std@@V?$allocator@D@2@@std@@AEBA_K_K@Z ; std::basic_string<char,std::char_traits<char>,std::allocator<char> >::_Calculate_growth
PUBLIC	?_Tidy_init@?$basic_string@DU?$char_traits@D@std@@V?$allocator@D@2@@std@@AEAAXXZ ; std::basic_string<char,std::char_traits<char>,std::allocator<char> >::_Tidy_init
PUBLIC	?_Tidy_deallocate@?$basic_string@DU?$char_traits@D@std@@V?$allocator@D@2@@std@@AEAAXXZ ; std::basic_string<char,std::char_traits<char>,std::allocator<char> >::_Tidy_deallocate
PUBLIC	?_Getal@?$basic_string@DU?$char_traits@D@std@@V?$allocator@D@2@@std@@AEAAAEAV?$allocator@D@2@XZ ; std::basic_string<char,std::char_traits<char>,std::allocator<char> >::_Getal
PUBLIC	?_Getal@?$basic_string@DU?$char_traits@D@std@@V?$allocator@D@2@@std@@AEBAAEBV?$allocator@D@2@XZ ; std::basic_string<char,std::char_traits<char>,std::allocator<char> >::_Getal
PUBLIC	?_Get_first@?$_Compressed_pair@V?$allocator@D@std@@V?$_String_val@U?$_Simple_types@D@std@@@2@$00@std@@QEAAAEAV?$allocator@D@2@XZ ; std::_Compressed_pair<std::allocator<char>,std::_String_val<std::_Simple_types<char> >,1>::_Get_first
PUBLIC	?_Get_first@?$_Compressed_pair@V?$allocator@D@std@@V?$_String_val@U?$_Simple_types@D@std@@@2@$00@std@@QEBAAEBV?$allocator@D@2@XZ ; std::_Compressed_pair<std::allocator<char>,std::_String_val<std::_Simple_types<char> >,1>::_Get_first
PUBLIC	??1?$_Compressed_pair@V?$allocator@D@std@@V?$_String_val@U?$_Simple_types@D@std@@@2@$00@std@@QEAA@XZ ; std::_Compressed_pair<std::allocator<char>,std::_String_val<std::_Simple_types<char> >,1>::~_Compressed_pair<std::allocator<char>,std::_String_val<std::_Simple_types<char> >,1>
PUBLIC	?InternalRelease@?$ComPtr@UIUnknown@@@WRL@Microsoft@@IEAAKXZ ; Microsoft::WRL::ComPtr<IUnknown>::InternalRelease
PUBLIC	??1?$ComPtr@UIUnknown@@@WRL@Microsoft@@QEAA@XZ	; Microsoft::WRL::ComPtr<IUnknown>::~ComPtr<IUnknown>
PUBLIC	??_E?$ComPtr@UIUnknown@@@WRL@Microsoft@@QEAAPEAXI@Z ; Microsoft::WRL::ComPtr<IUnknown>::`vector deleting destructor'
PUBLIC	??0D3D12Mesh@@QEAA@XZ				; D3D12Mesh::D3D12Mesh
PUBLIC	??0D3D12Mesh@@QEAA@V?$vector@UVertexDefault@@V?$allocator@UVertexDefault@@@std@@@std@@V?$vector@GV?$allocator@G@std@@@2@@Z ; D3D12Mesh::D3D12Mesh
PUBLIC	?Init@D3D12Mesh@@QEAAXV?$vector@UVertexDefault@@V?$allocator@UVertexDefault@@@std@@@std@@V?$vector@GV?$allocator@G@std@@@3@@Z ; D3D12Mesh::Init
PUBLIC	??0logic_error@std@@QEAA@PEBD@Z			; std::logic_error::logic_error
PUBLIC	??1logic_error@std@@UEAA@XZ			; std::logic_error::~logic_error
PUBLIC	??0logic_error@std@@QEAA@AEBV01@@Z		; std::logic_error::logic_error
PUBLIC	??_Glogic_error@std@@UEAAPEAXI@Z		; std::logic_error::`scalar deleting destructor'
PUBLIC	??1error_category@std@@UEAA@XZ			; std::error_category::~error_category
PUBLIC	?default_error_condition@error_category@std@@UEBA?AVerror_condition@2@H@Z ; std::error_category::default_error_condition
PUBLIC	?equivalent@error_category@std@@UEBA_NHAEBVerror_condition@2@@Z ; std::error_category::equivalent
PUBLIC	?equivalent@error_category@std@@UEBA_NAEBVerror_code@2@H@Z ; std::error_category::equivalent
PUBLIC	??8error_category@std@@QEBA_NAEBV01@@Z		; std::error_category::operator==
PUBLIC	??$_Bit_cast@_KT_Addr_storage@error_category@std@@$0A@@std@@YA_KAEBT_Addr_storage@error_category@0@@Z ; std::_Bit_cast<unsigned __int64,std::error_category::_Addr_storage,0>
PUBLIC	??0error_code@std@@QEAA@HAEBVerror_category@1@@Z ; std::error_code::error_code
PUBLIC	?value@error_code@std@@QEBAHXZ			; std::error_code::value
PUBLIC	?category@error_code@std@@QEBAAEBVerror_category@2@XZ ; std::error_code::category
PUBLIC	??0error_condition@std@@QEAA@HAEBVerror_category@1@@Z ; std::error_condition::error_condition
PUBLIC	?value@error_condition@std@@QEBAHXZ		; std::error_condition::value
PUBLIC	?category@error_condition@std@@QEBAAEBVerror_category@2@XZ ; std::error_condition::category
PUBLIC	??8std@@YA_NAEBVerror_condition@0@0@Z		; std::operator==
PUBLIC	?future_category@std@@YAAEBVerror_category@1@XZ	; std::future_category
PUBLIC	?make_error_code@std@@YA?AVerror_code@1@W4future_errc@1@@Z ; std::make_error_code
PUBLIC	?_Future_error_map@std@@YAPEBDH@Z		; std::_Future_error_map
PUBLIC	??0future_error@std@@QEAA@W4future_errc@1@@Z	; std::future_error::future_error
PUBLIC	?what@future_error@std@@UEBAPEBDXZ		; std::future_error::what
PUBLIC	??1future_error@std@@UEAA@XZ			; std::future_error::~future_error
PUBLIC	??0future_error@std@@QEAA@AEBV01@@Z		; std::future_error::future_error
PUBLIC	??_Gfuture_error@std@@UEAAPEAXI@Z		; std::future_error::`scalar deleting destructor'
PUBLIC	?_Throw_future_error2@std@@YAXW4future_errc@1@@Z ; std::_Throw_future_error2
PUBLIC	?name@_Future_error_category2@std@@UEBAPEBDXZ	; std::_Future_error_category2::name
PUBLIC	?message@_Future_error_category2@std@@UEBA?AV?$basic_string@DU?$char_traits@D@std@@V?$allocator@D@2@@2@H@Z ; std::_Future_error_category2::message
PUBLIC	??1_Future_error_category2@std@@UEAA@XZ		; std::_Future_error_category2::~_Future_error_category2
PUBLIC	??_G_Future_error_category2@std@@UEAAPEAXI@Z	; std::_Future_error_category2::`scalar deleting destructor'
PUBLIC	??$_Immortalize_memcpy_image@V_Future_error_category2@std@@@std@@YAAEBV_Future_error_category2@0@XZ ; std::_Immortalize_memcpy_image<std::_Future_error_category2>
PUBLIC	?_Release@?$_Associated_state@H@std@@QEAAXXZ	; std::_Associated_state<int>::_Release
PUBLIC	?_Already_retrieved@?$_Associated_state@H@std@@QEBA_NXZ ; std::_Associated_state<int>::_Already_retrieved
PUBLIC	?_Delete_this@?$_Associated_state@H@std@@AEAAXXZ ; std::_Associated_state<int>::_Delete_this
PUBLIC	??1?$_State_manager@H@std@@QEAA@XZ		; std::_State_manager<int>::~_State_manager<int>
PUBLIC	?valid@?$_State_manager@H@std@@QEBA_NXZ		; std::_State_manager<int>::valid
PUBLIC	?wait@?$_State_manager@H@std@@QEBAXXZ		; std::_State_manager<int>::wait
PUBLIC	??1?$future@X@std@@QEAA@XZ			; std::future<void>::~future<void>
PUBLIC	?deallocate@?$allocator@UVertexDefault@@@std@@QEAAXQEAUVertexDefault@@_K@Z ; std::allocator<VertexDefault>::deallocate
PUBLIC	?allocate@?$allocator@UVertexDefault@@@std@@QEAAPEAUVertexDefault@@_K@Z ; std::allocator<VertexDefault>::allocate
PUBLIC	?max_size@?$_Default_allocator_traits@V?$allocator@UVertexDefault@@@std@@@std@@SA_KAEBV?$allocator@UVertexDefault@@@2@@Z ; std::_Default_allocator_traits<std::allocator<VertexDefault> >::max_size
PUBLIC	?select_on_container_copy_construction@?$_Default_allocator_traits@V?$allocator@UVertexDefault@@@std@@@std@@SA?AV?$allocator@UVertexDefault@@@2@AEBV32@@Z ; std::_Default_allocator_traits<std::allocator<VertexDefault> >::select_on_container_copy_construction
PUBLIC	??0?$vector@UVertexDefault@@V?$allocator@UVertexDefault@@@std@@@std@@QEAA@AEBV01@@Z ; std::vector<VertexDefault,std::allocator<VertexDefault> >::vector<VertexDefault,std::allocator<VertexDefault> >
PUBLIC	??1?$vector@UVertexDefault@@V?$allocator@UVertexDefault@@@std@@@std@@QEAA@XZ ; std::vector<VertexDefault,std::allocator<VertexDefault> >::~vector<VertexDefault,std::allocator<VertexDefault> >
PUBLIC	?data@?$vector@UVertexDefault@@V?$allocator@UVertexDefault@@@std@@@std@@QEAAPEAUVertexDefault@@XZ ; std::vector<VertexDefault,std::allocator<VertexDefault> >::data
PUBLIC	?size@?$vector@UVertexDefault@@V?$allocator@UVertexDefault@@@std@@@std@@QEBA_KXZ ; std::vector<VertexDefault,std::allocator<VertexDefault> >::size
PUBLIC	?max_size@?$vector@UVertexDefault@@V?$allocator@UVertexDefault@@@std@@@std@@QEBA_KXZ ; std::vector<VertexDefault,std::allocator<VertexDefault> >::max_size
PUBLIC	?_Buy_raw@?$vector@UVertexDefault@@V?$allocator@UVertexDefault@@@std@@@std@@AEAAX_K@Z ; std::vector<VertexDefault,std::allocator<VertexDefault> >::_Buy_raw
PUBLIC	?_Buy_nonzero@?$vector@UVertexDefault@@V?$allocator@UVertexDefault@@@std@@@std@@AEAAX_K@Z ; std::vector<VertexDefault,std::allocator<VertexDefault> >::_Buy_nonzero
PUBLIC	?_Tidy@?$vector@UVertexDefault@@V?$allocator@UVertexDefault@@@std@@@std@@AEAAXXZ ; std::vector<VertexDefault,std::allocator<VertexDefault> >::_Tidy
PUBLIC	?_Xlength@?$vector@UVertexDefault@@V?$allocator@UVertexDefault@@@std@@@std@@CAXXZ ; std::vector<VertexDefault,std::allocator<VertexDefault> >::_Xlength
PUBLIC	?_Getal@?$vector@UVertexDefault@@V?$allocator@UVertexDefault@@@std@@@std@@AEAAAEAV?$allocator@UVertexDefault@@@2@XZ ; std::vector<VertexDefault,std::allocator<VertexDefault> >::_Getal
PUBLIC	?_Getal@?$vector@UVertexDefault@@V?$allocator@UVertexDefault@@@std@@@std@@AEBAAEBV?$allocator@UVertexDefault@@@2@XZ ; std::vector<VertexDefault,std::allocator<VertexDefault> >::_Getal
PUBLIC	??0?$_Vector_val@U?$_Simple_types@UVertexDefault@@@std@@@std@@QEAA@XZ ; std::_Vector_val<std::_Simple_types<VertexDefault> >::_Vector_val<std::_Simple_types<VertexDefault> >
PUBLIC	?_Get_first@?$_Compressed_pair@V?$allocator@UVertexDefault@@@std@@V?$_Vector_val@U?$_Simple_types@UVertexDefault@@@std@@@2@$00@std@@QEAAAEAV?$allocator@UVertexDefault@@@2@XZ ; std::_Compressed_pair<std::allocator<VertexDefault>,std::_Vector_val<std::_Simple_types<VertexDefault> >,1>::_Get_first
PUBLIC	?_Get_first@?$_Compressed_pair@V?$allocator@UVertexDefault@@@std@@V?$_Vector_val@U?$_Simple_types@UVertexDefault@@@std@@@2@$00@std@@QEBAAEBV?$allocator@UVertexDefault@@@2@XZ ; std::_Compressed_pair<std::allocator<VertexDefault>,std::_Vector_val<std::_Simple_types<VertexDefault> >,1>::_Get_first
PUBLIC	?deallocate@?$allocator@G@std@@QEAAXQEAG_K@Z	; std::allocator<unsigned short>::deallocate
PUBLIC	?allocate@?$allocator@G@std@@QEAAPEAG_K@Z	; std::allocator<unsigned short>::allocate
PUBLIC	?max_size@?$_Default_allocator_traits@V?$allocator@G@std@@@std@@SA_KAEBV?$allocator@G@2@@Z ; std::_Default_allocator_traits<std::allocator<unsigned short> >::max_size
PUBLIC	?select_on_container_copy_construction@?$_Default_allocator_traits@V?$allocator@G@std@@@std@@SA?AV?$allocator@G@2@AEBV32@@Z ; std::_Default_allocator_traits<std::allocator<unsigned short> >::select_on_container_copy_construction
PUBLIC	??0?$vector@GV?$allocator@G@std@@@std@@QEAA@AEBV01@@Z ; std::vector<unsigned short,std::allocator<unsigned short> >::vector<unsigned short,std::allocator<unsigned short> >
PUBLIC	??1?$vector@GV?$allocator@G@std@@@std@@QEAA@XZ	; std::vector<unsigned short,std::allocator<unsigned short> >::~vector<unsigned short,std::allocator<unsigned short> >
PUBLIC	?data@?$vector@GV?$allocator@G@std@@@std@@QEAAPEAGXZ ; std::vector<unsigned short,std::allocator<unsigned short> >::data
PUBLIC	?size@?$vector@GV?$allocator@G@std@@@std@@QEBA_KXZ ; std::vector<unsigned short,std::allocator<unsigned short> >::size
PUBLIC	?max_size@?$vector@GV?$allocator@G@std@@@std@@QEBA_KXZ ; std::vector<unsigned short,std::allocator<unsigned short> >::max_size
PUBLIC	?_Buy_raw@?$vector@GV?$allocator@G@std@@@std@@AEAAX_K@Z ; std::vector<unsigned short,std::allocator<unsigned short> >::_Buy_raw
PUBLIC	?_Buy_nonzero@?$vector@GV?$allocator@G@std@@@std@@AEAAX_K@Z ; std::vector<unsigned short,std::allocator<unsigned short> >::_Buy_nonzero
PUBLIC	?_Tidy@?$vector@GV?$allocator@G@std@@@std@@AEAAXXZ ; std::vector<unsigned short,std::allocator<unsigned short> >::_Tidy
PUBLIC	?_Xlength@?$vector@GV?$allocator@G@std@@@std@@CAXXZ ; std::vector<unsigned short,std::allocator<unsigned short> >::_Xlength
PUBLIC	?_Getal@?$vector@GV?$allocator@G@std@@@std@@AEAAAEAV?$allocator@G@2@XZ ; std::vector<unsigned short,std::allocator<unsigned short> >::_Getal
PUBLIC	?_Getal@?$vector@GV?$allocator@G@std@@@std@@AEBAAEBV?$allocator@G@2@XZ ; std::vector<unsigned short,std::allocator<unsigned short> >::_Getal
PUBLIC	??0?$_Vector_val@U?$_Simple_types@G@std@@@std@@QEAA@XZ ; std::_Vector_val<std::_Simple_types<unsigned short> >::_Vector_val<std::_Simple_types<unsigned short> >
PUBLIC	?_Get_first@?$_Compressed_pair@V?$allocator@G@std@@V?$_Vector_val@U?$_Simple_types@G@std@@@2@$00@std@@QEAAAEAV?$allocator@G@2@XZ ; std::_Compressed_pair<std::allocator<unsigned short>,std::_Vector_val<std::_Simple_types<unsigned short> >,1>::_Get_first
PUBLIC	?_Get_first@?$_Compressed_pair@V?$allocator@G@std@@V?$_Vector_val@U?$_Simple_types@G@std@@@2@$00@std@@QEBAAEBV?$allocator@G@2@XZ ; std::_Compressed_pair<std::allocator<unsigned short>,std::_Vector_val<std::_Simple_types<unsigned short> >,1>::_Get_first
PUBLIC	??$CreateStaticBuffer@UVertexDefault@@@DirectX@@YAJPEAUID3D12Device@@AEAVResourceUploadBatch@0@PEBUVertexDefault@@_KW4D3D12_RESOURCE_STATES@@PEAPEAUID3D12Resource@@W4D3D12_RESOURCE_FLAGS@@@Z ; DirectX::CreateStaticBuffer<VertexDefault>
PUBLIC	??$CreateStaticBuffer@G@DirectX@@YAJPEAUID3D12Device@@AEAVResourceUploadBatch@0@PEBG_KW4D3D12_RESOURCE_STATES@@PEAPEAUID3D12Resource@@W4D3D12_RESOURCE_FLAGS@@@Z ; DirectX::CreateStaticBuffer<unsigned short>
PUBLIC	??$_Unfancy_maybe_null@G@std@@YAPEAGPEAG@Z	; std::_Unfancy_maybe_null<unsigned short>
PUBLIC	?deallocate@?$allocator@U_Container_proxy@std@@@std@@QEAAXQEAU_Container_proxy@2@_K@Z ; std::allocator<std::_Container_proxy>::deallocate
PUBLIC	?allocate@?$allocator@U_Container_proxy@std@@@std@@QEAAPEAU_Container_proxy@2@_K@Z ; std::allocator<std::_Container_proxy>::allocate
PUBLIC	??$?0G@?$allocator@U_Container_proxy@std@@@std@@QEAA@AEBV?$allocator@G@1@@Z ; std::allocator<std::_Container_proxy>::allocator<std::_Container_proxy><unsigned short>
PUBLIC	??$exchange@PEAU_Container_proxy@std@@$$T@std@@YAPEAU_Container_proxy@0@AEAPEAU10@$$QEA$$T@Z ; std::exchange<std::_Container_proxy *,std::nullptr_t>
PUBLIC	??$_Delete_plain_internal@V?$allocator@U_Container_proxy@std@@@std@@@std@@YAXAEAV?$allocator@U_Container_proxy@std@@@0@QEAU_Container_proxy@0@@Z ; std::_Delete_plain_internal<std::allocator<std::_Container_proxy> >
PUBLIC	??$?0V?$allocator@G@std@@$$V@?$_Compressed_pair@V?$allocator@G@std@@V?$_Vector_val@U?$_Simple_types@G@std@@@2@$00@std@@QEAA@U_One_then_variadic_args_t@1@$$QEAV?$allocator@G@1@@Z ; std::_Compressed_pair<std::allocator<unsigned short>,std::_Vector_val<std::_Simple_types<unsigned short> >,1>::_Compressed_pair<std::allocator<unsigned short>,std::_Vector_val<std::_Simple_types<unsigned short> >,1><std::allocator<unsigned short> >
PUBLIC	??$_Construct_n@AEBQEAGAEBQEAG@?$vector@GV?$allocator@G@std@@@std@@AEAAX_KAEBQEAG1@Z ; std::vector<unsigned short,std::allocator<unsigned short> >::_Construct_n<unsigned short * const &,unsigned short * const &>
PUBLIC	??$_Unfancy_maybe_null@UVertexDefault@@@std@@YAPEAUVertexDefault@@PEAU1@@Z ; std::_Unfancy_maybe_null<VertexDefault>
PUBLIC	??$?0UVertexDefault@@@?$allocator@U_Container_proxy@std@@@std@@QEAA@AEBV?$allocator@UVertexDefault@@@1@@Z ; std::allocator<std::_Container_proxy>::allocator<std::_Container_proxy><VertexDefault>
PUBLIC	??$?0V?$allocator@UVertexDefault@@@std@@$$V@?$_Compressed_pair@V?$allocator@UVertexDefault@@@std@@V?$_Vector_val@U?$_Simple_types@UVertexDefault@@@std@@@2@$00@std@@QEAA@U_One_then_variadic_args_t@1@$$QEAV?$allocator@UVertexDefault@@@1@@Z ; std::_Compressed_pair<std::allocator<VertexDefault>,std::_Vector_val<std::_Simple_types<VertexDefault> >,1>::_Compressed_pair<std::allocator<VertexDefault>,std::_Vector_val<std::_Simple_types<VertexDefault> >,1><std::allocator<VertexDefault> >
PUBLIC	??$_Construct_n@AEBQEAUVertexDefault@@AEBQEAU1@@?$vector@UVertexDefault@@V?$allocator@UVertexDefault@@@std@@@std@@AEAAX_KAEBQEAUVertexDefault@@1@Z ; std::vector<VertexDefault,std::allocator<VertexDefault> >::_Construct_n<VertexDefault * const &,VertexDefault * const &>
PUBLIC	??$_Alloc_proxy@V?$allocator@U_Container_proxy@std@@@std@@@_Container_base12@std@@QEAAX$$QEAV?$allocator@U_Container_proxy@std@@@1@@Z ; std::_Container_base12::_Alloc_proxy<std::allocator<std::_Container_proxy> >
PUBLIC	??$_Convert_size@_K_K@std@@YA_K_K@Z		; std::_Convert_size<unsigned __int64,unsigned __int64>
PUBLIC	??$?0D@?$allocator@U_Container_proxy@std@@@std@@QEAA@AEBV?$allocator@D@1@@Z ; std::allocator<std::_Container_proxy>::allocator<std::_Container_proxy><char>
PUBLIC	??$?0$$V@?$_Compressed_pair@V?$allocator@D@std@@V?$_String_val@U?$_Simple_types@D@std@@@2@$00@std@@QEAA@U_Zero_then_variadic_args_t@1@@Z ; std::_Compressed_pair<std::allocator<char>,std::_String_val<std::_Simple_types<char> >,1>::_Compressed_pair<std::allocator<char>,std::_String_val<std::_Simple_types<char> >,1><>
PUBLIC	??$_Construct@$00PEBD@?$basic_string@DU?$char_traits@D@std@@V?$allocator@D@2@@std@@AEAAXQEBD_K@Z ; std::basic_string<char,std::char_traits<char>,std::allocator<char> >::_Construct<1,char const *>
PUBLIC	??$_Destroy_range@V?$allocator@G@std@@@std@@YAXPEAGQEAGAEAV?$allocator@G@0@@Z ; std::_Destroy_range<std::allocator<unsigned short> >
PUBLIC	??$_Destroy_range@V?$allocator@UVertexDefault@@@std@@@std@@YAXPEAUVertexDefault@@QEAU1@AEAV?$allocator@UVertexDefault@@@0@@Z ; std::_Destroy_range<std::allocator<VertexDefault> >
PUBLIC	??$_Destroy_in_place@PEAD@std@@YAXAEAPEAD@Z	; std::_Destroy_in_place<char *>
PUBLIC	??$_Unfancy@D@std@@YAPEADPEAD@Z			; std::_Unfancy<char>
PUBLIC	??$max@_K@std@@YAAEB_KAEB_K0@Z			; std::max<unsigned __int64>
PUBLIC	??$_Deallocate@$0BA@$0A@@std@@YAXPEAX_K@Z	; std::_Deallocate<16,0>
PUBLIC	??$min@_K@std@@YAAEB_KAEB_K0@Z			; std::min<unsigned __int64>
PUBLIC	??$addressof@D@std@@YAPEADAEAD@Z		; std::addressof<char>
PUBLIC	??$construct_at@DAEBD$0A@@std@@YAPEADQEADAEBD@Z	; std::construct_at<char,char const &,0>
PUBLIC	??$addressof@U_Container_proxy@std@@@std@@YAPEAU_Container_proxy@0@AEAU10@@Z ; std::addressof<std::_Container_proxy>
PUBLIC	??$construct_at@U_Container_proxy@std@@PEAU_Container_base12@2@$0A@@std@@YAPEAU_Container_proxy@0@QEAU10@$$QEAPEAU_Container_base12@0@@Z ; std::construct_at<std::_Container_proxy,std::_Container_base12 *,0>
PUBLIC	??$_Deallocate_plain@V?$allocator@U_Container_proxy@std@@@std@@@std@@YAXAEAV?$allocator@U_Container_proxy@std@@@0@QEAU_Container_proxy@0@@Z ; std::_Deallocate_plain<std::allocator<std::_Container_proxy> >
PUBLIC	??0?$_Container_proxy_ptr12@V?$allocator@U_Container_proxy@std@@@std@@@std@@QEAA@AEAV?$allocator@U_Container_proxy@std@@@1@AEAU_Container_base12@1@@Z ; std::_Container_proxy_ptr12<std::allocator<std::_Container_proxy> >::_Container_proxy_ptr12<std::allocator<std::_Container_proxy> >
PUBLIC	??1?$_Container_proxy_ptr12@V?$allocator@U_Container_proxy@std@@@std@@@std@@QEAA@XZ ; std::_Container_proxy_ptr12<std::allocator<std::_Container_proxy> >::~_Container_proxy_ptr12<std::allocator<std::_Container_proxy> >
PUBLIC	??1?$_Tidy_guard@V?$vector@GV?$allocator@G@std@@@std@@@std@@QEAA@XZ ; std::_Tidy_guard<std::vector<unsigned short,std::allocator<unsigned short> > >::~_Tidy_guard<std::vector<unsigned short,std::allocator<unsigned short> > >
PUBLIC	??$_Uninitialized_copy@PEAGPEAGV?$allocator@G@std@@@std@@YAPEAGPEAG00AEAV?$allocator@G@0@@Z ; std::_Uninitialized_copy<unsigned short *,unsigned short *,std::allocator<unsigned short> >
PUBLIC	??1?$_Tidy_guard@V?$vector@UVertexDefault@@V?$allocator@UVertexDefault@@@std@@@std@@@std@@QEAA@XZ ; std::_Tidy_guard<std::vector<VertexDefault,std::allocator<VertexDefault> > >::~_Tidy_guard<std::vector<VertexDefault,std::allocator<VertexDefault> > >
PUBLIC	??$_Uninitialized_copy@PEAUVertexDefault@@PEAU1@V?$allocator@UVertexDefault@@@std@@@std@@YAPEAUVertexDefault@@PEAU1@00AEAV?$allocator@UVertexDefault@@@0@@Z ; std::_Uninitialized_copy<VertexDefault *,VertexDefault *,std::allocator<VertexDefault> >
PUBLIC	??$_Unfancy@U_Container_proxy@std@@@std@@YAPEAU_Container_proxy@0@PEAU10@@Z ; std::_Unfancy<std::_Container_proxy>
PUBLIC	??$_Allocate_at_least_helper@V?$allocator@D@std@@@std@@YAPEADAEAV?$allocator@D@0@AEA_K@Z ; std::_Allocate_at_least_helper<std::allocator<char> >
PUBLIC	??$_Construct_in_place@PEADAEBQEAD@std@@YAXAEAPEADAEBQEAD@Z ; std::_Construct_in_place<char *,char * const &>
PUBLIC	??$addressof@PEAD@std@@YAPEAPEADAEAPEAD@Z	; std::addressof<char *>
PUBLIC	??$_Get_size_of_n@$0BA@@std@@YA_K_K@Z		; std::_Get_size_of_n<16>
PUBLIC	??$_Allocate@$0BA@U_Default_allocate_traits@std@@$0A@@std@@YAPEAX_K@Z ; std::_Allocate<16,std::_Default_allocate_traits,0>
PUBLIC	??$construct_at@D$$V$0A@@std@@YAPEADQEAD@Z	; std::construct_at<char,0>
PUBLIC	??$_Allocate_at_least_helper@V?$allocator@G@std@@@std@@YAPEAGAEAV?$allocator@G@0@AEA_K@Z ; std::_Allocate_at_least_helper<std::allocator<unsigned short> >
PUBLIC	??$_Allocate_at_least_helper@V?$allocator@UVertexDefault@@@std@@@std@@YAPEAUVertexDefault@@AEAV?$allocator@UVertexDefault@@@0@AEA_K@Z ; std::_Allocate_at_least_helper<std::allocator<VertexDefault> >
PUBLIC	?deallocate@?$_Default_allocator_traits@V?$allocator@U_Container_proxy@std@@@std@@@std@@SAXAEAV?$allocator@U_Container_proxy@std@@@2@QEAU_Container_proxy@2@_K@Z ; std::_Default_allocator_traits<std::allocator<std::_Container_proxy> >::deallocate
PUBLIC	??$_Unwrap_iter@PEAGPEAG@ranges@std@@YA?A_T$$QEAPEAG@Z ; std::ranges::_Unwrap_iter<unsigned short *,unsigned short *>
PUBLIC	??$_Unwrap_sent@PEAGPEAG@ranges@std@@YA?A_T$$QEAPEAG@Z ; std::ranges::_Unwrap_sent<unsigned short *,unsigned short *>
PUBLIC	??$_To_address@PEAG@std@@YA?A_PAEBQEAG@Z	; std::_To_address<unsigned short *>
PUBLIC	??$to_address@G@std@@YAPEAGQEAG@Z		; std::to_address<unsigned short>
PUBLIC	??$_Unfancy@G@std@@YAPEAGPEAG@Z			; std::_Unfancy<unsigned short>
PUBLIC	??$_Copy_memmove@PEAGPEAG@std@@YAPEAGPEAG00@Z	; std::_Copy_memmove<unsigned short *,unsigned short *>
PUBLIC	??0?$_Uninitialized_backout_al@V?$allocator@G@std@@@std@@QEAA@PEAGAEAV?$allocator@G@1@@Z ; std::_Uninitialized_backout_al<std::allocator<unsigned short> >::_Uninitialized_backout_al<std::allocator<unsigned short> >
PUBLIC	??1?$_Uninitialized_backout_al@V?$allocator@G@std@@@std@@QEAA@XZ ; std::_Uninitialized_backout_al<std::allocator<unsigned short> >::~_Uninitialized_backout_al<std::allocator<unsigned short> >
PUBLIC	?_Release@?$_Uninitialized_backout_al@V?$allocator@G@std@@@std@@QEAAPEAGXZ ; std::_Uninitialized_backout_al<std::allocator<unsigned short> >::_Release
PUBLIC	??$_Emplace_back@AEAG@?$_Uninitialized_backout_al@V?$allocator@G@std@@@std@@QEAAXAEAG@Z ; std::_Uninitialized_backout_al<std::allocator<unsigned short> >::_Emplace_back<unsigned short &>
PUBLIC	??$_Unwrap_iter@PEAUVertexDefault@@PEAU1@@ranges@std@@YA?A_T$$QEAPEAUVertexDefault@@@Z ; std::ranges::_Unwrap_iter<VertexDefault *,VertexDefault *>
PUBLIC	??$_Unwrap_sent@PEAUVertexDefault@@PEAU1@@ranges@std@@YA?A_T$$QEAPEAUVertexDefault@@@Z ; std::ranges::_Unwrap_sent<VertexDefault *,VertexDefault *>
PUBLIC	??$_To_address@PEAUVertexDefault@@@std@@YA?A_PAEBQEAUVertexDefault@@@Z ; std::_To_address<VertexDefault *>
PUBLIC	??$to_address@UVertexDefault@@@std@@YAPEAUVertexDefault@@QEAU1@@Z ; std::to_address<VertexDefault>
PUBLIC	??$_Unfancy@UVertexDefault@@@std@@YAPEAUVertexDefault@@PEAU1@@Z ; std::_Unfancy<VertexDefault>
PUBLIC	??$_Copy_memmove@PEAUVertexDefault@@PEAU1@@std@@YAPEAUVertexDefault@@PEAU1@00@Z ; std::_Copy_memmove<VertexDefault *,VertexDefault *>
PUBLIC	??0?$_Uninitialized_backout_al@V?$allocator@UVertexDefault@@@std@@@std@@QEAA@PEAUVertexDefault@@AEAV?$allocator@UVertexDefault@@@1@@Z ; std::_Uninitialized_backout_al<std::allocator<VertexDefault> >::_Uninitialized_backout_al<std::allocator<VertexDefault> >
PUBLIC	??1?$_Uninitialized_backout_al@V?$allocator@UVertexDefault@@@std@@@std@@QEAA@XZ ; std::_Uninitialized_backout_al<std::allocator<VertexDefault> >::~_Uninitialized_backout_al<std::allocator<VertexDefault> >
PUBLIC	?_Release@?$_Uninitialized_backout_al@V?$allocator@UVertexDefault@@@std@@@std@@QEAAPEAUVertexDefault@@XZ ; std::_Uninitialized_backout_al<std::allocator<VertexDefault> >::_Release
PUBLIC	??$_Emplace_back@AEAUVertexDefault@@@?$_Uninitialized_backout_al@V?$allocator@UVertexDefault@@@std@@@std@@QEAAXAEAUVertexDefault@@@Z ; std::_Uninitialized_backout_al<std::allocator<VertexDefault> >::_Emplace_back<VertexDefault &>
PUBLIC	??$construct_at@PEADAEBQEAD$0A@@std@@YAPEAPEADQEAPEADAEBQEAD@Z ; std::construct_at<char *,char * const &,0>
PUBLIC	??$_Allocate_manually_vector_aligned@U_Default_allocate_traits@std@@@std@@YAPEAX_K@Z ; std::_Allocate_manually_vector_aligned<std::_Default_allocate_traits>
PUBLIC	??$_Get_size_of_n@$01@std@@YA_K_K@Z		; std::_Get_size_of_n<2>
PUBLIC	??$_Get_size_of_n@$0EI@@std@@YA_K_K@Z		; std::_Get_size_of_n<72>
PUBLIC	??$_Get_size_of_n@$00@std@@YA_K_K@Z		; std::_Get_size_of_n<1>
PUBLIC	??$construct@GAEAG@?$_Default_allocator_traits@V?$allocator@G@std@@@std@@SAXAEAV?$allocator@G@1@QEAGAEAG@Z ; std::_Default_allocator_traits<std::allocator<unsigned short> >::construct<unsigned short,unsigned short &>
PUBLIC	??$construct@UVertexDefault@@AEAU1@@?$_Default_allocator_traits@V?$allocator@UVertexDefault@@@std@@@std@@SAXAEAV?$allocator@UVertexDefault@@@1@QEAUVertexDefault@@AEAU3@@Z ; std::_Default_allocator_traits<std::allocator<VertexDefault> >::construct<VertexDefault,VertexDefault &>
PUBLIC	??$construct_at@GAEAG$0A@@std@@YAPEAGQEAGAEAG@Z	; std::construct_at<unsigned short,unsigned short &,0>
PUBLIC	??$construct_at@UVertexDefault@@AEAU1@$0A@@std@@YAPEAUVertexDefault@@QEAU1@AEAU1@@Z ; std::construct_at<VertexDefault,VertexDefault &,0>
PUBLIC	__JustMyCode_Default
PUBLIC	??_7exception@std@@6B@				; std::exception::`vftable'
PUBLIC	??_C@_0BC@EOODALEL@Unknown?5exception@		; `string'
PUBLIC	??_7bad_alloc@std@@6B@				; std::bad_alloc::`vftable'
PUBLIC	??_7bad_array_new_length@std@@6B@		; std::bad_array_new_length::`vftable'
PUBLIC	??_C@_0BF@KINCDENJ@bad?5array?5new?5length@	; `string'
PUBLIC	_TI3?AVbad_array_new_length@std@@
PUBLIC	_CTA3?AVbad_array_new_length@std@@
PUBLIC	??_R0?AVbad_array_new_length@std@@@8		; std::bad_array_new_length `RTTI Type Descriptor'
PUBLIC	_CT??_R0?AVbad_array_new_length@std@@@8??0bad_array_new_length@std@@QEAA@AEBV01@@Z24
PUBLIC	??_R0?AVbad_alloc@std@@@8			; std::bad_alloc `RTTI Type Descriptor'
PUBLIC	_CT??_R0?AVbad_alloc@std@@@8??0bad_alloc@std@@QEAA@AEBV01@@Z24
PUBLIC	??_R0?AVexception@std@@@8			; std::exception `RTTI Type Descriptor'
PUBLIC	_CT??_R0?AVexception@std@@@8??0exception@std@@QEAA@AEBV01@@Z24
PUBLIC	?__LINE__Var@?0??_Adjust_manually_vector_aligned@std@@YAXAEAPEAXAEA_K@Z@4JA ; `std::_Adjust_manually_vector_aligned'::`1'::__LINE__Var
PUBLIC	??_C@_0BB@FCMFBGOM@invalid?5argument@		; `string'
PUBLIC	??_C@_02DKCKIIND@?$CFs@				; `string'
PUBLIC	??_C@_0GA@FLDGEGM@C?3?2Program?5Files?2Microsoft?5Visu@ ; `string'
PUBLIC	??_C@_1MA@IKJDCOIC@?$AAC?$AA?3?$AA?2?$AAP?$AAr?$AAo?$AAg?$AAr?$AAa?$AAm?$AA?5?$AAF?$AAi?$AAl?$AAe@ ; `string'
PUBLIC	??_C@_11LOCGONAA@@				; `string'
PUBLIC	??_C@_1CG@JNLFBNGN@?$AA?$CC?$AAi?$AAn?$AAv?$AAa?$AAl?$AAi?$AAd?$AA?5?$AAa?$AAr?$AAg?$AAu?$AAm?$AAe@ ; `string'
PUBLIC	??_C@_0BA@JFNIOLAK@string?5too?5long@		; `string'
PUBLIC	??_7logic_error@std@@6B@			; std::logic_error::`vftable'
PUBLIC	??_C@_0P@JCDOJLHG@broken?5promise@		; `string'
PUBLIC	??_C@_0BJ@JOKOCMFN@future?5already?5retrieved@	; `string'
PUBLIC	??_C@_0BK@JNDAEPJA@promise?5already?5satisfied@	; `string'
PUBLIC	??_C@_08CCNMMIE@no?5state@			; `string'
PUBLIC	??_7future_error@std@@6B@			; std::future_error::`vftable'
PUBLIC	??_C@_00CNPNBAHC@@				; `string'
PUBLIC	_TI3?AVfuture_error@std@@
PUBLIC	_CTA3?AVfuture_error@std@@
PUBLIC	??_R0?AVfuture_error@std@@@8			; std::future_error `RTTI Type Descriptor'
PUBLIC	_CT??_R0?AVfuture_error@std@@@8??0future_error@std@@QEAA@AEBV01@@Z40
PUBLIC	??_R0?AVlogic_error@std@@@8			; std::logic_error `RTTI Type Descriptor'
PUBLIC	_CT??_R0?AVlogic_error@std@@@8??0logic_error@std@@QEAA@AEBV01@@Z24
PUBLIC	??_7_Future_error_category2@std@@6B@		; std::_Future_error_category2::`vftable'
PUBLIC	??_C@_06MOFGPAFB@future@			; `string'
PUBLIC	??_C@_0DG@KGHKKGBC@null?5pointer?5cannot?5point?5to?5a?5@ ; `string'
PUBLIC	??_C@_1HA@FACCKGGH@?$AA?$CC?$AAn?$AAu?$AAl?$AAl?$AA?5?$AAp?$AAo?$AAi?$AAn?$AAt?$AAe?$AAr?$AA?5?$AAc@ ; `string'
PUBLIC	?_Static@?1???$_Immortalize_memcpy_image@V_Future_error_category2@std@@@std@@YAAEBV_Future_error_category2@1@XZ@4V21@B ; `std::_Immortalize_memcpy_image<std::_Future_error_category2>'::`2'::_Static
PUBLIC	??_C@_0BA@FOIKENOD@vector?5too?5long@		; `string'
PUBLIC	??_R4exception@std@@6B@				; std::exception::`RTTI Complete Object Locator'
PUBLIC	??_R3exception@std@@8				; std::exception::`RTTI Class Hierarchy Descriptor'
PUBLIC	??_R2exception@std@@8				; std::exception::`RTTI Base Class Array'
PUBLIC	??_R1A@?0A@EA@exception@std@@8			; std::exception::`RTTI Base Class Descriptor at (0,-1,0,64)'
PUBLIC	??_R4bad_alloc@std@@6B@				; std::bad_alloc::`RTTI Complete Object Locator'
PUBLIC	??_R3bad_alloc@std@@8				; std::bad_alloc::`RTTI Class Hierarchy Descriptor'
PUBLIC	??_R2bad_alloc@std@@8				; std::bad_alloc::`RTTI Base Class Array'
PUBLIC	??_R1A@?0A@EA@bad_alloc@std@@8			; std::bad_alloc::`RTTI Base Class Descriptor at (0,-1,0,64)'
PUBLIC	??_R4bad_array_new_length@std@@6B@		; std::bad_array_new_length::`RTTI Complete Object Locator'
PUBLIC	??_R3bad_array_new_length@std@@8		; std::bad_array_new_length::`RTTI Class Hierarchy Descriptor'
PUBLIC	??_R2bad_array_new_length@std@@8		; std::bad_array_new_length::`RTTI Base Class Array'
PUBLIC	??_R1A@?0A@EA@bad_array_new_length@std@@8	; std::bad_array_new_length::`RTTI Base Class Descriptor at (0,-1,0,64)'
PUBLIC	??_R4logic_error@std@@6B@			; std::logic_error::`RTTI Complete Object Locator'
PUBLIC	??_R3logic_error@std@@8				; std::logic_error::`RTTI Class Hierarchy Descriptor'
PUBLIC	??_R2logic_error@std@@8				; std::logic_error::`RTTI Base Class Array'
PUBLIC	??_R1A@?0A@EA@logic_error@std@@8		; std::logic_error::`RTTI Base Class Descriptor at (0,-1,0,64)'
PUBLIC	??_R0?AVerror_category@std@@@8			; std::error_category `RTTI Type Descriptor'
PUBLIC	??_R3error_category@std@@8			; std::error_category::`RTTI Class Hierarchy Descriptor'
PUBLIC	??_R2error_category@std@@8			; std::error_category::`RTTI Base Class Array'
PUBLIC	??_R1A@?0A@EA@error_category@std@@8		; std::error_category::`RTTI Base Class Descriptor at (0,-1,0,64)'
PUBLIC	??_R4future_error@std@@6B@			; std::future_error::`RTTI Complete Object Locator'
PUBLIC	??_R3future_error@std@@8			; std::future_error::`RTTI Class Hierarchy Descriptor'
PUBLIC	??_R2future_error@std@@8			; std::future_error::`RTTI Base Class Array'
PUBLIC	??_R1A@?0A@EA@future_error@std@@8		; std::future_error::`RTTI Base Class Descriptor at (0,-1,0,64)'
PUBLIC	??_R4_Future_error_category2@std@@6B@		; std::_Future_error_category2::`RTTI Complete Object Locator'
PUBLIC	??_R0?AV_Future_error_category2@std@@@8		; std::_Future_error_category2 `RTTI Type Descriptor'
PUBLIC	??_R3_Future_error_category2@std@@8		; std::_Future_error_category2::`RTTI Class Hierarchy Descriptor'
PUBLIC	??_R2_Future_error_category2@std@@8		; std::_Future_error_category2::`RTTI Base Class Array'
PUBLIC	??_R1A@?0A@EA@_Future_error_category2@std@@8	; std::_Future_error_category2::`RTTI Base Class Descriptor at (0,-1,0,64)'
EXTRN	??_M@YAXPEAX_K1P6AX0@Z@Z:PROC			; `eh vector destructor iterator'
EXTRN	??2@YAPEAX_K@Z:PROC				; operator new
EXTRN	??3@YAXPEAX@Z:PROC				; operator delete
EXTRN	??3@YAXPEAX_K@Z:PROC				; operator delete
EXTRN	??_V@YAXPEAX_K@Z:PROC				; operator delete[]
EXTRN	__imp__invalid_parameter:PROC
EXTRN	memcpy:PROC
EXTRN	memmove:PROC
EXTRN	__imp__CrtDbgReport:PROC
EXTRN	__imp_??0_Lockit@std@@QEAA@H@Z:PROC
EXTRN	__imp_??1_Lockit@std@@QEAA@XZ:PROC
EXTRN	__std_exception_copy:PROC
EXTRN	__std_exception_destroy:PROC
EXTRN	??_Eexception@std@@UEAAPEAXI@Z:PROC		; std::exception::`vector deleting destructor'
EXTRN	??_Ebad_alloc@std@@UEAAPEAXI@Z:PROC		; std::bad_alloc::`vector deleting destructor'
EXTRN	??_Ebad_array_new_length@std@@UEAAPEAXI@Z:PROC	; std::bad_array_new_length::`vector deleting destructor'
EXTRN	?_Xlength_error@std@@YAXPEBD@Z:PROC		; std::_Xlength_error
EXTRN	?GetDevice@D3DUtil@@SAPEAUID3D12Device8@@XZ:PROC ; D3DUtil::GetDevice
EXTRN	?GetCommandQueue@D3DUtil@@SAPEAUID3D12CommandQueue@@XZ:PROC ; D3DUtil::GetCommandQueue
EXTRN	??_Elogic_error@std@@UEAAPEAXI@Z:PROC		; std::logic_error::`vector deleting destructor'
EXTRN	?_Syserror_map@std@@YAPEBDH@Z:PROC		; std::_Syserror_map
EXTRN	??_Efuture_error@std@@UEAAPEAXI@Z:PROC		; std::future_error::`vector deleting destructor'
EXTRN	??_E_Future_error_category2@std@@UEAAPEAXI@Z:PROC ; std::_Future_error_category2::`vector deleting destructor'
EXTRN	??0ResourceUploadBatch@DirectX@@QEAA@PEAUID3D12Device@@@Z:PROC ; DirectX::ResourceUploadBatch::ResourceUploadBatch
EXTRN	??1ResourceUploadBatch@DirectX@@UEAA@XZ:PROC	; DirectX::ResourceUploadBatch::~ResourceUploadBatch
EXTRN	?Begin@ResourceUploadBatch@DirectX@@QEAAXW4D3D12_COMMAND_LIST_TYPE@@@Z:PROC ; DirectX::ResourceUploadBatch::Begin
EXTRN	?End@ResourceUploadBatch@DirectX@@QEAA?AV?$future@X@std@@PEAUID3D12CommandQueue@@@Z:PROC ; DirectX::ResourceUploadBatch::End
EXTRN	?CreateStaticBuffer@DirectX@@YAJPEAUID3D12Device@@AEAVResourceUploadBatch@1@PEBX_K3W4D3D12_RESOURCE_STATES@@PEAPEAUID3D12Resource@@W4D3D12_RESOURCE_FLAGS@@@Z:PROC ; DirectX::CreateStaticBuffer
EXTRN	_CxxThrowException:PROC
EXTRN	__CheckForDebuggerJustMyCode:PROC
EXTRN	__CxxFrameHandler4:PROC
EXTRN	??_7type_info@@6B@:BYTE				; type_info::`vftable'
;	COMDAT pdata
pdata	SEGMENT
$pdata$?is_constant_evaluated@std@@YA_NXZ DD imagerel $LN3
	DD	imagerel $LN3+31
	DD	imagerel $unwind$?is_constant_evaluated@std@@YA_NXZ
pdata	ENDS
;	COMDAT pdata
pdata	SEGMENT
$pdata$?max@?$numeric_limits@_J@std@@SA_JXZ DD imagerel $LN3
	DD	imagerel $LN3+39
	DD	imagerel $unwind$?max@?$numeric_limits@_J@std@@SA_JXZ
pdata	ENDS
;	COMDAT pdata
pdata	SEGMENT
$pdata$??2@YAPEAX_KPEAX@Z DD imagerel $LN3
	DD	imagerel $LN3+42
	DD	imagerel $unwind$??2@YAPEAX_KPEAX@Z
pdata	ENDS
;	COMDAT pdata
pdata	SEGMENT
$pdata$??0exception@std@@QEAA@QEBD@Z DD imagerel $LN3
	DD	imagerel $LN3+110
	DD	imagerel $unwind$??0exception@std@@QEAA@QEBD@Z
pdata	ENDS
;	COMDAT pdata
pdata	SEGMENT
$pdata$??0exception@std@@QEAA@QEBDH@Z DD imagerel $LN3
	DD	imagerel $LN3+95
	DD	imagerel $unwind$??0exception@std@@QEAA@QEBDH@Z
pdata	ENDS
;	COMDAT pdata
pdata	SEGMENT
$pdata$??0exception@std@@QEAA@AEBV01@@Z DD imagerel $LN3
	DD	imagerel $LN3+102
	DD	imagerel $unwind$??0exception@std@@QEAA@AEBV01@@Z
pdata	ENDS
;	COMDAT pdata
pdata	SEGMENT
$pdata$??1exception@std@@UEAA@XZ DD imagerel $LN3
	DD	imagerel $LN3+63
	DD	imagerel $unwind$??1exception@std@@UEAA@XZ
pdata	ENDS
;	COMDAT pdata
pdata	SEGMENT
$pdata$?what@exception@std@@UEBAPEBDXZ DD imagerel $LN5
	DD	imagerel $LN5+73
	DD	imagerel $unwind$?what@exception@std@@UEBAPEBDXZ
pdata	ENDS
;	COMDAT pdata
pdata	SEGMENT
$pdata$??_Gexception@std@@UEAAPEAXI@Z DD imagerel $LN4
	DD	imagerel $LN4+62
	DD	imagerel $unwind$??_Gexception@std@@UEAAPEAXI@Z
pdata	ENDS
;	COMDAT pdata
pdata	SEGMENT
$pdata$??0bad_alloc@std@@AEAA@QEBD@Z DD imagerel $LN3
	DD	imagerel $LN3+75
	DD	imagerel $unwind$??0bad_alloc@std@@AEAA@QEBD@Z
pdata	ENDS
;	COMDAT pdata
pdata	SEGMENT
$pdata$??1bad_alloc@std@@UEAA@XZ DD imagerel $LN3
	DD	imagerel $LN3+30
	DD	imagerel $unwind$??1bad_alloc@std@@UEAA@XZ
pdata	ENDS
;	COMDAT pdata
pdata	SEGMENT
$pdata$??0bad_alloc@std@@QEAA@AEBV01@@Z DD imagerel $LN3
	DD	imagerel $LN3+57
	DD	imagerel $unwind$??0bad_alloc@std@@QEAA@AEBV01@@Z
pdata	ENDS
;	COMDAT pdata
pdata	SEGMENT
$pdata$??_Gbad_alloc@std@@UEAAPEAXI@Z DD imagerel $LN4
	DD	imagerel $LN4+62
	DD	imagerel $unwind$??_Gbad_alloc@std@@UEAAPEAXI@Z
pdata	ENDS
;	COMDAT pdata
pdata	SEGMENT
$pdata$??0bad_array_new_length@std@@QEAA@XZ DD imagerel $LN3
	DD	imagerel $LN3+67
	DD	imagerel $unwind$??0bad_array_new_length@std@@QEAA@XZ
pdata	ENDS
;	COMDAT pdata
pdata	SEGMENT
$pdata$??1bad_array_new_length@std@@UEAA@XZ DD imagerel $LN3
	DD	imagerel $LN3+30
	DD	imagerel $unwind$??1bad_array_new_length@std@@UEAA@XZ
pdata	ENDS
;	COMDAT pdata
pdata	SEGMENT
$pdata$??0bad_array_new_length@std@@QEAA@AEBV01@@Z DD imagerel $LN3
	DD	imagerel $LN3+57
	DD	imagerel $unwind$??0bad_array_new_length@std@@QEAA@AEBV01@@Z
pdata	ENDS
;	COMDAT pdata
pdata	SEGMENT
$pdata$??_Gbad_array_new_length@std@@UEAAPEAXI@Z DD imagerel $LN4
	DD	imagerel $LN4+62
	DD	imagerel $unwind$??_Gbad_array_new_length@std@@UEAAPEAXI@Z
pdata	ENDS
;	COMDAT pdata
pdata	SEGMENT
$pdata$?_Throw_bad_array_new_length@std@@YAXXZ DD imagerel $LN3
	DD	imagerel $LN3+57
	DD	imagerel $unwind$?_Throw_bad_array_new_length@std@@YAXXZ
pdata	ENDS
;	COMDAT pdata
pdata	SEGMENT
$pdata$?_Allocate@_Default_allocate_traits@std@@SAPEAX_K@Z DD imagerel $LN3
	DD	imagerel $LN3+42
	DD	imagerel $unwind$?_Allocate@_Default_allocate_traits@std@@SAPEAX_K@Z
pdata	ENDS
;	COMDAT pdata
pdata	SEGMENT
$pdata$?_Adjust_manually_vector_aligned@std@@YAXAEAPEAXAEA_K@Z DD imagerel $LN21
	DD	imagerel $LN21+433
	DD	imagerel $unwind$?_Adjust_manually_vector_aligned@std@@YAXAEAPEAXAEA_K@Z
pdata	ENDS
;	COMDAT pdata
pdata	SEGMENT
$pdata$??0_Container_proxy@std@@QEAA@PEAU_Container_base12@1@@Z DD imagerel $LN3
	DD	imagerel $LN3+65
	DD	imagerel $unwind$??0_Container_proxy@std@@QEAA@PEAU_Container_base12@1@@Z
pdata	ENDS
;	COMDAT pdata
pdata	SEGMENT
$pdata$??0_Container_base12@std@@QEAA@XZ DD imagerel $LN3
	DD	imagerel $LN3+48
	DD	imagerel $unwind$??0_Container_base12@std@@QEAA@XZ
pdata	ENDS
;	COMDAT pdata
pdata	SEGMENT
$pdata$?_Orphan_all@_Container_base12@std@@QEAAXXZ DD imagerel $LN5
	DD	imagerel $LN5+65
	DD	imagerel $unwind$?_Orphan_all@_Container_base12@std@@QEAAXXZ
pdata	ENDS
;	COMDAT pdata
pdata	SEGMENT
$pdata$?_Orphan_all_unlocked_v3@_Container_base12@std@@AEAAXXZ DD imagerel $LN7
	DD	imagerel $LN7+114
	DD	imagerel $unwind$?_Orphan_all_unlocked_v3@_Container_base12@std@@AEAAXXZ
pdata	ENDS
;	COMDAT pdata
pdata	SEGMENT
$pdata$?_Orphan_all_locked_v3@_Container_base12@std@@AEAAXXZ DD imagerel $LN3
	DD	imagerel $LN3+67
	DD	imagerel $unwind$?_Orphan_all_locked_v3@_Container_base12@std@@AEAAXXZ
pdata	ENDS
;	COMDAT pdata
pdata	SEGMENT
$pdata$??$exchange@PEAU_Iterator_base12@std@@$$T@std@@YAPEAU_Iterator_base12@0@AEAPEAU10@$$QEA$$T@Z DD imagerel $LN3
	DD	imagerel $LN3+67
	DD	imagerel $unwind$??$exchange@PEAU_Iterator_base12@std@@$$T@std@@YAPEAU_Iterator_base12@0@AEAPEAU10@$$QEA$$T@Z
pdata	ENDS
;	COMDAT pdata
pdata	SEGMENT
$pdata$?_Release@_Basic_container_proxy_ptr12@std@@QEAAXXZ DD imagerel $LN3
	DD	imagerel $LN3+44
	DD	imagerel $unwind$?_Release@_Basic_container_proxy_ptr12@std@@QEAAXXZ
pdata	ENDS
;	COMDAT pdata
pdata	SEGMENT
$pdata$??0_Basic_container_proxy_ptr12@std@@IEAA@XZ DD imagerel $LN3
	DD	imagerel $LN3+48
	DD	imagerel $unwind$??0_Basic_container_proxy_ptr12@std@@IEAA@XZ
pdata	ENDS
;	COMDAT pdata
pdata	SEGMENT
$pdata$??$addressof@U_Container_base12@std@@@std@@YAPEAU_Container_base12@0@AEAU10@@Z DD imagerel $LN3
	DD	imagerel $LN3+37
	DD	imagerel $unwind$??$addressof@U_Container_base12@std@@@std@@YAPEAU_Container_base12@0@AEAU10@@Z
pdata	ENDS
;	COMDAT pdata
pdata	SEGMENT
$pdata$??$_Construct_in_place@U_Container_proxy@std@@PEAU_Container_base12@2@@std@@YAXAEAU_Container_proxy@0@$$QEAPEAU_Container_base12@0@@Z DD imagerel $LN5
	DD	imagerel $LN5+115
	DD	imagerel $unwind$??$_Construct_in_place@U_Container_proxy@std@@PEAU_Container_base12@2@@std@@YAXAEAU_Container_proxy@0@$$QEAPEAU_Container_base12@0@@Z
pdata	ENDS
;	COMDAT pdata
pdata	SEGMENT
$pdata$?copy@?$_Char_traits@DH@std@@SAPEADQEADQEBD_K@Z DD imagerel $LN7
	DD	imagerel $LN7+148
	DD	imagerel $unwind$?copy@?$_Char_traits@DH@std@@SAPEADQEADQEBD_K@Z
pdata	ENDS
;	COMDAT pdata
pdata	SEGMENT
$pdata$?assign@?$_Char_traits@DH@std@@SAXAEADAEBD@Z DD imagerel $LN5
	DD	imagerel $LN5+86
	DD	imagerel $unwind$?assign@?$_Char_traits@DH@std@@SAXAEADAEBD@Z
pdata	ENDS
;	COMDAT pdata
pdata	SEGMENT
$pdata$?length@?$_Narrow_char_traits@DH@std@@SA_KQEBD@Z DD imagerel $LN4
	DD	imagerel $LN4+71
	DD	imagerel $unwind$?length@?$_Narrow_char_traits@DH@std@@SA_KQEBD@Z
pdata	ENDS
;	COMDAT pdata
pdata	SEGMENT
$pdata$?assign@?$_Narrow_char_traits@DH@std@@SAXAEADAEBD@Z DD imagerel $LN4
	DD	imagerel $LN4+78
	DD	imagerel $unwind$?assign@?$_Narrow_char_traits@DH@std@@SAXAEADAEBD@Z
pdata	ENDS
;	COMDAT pdata
pdata	SEGMENT
$pdata$?_Xlen_string@std@@YAXXZ DD imagerel $LN3
	DD	imagerel $LN3+41
	DD	imagerel $unwind$?_Xlen_string@std@@YAXXZ
pdata	ENDS
;	COMDAT pdata
pdata	SEGMENT
$pdata$??0?$allocator@D@std@@QEAA@XZ DD imagerel $LN3
	DD	imagerel $LN3+37
	DD	imagerel $unwind$??0?$allocator@D@std@@QEAA@XZ
pdata	ENDS
;	COMDAT pdata
pdata	SEGMENT
$pdata$?deallocate@?$allocator@D@std@@QEAAXQEAD_K@Z DD imagerel $LN13
	DD	imagerel $LN13+189
	DD	imagerel $unwind$?deallocate@?$allocator@D@std@@QEAAXQEAD_K@Z
pdata	ENDS
;	COMDAT pdata
pdata	SEGMENT
$pdata$?allocate@?$allocator@D@std@@QEAAPEAD_K@Z DD imagerel $LN3
	DD	imagerel $LN3+55
	DD	imagerel $unwind$?allocate@?$allocator@D@std@@QEAAPEAD_K@Z
pdata	ENDS
;	COMDAT pdata
pdata	SEGMENT
$pdata$?max_size@?$_Default_allocator_traits@V?$allocator@D@std@@@std@@SA_KAEBV?$allocator@D@2@@Z DD imagerel $LN3
	DD	imagerel $LN3+40
	DD	imagerel $unwind$?max_size@?$_Default_allocator_traits@V?$allocator@D@std@@@std@@SA_KAEBV?$allocator@D@2@@Z
pdata	ENDS
;	COMDAT pdata
pdata	SEGMENT
$pdata$??0?$_String_val@U?$_Simple_types@D@std@@@std@@QEAA@XZ DD imagerel $LN3
	DD	imagerel $LN3+86
	DD	imagerel $unwind$??0?$_String_val@U?$_Simple_types@D@std@@@std@@QEAA@XZ
pdata	ENDS
;	COMDAT pdata
pdata	SEGMENT
$pdata$?_Large_string_engaged@?$_String_val@U?$_Simple_types@D@std@@@std@@QEBA_NXZ DD imagerel $LN5
	DD	imagerel $LN5+64
	DD	imagerel $unwind$?_Large_string_engaged@?$_String_val@U?$_Simple_types@D@std@@@std@@QEBA_NXZ
pdata	ENDS
;	COMDAT pdata
pdata	SEGMENT
$pdata$?_Activate_SSO_buffer@?$_String_val@U?$_Simple_types@D@std@@@std@@QEAAXXZ DD imagerel $LN7
	DD	imagerel $LN7+93
	DD	imagerel $unwind$?_Activate_SSO_buffer@?$_String_val@U?$_Simple_types@D@std@@@std@@QEAAXXZ
pdata	ENDS
;	COMDAT pdata
pdata	SEGMENT
$pdata$??0_Bxty@?$_String_val@U?$_Simple_types@D@std@@@std@@QEAA@XZ DD imagerel $LN3
	DD	imagerel $LN3+56
	DD	imagerel $unwind$??0_Bxty@?$_String_val@U?$_Simple_types@D@std@@@std@@QEAA@XZ
pdata	ENDS
;	COMDAT pdata
pdata	SEGMENT
$pdata$??1_Bxty@?$_String_val@U?$_Simple_types@D@std@@@std@@QEAA@XZ DD imagerel $LN3
	DD	imagerel $LN3+33
	DD	imagerel $unwind$??1_Bxty@?$_String_val@U?$_Simple_types@D@std@@@std@@QEAA@XZ
pdata	ENDS
;	COMDAT pdata
pdata	SEGMENT
$pdata$??1?$_String_val@U?$_Simple_types@D@std@@@std@@QEAA@XZ DD imagerel $LN3
	DD	imagerel $LN3+37
	DD	imagerel $unwind$??1?$_String_val@U?$_Simple_types@D@std@@@std@@QEAA@XZ
pdata	ENDS
;	COMDAT pdata
pdata	SEGMENT
$pdata$??0?$basic_string@DU?$char_traits@D@std@@V?$allocator@D@2@@std@@QEAA@XZ DD imagerel $LN3
	DD	imagerel $LN3+108
	DD	imagerel $unwind$??0?$basic_string@DU?$char_traits@D@std@@V?$allocator@D@2@@std@@QEAA@XZ
pdata	ENDS
;	COMDAT pdata
pdata	SEGMENT
$pdata$??0?$basic_string@DU?$char_traits@D@std@@V?$allocator@D@2@@std@@QEAA@QEBD@Z DD imagerel $LN4
	DD	imagerel $LN4+98
	DD	imagerel $unwind$??0?$basic_string@DU?$char_traits@D@std@@V?$allocator@D@2@@std@@QEAA@QEBD@Z
pdata	ENDS
;	COMDAT pdata
pdata	SEGMENT
$pdata$?dtor$0@?0???0?$basic_string@DU?$char_traits@D@std@@V?$allocator@D@2@@std@@QEAA@QEBD@Z@4HA DD imagerel ?dtor$0@?0???0?$basic_string@DU?$char_traits@D@std@@V?$allocator@D@2@@std@@QEAA@QEBD@Z@4HA
	DD	imagerel ?dtor$0@?0???0?$basic_string@DU?$char_traits@D@std@@V?$allocator@D@2@@std@@QEAA@QEBD@Z@4HA+25
	DD	imagerel $unwind$?dtor$0@?0???0?$basic_string@DU?$char_traits@D@std@@V?$allocator@D@2@@std@@QEAA@QEBD@Z@4HA
pdata	ENDS
;	COMDAT pdata
pdata	SEGMENT
$pdata$?_Start_element_lifetimes@?$basic_string@DU?$char_traits@D@std@@V?$allocator@D@2@@std@@CAXQEAD_K@Z DD imagerel $LN7
	DD	imagerel $LN7+105
	DD	imagerel $unwind$?_Start_element_lifetimes@?$basic_string@DU?$char_traits@D@std@@V?$allocator@D@2@@std@@CAXQEAD_K@Z
pdata	ENDS
;	COMDAT pdata
pdata	SEGMENT
$pdata$??1?$basic_string@DU?$char_traits@D@std@@V?$allocator@D@2@@std@@QEAA@XZ DD imagerel $LN3
	DD	imagerel $LN3+121
	DD	imagerel $unwind$??1?$basic_string@DU?$char_traits@D@std@@V?$allocator@D@2@@std@@QEAA@XZ
pdata	ENDS
;	COMDAT pdata
pdata	SEGMENT
$pdata$?max_size@?$basic_string@DU?$char_traits@D@std@@V?$allocator@D@2@@std@@QEBA_KXZ DD imagerel $LN3
	DD	imagerel $LN3+124
	DD	imagerel $unwind$?max_size@?$basic_string@DU?$char_traits@D@std@@V?$allocator@D@2@@std@@QEBA_KXZ
pdata	ENDS
;	COMDAT pdata
pdata	SEGMENT
$pdata$?_Calculate_growth@?$basic_string@DU?$char_traits@D@std@@V?$allocator@D@2@@std@@CA_K_K00@Z DD imagerel $LN5
	DD	imagerel $LN5+151
	DD	imagerel $unwind$?_Calculate_growth@?$basic_string@DU?$char_traits@D@std@@V?$allocator@D@2@@std@@CA_K_K00@Z
pdata	ENDS
;	COMDAT pdata
pdata	SEGMENT
$pdata$?_Calculate_growth@?$basic_string@DU?$char_traits@D@std@@V?$allocator@D@2@@std@@AEBA_K_K@Z DD imagerel $LN3
	DD	imagerel $LN3+80
	DD	imagerel $unwind$?_Calculate_growth@?$basic_string@DU?$char_traits@D@std@@V?$allocator@D@2@@std@@AEBA_K_K@Z
pdata	ENDS
;	COMDAT pdata
pdata	SEGMENT
$pdata$?_Tidy_init@?$basic_string@DU?$char_traits@D@std@@V?$allocator@D@2@@std@@AEAAXXZ DD imagerel $LN3
	DD	imagerel $LN3+108
	DD	imagerel $unwind$?_Tidy_init@?$basic_string@DU?$char_traits@D@std@@V?$allocator@D@2@@std@@AEAAXXZ
pdata	ENDS
;	COMDAT pdata
pdata	SEGMENT
$pdata$?_Tidy_deallocate@?$basic_string@DU?$char_traits@D@std@@V?$allocator@D@2@@std@@AEAAXXZ DD imagerel $LN4
	DD	imagerel $LN4+205
	DD	imagerel $unwind$?_Tidy_deallocate@?$basic_string@DU?$char_traits@D@std@@V?$allocator@D@2@@std@@AEAAXXZ
pdata	ENDS
;	COMDAT pdata
pdata	SEGMENT
$pdata$?_Getal@?$basic_string@DU?$char_traits@D@std@@V?$allocator@D@2@@std@@AEAAAEAV?$allocator@D@2@XZ DD imagerel $LN3
	DD	imagerel $LN3+45
	DD	imagerel $unwind$?_Getal@?$basic_string@DU?$char_traits@D@std@@V?$allocator@D@2@@std@@AEAAAEAV?$allocator@D@2@XZ
pdata	ENDS
;	COMDAT pdata
pdata	SEGMENT
$pdata$?_Getal@?$basic_string@DU?$char_traits@D@std@@V?$allocator@D@2@@std@@AEBAAEBV?$allocator@D@2@XZ DD imagerel $LN3
	DD	imagerel $LN3+45
	DD	imagerel $unwind$?_Getal@?$basic_string@DU?$char_traits@D@std@@V?$allocator@D@2@@std@@AEBAAEBV?$allocator@D@2@XZ
pdata	ENDS
;	COMDAT pdata
pdata	SEGMENT
$pdata$?_Get_first@?$_Compressed_pair@V?$allocator@D@std@@V?$_String_val@U?$_Simple_types@D@std@@@2@$00@std@@QEAAAEAV?$allocator@D@2@XZ DD imagerel $LN3
	DD	imagerel $LN3+37
	DD	imagerel $unwind$?_Get_first@?$_Compressed_pair@V?$allocator@D@std@@V?$_String_val@U?$_Simple_types@D@std@@@2@$00@std@@QEAAAEAV?$allocator@D@2@XZ
pdata	ENDS
;	COMDAT pdata
pdata	SEGMENT
$pdata$?_Get_first@?$_Compressed_pair@V?$allocator@D@std@@V?$_String_val@U?$_Simple_types@D@std@@@2@$00@std@@QEBAAEBV?$allocator@D@2@XZ DD imagerel $LN3
	DD	imagerel $LN3+37
	DD	imagerel $unwind$?_Get_first@?$_Compressed_pair@V?$allocator@D@std@@V?$_String_val@U?$_Simple_types@D@std@@@2@$00@std@@QEBAAEBV?$allocator@D@2@XZ
pdata	ENDS
;	COMDAT pdata
pdata	SEGMENT
$pdata$??1?$_Compressed_pair@V?$allocator@D@std@@V?$_String_val@U?$_Simple_types@D@std@@@2@$00@std@@QEAA@XZ DD imagerel $LN3
	DD	imagerel $LN3+33
	DD	imagerel $unwind$??1?$_Compressed_pair@V?$allocator@D@std@@V?$_String_val@U?$_Simple_types@D@std@@@2@$00@std@@QEAA@XZ
pdata	ENDS
;	COMDAT pdata
pdata	SEGMENT
$pdata$?InternalRelease@?$ComPtr@UIUnknown@@@WRL@Microsoft@@IEAAKXZ DD imagerel $LN4
	DD	imagerel $LN4+89
	DD	imagerel $unwind$?InternalRelease@?$ComPtr@UIUnknown@@@WRL@Microsoft@@IEAAKXZ
pdata	ENDS
;	COMDAT pdata
pdata	SEGMENT
$pdata$??1?$ComPtr@UIUnknown@@@WRL@Microsoft@@QEAA@XZ DD imagerel $LN3
	DD	imagerel $LN3+42
	DD	imagerel $unwind$??1?$ComPtr@UIUnknown@@@WRL@Microsoft@@QEAA@XZ
pdata	ENDS
;	COMDAT pdata
pdata	SEGMENT
$pdata$??_E?$ComPtr@UIUnknown@@@WRL@Microsoft@@QEAAPEAXI@Z DD imagerel $LN6
	DD	imagerel $LN6+153
	DD	imagerel $unwind$??_E?$ComPtr@UIUnknown@@@WRL@Microsoft@@QEAAPEAXI@Z
pdata	ENDS
;	COMDAT pdata
pdata	SEGMENT
$pdata$??0D3D12Mesh@@QEAA@XZ DD imagerel $LN4
	DD	imagerel $LN4+66
	DD	imagerel $unwind$??0D3D12Mesh@@QEAA@XZ
pdata	ENDS
;	COMDAT pdata
pdata	SEGMENT
$pdata$?dtor$0@?0???0D3D12Mesh@@QEAA@XZ@4HA DD imagerel ?dtor$0@?0???0D3D12Mesh@@QEAA@XZ@4HA
	DD	imagerel ?dtor$0@?0???0D3D12Mesh@@QEAA@XZ@4HA+29
	DD	imagerel $unwind$?dtor$0@?0???0D3D12Mesh@@QEAA@XZ@4HA
pdata	ENDS
;	COMDAT pdata
pdata	SEGMENT
$pdata$??0D3D12Mesh@@QEAA@V?$vector@UVertexDefault@@V?$allocator@UVertexDefault@@@std@@@std@@V?$vector@GV?$allocator@G@std@@@2@@Z DD imagerel $LN8
	DD	imagerel $LN8+253
	DD	imagerel $unwind$??0D3D12Mesh@@QEAA@V?$vector@UVertexDefault@@V?$allocator@UVertexDefault@@@std@@@std@@V?$vector@GV?$allocator@G@std@@@2@@Z
pdata	ENDS
;	COMDAT pdata
pdata	SEGMENT
$pdata$?dtor$0@?0???0D3D12Mesh@@QEAA@V?$vector@UVertexDefault@@V?$allocator@UVertexDefault@@@std@@@std@@V?$vector@GV?$allocator@G@std@@@2@@Z@4HA DD imagerel ?dtor$0@?0???0D3D12Mesh@@QEAA@V?$vector@UVertexDefault@@V?$allocator@UVertexDefault@@@std@@@std@@V?$vector@GV?$allocator@G@std@@@2@@Z@4HA
	DD	imagerel ?dtor$0@?0???0D3D12Mesh@@QEAA@V?$vector@UVertexDefault@@V?$allocator@UVertexDefault@@@std@@@std@@V?$vector@GV?$allocator@G@std@@@2@@Z@4HA+28
	DD	imagerel $unwind$?dtor$0@?0???0D3D12Mesh@@QEAA@V?$vector@UVertexDefault@@V?$allocator@UVertexDefault@@@std@@@std@@V?$vector@GV?$allocator@G@std@@@2@@Z@4HA
pdata	ENDS
;	COMDAT pdata
pdata	SEGMENT
$pdata$?dtor$1@?0???0D3D12Mesh@@QEAA@V?$vector@UVertexDefault@@V?$allocator@UVertexDefault@@@std@@@std@@V?$vector@GV?$allocator@G@std@@@2@@Z@4HA DD imagerel ?dtor$1@?0???0D3D12Mesh@@QEAA@V?$vector@UVertexDefault@@V?$allocator@UVertexDefault@@@std@@@std@@V?$vector@GV?$allocator@G@std@@@2@@Z@4HA
	DD	imagerel ?dtor$1@?0???0D3D12Mesh@@QEAA@V?$vector@UVertexDefault@@V?$allocator@UVertexDefault@@@std@@@std@@V?$vector@GV?$allocator@G@std@@@2@@Z@4HA+28
	DD	imagerel $unwind$?dtor$1@?0???0D3D12Mesh@@QEAA@V?$vector@UVertexDefault@@V?$allocator@UVertexDefault@@@std@@@std@@V?$vector@GV?$allocator@G@std@@@2@@Z@4HA
pdata	ENDS
;	COMDAT pdata
pdata	SEGMENT
$pdata$?dtor$2@?0???0D3D12Mesh@@QEAA@V?$vector@UVertexDefault@@V?$allocator@UVertexDefault@@@std@@@std@@V?$vector@GV?$allocator@G@std@@@2@@Z@4HA DD imagerel ?dtor$2@?0???0D3D12Mesh@@QEAA@V?$vector@UVertexDefault@@V?$allocator@UVertexDefault@@@std@@@std@@V?$vector@GV?$allocator@G@std@@@2@@Z@4HA
	DD	imagerel ?dtor$2@?0???0D3D12Mesh@@QEAA@V?$vector@UVertexDefault@@V?$allocator@UVertexDefault@@@std@@@std@@V?$vector@GV?$allocator@G@std@@@2@@Z@4HA+32
	DD	imagerel $unwind$?dtor$2@?0???0D3D12Mesh@@QEAA@V?$vector@UVertexDefault@@V?$allocator@UVertexDefault@@@std@@@std@@V?$vector@GV?$allocator@G@std@@@2@@Z@4HA
pdata	ENDS
;	COMDAT pdata
pdata	SEGMENT
$pdata$?dtor$3@?0???0D3D12Mesh@@QEAA@V?$vector@UVertexDefault@@V?$allocator@UVertexDefault@@@std@@@std@@V?$vector@GV?$allocator@G@std@@@2@@Z@4HA DD imagerel ?dtor$3@?0???0D3D12Mesh@@QEAA@V?$vector@UVertexDefault@@V?$allocator@UVertexDefault@@@std@@@std@@V?$vector@GV?$allocator@G@std@@@2@@Z@4HA
	DD	imagerel ?dtor$3@?0???0D3D12Mesh@@QEAA@V?$vector@UVertexDefault@@V?$allocator@UVertexDefault@@@std@@@std@@V?$vector@GV?$allocator@G@std@@@2@@Z@4HA+25
	DD	imagerel $unwind$?dtor$3@?0???0D3D12Mesh@@QEAA@V?$vector@UVertexDefault@@V?$allocator@UVertexDefault@@@std@@@std@@V?$vector@GV?$allocator@G@std@@@2@@Z@4HA
pdata	ENDS
;	COMDAT pdata
pdata	SEGMENT
$pdata$?Init@D3D12Mesh@@QEAAXV?$vector@UVertexDefault@@V?$allocator@UVertexDefault@@@std@@@std@@V?$vector@GV?$allocator@G@std@@@3@@Z DD imagerel $LN7
	DD	imagerel $LN7+522
	DD	imagerel $unwind$?Init@D3D12Mesh@@QEAAXV?$vector@UVertexDefault@@V?$allocator@UVertexDefault@@@std@@@std@@V?$vector@GV?$allocator@G@std@@@3@@Z
pdata	ENDS
;	COMDAT pdata
pdata	SEGMENT
$pdata$?dtor$0@?0??Init@D3D12Mesh@@QEAAXV?$vector@UVertexDefault@@V?$allocator@UVertexDefault@@@std@@@std@@V?$vector@GV?$allocator@G@std@@@3@@Z@4HA DD imagerel ?dtor$0@?0??Init@D3D12Mesh@@QEAAXV?$vector@UVertexDefault@@V?$allocator@UVertexDefault@@@std@@@std@@V?$vector@GV?$allocator@G@std@@@3@@Z@4HA
	DD	imagerel ?dtor$0@?0??Init@D3D12Mesh@@QEAAXV?$vector@UVertexDefault@@V?$allocator@UVertexDefault@@@std@@@std@@V?$vector@GV?$allocator@G@std@@@3@@Z@4HA+28
	DD	imagerel $unwind$?dtor$0@?0??Init@D3D12Mesh@@QEAAXV?$vector@UVertexDefault@@V?$allocator@UVertexDefault@@@std@@@std@@V?$vector@GV?$allocator@G@std@@@3@@Z@4HA
pdata	ENDS
;	COMDAT pdata
pdata	SEGMENT
$pdata$?dtor$1@?0??Init@D3D12Mesh@@QEAAXV?$vector@UVertexDefault@@V?$allocator@UVertexDefault@@@std@@@std@@V?$vector@GV?$allocator@G@std@@@3@@Z@4HA DD imagerel ?dtor$1@?0??Init@D3D12Mesh@@QEAAXV?$vector@UVertexDefault@@V?$allocator@UVertexDefault@@@std@@@std@@V?$vector@GV?$allocator@G@std@@@3@@Z@4HA
	DD	imagerel ?dtor$1@?0??Init@D3D12Mesh@@QEAAXV?$vector@UVertexDefault@@V?$allocator@UVertexDefault@@@std@@@std@@V?$vector@GV?$allocator@G@std@@@3@@Z@4HA+28
	DD	imagerel $unwind$?dtor$1@?0??Init@D3D12Mesh@@QEAAXV?$vector@UVertexDefault@@V?$allocator@UVertexDefault@@@std@@@std@@V?$vector@GV?$allocator@G@std@@@3@@Z@4HA
pdata	ENDS
;	COMDAT pdata
pdata	SEGMENT
$pdata$?dtor$2@?0??Init@D3D12Mesh@@QEAAXV?$vector@UVertexDefault@@V?$allocator@UVertexDefault@@@std@@@std@@V?$vector@GV?$allocator@G@std@@@3@@Z@4HA DD imagerel ?dtor$2@?0??Init@D3D12Mesh@@QEAAXV?$vector@UVertexDefault@@V?$allocator@UVertexDefault@@@std@@@std@@V?$vector@GV?$allocator@G@std@@@3@@Z@4HA
	DD	imagerel ?dtor$2@?0??Init@D3D12Mesh@@QEAAXV?$vector@UVertexDefault@@V?$allocator@UVertexDefault@@@std@@@std@@V?$vector@GV?$allocator@G@std@@@3@@Z@4HA+25
	DD	imagerel $unwind$?dtor$2@?0??Init@D3D12Mesh@@QEAAXV?$vector@UVertexDefault@@V?$allocator@UVertexDefault@@@std@@@std@@V?$vector@GV?$allocator@G@std@@@3@@Z@4HA
pdata	ENDS
;	COMDAT pdata
pdata	SEGMENT
$pdata$?dtor$3@?0??Init@D3D12Mesh@@QEAAXV?$vector@UVertexDefault@@V?$allocator@UVertexDefault@@@std@@@std@@V?$vector@GV?$allocator@G@std@@@3@@Z@4HA DD imagerel ?dtor$3@?0??Init@D3D12Mesh@@QEAAXV?$vector@UVertexDefault@@V?$allocator@UVertexDefault@@@std@@@std@@V?$vector@GV?$allocator@G@std@@@3@@Z@4HA
	DD	imagerel ?dtor$3@?0??Init@D3D12Mesh@@QEAAXV?$vector@UVertexDefault@@V?$allocator@UVertexDefault@@@std@@@std@@V?$vector@GV?$allocator@G@std@@@3@@Z@4HA+25
	DD	imagerel $unwind$?dtor$3@?0??Init@D3D12Mesh@@QEAAXV?$vector@UVertexDefault@@V?$allocator@UVertexDefault@@@std@@@std@@V?$vector@GV?$allocator@G@std@@@3@@Z@4HA
pdata	ENDS
;	COMDAT pdata
pdata	SEGMENT
$pdata$??0logic_error@std@@QEAA@PEBD@Z DD imagerel $LN4
	DD	imagerel $LN4+69
	DD	imagerel $unwind$??0logic_error@std@@QEAA@PEBD@Z
pdata	ENDS
;	COMDAT pdata
pdata	SEGMENT
$pdata$??1logic_error@std@@UEAA@XZ DD imagerel $LN3
	DD	imagerel $LN3+30
	DD	imagerel $unwind$??1logic_error@std@@UEAA@XZ
pdata	ENDS
;	COMDAT pdata
pdata	SEGMENT
$pdata$??0logic_error@std@@QEAA@AEBV01@@Z DD imagerel $LN3
	DD	imagerel $LN3+57
	DD	imagerel $unwind$??0logic_error@std@@QEAA@AEBV01@@Z
pdata	ENDS
;	COMDAT pdata
pdata	SEGMENT
$pdata$??_Glogic_error@std@@UEAAPEAXI@Z DD imagerel $LN4
	DD	imagerel $LN4+62
	DD	imagerel $unwind$??_Glogic_error@std@@UEAAPEAXI@Z
pdata	ENDS
;	COMDAT pdata
pdata	SEGMENT
$pdata$??1error_category@std@@UEAA@XZ DD imagerel $LN3
	DD	imagerel $LN3+33
	DD	imagerel $unwind$??1error_category@std@@UEAA@XZ
pdata	ENDS
;	COMDAT pdata
pdata	SEGMENT
$pdata$?default_error_condition@error_category@std@@UEBA?AVerror_condition@2@H@Z DD imagerel $LN3
	DD	imagerel $LN3+63
	DD	imagerel $unwind$?default_error_condition@error_category@std@@UEBA?AVerror_condition@2@H@Z
pdata	ENDS
;	COMDAT pdata
pdata	SEGMENT
$pdata$?equivalent@error_category@std@@UEBA_NHAEBVerror_condition@2@@Z DD imagerel $LN3
	DD	imagerel $LN3+90
	DD	imagerel $unwind$?equivalent@error_category@std@@UEBA_NHAEBVerror_condition@2@@Z
pdata	ENDS
;	COMDAT pdata
pdata	SEGMENT
$pdata$?equivalent@error_category@std@@UEBA_NAEBVerror_code@2@H@Z DD imagerel $LN5
	DD	imagerel $LN5+105
	DD	imagerel $unwind$?equivalent@error_category@std@@UEBA_NAEBVerror_code@2@H@Z
pdata	ENDS
;	COMDAT pdata
pdata	SEGMENT
$pdata$??8error_category@std@@QEBA_NAEBV01@@Z DD imagerel $LN5
	DD	imagerel $LN5+100
	DD	imagerel $unwind$??8error_category@std@@QEBA_NAEBV01@@Z
pdata	ENDS
;	COMDAT pdata
pdata	SEGMENT
$pdata$??$_Bit_cast@_KT_Addr_storage@error_category@std@@$0A@@std@@YA_KAEBT_Addr_storage@error_category@0@@Z DD imagerel $LN3
	DD	imagerel $LN3+48
	DD	imagerel $unwind$??$_Bit_cast@_KT_Addr_storage@error_category@std@@$0A@@std@@YA_KAEBT_Addr_storage@error_category@0@@Z
pdata	ENDS
;	COMDAT pdata
pdata	SEGMENT
$pdata$??0error_code@std@@QEAA@HAEBVerror_category@1@@Z DD imagerel $LN3
	DD	imagerel $LN3+67
	DD	imagerel $unwind$??0error_code@std@@QEAA@HAEBVerror_category@1@@Z
pdata	ENDS
;	COMDAT pdata
pdata	SEGMENT
$pdata$?value@error_code@std@@QEBAHXZ DD imagerel $LN3
	DD	imagerel $LN3+39
	DD	imagerel $unwind$?value@error_code@std@@QEBAHXZ
pdata	ENDS
;	COMDAT pdata
pdata	SEGMENT
$pdata$?category@error_code@std@@QEBAAEBVerror_category@2@XZ DD imagerel $LN3
	DD	imagerel $LN3+41
	DD	imagerel $unwind$?category@error_code@std@@QEBAAEBVerror_category@2@XZ
pdata	ENDS
;	COMDAT pdata
pdata	SEGMENT
$pdata$??0error_condition@std@@QEAA@HAEBVerror_category@1@@Z DD imagerel $LN3
	DD	imagerel $LN3+67
	DD	imagerel $unwind$??0error_condition@std@@QEAA@HAEBVerror_category@1@@Z
pdata	ENDS
;	COMDAT pdata
pdata	SEGMENT
$pdata$?value@error_condition@std@@QEBAHXZ DD imagerel $LN3
	DD	imagerel $LN3+39
	DD	imagerel $unwind$?value@error_condition@std@@QEBAHXZ
pdata	ENDS
;	COMDAT pdata
pdata	SEGMENT
$pdata$?category@error_condition@std@@QEBAAEBVerror_category@2@XZ DD imagerel $LN3
	DD	imagerel $LN3+41
	DD	imagerel $unwind$?category@error_condition@std@@QEBAAEBVerror_category@2@XZ
pdata	ENDS
;	COMDAT pdata
pdata	SEGMENT
$pdata$??8std@@YA_NAEBVerror_condition@0@0@Z DD imagerel $LN5
	DD	imagerel $LN5+135
	DD	imagerel $unwind$??8std@@YA_NAEBVerror_condition@0@0@Z
pdata	ENDS
;	COMDAT pdata
pdata	SEGMENT
$pdata$?future_category@std@@YAAEBVerror_category@1@XZ DD imagerel $LN3
	DD	imagerel $LN3+34
	DD	imagerel $unwind$?future_category@std@@YAAEBVerror_category@1@XZ
pdata	ENDS
;	COMDAT pdata
pdata	SEGMENT
$pdata$?make_error_code@std@@YA?AVerror_code@1@W4future_errc@1@@Z DD imagerel $LN3
	DD	imagerel $LN3+61
	DD	imagerel $unwind$?make_error_code@std@@YA?AVerror_code@1@W4future_errc@1@@Z
pdata	ENDS
;	COMDAT pdata
pdata	SEGMENT
$pdata$?_Future_error_map@std@@YAPEBDH@Z DD imagerel $LN10
	DD	imagerel $LN10+102
	DD	imagerel $unwind$?_Future_error_map@std@@YAPEBDH@Z
pdata	ENDS
;	COMDAT pdata
pdata	SEGMENT
$pdata$??0future_error@std@@QEAA@W4future_errc@1@@Z DD imagerel $LN4
	DD	imagerel $LN4+90
	DD	imagerel $unwind$??0future_error@std@@QEAA@W4future_errc@1@@Z
pdata	ENDS
;	COMDAT pdata
pdata	SEGMENT
$pdata$?what@future_error@std@@UEBAPEBDXZ DD imagerel $LN3
	DD	imagerel $LN3+56
	DD	imagerel $unwind$?what@future_error@std@@UEBAPEBDXZ
pdata	ENDS
;	COMDAT pdata
pdata	SEGMENT
$pdata$??1future_error@std@@UEAA@XZ DD imagerel $LN3
	DD	imagerel $LN3+30
	DD	imagerel $unwind$??1future_error@std@@UEAA@XZ
pdata	ENDS
;	COMDAT pdata
pdata	SEGMENT
$pdata$??0future_error@std@@QEAA@AEBV01@@Z DD imagerel $LN3
	DD	imagerel $LN3+84
	DD	imagerel $unwind$??0future_error@std@@QEAA@AEBV01@@Z
pdata	ENDS
;	COMDAT pdata
pdata	SEGMENT
$pdata$??_Gfuture_error@std@@UEAAPEAXI@Z DD imagerel $LN4
	DD	imagerel $LN4+62
	DD	imagerel $unwind$??_Gfuture_error@std@@UEAAPEAXI@Z
pdata	ENDS
;	COMDAT pdata
pdata	SEGMENT
$pdata$?_Throw_future_error2@std@@YAXW4future_errc@1@@Z DD imagerel $LN3
	DD	imagerel $LN3+66
	DD	imagerel $unwind$?_Throw_future_error2@std@@YAXW4future_errc@1@@Z
pdata	ENDS
;	COMDAT pdata
pdata	SEGMENT
$pdata$?name@_Future_error_category2@std@@UEBAPEBDXZ DD imagerel $LN3
	DD	imagerel $LN3+40
	DD	imagerel $unwind$?name@_Future_error_category2@std@@UEBAPEBDXZ
pdata	ENDS
;	COMDAT pdata
pdata	SEGMENT
$pdata$?message@_Future_error_category2@std@@UEBA?AV?$basic_string@DU?$char_traits@D@std@@V?$allocator@D@2@@2@H@Z DD imagerel $LN6
	DD	imagerel $LN6+130
	DD	imagerel $unwind$?message@_Future_error_category2@std@@UEBA?AV?$basic_string@DU?$char_traits@D@std@@V?$allocator@D@2@@2@H@Z
pdata	ENDS
;	COMDAT pdata
pdata	SEGMENT
$pdata$??1_Future_error_category2@std@@UEAA@XZ DD imagerel $LN3
	DD	imagerel $LN3+30
	DD	imagerel $unwind$??1_Future_error_category2@std@@UEAA@XZ
pdata	ENDS
;	COMDAT pdata
pdata	SEGMENT
$pdata$??_G_Future_error_category2@std@@UEAAPEAXI@Z DD imagerel $LN4
	DD	imagerel $LN4+62
	DD	imagerel $unwind$??_G_Future_error_category2@std@@UEAAPEAXI@Z
pdata	ENDS
;	COMDAT pdata
pdata	SEGMENT
$pdata$??$_Immortalize_memcpy_image@V_Future_error_category2@std@@@std@@YAAEBV_Future_error_category2@0@XZ DD imagerel $LN3
	DD	imagerel $LN3+36
	DD	imagerel $unwind$??$_Immortalize_memcpy_image@V_Future_error_category2@std@@@std@@YAAEBV_Future_error_category2@0@XZ
pdata	ENDS
;	COMDAT pdata
pdata	SEGMENT
$pdata$?_Release@?$_Associated_state@H@std@@QEAAXXZ DD imagerel $LN4
	DD	imagerel $LN4+67
	DD	imagerel $unwind$?_Release@?$_Associated_state@H@std@@QEAAXXZ
pdata	ENDS
;	COMDAT pdata
pdata	SEGMENT
$pdata$?_Already_retrieved@?$_Associated_state@H@std@@QEBA_NXZ DD imagerel $LN3
	DD	imagerel $LN3+44
	DD	imagerel $unwind$?_Already_retrieved@?$_Associated_state@H@std@@QEBA_NXZ
pdata	ENDS
;	COMDAT pdata
pdata	SEGMENT
$pdata$?_Delete_this@?$_Associated_state@H@std@@AEAAXXZ DD imagerel $LN7
	DD	imagerel $LN7+154
	DD	imagerel $unwind$?_Delete_this@?$_Associated_state@H@std@@AEAAXXZ
pdata	ENDS
;	COMDAT pdata
pdata	SEGMENT
$pdata$??1?$_State_manager@H@std@@QEAA@XZ DD imagerel $LN4
	DD	imagerel $LN4+55
	DD	imagerel $unwind$??1?$_State_manager@H@std@@QEAA@XZ
pdata	ENDS
;	COMDAT pdata
pdata	SEGMENT
$pdata$?valid@?$_State_manager@H@std@@QEBA_NXZ DD imagerel $LN6
	DD	imagerel $LN6+94
	DD	imagerel $unwind$?valid@?$_State_manager@H@std@@QEBA_NXZ
pdata	ENDS
;	COMDAT pdata
pdata	SEGMENT
$pdata$?wait@?$_State_manager@H@std@@QEBAXXZ DD imagerel $LN4
	DD	imagerel $LN4+79
	DD	imagerel $unwind$?wait@?$_State_manager@H@std@@QEBAXXZ
pdata	ENDS
;	COMDAT pdata
pdata	SEGMENT
$pdata$??1?$future@X@std@@QEAA@XZ DD imagerel $LN3
	DD	imagerel $LN3+30
	DD	imagerel $unwind$??1?$future@X@std@@QEAA@XZ
pdata	ENDS
;	COMDAT pdata
pdata	SEGMENT
$pdata$?deallocate@?$allocator@UVertexDefault@@@std@@QEAAXQEAUVertexDefault@@_K@Z DD imagerel $LN13
	DD	imagerel $LN13+193
	DD	imagerel $unwind$?deallocate@?$allocator@UVertexDefault@@@std@@QEAAXQEAUVertexDefault@@_K@Z
pdata	ENDS
;	COMDAT pdata
pdata	SEGMENT
$pdata$?allocate@?$allocator@UVertexDefault@@@std@@QEAAPEAUVertexDefault@@_K@Z DD imagerel $LN3
	DD	imagerel $LN3+55
	DD	imagerel $unwind$?allocate@?$allocator@UVertexDefault@@@std@@QEAAPEAUVertexDefault@@_K@Z
pdata	ENDS
;	COMDAT pdata
pdata	SEGMENT
$pdata$?max_size@?$_Default_allocator_traits@V?$allocator@UVertexDefault@@@std@@@std@@SA_KAEBV?$allocator@UVertexDefault@@@2@@Z DD imagerel $LN3
	DD	imagerel $LN3+43
	DD	imagerel $unwind$?max_size@?$_Default_allocator_traits@V?$allocator@UVertexDefault@@@std@@@std@@SA_KAEBV?$allocator@UVertexDefault@@@2@@Z
pdata	ENDS
;	COMDAT pdata
pdata	SEGMENT
$pdata$?select_on_container_copy_construction@?$_Default_allocator_traits@V?$allocator@UVertexDefault@@@std@@@std@@SA?AV?$allocator@UVertexDefault@@@2@AEBV32@@Z DD imagerel $LN3
	DD	imagerel $LN3+42
	DD	imagerel $unwind$?select_on_container_copy_construction@?$_Default_allocator_traits@V?$allocator@UVertexDefault@@@std@@@std@@SA?AV?$allocator@UVertexDefault@@@2@AEBV32@@Z
pdata	ENDS
;	COMDAT pdata
pdata	SEGMENT
$pdata$??0?$vector@UVertexDefault@@V?$allocator@UVertexDefault@@@std@@@std@@QEAA@AEBV01@@Z DD imagerel $LN3
	DD	imagerel $LN3+193
	DD	imagerel $unwind$??0?$vector@UVertexDefault@@V?$allocator@UVertexDefault@@@std@@@std@@QEAA@AEBV01@@Z
pdata	ENDS
;	COMDAT pdata
pdata	SEGMENT
$pdata$??1?$vector@UVertexDefault@@V?$allocator@UVertexDefault@@@std@@@std@@QEAA@XZ DD imagerel $LN3
	DD	imagerel $LN3+110
	DD	imagerel $unwind$??1?$vector@UVertexDefault@@V?$allocator@UVertexDefault@@@std@@@std@@QEAA@XZ
pdata	ENDS
;	COMDAT pdata
pdata	SEGMENT
$pdata$?data@?$vector@UVertexDefault@@V?$allocator@UVertexDefault@@@std@@@std@@QEAAPEAUVertexDefault@@XZ DD imagerel $LN3
	DD	imagerel $LN3+46
	DD	imagerel $unwind$?data@?$vector@UVertexDefault@@V?$allocator@UVertexDefault@@@std@@@std@@QEAAPEAUVertexDefault@@XZ
pdata	ENDS
;	COMDAT pdata
pdata	SEGMENT
$pdata$?size@?$vector@UVertexDefault@@V?$allocator@UVertexDefault@@@std@@@std@@QEBA_KXZ DD imagerel $LN3
	DD	imagerel $LN3+70
	DD	imagerel $unwind$?size@?$vector@UVertexDefault@@V?$allocator@UVertexDefault@@@std@@@std@@QEBA_KXZ
pdata	ENDS
;	COMDAT pdata
pdata	SEGMENT
$pdata$?max_size@?$vector@UVertexDefault@@V?$allocator@UVertexDefault@@@std@@@std@@QEBA_KXZ DD imagerel $LN3
	DD	imagerel $LN3+79
	DD	imagerel $unwind$?max_size@?$vector@UVertexDefault@@V?$allocator@UVertexDefault@@@std@@@std@@QEBA_KXZ
pdata	ENDS
;	COMDAT pdata
pdata	SEGMENT
$pdata$?_Buy_raw@?$vector@UVertexDefault@@V?$allocator@UVertexDefault@@@std@@@std@@AEAAX_K@Z DD imagerel $LN3
	DD	imagerel $LN3+166
	DD	imagerel $unwind$?_Buy_raw@?$vector@UVertexDefault@@V?$allocator@UVertexDefault@@@std@@@std@@AEAAX_K@Z
pdata	ENDS
;	COMDAT pdata
pdata	SEGMENT
$pdata$?_Buy_nonzero@?$vector@UVertexDefault@@V?$allocator@UVertexDefault@@@std@@@std@@AEAAX_K@Z DD imagerel $LN4
	DD	imagerel $LN4+71
	DD	imagerel $unwind$?_Buy_nonzero@?$vector@UVertexDefault@@V?$allocator@UVertexDefault@@@std@@@std@@AEAAX_K@Z
pdata	ENDS
;	COMDAT pdata
pdata	SEGMENT
$pdata$?_Tidy@?$vector@UVertexDefault@@V?$allocator@UVertexDefault@@@std@@@std@@AEAAXXZ DD imagerel $LN4
	DD	imagerel $LN4+220
	DD	imagerel $unwind$?_Tidy@?$vector@UVertexDefault@@V?$allocator@UVertexDefault@@@std@@@std@@AEAAXXZ
pdata	ENDS
;	COMDAT pdata
pdata	SEGMENT
$pdata$?_Xlength@?$vector@UVertexDefault@@V?$allocator@UVertexDefault@@@std@@@std@@CAXXZ DD imagerel $LN3
	DD	imagerel $LN3+41
	DD	imagerel $unwind$?_Xlength@?$vector@UVertexDefault@@V?$allocator@UVertexDefault@@@std@@@std@@CAXXZ
pdata	ENDS
;	COMDAT pdata
pdata	SEGMENT
$pdata$?_Getal@?$vector@UVertexDefault@@V?$allocator@UVertexDefault@@@std@@@std@@AEAAAEAV?$allocator@UVertexDefault@@@2@XZ DD imagerel $LN3
	DD	imagerel $LN3+45
	DD	imagerel $unwind$?_Getal@?$vector@UVertexDefault@@V?$allocator@UVertexDefault@@@std@@@std@@AEAAAEAV?$allocator@UVertexDefault@@@2@XZ
pdata	ENDS
;	COMDAT pdata
pdata	SEGMENT
$pdata$?_Getal@?$vector@UVertexDefault@@V?$allocator@UVertexDefault@@@std@@@std@@AEBAAEBV?$allocator@UVertexDefault@@@2@XZ DD imagerel $LN3
	DD	imagerel $LN3+45
	DD	imagerel $unwind$?_Getal@?$vector@UVertexDefault@@V?$allocator@UVertexDefault@@@std@@@std@@AEBAAEBV?$allocator@UVertexDefault@@@2@XZ
pdata	ENDS
;	COMDAT pdata
pdata	SEGMENT
$pdata$??0?$_Vector_val@U?$_Simple_types@UVertexDefault@@@std@@@std@@QEAA@XZ DD imagerel $LN3
	DD	imagerel $LN3+82
	DD	imagerel $unwind$??0?$_Vector_val@U?$_Simple_types@UVertexDefault@@@std@@@std@@QEAA@XZ
pdata	ENDS
;	COMDAT pdata
pdata	SEGMENT
$pdata$?_Get_first@?$_Compressed_pair@V?$allocator@UVertexDefault@@@std@@V?$_Vector_val@U?$_Simple_types@UVertexDefault@@@std@@@2@$00@std@@QEAAAEAV?$allocator@UVertexDefault@@@2@XZ DD imagerel $LN3
	DD	imagerel $LN3+37
	DD	imagerel $unwind$?_Get_first@?$_Compressed_pair@V?$allocator@UVertexDefault@@@std@@V?$_Vector_val@U?$_Simple_types@UVertexDefault@@@std@@@2@$00@std@@QEAAAEAV?$allocator@UVertexDefault@@@2@XZ
pdata	ENDS
;	COMDAT pdata
pdata	SEGMENT
$pdata$?_Get_first@?$_Compressed_pair@V?$allocator@UVertexDefault@@@std@@V?$_Vector_val@U?$_Simple_types@UVertexDefault@@@std@@@2@$00@std@@QEBAAEBV?$allocator@UVertexDefault@@@2@XZ DD imagerel $LN3
	DD	imagerel $LN3+37
	DD	imagerel $unwind$?_Get_first@?$_Compressed_pair@V?$allocator@UVertexDefault@@@std@@V?$_Vector_val@U?$_Simple_types@UVertexDefault@@@std@@@2@$00@std@@QEBAAEBV?$allocator@UVertexDefault@@@2@XZ
pdata	ENDS
;	COMDAT pdata
pdata	SEGMENT
$pdata$?deallocate@?$allocator@G@std@@QEAAXQEAG_K@Z DD imagerel $LN13
	DD	imagerel $LN13+195
	DD	imagerel $unwind$?deallocate@?$allocator@G@std@@QEAAXQEAG_K@Z
pdata	ENDS
;	COMDAT pdata
pdata	SEGMENT
$pdata$?allocate@?$allocator@G@std@@QEAAPEAG_K@Z DD imagerel $LN3
	DD	imagerel $LN3+55
	DD	imagerel $unwind$?allocate@?$allocator@G@std@@QEAAPEAG_K@Z
pdata	ENDS
;	COMDAT pdata
pdata	SEGMENT
$pdata$?max_size@?$_Default_allocator_traits@V?$allocator@G@std@@@std@@SA_KAEBV?$allocator@G@2@@Z DD imagerel $LN3
	DD	imagerel $LN3+43
	DD	imagerel $unwind$?max_size@?$_Default_allocator_traits@V?$allocator@G@std@@@std@@SA_KAEBV?$allocator@G@2@@Z
pdata	ENDS
;	COMDAT pdata
pdata	SEGMENT
$pdata$?select_on_container_copy_construction@?$_Default_allocator_traits@V?$allocator@G@std@@@std@@SA?AV?$allocator@G@2@AEBV32@@Z DD imagerel $LN3
	DD	imagerel $LN3+42
	DD	imagerel $unwind$?select_on_container_copy_construction@?$_Default_allocator_traits@V?$allocator@G@std@@@std@@SA?AV?$allocator@G@2@AEBV32@@Z
pdata	ENDS
;	COMDAT pdata
pdata	SEGMENT
$pdata$??0?$vector@GV?$allocator@G@std@@@std@@QEAA@AEBV01@@Z DD imagerel $LN3
	DD	imagerel $LN3+186
	DD	imagerel $unwind$??0?$vector@GV?$allocator@G@std@@@std@@QEAA@AEBV01@@Z
pdata	ENDS
;	COMDAT pdata
pdata	SEGMENT
$pdata$??1?$vector@GV?$allocator@G@std@@@std@@QEAA@XZ DD imagerel $LN3
	DD	imagerel $LN3+110
	DD	imagerel $unwind$??1?$vector@GV?$allocator@G@std@@@std@@QEAA@XZ
pdata	ENDS
;	COMDAT pdata
pdata	SEGMENT
$pdata$?data@?$vector@GV?$allocator@G@std@@@std@@QEAAPEAGXZ DD imagerel $LN3
	DD	imagerel $LN3+46
	DD	imagerel $unwind$?data@?$vector@GV?$allocator@G@std@@@std@@QEAAPEAGXZ
pdata	ENDS
;	COMDAT pdata
pdata	SEGMENT
$pdata$?size@?$vector@GV?$allocator@G@std@@@std@@QEBA_KXZ DD imagerel $LN3
	DD	imagerel $LN3+63
	DD	imagerel $unwind$?size@?$vector@GV?$allocator@G@std@@@std@@QEBA_KXZ
pdata	ENDS
;	COMDAT pdata
pdata	SEGMENT
$pdata$?max_size@?$vector@GV?$allocator@G@std@@@std@@QEBA_KXZ DD imagerel $LN3
	DD	imagerel $LN3+79
	DD	imagerel $unwind$?max_size@?$vector@GV?$allocator@G@std@@@std@@QEBA_KXZ
pdata	ENDS
;	COMDAT pdata
pdata	SEGMENT
$pdata$?_Buy_raw@?$vector@GV?$allocator@G@std@@@std@@AEAAX_K@Z DD imagerel $LN3
	DD	imagerel $LN3+163
	DD	imagerel $unwind$?_Buy_raw@?$vector@GV?$allocator@G@std@@@std@@AEAAX_K@Z
pdata	ENDS
;	COMDAT pdata
pdata	SEGMENT
$pdata$?_Buy_nonzero@?$vector@GV?$allocator@G@std@@@std@@AEAAX_K@Z DD imagerel $LN4
	DD	imagerel $LN4+71
	DD	imagerel $unwind$?_Buy_nonzero@?$vector@GV?$allocator@G@std@@@std@@AEAAX_K@Z
pdata	ENDS
;	COMDAT pdata
pdata	SEGMENT
$pdata$?_Tidy@?$vector@GV?$allocator@G@std@@@std@@AEAAXXZ DD imagerel $LN4
	DD	imagerel $LN4+213
	DD	imagerel $unwind$?_Tidy@?$vector@GV?$allocator@G@std@@@std@@AEAAXXZ
pdata	ENDS
;	COMDAT pdata
pdata	SEGMENT
$pdata$?_Xlength@?$vector@GV?$allocator@G@std@@@std@@CAXXZ DD imagerel $LN3
	DD	imagerel $LN3+41
	DD	imagerel $unwind$?_Xlength@?$vector@GV?$allocator@G@std@@@std@@CAXXZ
pdata	ENDS
;	COMDAT pdata
pdata	SEGMENT
$pdata$?_Getal@?$vector@GV?$allocator@G@std@@@std@@AEAAAEAV?$allocator@G@2@XZ DD imagerel $LN3
	DD	imagerel $LN3+45
	DD	imagerel $unwind$?_Getal@?$vector@GV?$allocator@G@std@@@std@@AEAAAEAV?$allocator@G@2@XZ
pdata	ENDS
;	COMDAT pdata
pdata	SEGMENT
$pdata$?_Getal@?$vector@GV?$allocator@G@std@@@std@@AEBAAEBV?$allocator@G@2@XZ DD imagerel $LN3
	DD	imagerel $LN3+45
	DD	imagerel $unwind$?_Getal@?$vector@GV?$allocator@G@std@@@std@@AEBAAEBV?$allocator@G@2@XZ
pdata	ENDS
;	COMDAT pdata
pdata	SEGMENT
$pdata$??0?$_Vector_val@U?$_Simple_types@G@std@@@std@@QEAA@XZ DD imagerel $LN3
	DD	imagerel $LN3+82
	DD	imagerel $unwind$??0?$_Vector_val@U?$_Simple_types@G@std@@@std@@QEAA@XZ
pdata	ENDS
;	COMDAT pdata
pdata	SEGMENT
$pdata$?_Get_first@?$_Compressed_pair@V?$allocator@G@std@@V?$_Vector_val@U?$_Simple_types@G@std@@@2@$00@std@@QEAAAEAV?$allocator@G@2@XZ DD imagerel $LN3
	DD	imagerel $LN3+37
	DD	imagerel $unwind$?_Get_first@?$_Compressed_pair@V?$allocator@G@std@@V?$_Vector_val@U?$_Simple_types@G@std@@@2@$00@std@@QEAAAEAV?$allocator@G@2@XZ
pdata	ENDS
;	COMDAT pdata
pdata	SEGMENT
$pdata$?_Get_first@?$_Compressed_pair@V?$allocator@G@std@@V?$_Vector_val@U?$_Simple_types@G@std@@@2@$00@std@@QEBAAEBV?$allocator@G@2@XZ DD imagerel $LN3
	DD	imagerel $LN3+37
	DD	imagerel $unwind$?_Get_first@?$_Compressed_pair@V?$allocator@G@std@@V?$_Vector_val@U?$_Simple_types@G@std@@@2@$00@std@@QEBAAEBV?$allocator@G@2@XZ
pdata	ENDS
;	COMDAT pdata
pdata	SEGMENT
$pdata$??$CreateStaticBuffer@UVertexDefault@@@DirectX@@YAJPEAUID3D12Device@@AEAVResourceUploadBatch@0@PEBUVertexDefault@@_KW4D3D12_RESOURCE_STATES@@PEAPEAUID3D12Resource@@W4D3D12_RESOURCE_FLAGS@@@Z DD imagerel $LN3
	DD	imagerel $LN3+107
	DD	imagerel $unwind$??$CreateStaticBuffer@UVertexDefault@@@DirectX@@YAJPEAUID3D12Device@@AEAVResourceUploadBatch@0@PEBUVertexDefault@@_KW4D3D12_RESOURCE_STATES@@PEAPEAUID3D12Resource@@W4D3D12_RESOURCE_FLAGS@@@Z
pdata	ENDS
;	COMDAT pdata
pdata	SEGMENT
$pdata$??$CreateStaticBuffer@G@DirectX@@YAJPEAUID3D12Device@@AEAVResourceUploadBatch@0@PEBG_KW4D3D12_RESOURCE_STATES@@PEAPEAUID3D12Resource@@W4D3D12_RESOURCE_FLAGS@@@Z DD imagerel $LN3
	DD	imagerel $LN3+107
	DD	imagerel $unwind$??$CreateStaticBuffer@G@DirectX@@YAJPEAUID3D12Device@@AEAVResourceUploadBatch@0@PEBG_KW4D3D12_RESOURCE_STATES@@PEAPEAUID3D12Resource@@W4D3D12_RESOURCE_FLAGS@@@Z
pdata	ENDS
;	COMDAT pdata
pdata	SEGMENT
$pdata$??$_Unfancy_maybe_null@G@std@@YAPEAGPEAG@Z DD imagerel $LN3
	DD	imagerel $LN3+37
	DD	imagerel $unwind$??$_Unfancy_maybe_null@G@std@@YAPEAGPEAG@Z
pdata	ENDS
;	COMDAT pdata
pdata	SEGMENT
$pdata$?deallocate@?$allocator@U_Container_proxy@std@@@std@@QEAAXQEAU_Container_proxy@2@_K@Z DD imagerel $LN13
	DD	imagerel $LN13+193
	DD	imagerel $unwind$?deallocate@?$allocator@U_Container_proxy@std@@@std@@QEAAXQEAU_Container_proxy@2@_K@Z
pdata	ENDS
;	COMDAT pdata
pdata	SEGMENT
$pdata$?allocate@?$allocator@U_Container_proxy@std@@@std@@QEAAPEAU_Container_proxy@2@_K@Z DD imagerel $LN3
	DD	imagerel $LN3+55
	DD	imagerel $unwind$?allocate@?$allocator@U_Container_proxy@std@@@std@@QEAAPEAU_Container_proxy@2@_K@Z
pdata	ENDS
;	COMDAT pdata
pdata	SEGMENT
$pdata$??$?0G@?$allocator@U_Container_proxy@std@@@std@@QEAA@AEBV?$allocator@G@1@@Z DD imagerel $LN3
	DD	imagerel $LN3+42
	DD	imagerel $unwind$??$?0G@?$allocator@U_Container_proxy@std@@@std@@QEAA@AEBV?$allocator@G@1@@Z
pdata	ENDS
;	COMDAT pdata
pdata	SEGMENT
$pdata$??$exchange@PEAU_Container_proxy@std@@$$T@std@@YAPEAU_Container_proxy@0@AEAPEAU10@$$QEA$$T@Z DD imagerel $LN3
	DD	imagerel $LN3+67
	DD	imagerel $unwind$??$exchange@PEAU_Container_proxy@std@@$$T@std@@YAPEAU_Container_proxy@0@AEAPEAU10@$$QEA$$T@Z
pdata	ENDS
;	COMDAT pdata
pdata	SEGMENT
$pdata$??$_Delete_plain_internal@V?$allocator@U_Container_proxy@std@@@std@@@std@@YAXAEAV?$allocator@U_Container_proxy@std@@@0@QEAU_Container_proxy@0@@Z DD imagerel $LN3
	DD	imagerel $LN3+51
	DD	imagerel $unwind$??$_Delete_plain_internal@V?$allocator@U_Container_proxy@std@@@std@@@std@@YAXAEAV?$allocator@U_Container_proxy@std@@@0@QEAU_Container_proxy@0@@Z
pdata	ENDS
;	COMDAT pdata
pdata	SEGMENT
$pdata$??$?0V?$allocator@G@std@@$$V@?$_Compressed_pair@V?$allocator@G@std@@V?$_Vector_val@U?$_Simple_types@G@std@@@2@$00@std@@QEAA@U_One_then_variadic_args_t@1@$$QEAV?$allocator@G@1@@Z DD imagerel $LN3
	DD	imagerel $LN3+58
	DD	imagerel $unwind$??$?0V?$allocator@G@std@@$$V@?$_Compressed_pair@V?$allocator@G@std@@V?$_Vector_val@U?$_Simple_types@G@std@@@2@$00@std@@QEAA@U_One_then_variadic_args_t@1@$$QEAV?$allocator@G@1@@Z
pdata	ENDS
;	COMDAT pdata
pdata	SEGMENT
$pdata$??$_Construct_n@AEBQEAGAEBQEAG@?$vector@GV?$allocator@G@std@@@std@@AEAAX_KAEBQEAG1@Z DD imagerel $LN6
	DD	imagerel $LN6+241
	DD	imagerel $unwind$??$_Construct_n@AEBQEAGAEBQEAG@?$vector@GV?$allocator@G@std@@@std@@AEAAX_KAEBQEAG1@Z
pdata	ENDS
;	COMDAT pdata
pdata	SEGMENT
$pdata$?dtor$0@?0???$_Construct_n@AEBQEAGAEBQEAG@?$vector@GV?$allocator@G@std@@@std@@AEAAX_KAEBQEAG1@Z@4HA DD imagerel ?dtor$0@?0???$_Construct_n@AEBQEAGAEBQEAG@?$vector@GV?$allocator@G@std@@@std@@AEAAX_KAEBQEAG1@Z@4HA
	DD	imagerel ?dtor$0@?0???$_Construct_n@AEBQEAGAEBQEAG@?$vector@GV?$allocator@G@std@@@std@@AEAAX_KAEBQEAG1@Z@4HA+25
	DD	imagerel $unwind$?dtor$0@?0???$_Construct_n@AEBQEAGAEBQEAG@?$vector@GV?$allocator@G@std@@@std@@AEAAX_KAEBQEAG1@Z@4HA
pdata	ENDS
;	COMDAT pdata
pdata	SEGMENT
$pdata$?dtor$1@?0???$_Construct_n@AEBQEAGAEBQEAG@?$vector@GV?$allocator@G@std@@@std@@AEAAX_KAEBQEAG1@Z@4HA DD imagerel ?dtor$1@?0???$_Construct_n@AEBQEAGAEBQEAG@?$vector@GV?$allocator@G@std@@@std@@AEAAX_KAEBQEAG1@Z@4HA
	DD	imagerel ?dtor$1@?0???$_Construct_n@AEBQEAGAEBQEAG@?$vector@GV?$allocator@G@std@@@std@@AEAAX_KAEBQEAG1@Z@4HA+25
	DD	imagerel $unwind$?dtor$1@?0???$_Construct_n@AEBQEAGAEBQEAG@?$vector@GV?$allocator@G@std@@@std@@AEAAX_KAEBQEAG1@Z@4HA
pdata	ENDS
;	COMDAT pdata
pdata	SEGMENT
$pdata$??$_Unfancy_maybe_null@UVertexDefault@@@std@@YAPEAUVertexDefault@@PEAU1@@Z DD imagerel $LN3
	DD	imagerel $LN3+37
	DD	imagerel $unwind$??$_Unfancy_maybe_null@UVertexDefault@@@std@@YAPEAUVertexDefault@@PEAU1@@Z
pdata	ENDS
;	COMDAT pdata
pdata	SEGMENT
$pdata$??$?0UVertexDefault@@@?$allocator@U_Container_proxy@std@@@std@@QEAA@AEBV?$allocator@UVertexDefault@@@1@@Z DD imagerel $LN3
	DD	imagerel $LN3+42
	DD	imagerel $unwind$??$?0UVertexDefault@@@?$allocator@U_Container_proxy@std@@@std@@QEAA@AEBV?$allocator@UVertexDefault@@@1@@Z
pdata	ENDS
;	COMDAT pdata
pdata	SEGMENT
$pdata$??$?0V?$allocator@UVertexDefault@@@std@@$$V@?$_Compressed_pair@V?$allocator@UVertexDefault@@@std@@V?$_Vector_val@U?$_Simple_types@UVertexDefault@@@std@@@2@$00@std@@QEAA@U_One_then_variadic_args_t@1@$$QEAV?$allocator@UVertexDefault@@@1@@Z DD imagerel $LN3
	DD	imagerel $LN3+58
	DD	imagerel $unwind$??$?0V?$allocator@UVertexDefault@@@std@@$$V@?$_Compressed_pair@V?$allocator@UVertexDefault@@@std@@V?$_Vector_val@U?$_Simple_types@UVertexDefault@@@std@@@2@$00@std@@QEAA@U_One_then_variadic_args_t@1@$$QEAV?$allocator@UVertexDefault@@@1@@Z
pdata	ENDS
;	COMDAT pdata
pdata	SEGMENT
$pdata$??$_Construct_n@AEBQEAUVertexDefault@@AEBQEAU1@@?$vector@UVertexDefault@@V?$allocator@UVertexDefault@@@std@@@std@@AEAAX_KAEBQEAUVertexDefault@@1@Z DD imagerel $LN6
	DD	imagerel $LN6+241
	DD	imagerel $unwind$??$_Construct_n@AEBQEAUVertexDefault@@AEBQEAU1@@?$vector@UVertexDefault@@V?$allocator@UVertexDefault@@@std@@@std@@AEAAX_KAEBQEAUVertexDefault@@1@Z
pdata	ENDS
;	COMDAT pdata
pdata	SEGMENT
$pdata$?dtor$0@?0???$_Construct_n@AEBQEAUVertexDefault@@AEBQEAU1@@?$vector@UVertexDefault@@V?$allocator@UVertexDefault@@@std@@@std@@AEAAX_KAEBQEAUVertexDefault@@1@Z@4HA DD imagerel ?dtor$0@?0???$_Construct_n@AEBQEAUVertexDefault@@AEBQEAU1@@?$vector@UVertexDefault@@V?$allocator@UVertexDefault@@@std@@@std@@AEAAX_KAEBQEAUVertexDefault@@1@Z@4HA
	DD	imagerel ?dtor$0@?0???$_Construct_n@AEBQEAUVertexDefault@@AEBQEAU1@@?$vector@UVertexDefault@@V?$allocator@UVertexDefault@@@std@@@std@@AEAAX_KAEBQEAUVertexDefault@@1@Z@4HA+25
	DD	imagerel $unwind$?dtor$0@?0???$_Construct_n@AEBQEAUVertexDefault@@AEBQEAU1@@?$vector@UVertexDefault@@V?$allocator@UVertexDefault@@@std@@@std@@AEAAX_KAEBQEAUVertexDefault@@1@Z@4HA
pdata	ENDS
;	COMDAT pdata
pdata	SEGMENT
$pdata$?dtor$1@?0???$_Construct_n@AEBQEAUVertexDefault@@AEBQEAU1@@?$vector@UVertexDefault@@V?$allocator@UVertexDefault@@@std@@@std@@AEAAX_KAEBQEAUVertexDefault@@1@Z@4HA DD imagerel ?dtor$1@?0???$_Construct_n@AEBQEAUVertexDefault@@AEBQEAU1@@?$vector@UVertexDefault@@V?$allocator@UVertexDefault@@@std@@@std@@AEAAX_KAEBQEAUVertexDefault@@1@Z@4HA
	DD	imagerel ?dtor$1@?0???$_Construct_n@AEBQEAUVertexDefault@@AEBQEAU1@@?$vector@UVertexDefault@@V?$allocator@UVertexDefault@@@std@@@std@@AEAAX_KAEBQEAUVertexDefault@@1@Z@4HA+25
	DD	imagerel $unwind$?dtor$1@?0???$_Construct_n@AEBQEAUVertexDefault@@AEBQEAU1@@?$vector@UVertexDefault@@V?$allocator@UVertexDefault@@@std@@@std@@AEAAX_KAEBQEAUVertexDefault@@1@Z@4HA
pdata	ENDS
;	COMDAT pdata
pdata	SEGMENT
$pdata$??$_Alloc_proxy@V?$allocator@U_Container_proxy@std@@@std@@@_Container_base12@std@@QEAAX$$QEAV?$allocator@U_Container_proxy@std@@@1@@Z DD imagerel $LN3
	DD	imagerel $LN3+107
	DD	imagerel $unwind$??$_Alloc_proxy@V?$allocator@U_Container_proxy@std@@@std@@@_Container_base12@std@@QEAAX$$QEAV?$allocator@U_Container_proxy@std@@@1@@Z
pdata	ENDS
;	COMDAT pdata
pdata	SEGMENT
$pdata$??$_Convert_size@_K_K@std@@YA_K_K@Z DD imagerel $LN3
	DD	imagerel $LN3+37
	DD	imagerel $unwind$??$_Convert_size@_K_K@std@@YA_K_K@Z
pdata	ENDS
;	COMDAT pdata
pdata	SEGMENT
$pdata$??$?0D@?$allocator@U_Container_proxy@std@@@std@@QEAA@AEBV?$allocator@D@1@@Z DD imagerel $LN3
	DD	imagerel $LN3+42
	DD	imagerel $unwind$??$?0D@?$allocator@U_Container_proxy@std@@@std@@QEAA@AEBV?$allocator@D@1@@Z
pdata	ENDS
;	COMDAT pdata
pdata	SEGMENT
$pdata$??$?0$$V@?$_Compressed_pair@V?$allocator@D@std@@V?$_String_val@U?$_Simple_types@D@std@@@2@$00@std@@QEAA@U_Zero_then_variadic_args_t@1@@Z DD imagerel $LN3
	DD	imagerel $LN3+62
	DD	imagerel $unwind$??$?0$$V@?$_Compressed_pair@V?$allocator@D@std@@V?$_String_val@U?$_Simple_types@D@std@@@2@$00@std@@QEAA@U_Zero_then_variadic_args_t@1@@Z
pdata	ENDS
;	COMDAT pdata
pdata	SEGMENT
$pdata$??$_Construct@$00PEBD@?$basic_string@DU?$char_traits@D@std@@V?$allocator@D@2@@std@@AEAAXQEBD_K@Z DD imagerel $LN7
	DD	imagerel $LN7+528
	DD	imagerel $unwind$??$_Construct@$00PEBD@?$basic_string@DU?$char_traits@D@std@@V?$allocator@D@2@@std@@AEAAXQEBD_K@Z
pdata	ENDS
;	COMDAT pdata
pdata	SEGMENT
$pdata$?dtor$0@?0???$_Construct@$00PEBD@?$basic_string@DU?$char_traits@D@std@@V?$allocator@D@2@@std@@AEAAXQEBD_K@Z@4HA DD imagerel ?dtor$0@?0???$_Construct@$00PEBD@?$basic_string@DU?$char_traits@D@std@@V?$allocator@D@2@@std@@AEAAXQEBD_K@Z@4HA
	DD	imagerel ?dtor$0@?0???$_Construct@$00PEBD@?$basic_string@DU?$char_traits@D@std@@V?$allocator@D@2@@std@@AEAAXQEBD_K@Z@4HA+25
	DD	imagerel $unwind$?dtor$0@?0???$_Construct@$00PEBD@?$basic_string@DU?$char_traits@D@std@@V?$allocator@D@2@@std@@AEAAXQEBD_K@Z@4HA
pdata	ENDS
;	COMDAT pdata
pdata	SEGMENT
$pdata$??$_Destroy_range@V?$allocator@G@std@@@std@@YAXPEAGQEAGAEAV?$allocator@G@0@@Z DD imagerel $LN3
	DD	imagerel $LN3+43
	DD	imagerel $unwind$??$_Destroy_range@V?$allocator@G@std@@@std@@YAXPEAGQEAGAEAV?$allocator@G@0@@Z
pdata	ENDS
;	COMDAT pdata
pdata	SEGMENT
$pdata$??$_Destroy_range@V?$allocator@UVertexDefault@@@std@@@std@@YAXPEAUVertexDefault@@QEAU1@AEAV?$allocator@UVertexDefault@@@0@@Z DD imagerel $LN3
	DD	imagerel $LN3+43
	DD	imagerel $unwind$??$_Destroy_range@V?$allocator@UVertexDefault@@@std@@@std@@YAXPEAUVertexDefault@@QEAU1@AEAV?$allocator@UVertexDefault@@@0@@Z
pdata	ENDS
;	COMDAT pdata
pdata	SEGMENT
$pdata$??$_Destroy_in_place@PEAD@std@@YAXAEAPEAD@Z DD imagerel $LN3
	DD	imagerel $LN3+33
	DD	imagerel $unwind$??$_Destroy_in_place@PEAD@std@@YAXAEAPEAD@Z
pdata	ENDS
;	COMDAT pdata
pdata	SEGMENT
$pdata$??$_Unfancy@D@std@@YAPEADPEAD@Z DD imagerel $LN3
	DD	imagerel $LN3+37
	DD	imagerel $unwind$??$_Unfancy@D@std@@YAPEADPEAD@Z
pdata	ENDS
;	COMDAT pdata
pdata	SEGMENT
$pdata$??$max@_K@std@@YAAEB_KAEB_K0@Z DD imagerel $LN5
	DD	imagerel $LN5+84
	DD	imagerel $unwind$??$max@_K@std@@YAAEB_KAEB_K0@Z
pdata	ENDS
;	COMDAT pdata
pdata	SEGMENT
$pdata$??$_Deallocate@$0BA@$0A@@std@@YAXPEAX_K@Z DD imagerel $LN6
	DD	imagerel $LN6+98
	DD	imagerel $unwind$??$_Deallocate@$0BA@$0A@@std@@YAXPEAX_K@Z
pdata	ENDS
;	COMDAT pdata
pdata	SEGMENT
$pdata$??$min@_K@std@@YAAEB_KAEB_K0@Z DD imagerel $LN5
	DD	imagerel $LN5+84
	DD	imagerel $unwind$??$min@_K@std@@YAAEB_KAEB_K0@Z
pdata	ENDS
;	COMDAT pdata
pdata	SEGMENT
$pdata$??$addressof@D@std@@YAPEADAEAD@Z DD imagerel $LN3
	DD	imagerel $LN3+37
	DD	imagerel $unwind$??$addressof@D@std@@YAPEADAEAD@Z
pdata	ENDS
;	COMDAT pdata
pdata	SEGMENT
$pdata$??$construct_at@DAEBD$0A@@std@@YAPEADQEADAEBD@Z DD imagerel $LN3
	DD	imagerel $LN3+73
	DD	imagerel $unwind$??$construct_at@DAEBD$0A@@std@@YAPEADQEADAEBD@Z
pdata	ENDS
;	COMDAT pdata
pdata	SEGMENT
$pdata$??$addressof@U_Container_proxy@std@@@std@@YAPEAU_Container_proxy@0@AEAU10@@Z DD imagerel $LN3
	DD	imagerel $LN3+37
	DD	imagerel $unwind$??$addressof@U_Container_proxy@std@@@std@@YAPEAU_Container_proxy@0@AEAU10@@Z
pdata	ENDS
;	COMDAT pdata
pdata	SEGMENT
$pdata$??$construct_at@U_Container_proxy@std@@PEAU_Container_base12@2@$0A@@std@@YAPEAU_Container_proxy@0@QEAU10@$$QEAPEAU_Container_base12@0@@Z DD imagerel $LN3
	DD	imagerel $LN3+72
	DD	imagerel $unwind$??$construct_at@U_Container_proxy@std@@PEAU_Container_base12@2@$0A@@std@@YAPEAU_Container_proxy@0@QEAU10@$$QEAPEAU_Container_base12@0@@Z
pdata	ENDS
;	COMDAT pdata
pdata	SEGMENT
$pdata$??$_Deallocate_plain@V?$allocator@U_Container_proxy@std@@@std@@@std@@YAXAEAV?$allocator@U_Container_proxy@std@@@0@QEAU_Container_proxy@0@@Z DD imagerel $LN3
	DD	imagerel $LN3+58
	DD	imagerel $unwind$??$_Deallocate_plain@V?$allocator@U_Container_proxy@std@@@std@@@std@@YAXAEAV?$allocator@U_Container_proxy@std@@@0@QEAU_Container_proxy@0@@Z
pdata	ENDS
;	COMDAT pdata
pdata	SEGMENT
$pdata$??0?$_Container_proxy_ptr12@V?$allocator@U_Container_proxy@std@@@std@@@std@@QEAA@AEAV?$allocator@U_Container_proxy@std@@@1@AEAU_Container_base12@1@@Z DD imagerel $LN3
	DD	imagerel $LN3+140
	DD	imagerel $unwind$??0?$_Container_proxy_ptr12@V?$allocator@U_Container_proxy@std@@@std@@@std@@QEAA@AEAV?$allocator@U_Container_proxy@std@@@1@AEAU_Container_base12@1@@Z
pdata	ENDS
;	COMDAT pdata
pdata	SEGMENT
$pdata$??1?$_Container_proxy_ptr12@V?$allocator@U_Container_proxy@std@@@std@@@std@@QEAA@XZ DD imagerel $LN4
	DD	imagerel $LN4+63
	DD	imagerel $unwind$??1?$_Container_proxy_ptr12@V?$allocator@U_Container_proxy@std@@@std@@@std@@QEAA@XZ
pdata	ENDS
;	COMDAT pdata
pdata	SEGMENT
$pdata$??1?$_Tidy_guard@V?$vector@GV?$allocator@G@std@@@std@@@std@@QEAA@XZ DD imagerel $LN4
	DD	imagerel $LN4+55
	DD	imagerel $unwind$??1?$_Tidy_guard@V?$vector@GV?$allocator@G@std@@@std@@@std@@QEAA@XZ
pdata	ENDS
;	COMDAT pdata
pdata	SEGMENT
$pdata$??$_Uninitialized_copy@PEAGPEAGV?$allocator@G@std@@@std@@YAPEAGPEAG00AEAV?$allocator@G@0@@Z DD imagerel $LN8
	DD	imagerel $LN8+306
	DD	imagerel $unwind$??$_Uninitialized_copy@PEAGPEAGV?$allocator@G@std@@@std@@YAPEAGPEAG00AEAV?$allocator@G@0@@Z
pdata	ENDS
;	COMDAT pdata
pdata	SEGMENT
$pdata$?dtor$0@?0???$_Uninitialized_copy@PEAGPEAGV?$allocator@G@std@@@std@@YAPEAGPEAG00AEAV?$allocator@G@0@@Z@4HA DD imagerel ?dtor$0@?0???$_Uninitialized_copy@PEAGPEAGV?$allocator@G@std@@@std@@YAPEAGPEAG00AEAV?$allocator@G@0@@Z@4HA
	DD	imagerel ?dtor$0@?0???$_Uninitialized_copy@PEAGPEAGV?$allocator@G@std@@@std@@YAPEAGPEAG00AEAV?$allocator@G@0@@Z@4HA+25
	DD	imagerel $unwind$?dtor$0@?0???$_Uninitialized_copy@PEAGPEAGV?$allocator@G@std@@@std@@YAPEAGPEAG00AEAV?$allocator@G@0@@Z@4HA
pdata	ENDS
;	COMDAT pdata
pdata	SEGMENT
$pdata$??1?$_Tidy_guard@V?$vector@UVertexDefault@@V?$allocator@UVertexDefault@@@std@@@std@@@std@@QEAA@XZ DD imagerel $LN4
	DD	imagerel $LN4+55
	DD	imagerel $unwind$??1?$_Tidy_guard@V?$vector@UVertexDefault@@V?$allocator@UVertexDefault@@@std@@@std@@@std@@QEAA@XZ
pdata	ENDS
;	COMDAT pdata
pdata	SEGMENT
$pdata$??$_Uninitialized_copy@PEAUVertexDefault@@PEAU1@V?$allocator@UVertexDefault@@@std@@@std@@YAPEAUVertexDefault@@PEAU1@00AEAV?$allocator@UVertexDefault@@@0@@Z DD imagerel $LN8
	DD	imagerel $LN8+323
	DD	imagerel $unwind$??$_Uninitialized_copy@PEAUVertexDefault@@PEAU1@V?$allocator@UVertexDefault@@@std@@@std@@YAPEAUVertexDefault@@PEAU1@00AEAV?$allocator@UVertexDefault@@@0@@Z
pdata	ENDS
;	COMDAT pdata
pdata	SEGMENT
$pdata$?dtor$0@?0???$_Uninitialized_copy@PEAUVertexDefault@@PEAU1@V?$allocator@UVertexDefault@@@std@@@std@@YAPEAUVertexDefault@@PEAU1@00AEAV?$allocator@UVertexDefault@@@0@@Z@4HA DD imagerel ?dtor$0@?0???$_Uninitialized_copy@PEAUVertexDefault@@PEAU1@V?$allocator@UVertexDefault@@@std@@@std@@YAPEAUVertexDefault@@PEAU1@00AEAV?$allocator@UVertexDefault@@@0@@Z@4HA
	DD	imagerel ?dtor$0@?0???$_Uninitialized_copy@PEAUVertexDefault@@PEAU1@V?$allocator@UVertexDefault@@@std@@@std@@YAPEAUVertexDefault@@PEAU1@00AEAV?$allocator@UVertexDefault@@@0@@Z@4HA+25
	DD	imagerel $unwind$?dtor$0@?0???$_Uninitialized_copy@PEAUVertexDefault@@PEAU1@V?$allocator@UVertexDefault@@@std@@@std@@YAPEAUVertexDefault@@PEAU1@00AEAV?$allocator@UVertexDefault@@@0@@Z@4HA
pdata	ENDS
;	COMDAT pdata
pdata	SEGMENT
$pdata$??$_Unfancy@U_Container_proxy@std@@@std@@YAPEAU_Container_proxy@0@PEAU10@@Z DD imagerel $LN3
	DD	imagerel $LN3+37
	DD	imagerel $unwind$??$_Unfancy@U_Container_proxy@std@@@std@@YAPEAU_Container_proxy@0@PEAU10@@Z
pdata	ENDS
;	COMDAT pdata
pdata	SEGMENT
$pdata$??$_Allocate_at_least_helper@V?$allocator@D@std@@@std@@YAPEADAEAV?$allocator@D@0@AEA_K@Z DD imagerel $LN3
	DD	imagerel $LN3+54
	DD	imagerel $unwind$??$_Allocate_at_least_helper@V?$allocator@D@std@@@std@@YAPEADAEAV?$allocator@D@0@AEA_K@Z
pdata	ENDS
;	COMDAT pdata
pdata	SEGMENT
$pdata$??$_Construct_in_place@PEADAEBQEAD@std@@YAXAEAPEADAEBQEAD@Z DD imagerel $LN5
	DD	imagerel $LN5+113
	DD	imagerel $unwind$??$_Construct_in_place@PEADAEBQEAD@std@@YAXAEAPEADAEBQEAD@Z
pdata	ENDS
;	COMDAT pdata
pdata	SEGMENT
$pdata$??$addressof@PEAD@std@@YAPEAPEADAEAPEAD@Z DD imagerel $LN3
	DD	imagerel $LN3+37
	DD	imagerel $unwind$??$addressof@PEAD@std@@YAPEAPEADAEAPEAD@Z
pdata	ENDS
;	COMDAT pdata
pdata	SEGMENT
$pdata$??$_Get_size_of_n@$0BA@@std@@YA_K_K@Z DD imagerel $LN4
	DD	imagerel $LN4+77
	DD	imagerel $unwind$??$_Get_size_of_n@$0BA@@std@@YA_K_K@Z
pdata	ENDS
;	COMDAT pdata
pdata	SEGMENT
$pdata$??$_Allocate@$0BA@U_Default_allocate_traits@std@@$0A@@std@@YAPEAX_K@Z DD imagerel $LN6
	DD	imagerel $LN6+86
	DD	imagerel $unwind$??$_Allocate@$0BA@U_Default_allocate_traits@std@@$0A@@std@@YAPEAX_K@Z
pdata	ENDS
;	COMDAT pdata
pdata	SEGMENT
$pdata$??$construct_at@D$$V$0A@@std@@YAPEADQEAD@Z DD imagerel $LN3
	DD	imagerel $LN3+76
	DD	imagerel $unwind$??$construct_at@D$$V$0A@@std@@YAPEADQEAD@Z
pdata	ENDS
;	COMDAT pdata
pdata	SEGMENT
$pdata$??$_Allocate_at_least_helper@V?$allocator@G@std@@@std@@YAPEAGAEAV?$allocator@G@0@AEA_K@Z DD imagerel $LN3
	DD	imagerel $LN3+54
	DD	imagerel $unwind$??$_Allocate_at_least_helper@V?$allocator@G@std@@@std@@YAPEAGAEAV?$allocator@G@0@AEA_K@Z
pdata	ENDS
;	COMDAT pdata
pdata	SEGMENT
$pdata$??$_Allocate_at_least_helper@V?$allocator@UVertexDefault@@@std@@@std@@YAPEAUVertexDefault@@AEAV?$allocator@UVertexDefault@@@0@AEA_K@Z DD imagerel $LN3
	DD	imagerel $LN3+54
	DD	imagerel $unwind$??$_Allocate_at_least_helper@V?$allocator@UVertexDefault@@@std@@@std@@YAPEAUVertexDefault@@AEAV?$allocator@UVertexDefault@@@0@AEA_K@Z
pdata	ENDS
;	COMDAT pdata
pdata	SEGMENT
$pdata$?deallocate@?$_Default_allocator_traits@V?$allocator@U_Container_proxy@std@@@std@@@std@@SAXAEAV?$allocator@U_Container_proxy@std@@@2@QEAU_Container_proxy@2@_K@Z DD imagerel $LN5
	DD	imagerel $LN5+91
	DD	imagerel $unwind$?deallocate@?$_Default_allocator_traits@V?$allocator@U_Container_proxy@std@@@std@@@std@@SAXAEAV?$allocator@U_Container_proxy@std@@@2@QEAU_Container_proxy@2@_K@Z
pdata	ENDS
;	COMDAT pdata
pdata	SEGMENT
$pdata$??$_Unwrap_iter@PEAGPEAG@ranges@std@@YA?A_T$$QEAPEAG@Z DD imagerel $LN3
	DD	imagerel $LN3+40
	DD	imagerel $unwind$??$_Unwrap_iter@PEAGPEAG@ranges@std@@YA?A_T$$QEAPEAG@Z
pdata	ENDS
;	COMDAT pdata
pdata	SEGMENT
$pdata$??$_Unwrap_sent@PEAGPEAG@ranges@std@@YA?A_T$$QEAPEAG@Z DD imagerel $LN3
	DD	imagerel $LN3+40
	DD	imagerel $unwind$??$_Unwrap_sent@PEAGPEAG@ranges@std@@YA?A_T$$QEAPEAG@Z
pdata	ENDS
;	COMDAT pdata
pdata	SEGMENT
$pdata$??$_To_address@PEAG@std@@YA?A_PAEBQEAG@Z DD imagerel $LN3
	DD	imagerel $LN3+45
	DD	imagerel $unwind$??$_To_address@PEAG@std@@YA?A_PAEBQEAG@Z
pdata	ENDS
;	COMDAT pdata
pdata	SEGMENT
$pdata$??$to_address@G@std@@YAPEAGQEAG@Z DD imagerel $LN3
	DD	imagerel $LN3+37
	DD	imagerel $unwind$??$to_address@G@std@@YAPEAGQEAG@Z
pdata	ENDS
;	COMDAT pdata
pdata	SEGMENT
$pdata$??$_Unfancy@G@std@@YAPEAGPEAG@Z DD imagerel $LN3
	DD	imagerel $LN3+37
	DD	imagerel $unwind$??$_Unfancy@G@std@@YAPEAGPEAG@Z
pdata	ENDS
;	COMDAT pdata
pdata	SEGMENT
$pdata$??$_Copy_memmove@PEAGPEAG@std@@YAPEAGPEAG00@Z DD imagerel $LN3
	DD	imagerel $LN3+170
	DD	imagerel $unwind$??$_Copy_memmove@PEAGPEAG@std@@YAPEAGPEAG00@Z
pdata	ENDS
;	COMDAT pdata
pdata	SEGMENT
$pdata$??0?$_Uninitialized_backout_al@V?$allocator@G@std@@@std@@QEAA@PEAGAEAV?$allocator@G@1@@Z DD imagerel $LN3
	DD	imagerel $LN3+82
	DD	imagerel $unwind$??0?$_Uninitialized_backout_al@V?$allocator@G@std@@@std@@QEAA@PEAGAEAV?$allocator@G@1@@Z
pdata	ENDS
;	COMDAT pdata
pdata	SEGMENT
$pdata$??1?$_Uninitialized_backout_al@V?$allocator@G@std@@@std@@QEAA@XZ DD imagerel $LN3
	DD	imagerel $LN3+61
	DD	imagerel $unwind$??1?$_Uninitialized_backout_al@V?$allocator@G@std@@@std@@QEAA@XZ
pdata	ENDS
;	COMDAT pdata
pdata	SEGMENT
$pdata$?_Release@?$_Uninitialized_backout_al@V?$allocator@G@std@@@std@@QEAAPEAGXZ DD imagerel $LN3
	DD	imagerel $LN3+56
	DD	imagerel $unwind$?_Release@?$_Uninitialized_backout_al@V?$allocator@G@std@@@std@@QEAAPEAGXZ
pdata	ENDS
;	COMDAT pdata
pdata	SEGMENT
$pdata$??$_Emplace_back@AEAG@?$_Uninitialized_backout_al@V?$allocator@G@std@@@std@@QEAAXAEAG@Z DD imagerel $LN3
	DD	imagerel $LN3+104
	DD	imagerel $unwind$??$_Emplace_back@AEAG@?$_Uninitialized_backout_al@V?$allocator@G@std@@@std@@QEAAXAEAG@Z
pdata	ENDS
;	COMDAT pdata
pdata	SEGMENT
$pdata$??$_Unwrap_iter@PEAUVertexDefault@@PEAU1@@ranges@std@@YA?A_T$$QEAPEAUVertexDefault@@@Z DD imagerel $LN3
	DD	imagerel $LN3+40
	DD	imagerel $unwind$??$_Unwrap_iter@PEAUVertexDefault@@PEAU1@@ranges@std@@YA?A_T$$QEAPEAUVertexDefault@@@Z
pdata	ENDS
;	COMDAT pdata
pdata	SEGMENT
$pdata$??$_Unwrap_sent@PEAUVertexDefault@@PEAU1@@ranges@std@@YA?A_T$$QEAPEAUVertexDefault@@@Z DD imagerel $LN3
	DD	imagerel $LN3+40
	DD	imagerel $unwind$??$_Unwrap_sent@PEAUVertexDefault@@PEAU1@@ranges@std@@YA?A_T$$QEAPEAUVertexDefault@@@Z
pdata	ENDS
;	COMDAT pdata
pdata	SEGMENT
$pdata$??$_To_address@PEAUVertexDefault@@@std@@YA?A_PAEBQEAUVertexDefault@@@Z DD imagerel $LN3
	DD	imagerel $LN3+45
	DD	imagerel $unwind$??$_To_address@PEAUVertexDefault@@@std@@YA?A_PAEBQEAUVertexDefault@@@Z
pdata	ENDS
;	COMDAT pdata
pdata	SEGMENT
$pdata$??$to_address@UVertexDefault@@@std@@YAPEAUVertexDefault@@QEAU1@@Z DD imagerel $LN3
	DD	imagerel $LN3+37
	DD	imagerel $unwind$??$to_address@UVertexDefault@@@std@@YAPEAUVertexDefault@@QEAU1@@Z
pdata	ENDS
;	COMDAT pdata
pdata	SEGMENT
$pdata$??$_Unfancy@UVertexDefault@@@std@@YAPEAUVertexDefault@@PEAU1@@Z DD imagerel $LN3
	DD	imagerel $LN3+37
	DD	imagerel $unwind$??$_Unfancy@UVertexDefault@@@std@@YAPEAUVertexDefault@@PEAU1@@Z
pdata	ENDS
;	COMDAT pdata
pdata	SEGMENT
$pdata$??$_Copy_memmove@PEAUVertexDefault@@PEAU1@@std@@YAPEAUVertexDefault@@PEAU1@00@Z DD imagerel $LN3
	DD	imagerel $LN3+170
	DD	imagerel $unwind$??$_Copy_memmove@PEAUVertexDefault@@PEAU1@@std@@YAPEAUVertexDefault@@PEAU1@00@Z
pdata	ENDS
;	COMDAT pdata
pdata	SEGMENT
$pdata$??0?$_Uninitialized_backout_al@V?$allocator@UVertexDefault@@@std@@@std@@QEAA@PEAUVertexDefault@@AEAV?$allocator@UVertexDefault@@@1@@Z DD imagerel $LN3
	DD	imagerel $LN3+82
	DD	imagerel $unwind$??0?$_Uninitialized_backout_al@V?$allocator@UVertexDefault@@@std@@@std@@QEAA@PEAUVertexDefault@@AEAV?$allocator@UVertexDefault@@@1@@Z
pdata	ENDS
;	COMDAT pdata
pdata	SEGMENT
$pdata$??1?$_Uninitialized_backout_al@V?$allocator@UVertexDefault@@@std@@@std@@QEAA@XZ DD imagerel $LN3
	DD	imagerel $LN3+61
	DD	imagerel $unwind$??1?$_Uninitialized_backout_al@V?$allocator@UVertexDefault@@@std@@@std@@QEAA@XZ
pdata	ENDS
;	COMDAT pdata
pdata	SEGMENT
$pdata$?_Release@?$_Uninitialized_backout_al@V?$allocator@UVertexDefault@@@std@@@std@@QEAAPEAUVertexDefault@@XZ DD imagerel $LN3
	DD	imagerel $LN3+56
	DD	imagerel $unwind$?_Release@?$_Uninitialized_backout_al@V?$allocator@UVertexDefault@@@std@@@std@@QEAAPEAUVertexDefault@@XZ
pdata	ENDS
;	COMDAT pdata
pdata	SEGMENT
$pdata$??$_Emplace_back@AEAUVertexDefault@@@?$_Uninitialized_backout_al@V?$allocator@UVertexDefault@@@std@@@std@@QEAAXAEAUVertexDefault@@@Z DD imagerel $LN3
	DD	imagerel $LN3+104
	DD	imagerel $unwind$??$_Emplace_back@AEAUVertexDefault@@@?$_Uninitialized_backout_al@V?$allocator@UVertexDefault@@@std@@@std@@QEAAXAEAUVertexDefault@@@Z
pdata	ENDS
;	COMDAT pdata
pdata	SEGMENT
$pdata$??$construct_at@PEADAEBQEAD$0A@@std@@YAPEAPEADQEAPEADAEBQEAD@Z DD imagerel $LN3
	DD	imagerel $LN3+74
	DD	imagerel $unwind$??$construct_at@PEADAEBQEAD$0A@@std@@YAPEAPEADQEAPEADAEBQEAD@Z
pdata	ENDS
;	COMDAT pdata
pdata	SEGMENT
$pdata$??$_Allocate_manually_vector_aligned@U_Default_allocate_traits@std@@@std@@YAPEAX_K@Z DD imagerel $LN13
	DD	imagerel $LN13+266
	DD	imagerel $unwind$??$_Allocate_manually_vector_aligned@U_Default_allocate_traits@std@@@std@@YAPEAX_K@Z
pdata	ENDS
;	COMDAT pdata
pdata	SEGMENT
$pdata$??$_Get_size_of_n@$01@std@@YA_K_K@Z DD imagerel $LN4
	DD	imagerel $LN4+79
	DD	imagerel $unwind$??$_Get_size_of_n@$01@std@@YA_K_K@Z
pdata	ENDS
;	COMDAT pdata
pdata	SEGMENT
$pdata$??$_Get_size_of_n@$0EI@@std@@YA_K_K@Z DD imagerel $LN4
	DD	imagerel $LN4+77
	DD	imagerel $unwind$??$_Get_size_of_n@$0EI@@std@@YA_K_K@Z
pdata	ENDS
;	COMDAT pdata
pdata	SEGMENT
$pdata$??$_Get_size_of_n@$00@std@@YA_K_K@Z DD imagerel $LN3
	DD	imagerel $LN3+41
	DD	imagerel $unwind$??$_Get_size_of_n@$00@std@@YA_K_K@Z
pdata	ENDS
;	COMDAT pdata
pdata	SEGMENT
$pdata$??$construct@GAEAG@?$_Default_allocator_traits@V?$allocator@G@std@@@std@@SAXAEAV?$allocator@G@1@QEAGAEAG@Z DD imagerel $LN3
	DD	imagerel $LN3+56
	DD	imagerel $unwind$??$construct@GAEAG@?$_Default_allocator_traits@V?$allocator@G@std@@@std@@SAXAEAV?$allocator@G@1@QEAGAEAG@Z
pdata	ENDS
;	COMDAT pdata
pdata	SEGMENT
$pdata$??$construct@UVertexDefault@@AEAU1@@?$_Default_allocator_traits@V?$allocator@UVertexDefault@@@std@@@std@@SAXAEAV?$allocator@UVertexDefault@@@1@QEAUVertexDefault@@AEAU3@@Z DD imagerel $LN3
	DD	imagerel $LN3+56
	DD	imagerel $unwind$??$construct@UVertexDefault@@AEAU1@@?$_Default_allocator_traits@V?$allocator@UVertexDefault@@@std@@@std@@SAXAEAV?$allocator@UVertexDefault@@@1@QEAUVertexDefault@@AEAU3@@Z
pdata	ENDS
;	COMDAT pdata
pdata	SEGMENT
$pdata$??$construct_at@GAEAG$0A@@std@@YAPEAGQEAGAEAG@Z DD imagerel $LN3
	DD	imagerel $LN3+74
	DD	imagerel $unwind$??$construct_at@GAEAG$0A@@std@@YAPEAGQEAGAEAG@Z
pdata	ENDS
;	COMDAT pdata
pdata	SEGMENT
$pdata$??$construct_at@UVertexDefault@@AEAU1@$0A@@std@@YAPEAUVertexDefault@@QEAU1@AEAU1@@Z DD imagerel $LN3
	DD	imagerel $LN3+79
	DD	imagerel $unwind$??$construct_at@UVertexDefault@@AEAU1@$0A@@std@@YAPEAUVertexDefault@@QEAU1@AEAU1@@Z
pdata	ENDS
;	COMDAT ??_R1A@?0A@EA@_Future_error_category2@std@@8
rdata$r	SEGMENT
??_R1A@?0A@EA@_Future_error_category2@std@@8 DD imagerel ??_R0?AV_Future_error_category2@std@@@8 ; std::_Future_error_category2::`RTTI Base Class Descriptor at (0,-1,0,64)'
	DD	01H
	DD	00H
	DD	0ffffffffH
	DD	00H
	DD	040H
	DD	imagerel ??_R3_Future_error_category2@std@@8
rdata$r	ENDS
;	COMDAT ??_R2_Future_error_category2@std@@8
rdata$r	SEGMENT
??_R2_Future_error_category2@std@@8 DD imagerel ??_R1A@?0A@EA@_Future_error_category2@std@@8 ; std::_Future_error_category2::`RTTI Base Class Array'
	DD	imagerel ??_R1A@?0A@EA@error_category@std@@8
	ORG $+3
rdata$r	ENDS
;	COMDAT ??_R3_Future_error_category2@std@@8
rdata$r	SEGMENT
??_R3_Future_error_category2@std@@8 DD 00H		; std::_Future_error_category2::`RTTI Class Hierarchy Descriptor'
	DD	00H
	DD	02H
	DD	imagerel ??_R2_Future_error_category2@std@@8
rdata$r	ENDS
;	COMDAT ??_R0?AV_Future_error_category2@std@@@8
data$rs	SEGMENT
??_R0?AV_Future_error_category2@std@@@8 DQ FLAT:??_7type_info@@6B@ ; std::_Future_error_category2 `RTTI Type Descriptor'
	DQ	0000000000000000H
	DB	'.?AV_Future_error_category2@std@@', 00H
data$rs	ENDS
;	COMDAT ??_R4_Future_error_category2@std@@6B@
rdata$r	SEGMENT
??_R4_Future_error_category2@std@@6B@ DD 01H		; std::_Future_error_category2::`RTTI Complete Object Locator'
	DD	00H
	DD	00H
	DD	imagerel ??_R0?AV_Future_error_category2@std@@@8
	DD	imagerel ??_R3_Future_error_category2@std@@8
	DD	imagerel ??_R4_Future_error_category2@std@@6B@
rdata$r	ENDS
;	COMDAT ??_R1A@?0A@EA@future_error@std@@8
rdata$r	SEGMENT
??_R1A@?0A@EA@future_error@std@@8 DD imagerel ??_R0?AVfuture_error@std@@@8 ; std::future_error::`RTTI Base Class Descriptor at (0,-1,0,64)'
	DD	02H
	DD	00H
	DD	0ffffffffH
	DD	00H
	DD	040H
	DD	imagerel ??_R3future_error@std@@8
rdata$r	ENDS
;	COMDAT ??_R2future_error@std@@8
rdata$r	SEGMENT
??_R2future_error@std@@8 DD imagerel ??_R1A@?0A@EA@future_error@std@@8 ; std::future_error::`RTTI Base Class Array'
	DD	imagerel ??_R1A@?0A@EA@logic_error@std@@8
	DD	imagerel ??_R1A@?0A@EA@exception@std@@8
	ORG $+3
rdata$r	ENDS
;	COMDAT ??_R3future_error@std@@8
rdata$r	SEGMENT
??_R3future_error@std@@8 DD 00H				; std::future_error::`RTTI Class Hierarchy Descriptor'
	DD	00H
	DD	03H
	DD	imagerel ??_R2future_error@std@@8
rdata$r	ENDS
;	COMDAT ??_R4future_error@std@@6B@
rdata$r	SEGMENT
??_R4future_error@std@@6B@ DD 01H			; std::future_error::`RTTI Complete Object Locator'
	DD	00H
	DD	00H
	DD	imagerel ??_R0?AVfuture_error@std@@@8
	DD	imagerel ??_R3future_error@std@@8
	DD	imagerel ??_R4future_error@std@@6B@
rdata$r	ENDS
;	COMDAT ??_R1A@?0A@EA@error_category@std@@8
rdata$r	SEGMENT
??_R1A@?0A@EA@error_category@std@@8 DD imagerel ??_R0?AVerror_category@std@@@8 ; std::error_category::`RTTI Base Class Descriptor at (0,-1,0,64)'
	DD	00H
	DD	00H
	DD	0ffffffffH
	DD	00H
	DD	040H
	DD	imagerel ??_R3error_category@std@@8
rdata$r	ENDS
;	COMDAT ??_R2error_category@std@@8
rdata$r	SEGMENT
??_R2error_category@std@@8 DD imagerel ??_R1A@?0A@EA@error_category@std@@8 ; std::error_category::`RTTI Base Class Array'
	ORG $+3
rdata$r	ENDS
;	COMDAT ??_R3error_category@std@@8
rdata$r	SEGMENT
??_R3error_category@std@@8 DD 00H			; std::error_category::`RTTI Class Hierarchy Descriptor'
	DD	00H
	DD	01H
	DD	imagerel ??_R2error_category@std@@8
rdata$r	ENDS
;	COMDAT ??_R0?AVerror_category@std@@@8
data$rs	SEGMENT
??_R0?AVerror_category@std@@@8 DQ FLAT:??_7type_info@@6B@ ; std::error_category `RTTI Type Descriptor'
	DQ	0000000000000000H
	DB	'.?AVerror_category@std@@', 00H
data$rs	ENDS
;	COMDAT ??_R1A@?0A@EA@logic_error@std@@8
rdata$r	SEGMENT
??_R1A@?0A@EA@logic_error@std@@8 DD imagerel ??_R0?AVlogic_error@std@@@8 ; std::logic_error::`RTTI Base Class Descriptor at (0,-1,0,64)'
	DD	01H
	DD	00H
	DD	0ffffffffH
	DD	00H
	DD	040H
	DD	imagerel ??_R3logic_error@std@@8
rdata$r	ENDS
;	COMDAT ??_R2logic_error@std@@8
rdata$r	SEGMENT
??_R2logic_error@std@@8 DD imagerel ??_R1A@?0A@EA@logic_error@std@@8 ; std::logic_error::`RTTI Base Class Array'
	DD	imagerel ??_R1A@?0A@EA@exception@std@@8
	ORG $+3
rdata$r	ENDS
;	COMDAT ??_R3logic_error@std@@8
rdata$r	SEGMENT
??_R3logic_error@std@@8 DD 00H				; std::logic_error::`RTTI Class Hierarchy Descriptor'
	DD	00H
	DD	02H
	DD	imagerel ??_R2logic_error@std@@8
rdata$r	ENDS
;	COMDAT ??_R4logic_error@std@@6B@
rdata$r	SEGMENT
??_R4logic_error@std@@6B@ DD 01H			; std::logic_error::`RTTI Complete Object Locator'
	DD	00H
	DD	00H
	DD	imagerel ??_R0?AVlogic_error@std@@@8
	DD	imagerel ??_R3logic_error@std@@8
	DD	imagerel ??_R4logic_error@std@@6B@
rdata$r	ENDS
;	COMDAT ??_R1A@?0A@EA@bad_array_new_length@std@@8
rdata$r	SEGMENT
??_R1A@?0A@EA@bad_array_new_length@std@@8 DD imagerel ??_R0?AVbad_array_new_length@std@@@8 ; std::bad_array_new_length::`RTTI Base Class Descriptor at (0,-1,0,64)'
	DD	02H
	DD	00H
	DD	0ffffffffH
	DD	00H
	DD	040H
	DD	imagerel ??_R3bad_array_new_length@std@@8
rdata$r	ENDS
;	COMDAT ??_R2bad_array_new_length@std@@8
rdata$r	SEGMENT
??_R2bad_array_new_length@std@@8 DD imagerel ??_R1A@?0A@EA@bad_array_new_length@std@@8 ; std::bad_array_new_length::`RTTI Base Class Array'
	DD	imagerel ??_R1A@?0A@EA@bad_alloc@std@@8
	DD	imagerel ??_R1A@?0A@EA@exception@std@@8
	ORG $+3
rdata$r	ENDS
;	COMDAT ??_R3bad_array_new_length@std@@8
rdata$r	SEGMENT
??_R3bad_array_new_length@std@@8 DD 00H			; std::bad_array_new_length::`RTTI Class Hierarchy Descriptor'
	DD	00H
	DD	03H
	DD	imagerel ??_R2bad_array_new_length@std@@8
rdata$r	ENDS
;	COMDAT ??_R4bad_array_new_length@std@@6B@
rdata$r	SEGMENT
??_R4bad_array_new_length@std@@6B@ DD 01H		; std::bad_array_new_length::`RTTI Complete Object Locator'
	DD	00H
	DD	00H
	DD	imagerel ??_R0?AVbad_array_new_length@std@@@8
	DD	imagerel ??_R3bad_array_new_length@std@@8
	DD	imagerel ??_R4bad_array_new_length@std@@6B@
rdata$r	ENDS
;	COMDAT ??_R1A@?0A@EA@bad_alloc@std@@8
rdata$r	SEGMENT
??_R1A@?0A@EA@bad_alloc@std@@8 DD imagerel ??_R0?AVbad_alloc@std@@@8 ; std::bad_alloc::`RTTI Base Class Descriptor at (0,-1,0,64)'
	DD	01H
	DD	00H
	DD	0ffffffffH
	DD	00H
	DD	040H
	DD	imagerel ??_R3bad_alloc@std@@8
rdata$r	ENDS
;	COMDAT ??_R2bad_alloc@std@@8
rdata$r	SEGMENT
??_R2bad_alloc@std@@8 DD imagerel ??_R1A@?0A@EA@bad_alloc@std@@8 ; std::bad_alloc::`RTTI Base Class Array'
	DD	imagerel ??_R1A@?0A@EA@exception@std@@8
	ORG $+3
rdata$r	ENDS
;	COMDAT ??_R3bad_alloc@std@@8
rdata$r	SEGMENT
??_R3bad_alloc@std@@8 DD 00H				; std::bad_alloc::`RTTI Class Hierarchy Descriptor'
	DD	00H
	DD	02H
	DD	imagerel ??_R2bad_alloc@std@@8
rdata$r	ENDS
;	COMDAT ??_R4bad_alloc@std@@6B@
rdata$r	SEGMENT
??_R4bad_alloc@std@@6B@ DD 01H				; std::bad_alloc::`RTTI Complete Object Locator'
	DD	00H
	DD	00H
	DD	imagerel ??_R0?AVbad_alloc@std@@@8
	DD	imagerel ??_R3bad_alloc@std@@8
	DD	imagerel ??_R4bad_alloc@std@@6B@
rdata$r	ENDS
;	COMDAT ??_R1A@?0A@EA@exception@std@@8
rdata$r	SEGMENT
??_R1A@?0A@EA@exception@std@@8 DD imagerel ??_R0?AVexception@std@@@8 ; std::exception::`RTTI Base Class Descriptor at (0,-1,0,64)'
	DD	00H
	DD	00H
	DD	0ffffffffH
	DD	00H
	DD	040H
	DD	imagerel ??_R3exception@std@@8
rdata$r	ENDS
;	COMDAT ??_R2exception@std@@8
rdata$r	SEGMENT
??_R2exception@std@@8 DD imagerel ??_R1A@?0A@EA@exception@std@@8 ; std::exception::`RTTI Base Class Array'
	ORG $+3
rdata$r	ENDS
;	COMDAT ??_R3exception@std@@8
rdata$r	SEGMENT
??_R3exception@std@@8 DD 00H				; std::exception::`RTTI Class Hierarchy Descriptor'
	DD	00H
	DD	01H
	DD	imagerel ??_R2exception@std@@8
rdata$r	ENDS
;	COMDAT ??_R4exception@std@@6B@
rdata$r	SEGMENT
??_R4exception@std@@6B@ DD 01H				; std::exception::`RTTI Complete Object Locator'
	DD	00H
	DD	00H
	DD	imagerel ??_R0?AVexception@std@@@8
	DD	imagerel ??_R3exception@std@@8
	DD	imagerel ??_R4exception@std@@6B@
rdata$r	ENDS
;	COMDAT ??_C@_0BA@FOIKENOD@vector?5too?5long@
CONST	SEGMENT
??_C@_0BA@FOIKENOD@vector?5too?5long@ DB 'vector too long', 00H ; `string'
CONST	ENDS
;	COMDAT ?_Static@?1???$_Immortalize_memcpy_image@V_Future_error_category2@std@@@std@@YAAEBV_Future_error_category2@1@XZ@4V21@B
_DATA	SEGMENT
?_Static@?1???$_Immortalize_memcpy_image@V_Future_error_category2@std@@@std@@YAAEBV_Future_error_category2@1@XZ@4V21@B DQ FLAT:??_7_Future_error_category2@std@@6B@ ; `std::_Immortalize_memcpy_image<std::_Future_error_category2>'::`2'::_Static
	DQ	0000000000000001H
_DATA	ENDS
;	COMDAT ??_C@_1HA@FACCKGGH@?$AA?$CC?$AAn?$AAu?$AAl?$AAl?$AA?5?$AAp?$AAo?$AAi?$AAn?$AAt?$AAe?$AAr?$AA?5?$AAc@
CONST	SEGMENT
??_C@_1HA@FACCKGGH@?$AA?$CC?$AAn?$AAu?$AAl?$AAl?$AA?5?$AAp?$AAo?$AAi?$AAn?$AAt?$AAe?$AAr?$AA?5?$AAc@ DB '"'
	DB	00H, 'n', 00H, 'u', 00H, 'l', 00H, 'l', 00H, ' ', 00H, 'p', 00H
	DB	'o', 00H, 'i', 00H, 'n', 00H, 't', 00H, 'e', 00H, 'r', 00H, ' '
	DB	00H, 'c', 00H, 'a', 00H, 'n', 00H, 'n', 00H, 'o', 00H, 't', 00H
	DB	' ', 00H, 'p', 00H, 'o', 00H, 'i', 00H, 'n', 00H, 't', 00H, ' '
	DB	00H, 't', 00H, 'o', 00H, ' ', 00H, 'a', 00H, ' ', 00H, 'b', 00H
	DB	'l', 00H, 'o', 00H, 'c', 00H, 'k', 00H, ' ', 00H, 'o', 00H, 'f'
	DB	00H, ' ', 00H, 'n', 00H, 'o', 00H, 'n', 00H, '-', 00H, 'z', 00H
	DB	'e', 00H, 'r', 00H, 'o', 00H, ' ', 00H, 's', 00H, 'i', 00H, 'z'
	DB	00H, 'e', 00H, '"', 00H, 00H, 00H		; `string'
CONST	ENDS
;	COMDAT ??_C@_0DG@KGHKKGBC@null?5pointer?5cannot?5point?5to?5a?5@
CONST	SEGMENT
??_C@_0DG@KGHKKGBC@null?5pointer?5cannot?5point?5to?5a?5@ DB 'null pointe'
	DB	'r cannot point to a block of non-zero size', 00H ; `string'
CONST	ENDS
;	COMDAT ??_C@_06MOFGPAFB@future@
CONST	SEGMENT
??_C@_06MOFGPAFB@future@ DB 'future', 00H		; `string'
CONST	ENDS
;	COMDAT ??_7_Future_error_category2@std@@6B@
CONST	SEGMENT
??_7_Future_error_category2@std@@6B@ DQ FLAT:??_R4_Future_error_category2@std@@6B@ ; std::_Future_error_category2::`vftable'
	DQ	FLAT:??_E_Future_error_category2@std@@UEAAPEAXI@Z
	DQ	FLAT:?name@_Future_error_category2@std@@UEBAPEBDXZ
	DQ	FLAT:?message@_Future_error_category2@std@@UEBA?AV?$basic_string@DU?$char_traits@D@std@@V?$allocator@D@2@@2@H@Z
	DQ	FLAT:?default_error_condition@error_category@std@@UEBA?AVerror_condition@2@H@Z
	DQ	FLAT:?equivalent@error_category@std@@UEBA_NAEBVerror_code@2@H@Z
	DQ	FLAT:?equivalent@error_category@std@@UEBA_NHAEBVerror_condition@2@@Z
CONST	ENDS
;	COMDAT _CT??_R0?AVlogic_error@std@@@8??0logic_error@std@@QEAA@AEBV01@@Z24
xdata$x	SEGMENT
_CT??_R0?AVlogic_error@std@@@8??0logic_error@std@@QEAA@AEBV01@@Z24 DD 00H
	DD	imagerel ??_R0?AVlogic_error@std@@@8
	DD	00H
	DD	0ffffffffH
	ORG $+4
	DD	018H
	DD	imagerel ??0logic_error@std@@QEAA@AEBV01@@Z
xdata$x	ENDS
;	COMDAT ??_R0?AVlogic_error@std@@@8
data$r	SEGMENT
??_R0?AVlogic_error@std@@@8 DQ FLAT:??_7type_info@@6B@	; std::logic_error `RTTI Type Descriptor'
	DQ	0000000000000000H
	DB	'.?AVlogic_error@std@@', 00H
data$r	ENDS
;	COMDAT _CT??_R0?AVfuture_error@std@@@8??0future_error@std@@QEAA@AEBV01@@Z40
xdata$x	SEGMENT
_CT??_R0?AVfuture_error@std@@@8??0future_error@std@@QEAA@AEBV01@@Z40 DD 00H
	DD	imagerel ??_R0?AVfuture_error@std@@@8
	DD	00H
	DD	0ffffffffH
	ORG $+4
	DD	028H
	DD	imagerel ??0future_error@std@@QEAA@AEBV01@@Z
xdata$x	ENDS
;	COMDAT ??_R0?AVfuture_error@std@@@8
data$r	SEGMENT
??_R0?AVfuture_error@std@@@8 DQ FLAT:??_7type_info@@6B@	; std::future_error `RTTI Type Descriptor'
	DQ	0000000000000000H
	DB	'.?AVfuture_error@std@@', 00H
data$r	ENDS
;	COMDAT _CTA3?AVfuture_error@std@@
xdata$x	SEGMENT
_CTA3?AVfuture_error@std@@ DD 03H
	DD	imagerel _CT??_R0?AVfuture_error@std@@@8??0future_error@std@@QEAA@AEBV01@@Z40
	DD	imagerel _CT??_R0?AVlogic_error@std@@@8??0logic_error@std@@QEAA@AEBV01@@Z24
	DD	imagerel _CT??_R0?AVexception@std@@@8??0exception@std@@QEAA@AEBV01@@Z24
xdata$x	ENDS
;	COMDAT _TI3?AVfuture_error@std@@
xdata$x	SEGMENT
_TI3?AVfuture_error@std@@ DD 00H
	DD	imagerel ??1future_error@std@@UEAA@XZ
	DD	00H
	DD	imagerel _CTA3?AVfuture_error@std@@
xdata$x	ENDS
;	COMDAT ??_C@_00CNPNBAHC@@
CONST	SEGMENT
??_C@_00CNPNBAHC@@ DB 00H				; `string'
CONST	ENDS
;	COMDAT ??_7future_error@std@@6B@
CONST	SEGMENT
??_7future_error@std@@6B@ DQ FLAT:??_R4future_error@std@@6B@ ; std::future_error::`vftable'
	DQ	FLAT:??_Efuture_error@std@@UEAAPEAXI@Z
	DQ	FLAT:?what@future_error@std@@UEBAPEBDXZ
CONST	ENDS
;	COMDAT ??_C@_08CCNMMIE@no?5state@
CONST	SEGMENT
??_C@_08CCNMMIE@no?5state@ DB 'no state', 00H		; `string'
CONST	ENDS
;	COMDAT ??_C@_0BK@JNDAEPJA@promise?5already?5satisfied@
CONST	SEGMENT
??_C@_0BK@JNDAEPJA@promise?5already?5satisfied@ DB 'promise already satis'
	DB	'fied', 00H					; `string'
CONST	ENDS
;	COMDAT ??_C@_0BJ@JOKOCMFN@future?5already?5retrieved@
CONST	SEGMENT
??_C@_0BJ@JOKOCMFN@future?5already?5retrieved@ DB 'future already retriev'
	DB	'ed', 00H					; `string'
CONST	ENDS
;	COMDAT ??_C@_0P@JCDOJLHG@broken?5promise@
CONST	SEGMENT
??_C@_0P@JCDOJLHG@broken?5promise@ DB 'broken promise', 00H ; `string'
CONST	ENDS
;	COMDAT ??_7logic_error@std@@6B@
CONST	SEGMENT
??_7logic_error@std@@6B@ DQ FLAT:??_R4logic_error@std@@6B@ ; std::logic_error::`vftable'
	DQ	FLAT:??_Elogic_error@std@@UEAAPEAXI@Z
	DQ	FLAT:?what@exception@std@@UEBAPEBDXZ
CONST	ENDS
;	COMDAT ??_C@_0BA@JFNIOLAK@string?5too?5long@
CONST	SEGMENT
??_C@_0BA@JFNIOLAK@string?5too?5long@ DB 'string too long', 00H ; `string'
CONST	ENDS
;	COMDAT ??_C@_1CG@JNLFBNGN@?$AA?$CC?$AAi?$AAn?$AAv?$AAa?$AAl?$AAi?$AAd?$AA?5?$AAa?$AAr?$AAg?$AAu?$AAm?$AAe@
CONST	SEGMENT
??_C@_1CG@JNLFBNGN@?$AA?$CC?$AAi?$AAn?$AAv?$AAa?$AAl?$AAi?$AAd?$AA?5?$AAa?$AAr?$AAg?$AAu?$AAm?$AAe@ DB '"'
	DB	00H, 'i', 00H, 'n', 00H, 'v', 00H, 'a', 00H, 'l', 00H, 'i', 00H
	DB	'd', 00H, ' ', 00H, 'a', 00H, 'r', 00H, 'g', 00H, 'u', 00H, 'm'
	DB	00H, 'e', 00H, 'n', 00H, 't', 00H, '"', 00H, 00H, 00H ; `string'
CONST	ENDS
;	COMDAT ??_C@_11LOCGONAA@@
CONST	SEGMENT
??_C@_11LOCGONAA@@ DB 00H, 00H				; `string'
CONST	ENDS
;	COMDAT ??_C@_1MA@IKJDCOIC@?$AAC?$AA?3?$AA?2?$AAP?$AAr?$AAo?$AAg?$AAr?$AAa?$AAm?$AA?5?$AAF?$AAi?$AAl?$AAe@
CONST	SEGMENT
??_C@_1MA@IKJDCOIC@?$AAC?$AA?3?$AA?2?$AAP?$AAr?$AAo?$AAg?$AAr?$AAa?$AAm?$AA?5?$AAF?$AAi?$AAl?$AAe@ DB 'C'
	DB	00H, ':', 00H, '\', 00H, 'P', 00H, 'r', 00H, 'o', 00H, 'g', 00H
	DB	'r', 00H, 'a', 00H, 'm', 00H, ' ', 00H, 'F', 00H, 'i', 00H, 'l'
	DB	00H, 'e', 00H, 's', 00H, '\', 00H, 'M', 00H, 'i', 00H, 'c', 00H
	DB	'r', 00H, 'o', 00H, 's', 00H, 'o', 00H, 'f', 00H, 't', 00H, ' '
	DB	00H, 'V', 00H, 'i', 00H, 's', 00H, 'u', 00H, 'a', 00H, 'l', 00H
	DB	' ', 00H, 'S', 00H, 't', 00H, 'u', 00H, 'd', 00H, 'i', 00H, 'o'
	DB	00H, '\', 00H, '2', 00H, '0', 00H, '2', 00H, '2', 00H, '\', 00H
	DB	'P', 00H, 'r', 00H, 'e', 00H, 'v', 00H, 'i', 00H, 'e', 00H, 'w'
	DB	00H, '\', 00H, 'V', 00H, 'C', 00H, '\', 00H, 'T', 00H, 'o', 00H
	DB	'o', 00H, 'l', 00H, 's', 00H, '\', 00H, 'M', 00H, 'S', 00H, 'V'
	DB	00H, 'C', 00H, '\', 00H, '1', 00H, '4', 00H, '.', 00H, '3', 00H
	DB	'8', 00H, '.', 00H, '3', 00H, '3', 00H, '0', 00H, '3', 00H, '0'
	DB	00H, '\', 00H, 'i', 00H, 'n', 00H, 'c', 00H, 'l', 00H, 'u', 00H
	DB	'd', 00H, 'e', 00H, '\', 00H, 'x', 00H, 'm', 00H, 'e', 00H, 'm'
	DB	00H, 'o', 00H, 'r', 00H, 'y', 00H, 00H, 00H	; `string'
CONST	ENDS
;	COMDAT ??_C@_0GA@FLDGEGM@C?3?2Program?5Files?2Microsoft?5Visu@
CONST	SEGMENT
??_C@_0GA@FLDGEGM@C?3?2Program?5Files?2Microsoft?5Visu@ DB 'C:\Program Fi'
	DB	'les\Microsoft Visual Studio\2022\Preview\VC\Tools\MSVC\14.38.'
	DB	'33030\include\xmemory', 00H			; `string'
CONST	ENDS
;	COMDAT ??_C@_02DKCKIIND@?$CFs@
CONST	SEGMENT
??_C@_02DKCKIIND@?$CFs@ DB '%s', 00H			; `string'
CONST	ENDS
;	COMDAT ??_C@_0BB@FCMFBGOM@invalid?5argument@
CONST	SEGMENT
??_C@_0BB@FCMFBGOM@invalid?5argument@ DB 'invalid argument', 00H ; `string'
CONST	ENDS
;	COMDAT ?__LINE__Var@?0??_Adjust_manually_vector_aligned@std@@YAXAEAPEAXAEA_K@Z@4JA
_DATA	SEGMENT
?__LINE__Var@?0??_Adjust_manually_vector_aligned@std@@YAXAEAPEAXAEA_K@Z@4JA DD 09aH ; `std::_Adjust_manually_vector_aligned'::`1'::__LINE__Var
_DATA	ENDS
;	COMDAT _CT??_R0?AVexception@std@@@8??0exception@std@@QEAA@AEBV01@@Z24
xdata$x	SEGMENT
_CT??_R0?AVexception@std@@@8??0exception@std@@QEAA@AEBV01@@Z24 DD 00H
	DD	imagerel ??_R0?AVexception@std@@@8
	DD	00H
	DD	0ffffffffH
	ORG $+4
	DD	018H
	DD	imagerel ??0exception@std@@QEAA@AEBV01@@Z
xdata$x	ENDS
;	COMDAT ??_R0?AVexception@std@@@8
data$r	SEGMENT
??_R0?AVexception@std@@@8 DQ FLAT:??_7type_info@@6B@	; std::exception `RTTI Type Descriptor'
	DQ	0000000000000000H
	DB	'.?AVexception@std@@', 00H
data$r	ENDS
;	COMDAT _CT??_R0?AVbad_alloc@std@@@8??0bad_alloc@std@@QEAA@AEBV01@@Z24
xdata$x	SEGMENT
_CT??_R0?AVbad_alloc@std@@@8??0bad_alloc@std@@QEAA@AEBV01@@Z24 DD 010H
	DD	imagerel ??_R0?AVbad_alloc@std@@@8
	DD	00H
	DD	0ffffffffH
	ORG $+4
	DD	018H
	DD	imagerel ??0bad_alloc@std@@QEAA@AEBV01@@Z
xdata$x	ENDS
;	COMDAT ??_R0?AVbad_alloc@std@@@8
data$r	SEGMENT
??_R0?AVbad_alloc@std@@@8 DQ FLAT:??_7type_info@@6B@	; std::bad_alloc `RTTI Type Descriptor'
	DQ	0000000000000000H
	DB	'.?AVbad_alloc@std@@', 00H
data$r	ENDS
;	COMDAT _CT??_R0?AVbad_array_new_length@std@@@8??0bad_array_new_length@std@@QEAA@AEBV01@@Z24
xdata$x	SEGMENT
_CT??_R0?AVbad_array_new_length@std@@@8??0bad_array_new_length@std@@QEAA@AEBV01@@Z24 DD 00H
	DD	imagerel ??_R0?AVbad_array_new_length@std@@@8
	DD	00H
	DD	0ffffffffH
	ORG $+4
	DD	018H
	DD	imagerel ??0bad_array_new_length@std@@QEAA@AEBV01@@Z
xdata$x	ENDS
;	COMDAT ??_R0?AVbad_array_new_length@std@@@8
data$r	SEGMENT
??_R0?AVbad_array_new_length@std@@@8 DQ FLAT:??_7type_info@@6B@ ; std::bad_array_new_length `RTTI Type Descriptor'
	DQ	0000000000000000H
	DB	'.?AVbad_array_new_length@std@@', 00H
data$r	ENDS
;	COMDAT _CTA3?AVbad_array_new_length@std@@
xdata$x	SEGMENT
_CTA3?AVbad_array_new_length@std@@ DD 03H
	DD	imagerel _CT??_R0?AVbad_array_new_length@std@@@8??0bad_array_new_length@std@@QEAA@AEBV01@@Z24
	DD	imagerel _CT??_R0?AVbad_alloc@std@@@8??0bad_alloc@std@@QEAA@AEBV01@@Z24
	DD	imagerel _CT??_R0?AVexception@std@@@8??0exception@std@@QEAA@AEBV01@@Z24
xdata$x	ENDS
;	COMDAT _TI3?AVbad_array_new_length@std@@
xdata$x	SEGMENT
_TI3?AVbad_array_new_length@std@@ DD 00H
	DD	imagerel ??1bad_array_new_length@std@@UEAA@XZ
	DD	00H
	DD	imagerel _CTA3?AVbad_array_new_length@std@@
xdata$x	ENDS
;	COMDAT ??_C@_0BF@KINCDENJ@bad?5array?5new?5length@
CONST	SEGMENT
??_C@_0BF@KINCDENJ@bad?5array?5new?5length@ DB 'bad array new length', 00H ; `string'
CONST	ENDS
;	COMDAT ??_7bad_array_new_length@std@@6B@
CONST	SEGMENT
??_7bad_array_new_length@std@@6B@ DQ FLAT:??_R4bad_array_new_length@std@@6B@ ; std::bad_array_new_length::`vftable'
	DQ	FLAT:??_Ebad_array_new_length@std@@UEAAPEAXI@Z
	DQ	FLAT:?what@exception@std@@UEBAPEBDXZ
CONST	ENDS
;	COMDAT ??_7bad_alloc@std@@6B@
CONST	SEGMENT
??_7bad_alloc@std@@6B@ DQ FLAT:??_R4bad_alloc@std@@6B@	; std::bad_alloc::`vftable'
	DQ	FLAT:??_Ebad_alloc@std@@UEAAPEAXI@Z
	DQ	FLAT:?what@exception@std@@UEBAPEBDXZ
CONST	ENDS
;	COMDAT ??_C@_0BC@EOODALEL@Unknown?5exception@
CONST	SEGMENT
??_C@_0BC@EOODALEL@Unknown?5exception@ DB 'Unknown exception', 00H ; `string'
CONST	ENDS
;	COMDAT ??_7exception@std@@6B@
CONST	SEGMENT
??_7exception@std@@6B@ DQ FLAT:??_R4exception@std@@6B@	; std::exception::`vftable'
	DQ	FLAT:??_Eexception@std@@UEAAPEAXI@Z
	DQ	FLAT:?what@exception@std@@UEBAPEBDXZ
CONST	ENDS
;	COMDAT xdata
xdata	SEGMENT
$unwind$??$construct_at@UVertexDefault@@AEAU1@$0A@@std@@YAPEAUVertexDefault@@QEAU1@AEAU1@@Z DD 025051601H
	DD	0d2112316H
	DD	0600c700dH
	DD	0500bH
xdata	ENDS
;	COMDAT xdata
xdata	SEGMENT
$unwind$??$construct_at@GAEAG$0A@@std@@YAPEAGQEAGAEAG@Z DD 025031401H
	DD	0d20f2314H
	DD	0500bH
xdata	ENDS
;	COMDAT xdata
xdata	SEGMENT
$unwind$??$construct@UVertexDefault@@AEAU1@@?$_Default_allocator_traits@V?$allocator@UVertexDefault@@@std@@@std@@SAXAEAV?$allocator@UVertexDefault@@@1@QEAUVertexDefault@@AEAU3@@Z DD 025031901H
	DD	0b2142319H
	DD	05010H
xdata	ENDS
;	COMDAT xdata
xdata	SEGMENT
$unwind$??$construct@GAEAG@?$_Default_allocator_traits@V?$allocator@G@std@@@std@@SAXAEAV?$allocator@G@1@QEAGAEAG@Z DD 025031901H
	DD	0b2142319H
	DD	05010H
xdata	ENDS
;	COMDAT xdata
xdata	SEGMENT
$unwind$??$_Get_size_of_n@$00@std@@YA_K_K@Z DD 025030f01H
	DD	0d20a230fH
	DD	05006H
xdata	ENDS
;	COMDAT xdata
xdata	SEGMENT
$unwind$??$_Get_size_of_n@$0EI@@std@@YA_K_K@Z DD 025030f01H
	DD	0d20a230fH
	DD	05006H
xdata	ENDS
;	COMDAT xdata
xdata	SEGMENT
$unwind$??$_Get_size_of_n@$01@std@@YA_K_K@Z DD 025030f01H
	DD	0d20a230fH
	DD	05006H
xdata	ENDS
;	COMDAT xdata
xdata	SEGMENT
$unwind$??$_Allocate_manually_vector_aligned@U_Default_allocate_traits@std@@@std@@YAPEAX_K@Z DD 035041201H
	DD	010d3312H
	DD	050060012H
xdata	ENDS
;	COMDAT xdata
xdata	SEGMENT
$unwind$??$construct_at@PEADAEBQEAD$0A@@std@@YAPEAPEADQEAPEADAEBQEAD@Z DD 025031401H
	DD	0d20f2314H
	DD	0500bH
xdata	ENDS
;	COMDAT xdata
xdata	SEGMENT
$unwind$??$_Emplace_back@AEAUVertexDefault@@@?$_Uninitialized_backout_al@V?$allocator@UVertexDefault@@@std@@@std@@QEAAXAEAUVertexDefault@@@Z DD 025031401H
	DD	0d20f2314H
	DD	0500bH
xdata	ENDS
;	COMDAT xdata
xdata	SEGMENT
$unwind$?_Release@?$_Uninitialized_backout_al@V?$allocator@UVertexDefault@@@std@@@std@@QEAAPEAUVertexDefault@@XZ DD 025030f01H
	DD	0b20a230fH
	DD	05006H
xdata	ENDS
;	COMDAT xdata
xdata	SEGMENT
$unwind$??1?$_Uninitialized_backout_al@V?$allocator@UVertexDefault@@@std@@@std@@QEAA@XZ DD 025030f01H
	DD	0b20a230fH
	DD	05006H
xdata	ENDS
;	COMDAT xdata
xdata	SEGMENT
$unwind$??0?$_Uninitialized_backout_al@V?$allocator@UVertexDefault@@@std@@@std@@QEAA@PEAUVertexDefault@@AEAV?$allocator@UVertexDefault@@@1@@Z DD 025031901H
	DD	0b2142319H
	DD	05010H
xdata	ENDS
;	COMDAT xdata
xdata	SEGMENT
$unwind$??$_Copy_memmove@PEAUVertexDefault@@PEAU1@@std@@YAPEAUVertexDefault@@PEAU1@00@Z DD 025041c01H
	DD	0117231cH
	DD	050100014H
xdata	ENDS
;	COMDAT xdata
xdata	SEGMENT
$unwind$??$_Unfancy@UVertexDefault@@@std@@YAPEAUVertexDefault@@PEAU1@@Z DD 025030f01H
	DD	0b20a230fH
	DD	05006H
xdata	ENDS
;	COMDAT xdata
xdata	SEGMENT
$unwind$??$to_address@UVertexDefault@@@std@@YAPEAUVertexDefault@@QEAU1@@Z DD 025030f01H
	DD	0b20a230fH
	DD	05006H
xdata	ENDS
;	COMDAT xdata
xdata	SEGMENT
$unwind$??$_To_address@PEAUVertexDefault@@@std@@YA?A_PAEBQEAUVertexDefault@@@Z DD 025030f01H
	DD	0b20a230fH
	DD	05006H
xdata	ENDS
;	COMDAT xdata
xdata	SEGMENT
$unwind$??$_Unwrap_sent@PEAUVertexDefault@@PEAU1@@ranges@std@@YA?A_T$$QEAPEAUVertexDefault@@@Z DD 025030f01H
	DD	0b20a230fH
	DD	05006H
xdata	ENDS
;	COMDAT xdata
xdata	SEGMENT
$unwind$??$_Unwrap_iter@PEAUVertexDefault@@PEAU1@@ranges@std@@YA?A_T$$QEAPEAUVertexDefault@@@Z DD 025030f01H
	DD	0b20a230fH
	DD	05006H
xdata	ENDS
;	COMDAT xdata
xdata	SEGMENT
$unwind$??$_Emplace_back@AEAG@?$_Uninitialized_backout_al@V?$allocator@G@std@@@std@@QEAAXAEAG@Z DD 025031401H
	DD	0d20f2314H
	DD	0500bH
xdata	ENDS
;	COMDAT xdata
xdata	SEGMENT
$unwind$?_Release@?$_Uninitialized_backout_al@V?$allocator@G@std@@@std@@QEAAPEAGXZ DD 025030f01H
	DD	0b20a230fH
	DD	05006H
xdata	ENDS
;	COMDAT xdata
xdata	SEGMENT
$unwind$??1?$_Uninitialized_backout_al@V?$allocator@G@std@@@std@@QEAA@XZ DD 025030f01H
	DD	0b20a230fH
	DD	05006H
xdata	ENDS
;	COMDAT xdata
xdata	SEGMENT
$unwind$??0?$_Uninitialized_backout_al@V?$allocator@G@std@@@std@@QEAA@PEAGAEAV?$allocator@G@1@@Z DD 025031901H
	DD	0b2142319H
	DD	05010H
xdata	ENDS
;	COMDAT xdata
xdata	SEGMENT
$unwind$??$_Copy_memmove@PEAGPEAG@std@@YAPEAGPEAG00@Z DD 025041c01H
	DD	0117231cH
	DD	050100014H
xdata	ENDS
;	COMDAT xdata
xdata	SEGMENT
$unwind$??$_Unfancy@G@std@@YAPEAGPEAG@Z DD 025030f01H
	DD	0b20a230fH
	DD	05006H
xdata	ENDS
;	COMDAT xdata
xdata	SEGMENT
$unwind$??$to_address@G@std@@YAPEAGQEAG@Z DD 025030f01H
	DD	0b20a230fH
	DD	05006H
xdata	ENDS
;	COMDAT xdata
xdata	SEGMENT
$unwind$??$_To_address@PEAG@std@@YA?A_PAEBQEAG@Z DD 025030f01H
	DD	0b20a230fH
	DD	05006H
xdata	ENDS
;	COMDAT xdata
xdata	SEGMENT
$unwind$??$_Unwrap_sent@PEAGPEAG@ranges@std@@YA?A_T$$QEAPEAG@Z DD 025030f01H
	DD	0b20a230fH
	DD	05006H
xdata	ENDS
;	COMDAT xdata
xdata	SEGMENT
$unwind$??$_Unwrap_iter@PEAGPEAG@ranges@std@@YA?A_T$$QEAPEAG@Z DD 025030f01H
	DD	0b20a230fH
	DD	05006H
xdata	ENDS
;	COMDAT xdata
xdata	SEGMENT
$unwind$?deallocate@?$_Default_allocator_traits@V?$allocator@U_Container_proxy@std@@@std@@@std@@SAXAEAV?$allocator@U_Container_proxy@std@@@2@QEAU_Container_proxy@2@_K@Z DD 025031901H
	DD	0b2142319H
	DD	05010H
xdata	ENDS
;	COMDAT xdata
xdata	SEGMENT
$unwind$??$_Allocate_at_least_helper@V?$allocator@UVertexDefault@@@std@@@std@@YAPEAUVertexDefault@@AEAV?$allocator@UVertexDefault@@@0@AEA_K@Z DD 025031401H
	DD	0b20f2314H
	DD	0500bH
xdata	ENDS
;	COMDAT xdata
xdata	SEGMENT
$unwind$??$_Allocate_at_least_helper@V?$allocator@G@std@@@std@@YAPEAGAEAV?$allocator@G@0@AEA_K@Z DD 025031401H
	DD	0b20f2314H
	DD	0500bH
xdata	ENDS
;	COMDAT xdata
xdata	SEGMENT
$unwind$??$construct_at@D$$V$0A@@std@@YAPEADQEAD@Z DD 025041001H
	DD	0e20b2310H
	DD	050067007H
xdata	ENDS
;	COMDAT xdata
xdata	SEGMENT
$unwind$??$_Allocate@$0BA@U_Default_allocate_traits@std@@$0A@@std@@YAPEAX_K@Z DD 025030f01H
	DD	0b20a230fH
	DD	05006H
xdata	ENDS
;	COMDAT xdata
xdata	SEGMENT
$unwind$??$_Get_size_of_n@$0BA@@std@@YA_K_K@Z DD 025030f01H
	DD	0d20a230fH
	DD	05006H
xdata	ENDS
;	COMDAT xdata
xdata	SEGMENT
$unwind$??$addressof@PEAD@std@@YAPEAPEADAEAPEAD@Z DD 025030f01H
	DD	0b20a230fH
	DD	05006H
xdata	ENDS
;	COMDAT xdata
xdata	SEGMENT
$unwind$??$_Construct_in_place@PEADAEBQEAD@std@@YAXAEAPEADAEBQEAD@Z DD 025031401H
	DD	0d20f2314H
	DD	0500bH
xdata	ENDS
;	COMDAT xdata
xdata	SEGMENT
$unwind$??$_Allocate_at_least_helper@V?$allocator@D@std@@@std@@YAPEADAEAV?$allocator@D@0@AEA_K@Z DD 025031401H
	DD	0b20f2314H
	DD	0500bH
xdata	ENDS
;	COMDAT xdata
xdata	SEGMENT
$unwind$??$_Unfancy@U_Container_proxy@std@@@std@@YAPEAU_Container_proxy@0@PEAU10@@Z DD 025030f01H
	DD	0b20a230fH
	DD	05006H
xdata	ENDS
;	COMDAT xdata
xdata	SEGMENT
$unwind$?dtor$0@?0???$_Uninitialized_copy@PEAUVertexDefault@@PEAU1@V?$allocator@UVertexDefault@@@std@@@std@@YAPEAUVertexDefault@@PEAU1@00AEAV?$allocator@UVertexDefault@@@0@@Z@4HA DD 020601H
	DD	050023206H
xdata	ENDS
;	COMDAT xdata
xdata	SEGMENT
$ip2state$??$_Uninitialized_copy@PEAUVertexDefault@@PEAU1@V?$allocator@UVertexDefault@@@std@@@std@@YAPEAUVertexDefault@@PEAU1@00AEAV?$allocator@UVertexDefault@@@0@@Z DB 06H
	DB	00H
	DB	00H
	DB	0e5H, 03H
	DB	02H
	DB	'h'
	DB	00H
xdata	ENDS
;	COMDAT xdata
xdata	SEGMENT
$stateUnwindMap$??$_Uninitialized_copy@PEAUVertexDefault@@PEAU1@V?$allocator@UVertexDefault@@@std@@@std@@YAPEAUVertexDefault@@PEAU1@00AEAV?$allocator@UVertexDefault@@@0@@Z DB 02H
	DB	0eH
	DD	imagerel ?dtor$0@?0???$_Uninitialized_copy@PEAUVertexDefault@@PEAU1@V?$allocator@UVertexDefault@@@std@@@std@@YAPEAUVertexDefault@@PEAU1@00AEAV?$allocator@UVertexDefault@@@0@@Z@4HA
xdata	ENDS
;	COMDAT xdata
xdata	SEGMENT
$cppxdata$??$_Uninitialized_copy@PEAUVertexDefault@@PEAU1@V?$allocator@UVertexDefault@@@std@@@std@@YAPEAUVertexDefault@@PEAU1@00AEAV?$allocator@UVertexDefault@@@0@@Z DB 028H
	DD	imagerel $stateUnwindMap$??$_Uninitialized_copy@PEAUVertexDefault@@PEAU1@V?$allocator@UVertexDefault@@@std@@@std@@YAPEAUVertexDefault@@PEAU1@00AEAV?$allocator@UVertexDefault@@@0@@Z
	DD	imagerel $ip2state$??$_Uninitialized_copy@PEAUVertexDefault@@PEAU1@V?$allocator@UVertexDefault@@@std@@@std@@YAPEAUVertexDefault@@PEAU1@00AEAV?$allocator@UVertexDefault@@@0@@Z
xdata	ENDS
;	COMDAT xdata
xdata	SEGMENT
$unwind$??$_Uninitialized_copy@PEAUVertexDefault@@PEAU1@V?$allocator@UVertexDefault@@@std@@@std@@YAPEAUVertexDefault@@PEAU1@00AEAV?$allocator@UVertexDefault@@@0@@Z DD 025042111H
	DD	011c2321H
	DD	050150016H
	DD	imagerel __CxxFrameHandler4
	DD	imagerel $cppxdata$??$_Uninitialized_copy@PEAUVertexDefault@@PEAU1@V?$allocator@UVertexDefault@@@std@@@std@@YAPEAUVertexDefault@@PEAU1@00AEAV?$allocator@UVertexDefault@@@0@@Z
xdata	ENDS
;	COMDAT xdata
xdata	SEGMENT
$unwind$??1?$_Tidy_guard@V?$vector@UVertexDefault@@V?$allocator@UVertexDefault@@@std@@@std@@@std@@QEAA@XZ DD 025030f01H
	DD	0b20a230fH
	DD	05006H
xdata	ENDS
;	COMDAT xdata
xdata	SEGMENT
$unwind$?dtor$0@?0???$_Uninitialized_copy@PEAGPEAGV?$allocator@G@std@@@std@@YAPEAGPEAG00AEAV?$allocator@G@0@@Z@4HA DD 020601H
	DD	050023206H
xdata	ENDS
;	COMDAT xdata
xdata	SEGMENT
$ip2state$??$_Uninitialized_copy@PEAGPEAGV?$allocator@G@std@@@std@@YAPEAGPEAG00AEAV?$allocator@G@0@@Z DB 06H
	DB	00H
	DB	00H
	DB	0a1H, 03H
	DB	02H
	DB	'h'
	DB	00H
xdata	ENDS
;	COMDAT xdata
xdata	SEGMENT
$stateUnwindMap$??$_Uninitialized_copy@PEAGPEAGV?$allocator@G@std@@@std@@YAPEAGPEAG00AEAV?$allocator@G@0@@Z DB 02H
	DB	0eH
	DD	imagerel ?dtor$0@?0???$_Uninitialized_copy@PEAGPEAGV?$allocator@G@std@@@std@@YAPEAGPEAG00AEAV?$allocator@G@0@@Z@4HA
xdata	ENDS
;	COMDAT xdata
xdata	SEGMENT
$cppxdata$??$_Uninitialized_copy@PEAGPEAGV?$allocator@G@std@@@std@@YAPEAGPEAG00AEAV?$allocator@G@0@@Z DB 028H
	DD	imagerel $stateUnwindMap$??$_Uninitialized_copy@PEAGPEAGV?$allocator@G@std@@@std@@YAPEAGPEAG00AEAV?$allocator@G@0@@Z
	DD	imagerel $ip2state$??$_Uninitialized_copy@PEAGPEAGV?$allocator@G@std@@@std@@YAPEAGPEAG00AEAV?$allocator@G@0@@Z
xdata	ENDS
;	COMDAT xdata
xdata	SEGMENT
$unwind$??$_Uninitialized_copy@PEAGPEAGV?$allocator@G@std@@@std@@YAPEAGPEAG00AEAV?$allocator@G@0@@Z DD 025042111H
	DD	011c2321H
	DD	050150016H
	DD	imagerel __CxxFrameHandler4
	DD	imagerel $cppxdata$??$_Uninitialized_copy@PEAGPEAGV?$allocator@G@std@@@std@@YAPEAGPEAG00AEAV?$allocator@G@0@@Z
xdata	ENDS
;	COMDAT xdata
xdata	SEGMENT
$unwind$??1?$_Tidy_guard@V?$vector@GV?$allocator@G@std@@@std@@@std@@QEAA@XZ DD 025030f01H
	DD	0b20a230fH
	DD	05006H
xdata	ENDS
;	COMDAT xdata
xdata	SEGMENT
$unwind$??1?$_Container_proxy_ptr12@V?$allocator@U_Container_proxy@std@@@std@@@std@@QEAA@XZ DD 025030f01H
	DD	0b20a230fH
	DD	05006H
xdata	ENDS
;	COMDAT xdata
xdata	SEGMENT
$unwind$??0?$_Container_proxy_ptr12@V?$allocator@U_Container_proxy@std@@@std@@@std@@QEAA@AEAV?$allocator@U_Container_proxy@std@@@1@AEAU_Container_base12@1@@Z DD 025031901H
	DD	0d2142319H
	DD	05010H
xdata	ENDS
;	COMDAT xdata
xdata	SEGMENT
$ip2state$??$_Deallocate_plain@V?$allocator@U_Container_proxy@std@@@std@@@std@@YAXAEAV?$allocator@U_Container_proxy@std@@@0@QEAU_Container_proxy@0@@Z DB 02H
	DB	00H
	DB	00H
xdata	ENDS
;	COMDAT xdata
xdata	SEGMENT
$cppxdata$??$_Deallocate_plain@V?$allocator@U_Container_proxy@std@@@std@@@std@@YAXAEAV?$allocator@U_Container_proxy@std@@@0@QEAU_Container_proxy@0@@Z DB 060H
	DD	imagerel $ip2state$??$_Deallocate_plain@V?$allocator@U_Container_proxy@std@@@std@@@std@@YAXAEAV?$allocator@U_Container_proxy@std@@@0@QEAU_Container_proxy@0@@Z
xdata	ENDS
;	COMDAT xdata
xdata	SEGMENT
$unwind$??$_Deallocate_plain@V?$allocator@U_Container_proxy@std@@@std@@@std@@YAXAEAV?$allocator@U_Container_proxy@std@@@0@QEAU_Container_proxy@0@@Z DD 025031419H
	DD	0b20f2314H
	DD	0500bH
	DD	imagerel __CxxFrameHandler4
	DD	imagerel $cppxdata$??$_Deallocate_plain@V?$allocator@U_Container_proxy@std@@@std@@@std@@YAXAEAV?$allocator@U_Container_proxy@std@@@0@QEAU_Container_proxy@0@@Z
xdata	ENDS
;	COMDAT xdata
xdata	SEGMENT
$unwind$??$construct_at@U_Container_proxy@std@@PEAU_Container_base12@2@$0A@@std@@YAPEAU_Container_proxy@0@QEAU10@$$QEAPEAU_Container_base12@0@@Z DD 025031401H
	DD	0d20f2314H
	DD	0500bH
xdata	ENDS
;	COMDAT xdata
xdata	SEGMENT
$unwind$??$addressof@U_Container_proxy@std@@@std@@YAPEAU_Container_proxy@0@AEAU10@@Z DD 025030f01H
	DD	0b20a230fH
	DD	05006H
xdata	ENDS
;	COMDAT xdata
xdata	SEGMENT
$unwind$??$construct_at@DAEBD$0A@@std@@YAPEADQEADAEBD@Z DD 025031401H
	DD	0d20f2314H
	DD	0500bH
xdata	ENDS
;	COMDAT xdata
xdata	SEGMENT
$unwind$??$addressof@D@std@@YAPEADAEAD@Z DD 025030f01H
	DD	0b20a230fH
	DD	05006H
xdata	ENDS
;	COMDAT xdata
xdata	SEGMENT
$unwind$??$min@_K@std@@YAAEB_KAEB_K0@Z DD 025031401H
	DD	0d20f2314H
	DD	0500bH
xdata	ENDS
;	COMDAT xdata
xdata	SEGMENT
$ip2state$??$_Deallocate@$0BA@$0A@@std@@YAXPEAX_K@Z DB 02H
	DB	00H
	DB	00H
xdata	ENDS
;	COMDAT xdata
xdata	SEGMENT
$cppxdata$??$_Deallocate@$0BA@$0A@@std@@YAXPEAX_K@Z DB 060H
	DD	imagerel $ip2state$??$_Deallocate@$0BA@$0A@@std@@YAXPEAX_K@Z
xdata	ENDS
;	COMDAT xdata
xdata	SEGMENT
$unwind$??$_Deallocate@$0BA@$0A@@std@@YAXPEAX_K@Z DD 025031419H
	DD	0b20f2314H
	DD	0500bH
	DD	imagerel __CxxFrameHandler4
	DD	imagerel $cppxdata$??$_Deallocate@$0BA@$0A@@std@@YAXPEAX_K@Z
xdata	ENDS
;	COMDAT xdata
xdata	SEGMENT
$unwind$??$max@_K@std@@YAAEB_KAEB_K0@Z DD 025031401H
	DD	0d20f2314H
	DD	0500bH
xdata	ENDS
;	COMDAT xdata
xdata	SEGMENT
$unwind$??$_Unfancy@D@std@@YAPEADPEAD@Z DD 025030f01H
	DD	0b20a230fH
	DD	05006H
xdata	ENDS
;	COMDAT xdata
xdata	SEGMENT
$unwind$??$_Destroy_in_place@PEAD@std@@YAXAEAPEAD@Z DD 025030f01H
	DD	0b20a230fH
	DD	05006H
xdata	ENDS
;	COMDAT xdata
xdata	SEGMENT
$unwind$??$_Destroy_range@V?$allocator@UVertexDefault@@@std@@@std@@YAXPEAUVertexDefault@@QEAU1@AEAV?$allocator@UVertexDefault@@@0@@Z DD 025031901H
	DD	0b2142319H
	DD	05010H
xdata	ENDS
;	COMDAT xdata
xdata	SEGMENT
$unwind$??$_Destroy_range@V?$allocator@G@std@@@std@@YAXPEAGQEAGAEAV?$allocator@G@0@@Z DD 025031901H
	DD	0b2142319H
	DD	05010H
xdata	ENDS
;	COMDAT xdata
xdata	SEGMENT
$unwind$?dtor$0@?0???$_Construct@$00PEBD@?$basic_string@DU?$char_traits@D@std@@V?$allocator@D@2@@std@@AEAAXQEBD_K@Z@4HA DD 020601H
	DD	050023206H
xdata	ENDS
;	COMDAT xdata
xdata	SEGMENT
$ip2state$??$_Construct@$00PEBD@?$basic_string@DU?$char_traits@D@std@@V?$allocator@D@2@@std@@AEAAXQEBD_K@Z DB 0aH
	DB	00H
	DB	00H
	DB	011H, 02H
	DB	02H
	DB	0e6H
	DB	00H
	DB	01cH
	DB	02H
	DB	0e5H, 03H
	DB	00H
xdata	ENDS
;	COMDAT xdata
xdata	SEGMENT
$stateUnwindMap$??$_Construct@$00PEBD@?$basic_string@DU?$char_traits@D@std@@V?$allocator@D@2@@std@@AEAAXQEBD_K@Z DB 02H
	DB	0eH
	DD	imagerel ?dtor$0@?0???$_Construct@$00PEBD@?$basic_string@DU?$char_traits@D@std@@V?$allocator@D@2@@std@@AEAAXQEBD_K@Z@4HA
xdata	ENDS
;	COMDAT xdata
xdata	SEGMENT
$cppxdata$??$_Construct@$00PEBD@?$basic_string@DU?$char_traits@D@std@@V?$allocator@D@2@@std@@AEAAXQEBD_K@Z DB 028H
	DD	imagerel $stateUnwindMap$??$_Construct@$00PEBD@?$basic_string@DU?$char_traits@D@std@@V?$allocator@D@2@@std@@AEAAXQEBD_K@Z
	DD	imagerel $ip2state$??$_Construct@$00PEBD@?$basic_string@DU?$char_traits@D@std@@V?$allocator@D@2@@std@@AEAAXQEBD_K@Z
xdata	ENDS
;	COMDAT xdata
xdata	SEGMENT
$unwind$??$_Construct@$00PEBD@?$basic_string@DU?$char_traits@D@std@@V?$allocator@D@2@@std@@AEAAXQEBD_K@Z DD 025041c11H
	DD	0117231cH
	DD	050100018H
	DD	imagerel __CxxFrameHandler4
	DD	imagerel $cppxdata$??$_Construct@$00PEBD@?$basic_string@DU?$char_traits@D@std@@V?$allocator@D@2@@std@@AEAAXQEBD_K@Z
xdata	ENDS
;	COMDAT xdata
xdata	SEGMENT
$unwind$??$?0$$V@?$_Compressed_pair@V?$allocator@D@std@@V?$_String_val@U?$_Simple_types@D@std@@@2@$00@std@@QEAA@U_Zero_then_variadic_args_t@1@@Z DD 025031301H
	DD	0b20e2313H
	DD	0500aH
xdata	ENDS
;	COMDAT xdata
xdata	SEGMENT
$unwind$??$?0D@?$allocator@U_Container_proxy@std@@@std@@QEAA@AEBV?$allocator@D@1@@Z DD 025031401H
	DD	0b20f2314H
	DD	0500bH
xdata	ENDS
;	COMDAT xdata
xdata	SEGMENT
$unwind$??$_Convert_size@_K_K@std@@YA_K_K@Z DD 025030f01H
	DD	0b20a230fH
	DD	05006H
xdata	ENDS
;	COMDAT xdata
xdata	SEGMENT
$unwind$??$_Alloc_proxy@V?$allocator@U_Container_proxy@std@@@std@@@_Container_base12@std@@QEAAX$$QEAV?$allocator@U_Container_proxy@std@@@1@@Z DD 025031401H
	DD	0d20f2314H
	DD	0500bH
xdata	ENDS
;	COMDAT xdata
xdata	SEGMENT
$unwind$?dtor$1@?0???$_Construct_n@AEBQEAUVertexDefault@@AEBQEAU1@@?$vector@UVertexDefault@@V?$allocator@UVertexDefault@@@std@@@std@@AEAAX_KAEBQEAUVertexDefault@@1@Z@4HA DD 020601H
	DD	050023206H
xdata	ENDS
;	COMDAT xdata
xdata	SEGMENT
$unwind$?dtor$0@?0???$_Construct_n@AEBQEAUVertexDefault@@AEBQEAU1@@?$vector@UVertexDefault@@V?$allocator@UVertexDefault@@@std@@@std@@AEAAX_KAEBQEAUVertexDefault@@1@Z@4HA DD 020601H
	DD	050023206H
xdata	ENDS
;	COMDAT xdata
xdata	SEGMENT
$ip2state$??$_Construct_n@AEBQEAUVertexDefault@@AEBQEAU1@@?$vector@UVertexDefault@@V?$allocator@UVertexDefault@@@std@@@std@@AEAAX_KAEBQEAUVertexDefault@@1@Z DB 0aH
	DB	00H
	DB	00H
	DB	0deH
	DB	02H
	DB	'P'
	DB	04H
	DB	'j'
	DB	02H
	DB	'&'
	DB	00H
xdata	ENDS
;	COMDAT xdata
xdata	SEGMENT
$stateUnwindMap$??$_Construct_n@AEBQEAUVertexDefault@@AEBQEAU1@@?$vector@UVertexDefault@@V?$allocator@UVertexDefault@@@std@@@std@@AEAAX_KAEBQEAUVertexDefault@@1@Z DB 04H
	DB	0eH
	DD	imagerel ?dtor$0@?0???$_Construct_n@AEBQEAUVertexDefault@@AEBQEAU1@@?$vector@UVertexDefault@@V?$allocator@UVertexDefault@@@std@@@std@@AEAAX_KAEBQEAUVertexDefault@@1@Z@4HA
	DB	02eH
	DD	imagerel ?dtor$1@?0???$_Construct_n@AEBQEAUVertexDefault@@AEBQEAU1@@?$vector@UVertexDefault@@V?$allocator@UVertexDefault@@@std@@@std@@AEAAX_KAEBQEAUVertexDefault@@1@Z@4HA
xdata	ENDS
;	COMDAT xdata
xdata	SEGMENT
$cppxdata$??$_Construct_n@AEBQEAUVertexDefault@@AEBQEAU1@@?$vector@UVertexDefault@@V?$allocator@UVertexDefault@@@std@@@std@@AEAAX_KAEBQEAUVertexDefault@@1@Z DB 028H
	DD	imagerel $stateUnwindMap$??$_Construct_n@AEBQEAUVertexDefault@@AEBQEAU1@@?$vector@UVertexDefault@@V?$allocator@UVertexDefault@@@std@@@std@@AEAAX_KAEBQEAUVertexDefault@@1@Z
	DD	imagerel $ip2state$??$_Construct_n@AEBQEAUVertexDefault@@AEBQEAU1@@?$vector@UVertexDefault@@V?$allocator@UVertexDefault@@@std@@@std@@AEAAX_KAEBQEAUVertexDefault@@1@Z
xdata	ENDS
;	COMDAT xdata
xdata	SEGMENT
$unwind$??$_Construct_n@AEBQEAUVertexDefault@@AEBQEAU1@@?$vector@UVertexDefault@@V?$allocator@UVertexDefault@@@std@@@std@@AEAAX_KAEBQEAUVertexDefault@@1@Z DD 025042111H
	DD	011c2321H
	DD	050150014H
	DD	imagerel __CxxFrameHandler4
	DD	imagerel $cppxdata$??$_Construct_n@AEBQEAUVertexDefault@@AEBQEAU1@@?$vector@UVertexDefault@@V?$allocator@UVertexDefault@@@std@@@std@@AEAAX_KAEBQEAUVertexDefault@@1@Z
xdata	ENDS
;	COMDAT xdata
xdata	SEGMENT
$unwind$??$?0V?$allocator@UVertexDefault@@@std@@$$V@?$_Compressed_pair@V?$allocator@UVertexDefault@@@std@@V?$_Vector_val@U?$_Simple_types@UVertexDefault@@@std@@@2@$00@std@@QEAA@U_One_then_variadic_args_t@1@$$QEAV?$allocator@UVertexDefault@@@1@@Z DD 025031801H
	DD	0b2132318H
	DD	0500fH
xdata	ENDS
;	COMDAT xdata
xdata	SEGMENT
$unwind$??$?0UVertexDefault@@@?$allocator@U_Container_proxy@std@@@std@@QEAA@AEBV?$allocator@UVertexDefault@@@1@@Z DD 025031401H
	DD	0b20f2314H
	DD	0500bH
xdata	ENDS
;	COMDAT xdata
xdata	SEGMENT
$unwind$??$_Unfancy_maybe_null@UVertexDefault@@@std@@YAPEAUVertexDefault@@PEAU1@@Z DD 025030f01H
	DD	0b20a230fH
	DD	05006H
xdata	ENDS
;	COMDAT xdata
xdata	SEGMENT
$unwind$?dtor$1@?0???$_Construct_n@AEBQEAGAEBQEAG@?$vector@GV?$allocator@G@std@@@std@@AEAAX_KAEBQEAG1@Z@4HA DD 020601H
	DD	050023206H
xdata	ENDS
;	COMDAT xdata
xdata	SEGMENT
$unwind$?dtor$0@?0???$_Construct_n@AEBQEAGAEBQEAG@?$vector@GV?$allocator@G@std@@@std@@AEAAX_KAEBQEAG1@Z@4HA DD 020601H
	DD	050023206H
xdata	ENDS
;	COMDAT xdata
xdata	SEGMENT
$ip2state$??$_Construct_n@AEBQEAGAEBQEAG@?$vector@GV?$allocator@G@std@@@std@@AEAAX_KAEBQEAG1@Z DB 0aH
	DB	00H
	DB	00H
	DB	0deH
	DB	02H
	DB	'P'
	DB	04H
	DB	'j'
	DB	02H
	DB	'&'
	DB	00H
xdata	ENDS
;	COMDAT xdata
xdata	SEGMENT
$stateUnwindMap$??$_Construct_n@AEBQEAGAEBQEAG@?$vector@GV?$allocator@G@std@@@std@@AEAAX_KAEBQEAG1@Z DB 04H
	DB	0eH
	DD	imagerel ?dtor$0@?0???$_Construct_n@AEBQEAGAEBQEAG@?$vector@GV?$allocator@G@std@@@std@@AEAAX_KAEBQEAG1@Z@4HA
	DB	02eH
	DD	imagerel ?dtor$1@?0???$_Construct_n@AEBQEAGAEBQEAG@?$vector@GV?$allocator@G@std@@@std@@AEAAX_KAEBQEAG1@Z@4HA
xdata	ENDS
;	COMDAT xdata
xdata	SEGMENT
$cppxdata$??$_Construct_n@AEBQEAGAEBQEAG@?$vector@GV?$allocator@G@std@@@std@@AEAAX_KAEBQEAG1@Z DB 028H
	DD	imagerel $stateUnwindMap$??$_Construct_n@AEBQEAGAEBQEAG@?$vector@GV?$allocator@G@std@@@std@@AEAAX_KAEBQEAG1@Z
	DD	imagerel $ip2state$??$_Construct_n@AEBQEAGAEBQEAG@?$vector@GV?$allocator@G@std@@@std@@AEAAX_KAEBQEAG1@Z
xdata	ENDS
;	COMDAT xdata
xdata	SEGMENT
$unwind$??$_Construct_n@AEBQEAGAEBQEAG@?$vector@GV?$allocator@G@std@@@std@@AEAAX_KAEBQEAG1@Z DD 025042111H
	DD	011c2321H
	DD	050150014H
	DD	imagerel __CxxFrameHandler4
	DD	imagerel $cppxdata$??$_Construct_n@AEBQEAGAEBQEAG@?$vector@GV?$allocator@G@std@@@std@@AEAAX_KAEBQEAG1@Z
xdata	ENDS
;	COMDAT xdata
xdata	SEGMENT
$unwind$??$?0V?$allocator@G@std@@$$V@?$_Compressed_pair@V?$allocator@G@std@@V?$_Vector_val@U?$_Simple_types@G@std@@@2@$00@std@@QEAA@U_One_then_variadic_args_t@1@$$QEAV?$allocator@G@1@@Z DD 025031801H
	DD	0b2132318H
	DD	0500fH
xdata	ENDS
;	COMDAT xdata
xdata	SEGMENT
$unwind$??$_Delete_plain_internal@V?$allocator@U_Container_proxy@std@@@std@@@std@@YAXAEAV?$allocator@U_Container_proxy@std@@@0@QEAU_Container_proxy@0@@Z DD 025031401H
	DD	0b20f2314H
	DD	0500bH
xdata	ENDS
;	COMDAT xdata
xdata	SEGMENT
$unwind$??$exchange@PEAU_Container_proxy@std@@$$T@std@@YAPEAU_Container_proxy@0@AEAPEAU10@$$QEA$$T@Z DD 025031401H
	DD	0d20f2314H
	DD	0500bH
xdata	ENDS
;	COMDAT xdata
xdata	SEGMENT
$unwind$??$?0G@?$allocator@U_Container_proxy@std@@@std@@QEAA@AEBV?$allocator@G@1@@Z DD 025031401H
	DD	0b20f2314H
	DD	0500bH
xdata	ENDS
;	COMDAT xdata
xdata	SEGMENT
$unwind$?allocate@?$allocator@U_Container_proxy@std@@@std@@QEAAPEAU_Container_proxy@2@_K@Z DD 025031401H
	DD	0b20f2314H
	DD	0500bH
xdata	ENDS
;	COMDAT xdata
xdata	SEGMENT
$unwind$?deallocate@?$allocator@U_Container_proxy@std@@@std@@QEAAXQEAU_Container_proxy@2@_K@Z DD 035031901H
	DD	0d2143319H
	DD	05010H
xdata	ENDS
;	COMDAT xdata
xdata	SEGMENT
$unwind$??$_Unfancy_maybe_null@G@std@@YAPEAGPEAG@Z DD 025030f01H
	DD	0b20a230fH
	DD	05006H
xdata	ENDS
;	COMDAT xdata
xdata	SEGMENT
$unwind$??$CreateStaticBuffer@G@DirectX@@YAJPEAUID3D12Device@@AEAVResourceUploadBatch@0@PEBG_KW4D3D12_RESOURCE_STATES@@PEAPEAUID3D12Resource@@W4D3D12_RESOURCE_FLAGS@@@Z DD 045032101H
	DD	0f21c4321H
	DD	05015H
xdata	ENDS
;	COMDAT xdata
xdata	SEGMENT
$unwind$??$CreateStaticBuffer@UVertexDefault@@@DirectX@@YAJPEAUID3D12Device@@AEAVResourceUploadBatch@0@PEBUVertexDefault@@_KW4D3D12_RESOURCE_STATES@@PEAPEAUID3D12Resource@@W4D3D12_RESOURCE_FLAGS@@@Z DD 045032101H
	DD	0f21c4321H
	DD	05015H
xdata	ENDS
;	COMDAT xdata
xdata	SEGMENT
$unwind$?_Get_first@?$_Compressed_pair@V?$allocator@G@std@@V?$_Vector_val@U?$_Simple_types@G@std@@@2@$00@std@@QEBAAEBV?$allocator@G@2@XZ DD 025030f01H
	DD	0b20a230fH
	DD	05006H
xdata	ENDS
;	COMDAT xdata
xdata	SEGMENT
$unwind$?_Get_first@?$_Compressed_pair@V?$allocator@G@std@@V?$_Vector_val@U?$_Simple_types@G@std@@@2@$00@std@@QEAAAEAV?$allocator@G@2@XZ DD 025030f01H
	DD	0b20a230fH
	DD	05006H
xdata	ENDS
;	COMDAT xdata
xdata	SEGMENT
$unwind$??0?$_Vector_val@U?$_Simple_types@G@std@@@std@@QEAA@XZ DD 025030f01H
	DD	0b20a230fH
	DD	05006H
xdata	ENDS
;	COMDAT xdata
xdata	SEGMENT
$unwind$?_Getal@?$vector@GV?$allocator@G@std@@@std@@AEBAAEBV?$allocator@G@2@XZ DD 025030f01H
	DD	0b20a230fH
	DD	05006H
xdata	ENDS
;	COMDAT xdata
xdata	SEGMENT
$unwind$?_Getal@?$vector@GV?$allocator@G@std@@@std@@AEAAAEAV?$allocator@G@2@XZ DD 025030f01H
	DD	0b20a230fH
	DD	05006H
xdata	ENDS
;	COMDAT xdata
xdata	SEGMENT
$unwind$?_Xlength@?$vector@GV?$allocator@G@std@@@std@@CAXXZ DD 025030b01H
	DD	0b206230bH
	DD	05002H
xdata	ENDS
;	COMDAT xdata
xdata	SEGMENT
$ip2state$?_Tidy@?$vector@GV?$allocator@G@std@@@std@@AEAAXXZ DB 02H
	DB	00H
	DB	00H
xdata	ENDS
;	COMDAT xdata
xdata	SEGMENT
$cppxdata$?_Tidy@?$vector@GV?$allocator@G@std@@@std@@AEAAXXZ DB 060H
	DD	imagerel $ip2state$?_Tidy@?$vector@GV?$allocator@G@std@@@std@@AEAAXXZ
xdata	ENDS
;	COMDAT xdata
xdata	SEGMENT
$unwind$?_Tidy@?$vector@GV?$allocator@G@std@@@std@@AEAAXXZ DD 025041219H
	DD	010d2312H
	DD	050060012H
	DD	imagerel __CxxFrameHandler4
	DD	imagerel $cppxdata$?_Tidy@?$vector@GV?$allocator@G@std@@@std@@AEAAXXZ
xdata	ENDS
;	COMDAT xdata
xdata	SEGMENT
$unwind$?_Buy_nonzero@?$vector@GV?$allocator@G@std@@@std@@AEAAX_K@Z DD 025031401H
	DD	0b20f2314H
	DD	0500bH
xdata	ENDS
;	COMDAT xdata
xdata	SEGMENT
$unwind$?_Buy_raw@?$vector@GV?$allocator@G@std@@@std@@AEAAX_K@Z DD 025041701H
	DD	01122317H
	DD	0500b0012H
xdata	ENDS
;	COMDAT xdata
xdata	SEGMENT
$unwind$?max_size@?$vector@GV?$allocator@G@std@@@std@@QEBA_KXZ DD 025030f01H
	DD	0d20a230fH
	DD	05006H
xdata	ENDS
;	COMDAT xdata
xdata	SEGMENT
$unwind$?size@?$vector@GV?$allocator@G@std@@@std@@QEBA_KXZ DD 025030f01H
	DD	0d20a230fH
	DD	05006H
xdata	ENDS
;	COMDAT xdata
xdata	SEGMENT
$unwind$?data@?$vector@GV?$allocator@G@std@@@std@@QEAAPEAGXZ DD 025030f01H
	DD	0b20a230fH
	DD	05006H
xdata	ENDS
;	COMDAT xdata
xdata	SEGMENT
$unwind$??1?$vector@GV?$allocator@G@std@@@std@@QEAA@XZ DD 025031201H
	DD	0f20d2312H
	DD	05006H
xdata	ENDS
;	COMDAT xdata
xdata	SEGMENT
$unwind$??0?$vector@GV?$allocator@G@std@@@std@@QEAA@AEBV01@@Z DD 025041701H
	DD	01122317H
	DD	0500b0012H
xdata	ENDS
;	COMDAT xdata
xdata	SEGMENT
$unwind$?select_on_container_copy_construction@?$_Default_allocator_traits@V?$allocator@G@std@@@std@@SA?AV?$allocator@G@2@AEBV32@@Z DD 025031401H
	DD	0b20f2314H
	DD	0500bH
xdata	ENDS
;	COMDAT xdata
xdata	SEGMENT
$unwind$?max_size@?$_Default_allocator_traits@V?$allocator@G@std@@@std@@SA_KAEBV?$allocator@G@2@@Z DD 025030f01H
	DD	0b20a230fH
	DD	05006H
xdata	ENDS
;	COMDAT xdata
xdata	SEGMENT
$unwind$?allocate@?$allocator@G@std@@QEAAPEAG_K@Z DD 025031401H
	DD	0b20f2314H
	DD	0500bH
xdata	ENDS
;	COMDAT xdata
xdata	SEGMENT
$unwind$?deallocate@?$allocator@G@std@@QEAAXQEAG_K@Z DD 035031901H
	DD	0d2143319H
	DD	05010H
xdata	ENDS
;	COMDAT xdata
xdata	SEGMENT
$unwind$?_Get_first@?$_Compressed_pair@V?$allocator@UVertexDefault@@@std@@V?$_Vector_val@U?$_Simple_types@UVertexDefault@@@std@@@2@$00@std@@QEBAAEBV?$allocator@UVertexDefault@@@2@XZ DD 025030f01H
	DD	0b20a230fH
	DD	05006H
xdata	ENDS
;	COMDAT xdata
xdata	SEGMENT
$unwind$?_Get_first@?$_Compressed_pair@V?$allocator@UVertexDefault@@@std@@V?$_Vector_val@U?$_Simple_types@UVertexDefault@@@std@@@2@$00@std@@QEAAAEAV?$allocator@UVertexDefault@@@2@XZ DD 025030f01H
	DD	0b20a230fH
	DD	05006H
xdata	ENDS
;	COMDAT xdata
xdata	SEGMENT
$unwind$??0?$_Vector_val@U?$_Simple_types@UVertexDefault@@@std@@@std@@QEAA@XZ DD 025030f01H
	DD	0b20a230fH
	DD	05006H
xdata	ENDS
;	COMDAT xdata
xdata	SEGMENT
$unwind$?_Getal@?$vector@UVertexDefault@@V?$allocator@UVertexDefault@@@std@@@std@@AEBAAEBV?$allocator@UVertexDefault@@@2@XZ DD 025030f01H
	DD	0b20a230fH
	DD	05006H
xdata	ENDS
;	COMDAT xdata
xdata	SEGMENT
$unwind$?_Getal@?$vector@UVertexDefault@@V?$allocator@UVertexDefault@@@std@@@std@@AEAAAEAV?$allocator@UVertexDefault@@@2@XZ DD 025030f01H
	DD	0b20a230fH
	DD	05006H
xdata	ENDS
;	COMDAT xdata
xdata	SEGMENT
$unwind$?_Xlength@?$vector@UVertexDefault@@V?$allocator@UVertexDefault@@@std@@@std@@CAXXZ DD 025030b01H
	DD	0b206230bH
	DD	05002H
xdata	ENDS
;	COMDAT xdata
xdata	SEGMENT
$ip2state$?_Tidy@?$vector@UVertexDefault@@V?$allocator@UVertexDefault@@@std@@@std@@AEAAXXZ DB 02H
	DB	00H
	DB	00H
xdata	ENDS
;	COMDAT xdata
xdata	SEGMENT
$cppxdata$?_Tidy@?$vector@UVertexDefault@@V?$allocator@UVertexDefault@@@std@@@std@@AEAAXXZ DB 060H
	DD	imagerel $ip2state$?_Tidy@?$vector@UVertexDefault@@V?$allocator@UVertexDefault@@@std@@@std@@AEAAXXZ
xdata	ENDS
;	COMDAT xdata
xdata	SEGMENT
$unwind$?_Tidy@?$vector@UVertexDefault@@V?$allocator@UVertexDefault@@@std@@@std@@AEAAXXZ DD 025041219H
	DD	010d2312H
	DD	050060012H
	DD	imagerel __CxxFrameHandler4
	DD	imagerel $cppxdata$?_Tidy@?$vector@UVertexDefault@@V?$allocator@UVertexDefault@@@std@@@std@@AEAAXXZ
xdata	ENDS
;	COMDAT xdata
xdata	SEGMENT
$unwind$?_Buy_nonzero@?$vector@UVertexDefault@@V?$allocator@UVertexDefault@@@std@@@std@@AEAAX_K@Z DD 025031401H
	DD	0b20f2314H
	DD	0500bH
xdata	ENDS
;	COMDAT xdata
xdata	SEGMENT
$unwind$?_Buy_raw@?$vector@UVertexDefault@@V?$allocator@UVertexDefault@@@std@@@std@@AEAAX_K@Z DD 025041701H
	DD	01122317H
	DD	0500b0012H
xdata	ENDS
;	COMDAT xdata
xdata	SEGMENT
$unwind$?max_size@?$vector@UVertexDefault@@V?$allocator@UVertexDefault@@@std@@@std@@QEBA_KXZ DD 025030f01H
	DD	0d20a230fH
	DD	05006H
xdata	ENDS
;	COMDAT xdata
xdata	SEGMENT
$unwind$?size@?$vector@UVertexDefault@@V?$allocator@UVertexDefault@@@std@@@std@@QEBA_KXZ DD 025030f01H
	DD	0d20a230fH
	DD	05006H
xdata	ENDS
;	COMDAT xdata
xdata	SEGMENT
$unwind$?data@?$vector@UVertexDefault@@V?$allocator@UVertexDefault@@@std@@@std@@QEAAPEAUVertexDefault@@XZ DD 025030f01H
	DD	0b20a230fH
	DD	05006H
xdata	ENDS
;	COMDAT xdata
xdata	SEGMENT
$unwind$??1?$vector@UVertexDefault@@V?$allocator@UVertexDefault@@@std@@@std@@QEAA@XZ DD 025031201H
	DD	0f20d2312H
	DD	05006H
xdata	ENDS
;	COMDAT xdata
xdata	SEGMENT
$unwind$??0?$vector@UVertexDefault@@V?$allocator@UVertexDefault@@@std@@@std@@QEAA@AEBV01@@Z DD 025041701H
	DD	01122317H
	DD	0500b0012H
xdata	ENDS
;	COMDAT xdata
xdata	SEGMENT
$unwind$?select_on_container_copy_construction@?$_Default_allocator_traits@V?$allocator@UVertexDefault@@@std@@@std@@SA?AV?$allocator@UVertexDefault@@@2@AEBV32@@Z DD 025031401H
	DD	0b20f2314H
	DD	0500bH
xdata	ENDS
;	COMDAT xdata
xdata	SEGMENT
$unwind$?max_size@?$_Default_allocator_traits@V?$allocator@UVertexDefault@@@std@@@std@@SA_KAEBV?$allocator@UVertexDefault@@@2@@Z DD 025030f01H
	DD	0b20a230fH
	DD	05006H
xdata	ENDS
;	COMDAT xdata
xdata	SEGMENT
$unwind$?allocate@?$allocator@UVertexDefault@@@std@@QEAAPEAUVertexDefault@@_K@Z DD 025031401H
	DD	0b20f2314H
	DD	0500bH
xdata	ENDS
;	COMDAT xdata
xdata	SEGMENT
$unwind$?deallocate@?$allocator@UVertexDefault@@@std@@QEAAXQEAUVertexDefault@@_K@Z DD 035031901H
	DD	0d2143319H
	DD	05010H
xdata	ENDS
;	COMDAT xdata
xdata	SEGMENT
$unwind$??1?$future@X@std@@QEAA@XZ DD 025030f01H
	DD	0b20a230fH
	DD	05006H
xdata	ENDS
;	COMDAT xdata
xdata	SEGMENT
$unwind$?wait@?$_State_manager@H@std@@QEBAXXZ DD 025030f01H
	DD	0b20a230fH
	DD	05006H
xdata	ENDS
;	COMDAT xdata
xdata	SEGMENT
$unwind$?valid@?$_State_manager@H@std@@QEBA_NXZ DD 025030f01H
	DD	0d20a230fH
	DD	05006H
xdata	ENDS
;	COMDAT xdata
xdata	SEGMENT
$unwind$??1?$_State_manager@H@std@@QEAA@XZ DD 025030f01H
	DD	0b20a230fH
	DD	05006H
xdata	ENDS
;	COMDAT xdata
xdata	SEGMENT
$unwind$?_Delete_this@?$_Associated_state@H@std@@AEAAXXZ DD 025031201H
	DD	0f20d2312H
	DD	05006H
xdata	ENDS
;	COMDAT xdata
xdata	SEGMENT
$unwind$?_Already_retrieved@?$_Associated_state@H@std@@QEBA_NXZ DD 025030f01H
	DD	0b20a230fH
	DD	05006H
xdata	ENDS
;	COMDAT voltbl
voltbl	SEGMENT
_volmd	DB	028H
voltbl	ENDS
;	COMDAT xdata
xdata	SEGMENT
$unwind$?_Release@?$_Associated_state@H@std@@QEAAXXZ DD 025030f01H
	DD	0b20a230fH
	DD	05006H
xdata	ENDS
;	COMDAT xdata
xdata	SEGMENT
$unwind$??$_Immortalize_memcpy_image@V_Future_error_category2@std@@@std@@YAAEBV_Future_error_category2@0@XZ DD 025030b01H
	DD	0b206230bH
	DD	05002H
xdata	ENDS
;	COMDAT xdata
xdata	SEGMENT
$unwind$??_G_Future_error_category2@std@@UEAAPEAXI@Z DD 025031301H
	DD	0b20e2313H
	DD	0500aH
xdata	ENDS
;	COMDAT xdata
xdata	SEGMENT
$unwind$??1_Future_error_category2@std@@UEAA@XZ DD 025030f01H
	DD	0b20a230fH
	DD	05006H
xdata	ENDS
;	COMDAT xdata
xdata	SEGMENT
$unwind$?message@_Future_error_category2@std@@UEBA?AV?$basic_string@DU?$char_traits@D@std@@V?$allocator@D@2@@2@H@Z DD 025031901H
	DD	0d2142319H
	DD	05010H
xdata	ENDS
;	COMDAT xdata
xdata	SEGMENT
$unwind$?name@_Future_error_category2@std@@UEBAPEBDXZ DD 025030f01H
	DD	0b20a230fH
	DD	05006H
xdata	ENDS
;	COMDAT xdata
xdata	SEGMENT
$unwind$?_Throw_future_error2@std@@YAXW4future_errc@1@@Z DD 025041101H
	DD	010c2311H
	DD	050050012H
xdata	ENDS
;	COMDAT xdata
xdata	SEGMENT
$unwind$??_Gfuture_error@std@@UEAAPEAXI@Z DD 025031301H
	DD	0b20e2313H
	DD	0500aH
xdata	ENDS
;	COMDAT xdata
xdata	SEGMENT
$unwind$??0future_error@std@@QEAA@AEBV01@@Z DD 025051601H
	DD	0b2112316H
	DD	0600c700dH
	DD	0500bH
xdata	ENDS
;	COMDAT xdata
xdata	SEGMENT
$unwind$??1future_error@std@@UEAA@XZ DD 025030f01H
	DD	0b20a230fH
	DD	05006H
xdata	ENDS
;	COMDAT xdata
xdata	SEGMENT
$unwind$?what@future_error@std@@UEBAPEBDXZ DD 025030f01H
	DD	0b20a230fH
	DD	05006H
xdata	ENDS
;	COMDAT xdata
xdata	SEGMENT
$unwind$??0future_error@std@@QEAA@W4future_errc@1@@Z DD 025031301H
	DD	0b20e2313H
	DD	0500aH
xdata	ENDS
;	COMDAT xdata
xdata	SEGMENT
$unwind$?_Future_error_map@std@@YAPEBDH@Z DD 025030e01H
	DD	0d209230eH
	DD	05005H
xdata	ENDS
;	COMDAT xdata
xdata	SEGMENT
$unwind$?make_error_code@std@@YA?AVerror_code@1@W4future_errc@1@@Z DD 025031301H
	DD	0b20e2313H
	DD	0500aH
xdata	ENDS
;	COMDAT xdata
xdata	SEGMENT
$unwind$?future_category@std@@YAAEBVerror_category@1@XZ DD 025030b01H
	DD	0b206230bH
	DD	05002H
xdata	ENDS
;	COMDAT xdata
xdata	SEGMENT
$unwind$??8std@@YA_NAEBVerror_condition@0@0@Z DD 025031701H
	DD	0f2122317H
	DD	0500bH
xdata	ENDS
;	COMDAT xdata
xdata	SEGMENT
$unwind$?category@error_condition@std@@QEBAAEBVerror_category@2@XZ DD 025030f01H
	DD	0b20a230fH
	DD	05006H
xdata	ENDS
;	COMDAT xdata
xdata	SEGMENT
$unwind$?value@error_condition@std@@QEBAHXZ DD 025030f01H
	DD	0b20a230fH
	DD	05006H
xdata	ENDS
;	COMDAT xdata
xdata	SEGMENT
$unwind$??0error_condition@std@@QEAA@HAEBVerror_category@1@@Z DD 025031801H
	DD	0b2132318H
	DD	0500fH
xdata	ENDS
;	COMDAT xdata
xdata	SEGMENT
$unwind$?category@error_code@std@@QEBAAEBVerror_category@2@XZ DD 025030f01H
	DD	0b20a230fH
	DD	05006H
xdata	ENDS
;	COMDAT xdata
xdata	SEGMENT
$unwind$?value@error_code@std@@QEBAHXZ DD 025030f01H
	DD	0b20a230fH
	DD	05006H
xdata	ENDS
;	COMDAT xdata
xdata	SEGMENT
$unwind$??0error_code@std@@QEAA@HAEBVerror_category@1@@Z DD 025031801H
	DD	0b2132318H
	DD	0500fH
xdata	ENDS
;	COMDAT xdata
xdata	SEGMENT
$unwind$??$_Bit_cast@_KT_Addr_storage@error_category@std@@$0A@@std@@YA_KAEBT_Addr_storage@error_category@0@@Z DD 025030f01H
	DD	0d20a230fH
	DD	05006H
xdata	ENDS
;	COMDAT xdata
xdata	SEGMENT
$unwind$??8error_category@std@@QEBA_NAEBV01@@Z DD 025031401H
	DD	0d20f2314H
	DD	0500bH
xdata	ENDS
;	COMDAT xdata
xdata	SEGMENT
$unwind$?equivalent@error_category@std@@UEBA_NAEBVerror_code@2@H@Z DD 025031901H
	DD	0d2142319H
	DD	05010H
xdata	ENDS
;	COMDAT xdata
xdata	SEGMENT
$unwind$?equivalent@error_category@std@@UEBA_NHAEBVerror_condition@2@@Z DD 025031b01H
	DD	0f216231bH
	DD	0500fH
xdata	ENDS
;	COMDAT xdata
xdata	SEGMENT
$unwind$?default_error_condition@error_category@std@@UEBA?AVerror_condition@2@H@Z DD 025031901H
	DD	0b2142319H
	DD	05010H
xdata	ENDS
;	COMDAT xdata
xdata	SEGMENT
$unwind$??1error_category@std@@UEAA@XZ DD 025030f01H
	DD	0b20a230fH
	DD	05006H
xdata	ENDS
;	COMDAT xdata
xdata	SEGMENT
$unwind$??_Glogic_error@std@@UEAAPEAXI@Z DD 025031301H
	DD	0b20e2313H
	DD	0500aH
xdata	ENDS
;	COMDAT xdata
xdata	SEGMENT
$unwind$??0logic_error@std@@QEAA@AEBV01@@Z DD 025031401H
	DD	0b20f2314H
	DD	0500bH
xdata	ENDS
;	COMDAT xdata
xdata	SEGMENT
$unwind$??1logic_error@std@@UEAA@XZ DD 025030f01H
	DD	0b20a230fH
	DD	05006H
xdata	ENDS
;	COMDAT xdata
xdata	SEGMENT
$unwind$??0logic_error@std@@QEAA@PEBD@Z DD 025031401H
	DD	0b20f2314H
	DD	0500bH
xdata	ENDS
;	COMDAT xdata
xdata	SEGMENT
$unwind$?dtor$3@?0??Init@D3D12Mesh@@QEAAXV?$vector@UVertexDefault@@V?$allocator@UVertexDefault@@@std@@@std@@V?$vector@GV?$allocator@G@std@@@3@@Z@4HA DD 020601H
	DD	050023206H
xdata	ENDS
;	COMDAT xdata
xdata	SEGMENT
$unwind$?dtor$2@?0??Init@D3D12Mesh@@QEAAXV?$vector@UVertexDefault@@V?$allocator@UVertexDefault@@@std@@@std@@V?$vector@GV?$allocator@G@std@@@3@@Z@4HA DD 020601H
	DD	050023206H
xdata	ENDS
;	COMDAT xdata
xdata	SEGMENT
$unwind$?dtor$1@?0??Init@D3D12Mesh@@QEAAXV?$vector@UVertexDefault@@V?$allocator@UVertexDefault@@@std@@@std@@V?$vector@GV?$allocator@G@std@@@3@@Z@4HA DD 020601H
	DD	050023206H
xdata	ENDS
;	COMDAT xdata
xdata	SEGMENT
$unwind$?dtor$0@?0??Init@D3D12Mesh@@QEAAXV?$vector@UVertexDefault@@V?$allocator@UVertexDefault@@@std@@@std@@V?$vector@GV?$allocator@G@std@@@3@@Z@4HA DD 020601H
	DD	050023206H
xdata	ENDS
;	COMDAT xdata
xdata	SEGMENT
$ip2state$?Init@D3D12Mesh@@QEAAXV?$vector@UVertexDefault@@V?$allocator@UVertexDefault@@@std@@@std@@V?$vector@GV?$allocator@G@std@@@3@@Z DB 010H
	DB	00H
	DB	00H
	DB	'8'
	DB	04H
	DB	'@'
	DB	06H
	DB	0c9H, 03H
	DB	08H
	DB	014H
	DB	06H
	DB	099H, 02H
	DB	04H
	DB	014H
	DB	02H
	DB	01aH
	DB	00H
xdata	ENDS
;	COMDAT xdata
xdata	SEGMENT
$stateUnwindMap$?Init@D3D12Mesh@@QEAAXV?$vector@UVertexDefault@@V?$allocator@UVertexDefault@@@std@@@std@@V?$vector@GV?$allocator@G@std@@@3@@Z DB 08H
	DB	0eH
	DD	imagerel ?dtor$0@?0??Init@D3D12Mesh@@QEAAXV?$vector@UVertexDefault@@V?$allocator@UVertexDefault@@@std@@@std@@V?$vector@GV?$allocator@G@std@@@3@@Z@4HA
	DB	02eH
	DD	imagerel ?dtor$1@?0??Init@D3D12Mesh@@QEAAXV?$vector@UVertexDefault@@V?$allocator@UVertexDefault@@@std@@@std@@V?$vector@GV?$allocator@G@std@@@3@@Z@4HA
	DB	02eH
	DD	imagerel ?dtor$2@?0??Init@D3D12Mesh@@QEAAXV?$vector@UVertexDefault@@V?$allocator@UVertexDefault@@@std@@@std@@V?$vector@GV?$allocator@G@std@@@3@@Z@4HA
	DB	02eH
	DD	imagerel ?dtor$3@?0??Init@D3D12Mesh@@QEAAXV?$vector@UVertexDefault@@V?$allocator@UVertexDefault@@@std@@@std@@V?$vector@GV?$allocator@G@std@@@3@@Z@4HA
xdata	ENDS
;	COMDAT xdata
xdata	SEGMENT
$cppxdata$?Init@D3D12Mesh@@QEAAXV?$vector@UVertexDefault@@V?$allocator@UVertexDefault@@@std@@@std@@V?$vector@GV?$allocator@G@std@@@3@@Z DB 028H
	DD	imagerel $stateUnwindMap$?Init@D3D12Mesh@@QEAAXV?$vector@UVertexDefault@@V?$allocator@UVertexDefault@@@std@@@std@@V?$vector@GV?$allocator@G@std@@@3@@Z
	DD	imagerel $ip2state$?Init@D3D12Mesh@@QEAAXV?$vector@UVertexDefault@@V?$allocator@UVertexDefault@@@std@@@std@@V?$vector@GV?$allocator@G@std@@@3@@Z
xdata	ENDS
;	COMDAT xdata
xdata	SEGMENT
$unwind$?Init@D3D12Mesh@@QEAAXV?$vector@UVertexDefault@@V?$allocator@UVertexDefault@@@std@@@std@@V?$vector@GV?$allocator@G@std@@@3@@Z DD 045041c11H
	DD	0117431cH
	DD	050100018H
	DD	imagerel __CxxFrameHandler4
	DD	imagerel $cppxdata$?Init@D3D12Mesh@@QEAAXV?$vector@UVertexDefault@@V?$allocator@UVertexDefault@@@std@@@std@@V?$vector@GV?$allocator@G@std@@@3@@Z
xdata	ENDS
;	COMDAT xdata
xdata	SEGMENT
$unwind$?dtor$3@?0???0D3D12Mesh@@QEAA@V?$vector@UVertexDefault@@V?$allocator@UVertexDefault@@@std@@@std@@V?$vector@GV?$allocator@G@std@@@2@@Z@4HA DD 020601H
	DD	050023206H
xdata	ENDS
;	COMDAT xdata
xdata	SEGMENT
$unwind$?dtor$2@?0???0D3D12Mesh@@QEAA@V?$vector@UVertexDefault@@V?$allocator@UVertexDefault@@@std@@@std@@V?$vector@GV?$allocator@G@std@@@2@@Z@4HA DD 020601H
	DD	050023206H
xdata	ENDS
;	COMDAT xdata
xdata	SEGMENT
$unwind$?dtor$1@?0???0D3D12Mesh@@QEAA@V?$vector@UVertexDefault@@V?$allocator@UVertexDefault@@@std@@@std@@V?$vector@GV?$allocator@G@std@@@2@@Z@4HA DD 020601H
	DD	050023206H
xdata	ENDS
;	COMDAT xdata
xdata	SEGMENT
$unwind$?dtor$0@?0???0D3D12Mesh@@QEAA@V?$vector@UVertexDefault@@V?$allocator@UVertexDefault@@@std@@@std@@V?$vector@GV?$allocator@G@std@@@2@@Z@4HA DD 020601H
	DD	050023206H
xdata	ENDS
;	COMDAT xdata
xdata	SEGMENT
$ip2state$??0D3D12Mesh@@QEAA@V?$vector@UVertexDefault@@V?$allocator@UVertexDefault@@@std@@@std@@V?$vector@GV?$allocator@G@std@@@2@@Z DB 0eH
	DB	00H
	DB	00H
	DB	'8'
	DB	04H
	DB	'@'
	DB	06H
	DB	'x'
	DB	08H
	DB	082H
	DB	06H
	DB	'6'
	DB	02H
	DB	01aH
	DB	00H
xdata	ENDS
;	COMDAT xdata
xdata	SEGMENT
$stateUnwindMap$??0D3D12Mesh@@QEAA@V?$vector@UVertexDefault@@V?$allocator@UVertexDefault@@@std@@@std@@V?$vector@GV?$allocator@G@std@@@2@@Z DB 08H
	DB	0eH
	DD	imagerel ?dtor$0@?0???0D3D12Mesh@@QEAA@V?$vector@UVertexDefault@@V?$allocator@UVertexDefault@@@std@@@std@@V?$vector@GV?$allocator@G@std@@@2@@Z@4HA
	DB	02eH
	DD	imagerel ?dtor$1@?0???0D3D12Mesh@@QEAA@V?$vector@UVertexDefault@@V?$allocator@UVertexDefault@@@std@@@std@@V?$vector@GV?$allocator@G@std@@@2@@Z@4HA
	DB	02eH
	DD	imagerel ?dtor$2@?0???0D3D12Mesh@@QEAA@V?$vector@UVertexDefault@@V?$allocator@UVertexDefault@@@std@@@std@@V?$vector@GV?$allocator@G@std@@@2@@Z@4HA
	DB	02eH
	DD	imagerel ?dtor$3@?0???0D3D12Mesh@@QEAA@V?$vector@UVertexDefault@@V?$allocator@UVertexDefault@@@std@@@std@@V?$vector@GV?$allocator@G@std@@@2@@Z@4HA
xdata	ENDS
;	COMDAT xdata
xdata	SEGMENT
$cppxdata$??0D3D12Mesh@@QEAA@V?$vector@UVertexDefault@@V?$allocator@UVertexDefault@@@std@@@std@@V?$vector@GV?$allocator@G@std@@@2@@Z DB 028H
	DD	imagerel $stateUnwindMap$??0D3D12Mesh@@QEAA@V?$vector@UVertexDefault@@V?$allocator@UVertexDefault@@@std@@@std@@V?$vector@GV?$allocator@G@std@@@2@@Z
	DD	imagerel $ip2state$??0D3D12Mesh@@QEAA@V?$vector@UVertexDefault@@V?$allocator@UVertexDefault@@@std@@@std@@V?$vector@GV?$allocator@G@std@@@2@@Z
xdata	ENDS
;	COMDAT xdata
xdata	SEGMENT
$unwind$??0D3D12Mesh@@QEAA@V?$vector@UVertexDefault@@V?$allocator@UVertexDefault@@@std@@@std@@V?$vector@GV?$allocator@G@std@@@2@@Z DD 025041c11H
	DD	0117231cH
	DD	05010001cH
	DD	imagerel __CxxFrameHandler4
	DD	imagerel $cppxdata$??0D3D12Mesh@@QEAA@V?$vector@UVertexDefault@@V?$allocator@UVertexDefault@@@std@@@std@@V?$vector@GV?$allocator@G@std@@@2@@Z
xdata	ENDS
;	COMDAT xdata
xdata	SEGMENT
$unwind$?dtor$0@?0???0D3D12Mesh@@QEAA@XZ@4HA DD 020601H
	DD	050023206H
xdata	ENDS
;	COMDAT xdata
xdata	SEGMENT
$ip2state$??0D3D12Mesh@@QEAA@XZ DB 06H
	DB	00H
	DB	00H
	DB	'X'
	DB	02H
	DB	018H
	DB	00H
xdata	ENDS
;	COMDAT xdata
xdata	SEGMENT
$stateUnwindMap$??0D3D12Mesh@@QEAA@XZ DB 02H
	DB	0eH
	DD	imagerel ?dtor$0@?0???0D3D12Mesh@@QEAA@XZ@4HA
xdata	ENDS
;	COMDAT xdata
xdata	SEGMENT
$cppxdata$??0D3D12Mesh@@QEAA@XZ DB 028H
	DD	imagerel $stateUnwindMap$??0D3D12Mesh@@QEAA@XZ
	DD	imagerel $ip2state$??0D3D12Mesh@@QEAA@XZ
xdata	ENDS
;	COMDAT xdata
xdata	SEGMENT
$unwind$??0D3D12Mesh@@QEAA@XZ DD 025030f11H
	DD	0b20a230fH
	DD	05006H
	DD	imagerel __CxxFrameHandler4
	DD	imagerel $cppxdata$??0D3D12Mesh@@QEAA@XZ
xdata	ENDS
;	COMDAT xdata
xdata	SEGMENT
$ip2state$??_E?$ComPtr@UIUnknown@@@WRL@Microsoft@@QEAAPEAXI@Z DB 02H
	DB	00H
	DB	00H
xdata	ENDS
;	COMDAT xdata
xdata	SEGMENT
$cppxdata$??_E?$ComPtr@UIUnknown@@@WRL@Microsoft@@QEAAPEAXI@Z DB 060H
	DD	imagerel $ip2state$??_E?$ComPtr@UIUnknown@@@WRL@Microsoft@@QEAAPEAXI@Z
xdata	ENDS
;	COMDAT xdata
xdata	SEGMENT
$unwind$??_E?$ComPtr@UIUnknown@@@WRL@Microsoft@@QEAAPEAXI@Z DD 025031319H
	DD	0b20e2313H
	DD	0500aH
	DD	imagerel __CxxFrameHandler4
	DD	imagerel $cppxdata$??_E?$ComPtr@UIUnknown@@@WRL@Microsoft@@QEAAPEAXI@Z
xdata	ENDS
;	COMDAT xdata
xdata	SEGMENT
$unwind$??1?$ComPtr@UIUnknown@@@WRL@Microsoft@@QEAA@XZ DD 025030f01H
	DD	0b20a230fH
	DD	05006H
xdata	ENDS
;	COMDAT xdata
xdata	SEGMENT
$ip2state$?InternalRelease@?$ComPtr@UIUnknown@@@WRL@Microsoft@@IEAAKXZ DB 02H
	DB	00H
	DB	00H
xdata	ENDS
;	COMDAT xdata
xdata	SEGMENT
$cppxdata$?InternalRelease@?$ComPtr@UIUnknown@@@WRL@Microsoft@@IEAAKXZ DB 060H
	DD	imagerel $ip2state$?InternalRelease@?$ComPtr@UIUnknown@@@WRL@Microsoft@@IEAAKXZ
xdata	ENDS
;	COMDAT xdata
xdata	SEGMENT
$unwind$?InternalRelease@?$ComPtr@UIUnknown@@@WRL@Microsoft@@IEAAKXZ DD 025030f19H
	DD	0d20a230fH
	DD	05006H
	DD	imagerel __CxxFrameHandler4
	DD	imagerel $cppxdata$?InternalRelease@?$ComPtr@UIUnknown@@@WRL@Microsoft@@IEAAKXZ
xdata	ENDS
;	COMDAT xdata
xdata	SEGMENT
$unwind$??1?$_Compressed_pair@V?$allocator@D@std@@V?$_String_val@U?$_Simple_types@D@std@@@2@$00@std@@QEAA@XZ DD 025030f01H
	DD	0b20a230fH
	DD	05006H
xdata	ENDS
;	COMDAT xdata
xdata	SEGMENT
$unwind$?_Get_first@?$_Compressed_pair@V?$allocator@D@std@@V?$_String_val@U?$_Simple_types@D@std@@@2@$00@std@@QEBAAEBV?$allocator@D@2@XZ DD 025030f01H
	DD	0b20a230fH
	DD	05006H
xdata	ENDS
;	COMDAT xdata
xdata	SEGMENT
$unwind$?_Get_first@?$_Compressed_pair@V?$allocator@D@std@@V?$_String_val@U?$_Simple_types@D@std@@@2@$00@std@@QEAAAEAV?$allocator@D@2@XZ DD 025030f01H
	DD	0b20a230fH
	DD	05006H
xdata	ENDS
;	COMDAT xdata
xdata	SEGMENT
$unwind$?_Getal@?$basic_string@DU?$char_traits@D@std@@V?$allocator@D@2@@std@@AEBAAEBV?$allocator@D@2@XZ DD 025030f01H
	DD	0b20a230fH
	DD	05006H
xdata	ENDS
;	COMDAT xdata
xdata	SEGMENT
$unwind$?_Getal@?$basic_string@DU?$char_traits@D@std@@V?$allocator@D@2@@std@@AEAAAEAV?$allocator@D@2@XZ DD 025030f01H
	DD	0b20a230fH
	DD	05006H
xdata	ENDS
;	COMDAT xdata
xdata	SEGMENT
$ip2state$?_Tidy_deallocate@?$basic_string@DU?$char_traits@D@std@@V?$allocator@D@2@@std@@AEAAXXZ DB 02H
	DB	00H
	DB	00H
xdata	ENDS
;	COMDAT xdata
xdata	SEGMENT
$cppxdata$?_Tidy_deallocate@?$basic_string@DU?$char_traits@D@std@@V?$allocator@D@2@@std@@AEAAXXZ DB 060H
	DD	imagerel $ip2state$?_Tidy_deallocate@?$basic_string@DU?$char_traits@D@std@@V?$allocator@D@2@@std@@AEAAXXZ
xdata	ENDS
;	COMDAT xdata
xdata	SEGMENT
$unwind$?_Tidy_deallocate@?$basic_string@DU?$char_traits@D@std@@V?$allocator@D@2@@std@@AEAAXXZ DD 025031219H
	DD	0f20d2312H
	DD	05006H
	DD	imagerel __CxxFrameHandler4
	DD	imagerel $cppxdata$?_Tidy_deallocate@?$basic_string@DU?$char_traits@D@std@@V?$allocator@D@2@@std@@AEAAXXZ
xdata	ENDS
;	COMDAT xdata
xdata	SEGMENT
$unwind$?_Tidy_init@?$basic_string@DU?$char_traits@D@std@@V?$allocator@D@2@@std@@AEAAXXZ DD 025030f01H
	DD	0d20a230fH
	DD	05006H
xdata	ENDS
;	COMDAT xdata
xdata	SEGMENT
$unwind$?_Calculate_growth@?$basic_string@DU?$char_traits@D@std@@V?$allocator@D@2@@std@@AEBA_K_K@Z DD 025031401H
	DD	0d20f2314H
	DD	0500bH
xdata	ENDS
;	COMDAT xdata
xdata	SEGMENT
$unwind$?_Calculate_growth@?$basic_string@DU?$char_traits@D@std@@V?$allocator@D@2@@std@@CA_K_K00@Z DD 025031901H
	DD	0d2142319H
	DD	05010H
xdata	ENDS
;	COMDAT xdata
xdata	SEGMENT
$unwind$?max_size@?$basic_string@DU?$char_traits@D@std@@V?$allocator@D@2@@std@@QEBA_KXZ DD 025041201H
	DD	010d2312H
	DD	050060012H
xdata	ENDS
;	COMDAT xdata
xdata	SEGMENT
$unwind$??1?$basic_string@DU?$char_traits@D@std@@V?$allocator@D@2@@std@@QEAA@XZ DD 025031201H
	DD	0f20d2312H
	DD	05006H
xdata	ENDS
;	COMDAT xdata
xdata	SEGMENT
$unwind$?_Start_element_lifetimes@?$basic_string@DU?$char_traits@D@std@@V?$allocator@D@2@@std@@CAXQEAD_K@Z DD 025031401H
	DD	0d20f2314H
	DD	0500bH
xdata	ENDS
;	COMDAT xdata
xdata	SEGMENT
$unwind$?dtor$0@?0???0?$basic_string@DU?$char_traits@D@std@@V?$allocator@D@2@@std@@QEAA@QEBD@Z@4HA DD 020601H
	DD	050023206H
xdata	ENDS
;	COMDAT xdata
xdata	SEGMENT
$ip2state$??0?$basic_string@DU?$char_traits@D@std@@V?$allocator@D@2@@std@@QEAA@QEBD@Z DB 06H
	DB	00H
	DB	00H
	DB	'l'
	DB	02H
	DB	'D'
	DB	00H
xdata	ENDS
;	COMDAT xdata
xdata	SEGMENT
$stateUnwindMap$??0?$basic_string@DU?$char_traits@D@std@@V?$allocator@D@2@@std@@QEAA@QEBD@Z DB 02H
	DB	0eH
	DD	imagerel ?dtor$0@?0???0?$basic_string@DU?$char_traits@D@std@@V?$allocator@D@2@@std@@QEAA@QEBD@Z@4HA
xdata	ENDS
;	COMDAT xdata
xdata	SEGMENT
$cppxdata$??0?$basic_string@DU?$char_traits@D@std@@V?$allocator@D@2@@std@@QEAA@QEBD@Z DB 028H
	DD	imagerel $stateUnwindMap$??0?$basic_string@DU?$char_traits@D@std@@V?$allocator@D@2@@std@@QEAA@QEBD@Z
	DD	imagerel $ip2state$??0?$basic_string@DU?$char_traits@D@std@@V?$allocator@D@2@@std@@QEAA@QEBD@Z
xdata	ENDS
;	COMDAT xdata
xdata	SEGMENT
$unwind$??0?$basic_string@DU?$char_traits@D@std@@V?$allocator@D@2@@std@@QEAA@QEBD@Z DD 025031411H
	DD	0d20f2314H
	DD	0500bH
	DD	imagerel __CxxFrameHandler4
	DD	imagerel $cppxdata$??0?$basic_string@DU?$char_traits@D@std@@V?$allocator@D@2@@std@@QEAA@QEBD@Z
xdata	ENDS
;	COMDAT xdata
xdata	SEGMENT
$ip2state$??0?$basic_string@DU?$char_traits@D@std@@V?$allocator@D@2@@std@@QEAA@XZ DB 02H
	DB	00H
	DB	00H
xdata	ENDS
;	COMDAT xdata
xdata	SEGMENT
$cppxdata$??0?$basic_string@DU?$char_traits@D@std@@V?$allocator@D@2@@std@@QEAA@XZ DB 060H
	DD	imagerel $ip2state$??0?$basic_string@DU?$char_traits@D@std@@V?$allocator@D@2@@std@@QEAA@XZ
xdata	ENDS
;	COMDAT xdata
xdata	SEGMENT
$unwind$??0?$basic_string@DU?$char_traits@D@std@@V?$allocator@D@2@@std@@QEAA@XZ DD 025030f19H
	DD	0d20a230fH
	DD	05006H
	DD	imagerel __CxxFrameHandler4
	DD	imagerel $cppxdata$??0?$basic_string@DU?$char_traits@D@std@@V?$allocator@D@2@@std@@QEAA@XZ
xdata	ENDS
;	COMDAT xdata
xdata	SEGMENT
$unwind$??1?$_String_val@U?$_Simple_types@D@std@@@std@@QEAA@XZ DD 025030f01H
	DD	0b20a230fH
	DD	05006H
xdata	ENDS
;	COMDAT xdata
xdata	SEGMENT
$unwind$??1_Bxty@?$_String_val@U?$_Simple_types@D@std@@@std@@QEAA@XZ DD 025030f01H
	DD	0b20a230fH
	DD	05006H
xdata	ENDS
;	COMDAT xdata
xdata	SEGMENT
$unwind$??0_Bxty@?$_String_val@U?$_Simple_types@D@std@@@std@@QEAA@XZ DD 025041001H
	DD	0c20b2310H
	DD	050067007H
xdata	ENDS
;	COMDAT xdata
xdata	SEGMENT
$unwind$?_Activate_SSO_buffer@?$_String_val@U?$_Simple_types@D@std@@@std@@QEAAXXZ DD 025030f01H
	DD	0d20a230fH
	DD	05006H
xdata	ENDS
;	COMDAT xdata
xdata	SEGMENT
$unwind$?_Large_string_engaged@?$_String_val@U?$_Simple_types@D@std@@@std@@QEBA_NXZ DD 025030f01H
	DD	0d20a230fH
	DD	05006H
xdata	ENDS
;	COMDAT xdata
xdata	SEGMENT
$unwind$??0?$_String_val@U?$_Simple_types@D@std@@@std@@QEAA@XZ DD 025030f01H
	DD	0b20a230fH
	DD	05006H
xdata	ENDS
;	COMDAT xdata
xdata	SEGMENT
$unwind$?max_size@?$_Default_allocator_traits@V?$allocator@D@std@@@std@@SA_KAEBV?$allocator@D@2@@Z DD 025030f01H
	DD	0b20a230fH
	DD	05006H
xdata	ENDS
;	COMDAT xdata
xdata	SEGMENT
$unwind$?allocate@?$allocator@D@std@@QEAAPEAD_K@Z DD 025031401H
	DD	0b20f2314H
	DD	0500bH
xdata	ENDS
;	COMDAT xdata
xdata	SEGMENT
$unwind$?deallocate@?$allocator@D@std@@QEAAXQEAD_K@Z DD 035031901H
	DD	0d2143319H
	DD	05010H
xdata	ENDS
;	COMDAT xdata
xdata	SEGMENT
$unwind$??0?$allocator@D@std@@QEAA@XZ DD 025030f01H
	DD	0b20a230fH
	DD	05006H
xdata	ENDS
;	COMDAT xdata
xdata	SEGMENT
$unwind$?_Xlen_string@std@@YAXXZ DD 025030b01H
	DD	0b206230bH
	DD	05002H
xdata	ENDS
;	COMDAT xdata
xdata	SEGMENT
$unwind$?assign@?$_Narrow_char_traits@DH@std@@SAXAEADAEBD@Z DD 025031401H
	DD	0b20f2314H
	DD	0500bH
xdata	ENDS
;	COMDAT xdata
xdata	SEGMENT
$unwind$?length@?$_Narrow_char_traits@DH@std@@SA_KQEBD@Z DD 025030f01H
	DD	0d20a230fH
	DD	05006H
xdata	ENDS
;	COMDAT xdata
xdata	SEGMENT
$unwind$?assign@?$_Char_traits@DH@std@@SAXAEADAEBD@Z DD 025031401H
	DD	0b20f2314H
	DD	0500bH
xdata	ENDS
;	COMDAT xdata
xdata	SEGMENT
$unwind$?copy@?$_Char_traits@DH@std@@SAPEADQEADQEBD_K@Z DD 025031901H
	DD	0d2142319H
	DD	05010H
xdata	ENDS
;	COMDAT xdata
xdata	SEGMENT
$unwind$??$_Construct_in_place@U_Container_proxy@std@@PEAU_Container_base12@2@@std@@YAXAEAU_Container_proxy@0@$$QEAPEAU_Container_base12@0@@Z DD 025031401H
	DD	0d20f2314H
	DD	0500bH
xdata	ENDS
;	COMDAT xdata
xdata	SEGMENT
$unwind$??$addressof@U_Container_base12@std@@@std@@YAPEAU_Container_base12@0@AEAU10@@Z DD 025030f01H
	DD	0b20a230fH
	DD	05006H
xdata	ENDS
;	COMDAT xdata
xdata	SEGMENT
$unwind$??0_Basic_container_proxy_ptr12@std@@IEAA@XZ DD 025030f01H
	DD	0b20a230fH
	DD	05006H
xdata	ENDS
;	COMDAT xdata
xdata	SEGMENT
$unwind$?_Release@_Basic_container_proxy_ptr12@std@@QEAAXXZ DD 025030f01H
	DD	0b20a230fH
	DD	05006H
xdata	ENDS
;	COMDAT xdata
xdata	SEGMENT
$unwind$??$exchange@PEAU_Iterator_base12@std@@$$T@std@@YAPEAU_Iterator_base12@0@AEAPEAU10@$$QEA$$T@Z DD 025031401H
	DD	0d20f2314H
	DD	0500bH
xdata	ENDS
;	COMDAT xdata
xdata	SEGMENT
$unwind$?_Orphan_all_locked_v3@_Container_base12@std@@AEAAXXZ DD 025030f01H
	DD	0d20a230fH
	DD	05006H
xdata	ENDS
;	COMDAT xdata
xdata	SEGMENT
$unwind$?_Orphan_all_unlocked_v3@_Container_base12@std@@AEAAXXZ DD 025030f01H
	DD	0d20a230fH
	DD	05006H
xdata	ENDS
;	COMDAT xdata
xdata	SEGMENT
$unwind$?_Orphan_all@_Container_base12@std@@QEAAXXZ DD 025030f01H
	DD	0b20a230fH
	DD	05006H
xdata	ENDS
;	COMDAT xdata
xdata	SEGMENT
$unwind$??0_Container_base12@std@@QEAA@XZ DD 025030f01H
	DD	0b20a230fH
	DD	05006H
xdata	ENDS
;	COMDAT xdata
xdata	SEGMENT
$unwind$??0_Container_proxy@std@@QEAA@PEAU_Container_base12@1@@Z DD 025031401H
	DD	0b20f2314H
	DD	0500bH
xdata	ENDS
;	COMDAT xdata
xdata	SEGMENT
$unwind$?_Adjust_manually_vector_aligned@std@@YAXAEAPEAXAEA_K@Z DD 035041701H
	DD	01123317H
	DD	0500b0012H
xdata	ENDS
;	COMDAT xdata
xdata	SEGMENT
$unwind$?_Allocate@_Default_allocate_traits@std@@SAPEAX_K@Z DD 025030f01H
	DD	0b20a230fH
	DD	05006H
xdata	ENDS
;	COMDAT xdata
xdata	SEGMENT
$unwind$?_Throw_bad_array_new_length@std@@YAXXZ DD 025030e01H
	DD	0f209230eH
	DD	05002H
xdata	ENDS
;	COMDAT xdata
xdata	SEGMENT
$unwind$??_Gbad_array_new_length@std@@UEAAPEAXI@Z DD 025031301H
	DD	0b20e2313H
	DD	0500aH
xdata	ENDS
;	COMDAT xdata
xdata	SEGMENT
$unwind$??0bad_array_new_length@std@@QEAA@AEBV01@@Z DD 025031401H
	DD	0b20f2314H
	DD	0500bH
xdata	ENDS
;	COMDAT xdata
xdata	SEGMENT
$unwind$??1bad_array_new_length@std@@UEAA@XZ DD 025030f01H
	DD	0b20a230fH
	DD	05006H
xdata	ENDS
;	COMDAT xdata
xdata	SEGMENT
$unwind$??0bad_array_new_length@std@@QEAA@XZ DD 025030f01H
	DD	0b20a230fH
	DD	05006H
xdata	ENDS
;	COMDAT xdata
xdata	SEGMENT
$unwind$??_Gbad_alloc@std@@UEAAPEAXI@Z DD 025031301H
	DD	0b20e2313H
	DD	0500aH
xdata	ENDS
;	COMDAT xdata
xdata	SEGMENT
$unwind$??0bad_alloc@std@@QEAA@AEBV01@@Z DD 025031401H
	DD	0b20f2314H
	DD	0500bH
xdata	ENDS
;	COMDAT xdata
xdata	SEGMENT
$unwind$??1bad_alloc@std@@UEAA@XZ DD 025030f01H
	DD	0b20a230fH
	DD	05006H
xdata	ENDS
;	COMDAT xdata
xdata	SEGMENT
$unwind$??0bad_alloc@std@@AEAA@QEBD@Z DD 025031401H
	DD	0b20f2314H
	DD	0500bH
xdata	ENDS
;	COMDAT xdata
xdata	SEGMENT
$unwind$??_Gexception@std@@UEAAPEAXI@Z DD 025031301H
	DD	0b20e2313H
	DD	0500aH
xdata	ENDS
;	COMDAT xdata
xdata	SEGMENT
$unwind$?what@exception@std@@UEBAPEBDXZ DD 025030f01H
	DD	0d20a230fH
	DD	05006H
xdata	ENDS
;	COMDAT xdata
xdata	SEGMENT
$unwind$??1exception@std@@UEAA@XZ DD 025030f01H
	DD	0b20a230fH
	DD	05006H
xdata	ENDS
;	COMDAT xdata
xdata	SEGMENT
$unwind$??0exception@std@@QEAA@AEBV01@@Z DD 025041501H
	DD	0c2102315H
	DD	0500b700cH
xdata	ENDS
;	COMDAT xdata
xdata	SEGMENT
$unwind$??0exception@std@@QEAA@QEBDH@Z DD 025041a01H
	DD	0c215231aH
	DD	050107011H
xdata	ENDS
;	COMDAT xdata
xdata	SEGMENT
$unwind$??0exception@std@@QEAA@QEBD@Z DD 025041501H
	DD	0e2102315H
	DD	0500b700cH
xdata	ENDS
;	COMDAT xdata
xdata	SEGMENT
$unwind$??2@YAPEAX_KPEAX@Z DD 025031401H
	DD	0b20f2314H
	DD	0500bH
xdata	ENDS
;	COMDAT xdata
xdata	SEGMENT
$unwind$?max@?$numeric_limits@_J@std@@SA_JXZ DD 025030b01H
	DD	0b206230bH
	DD	05002H
xdata	ENDS
;	COMDAT xdata
xdata	SEGMENT
$unwind$?is_constant_evaluated@std@@YA_NXZ DD 025030b01H
	DD	0b206230bH
	DD	05002H
xdata	ENDS
; Function compile flags: /Odt
;	COMDAT __JustMyCode_Default
_TEXT	SEGMENT
__JustMyCode_Default PROC				; COMDAT
  00000	c2 00 00	 ret	 0
__JustMyCode_Default ENDP
_TEXT	ENDS
; Function compile flags: /Odtp /ZI
; File C:\Program Files\Microsoft Visual Studio\2022\Preview\VC\Tools\MSVC\14.38.33030\include\xutility
;	COMDAT ??$construct_at@UVertexDefault@@AEAU1@$0A@@std@@YAPEAUVertexDefault@@QEAU1@AEAU1@@Z
_TEXT	SEGMENT
$T1 = 64
_Location$ = 112
<_Args_0>$ = 120
??$construct_at@UVertexDefault@@AEAU1@$0A@@std@@YAPEAUVertexDefault@@QEAU1@AEAU1@@Z PROC ; std::construct_at<VertexDefault,VertexDefault &,0>, COMDAT

; 241  :     noexcept(::new(static_cast<void*>(_Location)) _Ty(_STD forward<_Types>(_Args)...))) /* strengthened */ {

$LN3:
  00000	48 89 54 24 10	 mov	 QWORD PTR [rsp+16], rdx
  00005	48 89 4c 24 08	 mov	 QWORD PTR [rsp+8], rcx
  0000a	55		 push	 rbp
  0000b	56		 push	 rsi
  0000c	57		 push	 rdi
  0000d	48 83 ec 70	 sub	 rsp, 112		; 00000070H
  00011	48 8d 6c 24 20	 lea	 rbp, QWORD PTR [rsp+32]
  00016	48 8d 0d 00 00
	00 00		 lea	 rcx, OFFSET FLAT:__B7320FC0_xutility
  0001d	e8 00 00 00 00	 call	 __CheckForDebuggerJustMyCode

; 242  :     _MSVC_CONSTEXPR return ::new (static_cast<void*>(_Location)) _Ty(_STD forward<_Types>(_Args)...);

  00022	48 8b 55 70	 mov	 rdx, QWORD PTR _Location$[rbp]
  00026	b9 48 00 00 00	 mov	 ecx, 72			; 00000048H
  0002b	e8 00 00 00 00	 call	 ??2@YAPEAX_KPEAX@Z	; operator new
  00030	48 89 45 40	 mov	 QWORD PTR $T1[rbp], rax
  00034	48 8b 7d 40	 mov	 rdi, QWORD PTR $T1[rbp]
  00038	48 8b 75 78	 mov	 rsi, QWORD PTR <_Args_0>$[rbp]
  0003c	b9 48 00 00 00	 mov	 ecx, 72			; 00000048H
  00041	f3 a4		 rep movsb
  00043	48 8b 45 40	 mov	 rax, QWORD PTR $T1[rbp]

; 243  : }

  00047	48 8d 65 50	 lea	 rsp, QWORD PTR [rbp+80]
  0004b	5f		 pop	 rdi
  0004c	5e		 pop	 rsi
  0004d	5d		 pop	 rbp
  0004e	c3		 ret	 0
??$construct_at@UVertexDefault@@AEAU1@$0A@@std@@YAPEAUVertexDefault@@QEAU1@AEAU1@@Z ENDP ; std::construct_at<VertexDefault,VertexDefault &,0>
_TEXT	ENDS
; Function compile flags: /Odtp /ZI
; File C:\Program Files\Microsoft Visual Studio\2022\Preview\VC\Tools\MSVC\14.38.33030\include\xutility
;	COMDAT ??$construct_at@GAEAG$0A@@std@@YAPEAGQEAGAEAG@Z
_TEXT	SEGMENT
$T1 = 64
_Location$ = 96
<_Args_0>$ = 104
??$construct_at@GAEAG$0A@@std@@YAPEAGQEAGAEAG@Z PROC	; std::construct_at<unsigned short,unsigned short &,0>, COMDAT

; 241  :     noexcept(::new(static_cast<void*>(_Location)) _Ty(_STD forward<_Types>(_Args)...))) /* strengthened */ {

$LN3:
  00000	48 89 54 24 10	 mov	 QWORD PTR [rsp+16], rdx
  00005	48 89 4c 24 08	 mov	 QWORD PTR [rsp+8], rcx
  0000a	55		 push	 rbp
  0000b	48 83 ec 70	 sub	 rsp, 112		; 00000070H
  0000f	48 8d 6c 24 20	 lea	 rbp, QWORD PTR [rsp+32]
  00014	48 8d 0d 00 00
	00 00		 lea	 rcx, OFFSET FLAT:__B7320FC0_xutility
  0001b	e8 00 00 00 00	 call	 __CheckForDebuggerJustMyCode

; 242  :     _MSVC_CONSTEXPR return ::new (static_cast<void*>(_Location)) _Ty(_STD forward<_Types>(_Args)...);

  00020	48 8b 55 60	 mov	 rdx, QWORD PTR _Location$[rbp]
  00024	b9 02 00 00 00	 mov	 ecx, 2
  00029	e8 00 00 00 00	 call	 ??2@YAPEAX_KPEAX@Z	; operator new
  0002e	48 89 45 40	 mov	 QWORD PTR $T1[rbp], rax
  00032	48 8b 45 40	 mov	 rax, QWORD PTR $T1[rbp]
  00036	48 8b 4d 68	 mov	 rcx, QWORD PTR <_Args_0>$[rbp]
  0003a	0f b7 09	 movzx	 ecx, WORD PTR [rcx]
  0003d	66 89 08	 mov	 WORD PTR [rax], cx
  00040	48 8b 45 40	 mov	 rax, QWORD PTR $T1[rbp]

; 243  : }

  00044	48 8d 65 50	 lea	 rsp, QWORD PTR [rbp+80]
  00048	5d		 pop	 rbp
  00049	c3		 ret	 0
??$construct_at@GAEAG$0A@@std@@YAPEAGQEAGAEAG@Z ENDP	; std::construct_at<unsigned short,unsigned short &,0>
_TEXT	ENDS
; Function compile flags: /Odtp /ZI
; File C:\Program Files\Microsoft Visual Studio\2022\Preview\VC\Tools\MSVC\14.38.33030\include\xmemory
;	COMDAT ??$construct@UVertexDefault@@AEAU1@@?$_Default_allocator_traits@V?$allocator@UVertexDefault@@@std@@@std@@SAXAEAV?$allocator@UVertexDefault@@@1@QEAUVertexDefault@@AEAU3@@Z
_TEXT	SEGMENT
__formal$ = 80
_Ptr$ = 88
<_Args_0>$ = 96
??$construct@UVertexDefault@@AEAU1@@?$_Default_allocator_traits@V?$allocator@UVertexDefault@@@std@@@std@@SAXAEAV?$allocator@UVertexDefault@@@1@QEAUVertexDefault@@AEAU3@@Z PROC ; std::_Default_allocator_traits<std::allocator<VertexDefault> >::construct<VertexDefault,VertexDefault &>, COMDAT

; 719  :     static _CONSTEXPR20 void construct(_Alloc&, _Objty* const _Ptr, _Types&&... _Args) {

$LN3:
  00000	4c 89 44 24 18	 mov	 QWORD PTR [rsp+24], r8
  00005	48 89 54 24 10	 mov	 QWORD PTR [rsp+16], rdx
  0000a	48 89 4c 24 08	 mov	 QWORD PTR [rsp+8], rcx
  0000f	55		 push	 rbp
  00010	48 83 ec 60	 sub	 rsp, 96			; 00000060H
  00014	48 8d 6c 24 20	 lea	 rbp, QWORD PTR [rsp+32]
  00019	48 8d 0d 00 00
	00 00		 lea	 rcx, OFFSET FLAT:__67F55BEA_xmemory
  00020	e8 00 00 00 00	 call	 __CheckForDebuggerJustMyCode

; 720  : #if _HAS_CXX20
; 721  :         _STD construct_at(_Ptr, _STD forward<_Types>(_Args)...);

  00025	48 8b 55 60	 mov	 rdx, QWORD PTR <_Args_0>$[rbp]
  00029	48 8b 4d 58	 mov	 rcx, QWORD PTR _Ptr$[rbp]
  0002d	e8 00 00 00 00	 call	 ??$construct_at@UVertexDefault@@AEAU1@$0A@@std@@YAPEAUVertexDefault@@QEAU1@AEAU1@@Z ; std::construct_at<VertexDefault,VertexDefault &,0>

; 722  : #else // ^^^ _HAS_CXX20 / !_HAS_CXX20 vvv
; 723  :         ::new (const_cast<void*>(static_cast<const volatile void*>(_Ptr))) _Objty(_STD forward<_Types>(_Args)...);
; 724  : #endif // ^^^ !_HAS_CXX20 ^^^
; 725  :     }

  00032	48 8d 65 40	 lea	 rsp, QWORD PTR [rbp+64]
  00036	5d		 pop	 rbp
  00037	c3		 ret	 0
??$construct@UVertexDefault@@AEAU1@@?$_Default_allocator_traits@V?$allocator@UVertexDefault@@@std@@@std@@SAXAEAV?$allocator@UVertexDefault@@@1@QEAUVertexDefault@@AEAU3@@Z ENDP ; std::_Default_allocator_traits<std::allocator<VertexDefault> >::construct<VertexDefault,VertexDefault &>
_TEXT	ENDS
; Function compile flags: /Odtp /ZI
; File C:\Program Files\Microsoft Visual Studio\2022\Preview\VC\Tools\MSVC\14.38.33030\include\xmemory
;	COMDAT ??$construct@GAEAG@?$_Default_allocator_traits@V?$allocator@G@std@@@std@@SAXAEAV?$allocator@G@1@QEAGAEAG@Z
_TEXT	SEGMENT
__formal$ = 80
_Ptr$ = 88
<_Args_0>$ = 96
??$construct@GAEAG@?$_Default_allocator_traits@V?$allocator@G@std@@@std@@SAXAEAV?$allocator@G@1@QEAGAEAG@Z PROC ; std::_Default_allocator_traits<std::allocator<unsigned short> >::construct<unsigned short,unsigned short &>, COMDAT

; 719  :     static _CONSTEXPR20 void construct(_Alloc&, _Objty* const _Ptr, _Types&&... _Args) {

$LN3:
  00000	4c 89 44 24 18	 mov	 QWORD PTR [rsp+24], r8
  00005	48 89 54 24 10	 mov	 QWORD PTR [rsp+16], rdx
  0000a	48 89 4c 24 08	 mov	 QWORD PTR [rsp+8], rcx
  0000f	55		 push	 rbp
  00010	48 83 ec 60	 sub	 rsp, 96			; 00000060H
  00014	48 8d 6c 24 20	 lea	 rbp, QWORD PTR [rsp+32]
  00019	48 8d 0d 00 00
	00 00		 lea	 rcx, OFFSET FLAT:__67F55BEA_xmemory
  00020	e8 00 00 00 00	 call	 __CheckForDebuggerJustMyCode

; 720  : #if _HAS_CXX20
; 721  :         _STD construct_at(_Ptr, _STD forward<_Types>(_Args)...);

  00025	48 8b 55 60	 mov	 rdx, QWORD PTR <_Args_0>$[rbp]
  00029	48 8b 4d 58	 mov	 rcx, QWORD PTR _Ptr$[rbp]
  0002d	e8 00 00 00 00	 call	 ??$construct_at@GAEAG$0A@@std@@YAPEAGQEAGAEAG@Z ; std::construct_at<unsigned short,unsigned short &,0>

; 722  : #else // ^^^ _HAS_CXX20 / !_HAS_CXX20 vvv
; 723  :         ::new (const_cast<void*>(static_cast<const volatile void*>(_Ptr))) _Objty(_STD forward<_Types>(_Args)...);
; 724  : #endif // ^^^ !_HAS_CXX20 ^^^
; 725  :     }

  00032	48 8d 65 40	 lea	 rsp, QWORD PTR [rbp+64]
  00036	5d		 pop	 rbp
  00037	c3		 ret	 0
??$construct@GAEAG@?$_Default_allocator_traits@V?$allocator@G@std@@@std@@SAXAEAV?$allocator@G@1@QEAGAEAG@Z ENDP ; std::_Default_allocator_traits<std::allocator<unsigned short> >::construct<unsigned short,unsigned short &>
_TEXT	ENDS
; Function compile flags: /Odtp /ZI
; File C:\Program Files\Microsoft Visual Studio\2022\Preview\VC\Tools\MSVC\14.38.33030\include\xmemory
;	COMDAT ??$_Get_size_of_n@$00@std@@YA_K_K@Z
_TEXT	SEGMENT
_Overflow_is_possible$ = 0
_Count$ = 96
??$_Get_size_of_n@$00@std@@YA_K_K@Z PROC		; std::_Get_size_of_n<1>, COMDAT

; 64   : _NODISCARD constexpr size_t _Get_size_of_n(const size_t _Count) {

$LN3:
  00000	48 89 4c 24 08	 mov	 QWORD PTR [rsp+8], rcx
  00005	55		 push	 rbp
  00006	48 83 ec 70	 sub	 rsp, 112		; 00000070H
  0000a	48 8d 6c 24 20	 lea	 rbp, QWORD PTR [rsp+32]
  0000f	48 8d 0d 00 00
	00 00		 lea	 rcx, OFFSET FLAT:__67F55BEA_xmemory
  00016	e8 00 00 00 00	 call	 __CheckForDebuggerJustMyCode

; 65   :     constexpr bool _Overflow_is_possible = _Ty_size > 1;

  0001b	c6 45 00 00	 mov	 BYTE PTR _Overflow_is_possible$[rbp], 0

; 66   : 
; 67   :     if constexpr (_Overflow_is_possible) {
; 68   :         constexpr size_t _Max_possible = static_cast<size_t>(-1) / _Ty_size;
; 69   :         if (_Count > _Max_possible) {
; 70   :             _Throw_bad_array_new_length(); // multiply overflow
; 71   :         }
; 72   :     }
; 73   : 
; 74   :     return _Count * _Ty_size;

  0001f	48 8b 45 60	 mov	 rax, QWORD PTR _Count$[rbp]

; 75   : }

  00023	48 8d 65 50	 lea	 rsp, QWORD PTR [rbp+80]
  00027	5d		 pop	 rbp
  00028	c3		 ret	 0
??$_Get_size_of_n@$00@std@@YA_K_K@Z ENDP		; std::_Get_size_of_n<1>
_TEXT	ENDS
; Function compile flags: /Odtp /ZI
; File C:\Program Files\Microsoft Visual Studio\2022\Preview\VC\Tools\MSVC\14.38.33030\include\xmemory
;	COMDAT ??$_Get_size_of_n@$0EI@@std@@YA_K_K@Z
_TEXT	SEGMENT
_Overflow_is_possible$ = 0
_Max_possible$1 = 8
_Count$ = 96
??$_Get_size_of_n@$0EI@@std@@YA_K_K@Z PROC		; std::_Get_size_of_n<72>, COMDAT

; 64   : _NODISCARD constexpr size_t _Get_size_of_n(const size_t _Count) {

$LN4:
  00000	48 89 4c 24 08	 mov	 QWORD PTR [rsp+8], rcx
  00005	55		 push	 rbp
  00006	48 83 ec 70	 sub	 rsp, 112		; 00000070H
  0000a	48 8d 6c 24 20	 lea	 rbp, QWORD PTR [rsp+32]
  0000f	48 8d 0d 00 00
	00 00		 lea	 rcx, OFFSET FLAT:__67F55BEA_xmemory
  00016	e8 00 00 00 00	 call	 __CheckForDebuggerJustMyCode

; 65   :     constexpr bool _Overflow_is_possible = _Ty_size > 1;

  0001b	c6 45 00 01	 mov	 BYTE PTR _Overflow_is_possible$[rbp], 1

; 66   : 
; 67   :     if constexpr (_Overflow_is_possible) {
; 68   :         constexpr size_t _Max_possible = static_cast<size_t>(-1) / _Ty_size;

  0001f	48 b8 8e e3 38
	8e e3 38 8e 03	 mov	 rax, 256204778801521550	; 038e38e38e38e38eH
  00029	48 89 45 08	 mov	 QWORD PTR _Max_possible$1[rbp], rax

; 69   :         if (_Count > _Max_possible) {

  0002d	48 b8 8e e3 38
	8e e3 38 8e 03	 mov	 rax, 256204778801521550	; 038e38e38e38e38eH
  00037	48 39 45 60	 cmp	 QWORD PTR _Count$[rbp], rax
  0003b	76 05		 jbe	 SHORT $LN2@Get_size_o

; 70   :             _Throw_bad_array_new_length(); // multiply overflow

  0003d	e8 00 00 00 00	 call	 ?_Throw_bad_array_new_length@std@@YAXXZ ; std::_Throw_bad_array_new_length
$LN2@Get_size_o:

; 71   :         }
; 72   :     }
; 73   : 
; 74   :     return _Count * _Ty_size;

  00042	48 6b 45 60 48	 imul	 rax, QWORD PTR _Count$[rbp], 72 ; 00000048H
$LN3@Get_size_o:

; 75   : }

  00047	48 8d 65 50	 lea	 rsp, QWORD PTR [rbp+80]
  0004b	5d		 pop	 rbp
  0004c	c3		 ret	 0
??$_Get_size_of_n@$0EI@@std@@YA_K_K@Z ENDP		; std::_Get_size_of_n<72>
_TEXT	ENDS
; Function compile flags: /Odtp /ZI
; File C:\Program Files\Microsoft Visual Studio\2022\Preview\VC\Tools\MSVC\14.38.33030\include\xmemory
;	COMDAT ??$_Get_size_of_n@$01@std@@YA_K_K@Z
_TEXT	SEGMENT
_Overflow_is_possible$ = 0
_Max_possible$1 = 8
_Count$ = 96
??$_Get_size_of_n@$01@std@@YA_K_K@Z PROC		; std::_Get_size_of_n<2>, COMDAT

; 64   : _NODISCARD constexpr size_t _Get_size_of_n(const size_t _Count) {

$LN4:
  00000	48 89 4c 24 08	 mov	 QWORD PTR [rsp+8], rcx
  00005	55		 push	 rbp
  00006	48 83 ec 70	 sub	 rsp, 112		; 00000070H
  0000a	48 8d 6c 24 20	 lea	 rbp, QWORD PTR [rsp+32]
  0000f	48 8d 0d 00 00
	00 00		 lea	 rcx, OFFSET FLAT:__67F55BEA_xmemory
  00016	e8 00 00 00 00	 call	 __CheckForDebuggerJustMyCode

; 65   :     constexpr bool _Overflow_is_possible = _Ty_size > 1;

  0001b	c6 45 00 01	 mov	 BYTE PTR _Overflow_is_possible$[rbp], 1

; 66   : 
; 67   :     if constexpr (_Overflow_is_possible) {
; 68   :         constexpr size_t _Max_possible = static_cast<size_t>(-1) / _Ty_size;

  0001f	48 b8 ff ff ff
	ff ff ff ff 7f	 mov	 rax, 9223372036854775807 ; 7fffffffffffffffH
  00029	48 89 45 08	 mov	 QWORD PTR _Max_possible$1[rbp], rax

; 69   :         if (_Count > _Max_possible) {

  0002d	48 b8 ff ff ff
	ff ff ff ff 7f	 mov	 rax, 9223372036854775807 ; 7fffffffffffffffH
  00037	48 39 45 60	 cmp	 QWORD PTR _Count$[rbp], rax
  0003b	76 05		 jbe	 SHORT $LN2@Get_size_o

; 70   :             _Throw_bad_array_new_length(); // multiply overflow

  0003d	e8 00 00 00 00	 call	 ?_Throw_bad_array_new_length@std@@YAXXZ ; std::_Throw_bad_array_new_length
$LN2@Get_size_o:

; 71   :         }
; 72   :     }
; 73   : 
; 74   :     return _Count * _Ty_size;

  00042	48 8b 45 60	 mov	 rax, QWORD PTR _Count$[rbp]
  00046	48 d1 e0	 shl	 rax, 1
$LN3@Get_size_o:

; 75   : }

  00049	48 8d 65 50	 lea	 rsp, QWORD PTR [rbp+80]
  0004d	5d		 pop	 rbp
  0004e	c3		 ret	 0
??$_Get_size_of_n@$01@std@@YA_K_K@Z ENDP		; std::_Get_size_of_n<2>
_TEXT	ENDS
; Function compile flags: /Odtp /ZI
; File C:\Program Files\Microsoft Visual Studio\2022\Preview\VC\Tools\MSVC\14.38.33030\include\xmemory
;	COMDAT ??$_Allocate_manually_vector_aligned@U_Default_allocate_traits@std@@@std@@YAPEAX_K@Z
_TEXT	SEGMENT
_Block_size$ = 0
_Ptr_container$ = 8
_Ptr$ = 16
_Bytes$ = 112
??$_Allocate_manually_vector_aligned@U_Default_allocate_traits@std@@@std@@YAPEAX_K@Z PROC ; std::_Allocate_manually_vector_aligned<std::_Default_allocate_traits>, COMDAT

; 136  : __declspec(allocator) void* _Allocate_manually_vector_aligned(const size_t _Bytes) {

$LN13:
  00000	48 89 4c 24 08	 mov	 QWORD PTR [rsp+8], rcx
  00005	55		 push	 rbp
  00006	48 81 ec 90 00
	00 00		 sub	 rsp, 144		; 00000090H
  0000d	48 8d 6c 24 30	 lea	 rbp, QWORD PTR [rsp+48]
  00012	48 8d 0d 00 00
	00 00		 lea	 rcx, OFFSET FLAT:__67F55BEA_xmemory
  00019	e8 00 00 00 00	 call	 __CheckForDebuggerJustMyCode

; 137  :     // allocate _Bytes manually aligned to at least _Big_allocation_alignment
; 138  :     const size_t _Block_size = _Non_user_size + _Bytes;

  0001e	48 8b 45 70	 mov	 rax, QWORD PTR _Bytes$[rbp]
  00022	48 83 c0 2f	 add	 rax, 47			; 0000002fH
  00026	48 89 45 00	 mov	 QWORD PTR _Block_size$[rbp], rax

; 139  :     if (_Block_size <= _Bytes) {

  0002a	48 8b 45 70	 mov	 rax, QWORD PTR _Bytes$[rbp]
  0002e	48 39 45 00	 cmp	 QWORD PTR _Block_size$[rbp], rax
  00032	77 05		 ja	 SHORT $LN8@Allocate_m

; 140  :         _Throw_bad_array_new_length(); // add overflow

  00034	e8 00 00 00 00	 call	 ?_Throw_bad_array_new_length@std@@YAXXZ ; std::_Throw_bad_array_new_length
$LN8@Allocate_m:

; 141  :     }
; 142  : 
; 143  :     const uintptr_t _Ptr_container = reinterpret_cast<uintptr_t>(_Traits::_Allocate(_Block_size));

  00039	48 8b 4d 00	 mov	 rcx, QWORD PTR _Block_size$[rbp]
  0003d	e8 00 00 00 00	 call	 ?_Allocate@_Default_allocate_traits@std@@SAPEAX_K@Z ; std::_Default_allocate_traits::_Allocate
  00042	48 89 45 08	 mov	 QWORD PTR _Ptr_container$[rbp], rax
$LN4@Allocate_m:

; 144  :     _STL_VERIFY(_Ptr_container != 0, "invalid argument"); // validate even in release since we're doing p[-1]

  00046	48 83 7d 08 00	 cmp	 QWORD PTR _Ptr_container$[rbp], 0
  0004b	74 02		 je	 SHORT $LN9@Allocate_m
  0004d	eb 6b		 jmp	 SHORT $LN10@Allocate_m
$LN9@Allocate_m:
$LN7@Allocate_m:
  0004f	48 8d 05 00 00
	00 00		 lea	 rax, OFFSET FLAT:??_C@_0BB@FCMFBGOM@invalid?5argument@
  00056	48 89 44 24 28	 mov	 QWORD PTR [rsp+40], rax
  0005b	48 8d 05 00 00
	00 00		 lea	 rax, OFFSET FLAT:??_C@_02DKCKIIND@?$CFs@
  00062	48 89 44 24 20	 mov	 QWORD PTR [rsp+32], rax
  00067	45 33 c9	 xor	 r9d, r9d
  0006a	41 b8 90 00 00
	00		 mov	 r8d, 144		; 00000090H
  00070	48 8d 15 00 00
	00 00		 lea	 rdx, OFFSET FLAT:??_C@_0GA@FLDGEGM@C?3?2Program?5Files?2Microsoft?5Visu@
  00077	b9 02 00 00 00	 mov	 ecx, 2
  0007c	ff 15 00 00 00
	00		 call	 QWORD PTR __imp__CrtDbgReport
  00082	83 f8 01	 cmp	 eax, 1
  00085	75 03		 jne	 SHORT $LN12@Allocate_m
  00087	cc		 int	 3
  00088	33 c0		 xor	 eax, eax
$LN12@Allocate_m:
  0008a	48 c7 44 24 20
	00 00 00 00	 mov	 QWORD PTR [rsp+32], 0
  00093	41 b9 90 00 00
	00		 mov	 r9d, 144		; 00000090H
  00099	4c 8d 05 00 00
	00 00		 lea	 r8, OFFSET FLAT:??_C@_1MA@IKJDCOIC@?$AAC?$AA?3?$AA?2?$AAP?$AAr?$AAo?$AAg?$AAr?$AAa?$AAm?$AA?5?$AAF?$AAi?$AAl?$AAe@
  000a0	48 8d 15 00 00
	00 00		 lea	 rdx, OFFSET FLAT:??_C@_11LOCGONAA@@
  000a7	48 8d 0d 00 00
	00 00		 lea	 rcx, OFFSET FLAT:??_C@_1CG@JNLFBNGN@?$AA?$CC?$AAi?$AAn?$AAv?$AAa?$AAl?$AAi?$AAd?$AA?5?$AAa?$AAr?$AAg?$AAu?$AAm?$AAe@
  000ae	ff 15 00 00 00
	00		 call	 QWORD PTR __imp__invalid_parameter
  000b4	33 c0		 xor	 eax, eax
  000b6	85 c0		 test	 eax, eax
  000b8	75 95		 jne	 SHORT $LN7@Allocate_m
$LN10@Allocate_m:
  000ba	33 c0		 xor	 eax, eax
  000bc	85 c0		 test	 eax, eax
  000be	75 86		 jne	 SHORT $LN4@Allocate_m

; 145  :     void* const _Ptr = reinterpret_cast<void*>((_Ptr_container + _Non_user_size) & ~(_Big_allocation_alignment - 1));

  000c0	48 8b 45 08	 mov	 rax, QWORD PTR _Ptr_container$[rbp]
  000c4	48 83 c0 2f	 add	 rax, 47			; 0000002fH
  000c8	48 83 e0 e0	 and	 rax, -32		; ffffffffffffffe0H
  000cc	48 89 45 10	 mov	 QWORD PTR _Ptr$[rbp], rax

; 146  :     static_cast<uintptr_t*>(_Ptr)[-1] = _Ptr_container;

  000d0	b8 08 00 00 00	 mov	 eax, 8
  000d5	48 6b c0 ff	 imul	 rax, rax, -1
  000d9	48 8b 4d 10	 mov	 rcx, QWORD PTR _Ptr$[rbp]
  000dd	48 8b 55 08	 mov	 rdx, QWORD PTR _Ptr_container$[rbp]
  000e1	48 89 14 01	 mov	 QWORD PTR [rcx+rax], rdx

; 147  : 
; 148  : #ifdef _DEBUG
; 149  :     static_cast<uintptr_t*>(_Ptr)[-2] = _Big_allocation_sentinel;

  000e5	b8 08 00 00 00	 mov	 eax, 8
  000ea	48 6b c0 fe	 imul	 rax, rax, -2
  000ee	48 8b 4d 10	 mov	 rcx, QWORD PTR _Ptr$[rbp]
  000f2	48 ba fa fa fa
	fa fa fa fa fa	 mov	 rdx, -361700864190383366 ; fafafafafafafafaH
  000fc	48 89 14 01	 mov	 QWORD PTR [rcx+rax], rdx

; 150  : #endif // _DEBUG
; 151  :     return _Ptr;

  00100	48 8b 45 10	 mov	 rax, QWORD PTR _Ptr$[rbp]
$LN11@Allocate_m:

; 152  : }

  00104	48 8d 65 60	 lea	 rsp, QWORD PTR [rbp+96]
  00108	5d		 pop	 rbp
  00109	c3		 ret	 0
??$_Allocate_manually_vector_aligned@U_Default_allocate_traits@std@@@std@@YAPEAX_K@Z ENDP ; std::_Allocate_manually_vector_aligned<std::_Default_allocate_traits>
_TEXT	ENDS
; Function compile flags: /Odtp /ZI
; File C:\Program Files\Microsoft Visual Studio\2022\Preview\VC\Tools\MSVC\14.38.33030\include\xutility
;	COMDAT ??$construct_at@PEADAEBQEAD$0A@@std@@YAPEAPEADQEAPEADAEBQEAD@Z
_TEXT	SEGMENT
$T1 = 64
_Location$ = 96
<_Args_0>$ = 104
??$construct_at@PEADAEBQEAD$0A@@std@@YAPEAPEADQEAPEADAEBQEAD@Z PROC ; std::construct_at<char *,char * const &,0>, COMDAT

; 241  :     noexcept(::new(static_cast<void*>(_Location)) _Ty(_STD forward<_Types>(_Args)...))) /* strengthened */ {

$LN3:
  00000	48 89 54 24 10	 mov	 QWORD PTR [rsp+16], rdx
  00005	48 89 4c 24 08	 mov	 QWORD PTR [rsp+8], rcx
  0000a	55		 push	 rbp
  0000b	48 83 ec 70	 sub	 rsp, 112		; 00000070H
  0000f	48 8d 6c 24 20	 lea	 rbp, QWORD PTR [rsp+32]
  00014	48 8d 0d 00 00
	00 00		 lea	 rcx, OFFSET FLAT:__B7320FC0_xutility
  0001b	e8 00 00 00 00	 call	 __CheckForDebuggerJustMyCode

; 242  :     _MSVC_CONSTEXPR return ::new (static_cast<void*>(_Location)) _Ty(_STD forward<_Types>(_Args)...);

  00020	48 8b 55 60	 mov	 rdx, QWORD PTR _Location$[rbp]
  00024	b9 08 00 00 00	 mov	 ecx, 8
  00029	e8 00 00 00 00	 call	 ??2@YAPEAX_KPEAX@Z	; operator new
  0002e	48 89 45 40	 mov	 QWORD PTR $T1[rbp], rax
  00032	48 8b 45 40	 mov	 rax, QWORD PTR $T1[rbp]
  00036	48 8b 4d 68	 mov	 rcx, QWORD PTR <_Args_0>$[rbp]
  0003a	48 8b 09	 mov	 rcx, QWORD PTR [rcx]
  0003d	48 89 08	 mov	 QWORD PTR [rax], rcx
  00040	48 8b 45 40	 mov	 rax, QWORD PTR $T1[rbp]

; 243  : }

  00044	48 8d 65 50	 lea	 rsp, QWORD PTR [rbp+80]
  00048	5d		 pop	 rbp
  00049	c3		 ret	 0
??$construct_at@PEADAEBQEAD$0A@@std@@YAPEAPEADQEAPEADAEBQEAD@Z ENDP ; std::construct_at<char *,char * const &,0>
_TEXT	ENDS
; Function compile flags: /Odtp /ZI
; File C:\Program Files\Microsoft Visual Studio\2022\Preview\VC\Tools\MSVC\14.38.33030\include\xmemory
;	COMDAT ??$_Emplace_back@AEAUVertexDefault@@@?$_Uninitialized_backout_al@V?$allocator@UVertexDefault@@@std@@@std@@QEAAXAEAUVertexDefault@@@Z
_TEXT	SEGMENT
tv74 = 64
tv72 = 72
this$ = 96
<_Vals_0>$ = 104
??$_Emplace_back@AEAUVertexDefault@@@?$_Uninitialized_backout_al@V?$allocator@UVertexDefault@@@std@@@std@@QEAAXAEAUVertexDefault@@@Z PROC ; std::_Uninitialized_backout_al<std::allocator<VertexDefault> >::_Emplace_back<VertexDefault &>, COMDAT

; 1800 :     _CONSTEXPR20 void _Emplace_back(_Types&&... _Vals) { // construct a new element at *_Last and increment

$LN3:
  00000	48 89 54 24 10	 mov	 QWORD PTR [rsp+16], rdx
  00005	48 89 4c 24 08	 mov	 QWORD PTR [rsp+8], rcx
  0000a	55		 push	 rbp
  0000b	48 83 ec 70	 sub	 rsp, 112		; 00000070H
  0000f	48 8d 6c 24 20	 lea	 rbp, QWORD PTR [rsp+32]
  00014	48 8d 0d 00 00
	00 00		 lea	 rcx, OFFSET FLAT:__67F55BEA_xmemory
  0001b	e8 00 00 00 00	 call	 __CheckForDebuggerJustMyCode

; 1801 :         allocator_traits<_Alloc>::construct(_Al, _Unfancy(_Last), _STD forward<_Types>(_Vals)...);

  00020	48 8b 45 60	 mov	 rax, QWORD PTR this$[rbp]
  00024	48 8b 48 08	 mov	 rcx, QWORD PTR [rax+8]
  00028	e8 00 00 00 00	 call	 ??$_Unfancy@UVertexDefault@@@std@@YAPEAUVertexDefault@@PEAU1@@Z ; std::_Unfancy<VertexDefault>
  0002d	48 89 45 40	 mov	 QWORD PTR tv74[rbp], rax
  00031	48 8b 45 60	 mov	 rax, QWORD PTR this$[rbp]
  00035	48 8b 40 10	 mov	 rax, QWORD PTR [rax+16]
  00039	48 89 45 48	 mov	 QWORD PTR tv72[rbp], rax
  0003d	4c 8b 45 68	 mov	 r8, QWORD PTR <_Vals_0>$[rbp]
  00041	48 8b 55 40	 mov	 rdx, QWORD PTR tv74[rbp]
  00045	48 8b 4d 48	 mov	 rcx, QWORD PTR tv72[rbp]
  00049	e8 00 00 00 00	 call	 ??$construct@UVertexDefault@@AEAU1@@?$_Default_allocator_traits@V?$allocator@UVertexDefault@@@std@@@std@@SAXAEAV?$allocator@UVertexDefault@@@1@QEAUVertexDefault@@AEAU3@@Z ; std::_Default_allocator_traits<std::allocator<VertexDefault> >::construct<VertexDefault,VertexDefault &>

; 1802 :         ++_Last;

  0004e	48 8b 45 60	 mov	 rax, QWORD PTR this$[rbp]
  00052	48 8b 40 08	 mov	 rax, QWORD PTR [rax+8]
  00056	48 83 c0 48	 add	 rax, 72			; 00000048H
  0005a	48 8b 4d 60	 mov	 rcx, QWORD PTR this$[rbp]
  0005e	48 89 41 08	 mov	 QWORD PTR [rcx+8], rax

; 1803 :     }

  00062	48 8d 65 50	 lea	 rsp, QWORD PTR [rbp+80]
  00066	5d		 pop	 rbp
  00067	c3		 ret	 0
??$_Emplace_back@AEAUVertexDefault@@@?$_Uninitialized_backout_al@V?$allocator@UVertexDefault@@@std@@@std@@QEAAXAEAUVertexDefault@@@Z ENDP ; std::_Uninitialized_backout_al<std::allocator<VertexDefault> >::_Emplace_back<VertexDefault &>
_TEXT	ENDS
; Function compile flags: /Odtp /ZI
; File C:\Program Files\Microsoft Visual Studio\2022\Preview\VC\Tools\MSVC\14.38.33030\include\xmemory
;	COMDAT ?_Release@?$_Uninitialized_backout_al@V?$allocator@UVertexDefault@@@std@@@std@@QEAAPEAUVertexDefault@@XZ
_TEXT	SEGMENT
this$ = 80
?_Release@?$_Uninitialized_backout_al@V?$allocator@UVertexDefault@@@std@@@std@@QEAAPEAUVertexDefault@@XZ PROC ; std::_Uninitialized_backout_al<std::allocator<VertexDefault> >::_Release, COMDAT

; 1805 :     constexpr pointer _Release() { // suppress any exception handling backout and return _Last

$LN3:
  00000	48 89 4c 24 08	 mov	 QWORD PTR [rsp+8], rcx
  00005	55		 push	 rbp
  00006	48 83 ec 60	 sub	 rsp, 96			; 00000060H
  0000a	48 8d 6c 24 20	 lea	 rbp, QWORD PTR [rsp+32]
  0000f	48 8d 0d 00 00
	00 00		 lea	 rcx, OFFSET FLAT:__67F55BEA_xmemory
  00016	e8 00 00 00 00	 call	 __CheckForDebuggerJustMyCode

; 1806 :         _First = _Last;

  0001b	48 8b 45 50	 mov	 rax, QWORD PTR this$[rbp]
  0001f	48 8b 4d 50	 mov	 rcx, QWORD PTR this$[rbp]
  00023	48 8b 49 08	 mov	 rcx, QWORD PTR [rcx+8]
  00027	48 89 08	 mov	 QWORD PTR [rax], rcx

; 1807 :         return _Last;

  0002a	48 8b 45 50	 mov	 rax, QWORD PTR this$[rbp]
  0002e	48 8b 40 08	 mov	 rax, QWORD PTR [rax+8]

; 1808 :     }

  00032	48 8d 65 40	 lea	 rsp, QWORD PTR [rbp+64]
  00036	5d		 pop	 rbp
  00037	c3		 ret	 0
?_Release@?$_Uninitialized_backout_al@V?$allocator@UVertexDefault@@@std@@@std@@QEAAPEAUVertexDefault@@XZ ENDP ; std::_Uninitialized_backout_al<std::allocator<VertexDefault> >::_Release
_TEXT	ENDS
; Function compile flags: /Odtp /ZI
; File C:\Program Files\Microsoft Visual Studio\2022\Preview\VC\Tools\MSVC\14.38.33030\include\xmemory
;	COMDAT ??1?$_Uninitialized_backout_al@V?$allocator@UVertexDefault@@@std@@@std@@QEAA@XZ
_TEXT	SEGMENT
this$ = 80
??1?$_Uninitialized_backout_al@V?$allocator@UVertexDefault@@@std@@@std@@QEAA@XZ PROC ; std::_Uninitialized_backout_al<std::allocator<VertexDefault> >::~_Uninitialized_backout_al<std::allocator<VertexDefault> >, COMDAT

; 1795 :     _CONSTEXPR20 ~_Uninitialized_backout_al() {

$LN3:
  00000	48 89 4c 24 08	 mov	 QWORD PTR [rsp+8], rcx
  00005	55		 push	 rbp
  00006	48 83 ec 60	 sub	 rsp, 96			; 00000060H
  0000a	48 8d 6c 24 20	 lea	 rbp, QWORD PTR [rsp+32]
  0000f	48 8d 0d 00 00
	00 00		 lea	 rcx, OFFSET FLAT:__67F55BEA_xmemory
  00016	e8 00 00 00 00	 call	 __CheckForDebuggerJustMyCode

; 1796 :         _Destroy_range(_First, _Last, _Al);

  0001b	48 8b 45 50	 mov	 rax, QWORD PTR this$[rbp]
  0001f	4c 8b 40 10	 mov	 r8, QWORD PTR [rax+16]
  00023	48 8b 45 50	 mov	 rax, QWORD PTR this$[rbp]
  00027	48 8b 50 08	 mov	 rdx, QWORD PTR [rax+8]
  0002b	48 8b 45 50	 mov	 rax, QWORD PTR this$[rbp]
  0002f	48 8b 08	 mov	 rcx, QWORD PTR [rax]
  00032	e8 00 00 00 00	 call	 ??$_Destroy_range@V?$allocator@UVertexDefault@@@std@@@std@@YAXPEAUVertexDefault@@QEAU1@AEAV?$allocator@UVertexDefault@@@0@@Z ; std::_Destroy_range<std::allocator<VertexDefault> >

; 1797 :     }

  00037	48 8d 65 40	 lea	 rsp, QWORD PTR [rbp+64]
  0003b	5d		 pop	 rbp
  0003c	c3		 ret	 0
??1?$_Uninitialized_backout_al@V?$allocator@UVertexDefault@@@std@@@std@@QEAA@XZ ENDP ; std::_Uninitialized_backout_al<std::allocator<VertexDefault> >::~_Uninitialized_backout_al<std::allocator<VertexDefault> >
_TEXT	ENDS
; Function compile flags: /Odtp /ZI
; File C:\Program Files\Microsoft Visual Studio\2022\Preview\VC\Tools\MSVC\14.38.33030\include\xmemory
;	COMDAT ??0?$_Uninitialized_backout_al@V?$allocator@UVertexDefault@@@std@@@std@@QEAA@PEAUVertexDefault@@AEAV?$allocator@UVertexDefault@@@1@@Z
_TEXT	SEGMENT
this$ = 80
_Dest$ = 88
_Al_$ = 96
??0?$_Uninitialized_backout_al@V?$allocator@UVertexDefault@@@std@@@std@@QEAA@PEAUVertexDefault@@AEAV?$allocator@UVertexDefault@@@1@@Z PROC ; std::_Uninitialized_backout_al<std::allocator<VertexDefault> >::_Uninitialized_backout_al<std::allocator<VertexDefault> >, COMDAT

; 1790 :     _CONSTEXPR20 _Uninitialized_backout_al(pointer _Dest, _Alloc& _Al_) : _First(_Dest), _Last(_Dest), _Al(_Al_) {}

$LN3:
  00000	4c 89 44 24 18	 mov	 QWORD PTR [rsp+24], r8
  00005	48 89 54 24 10	 mov	 QWORD PTR [rsp+16], rdx
  0000a	48 89 4c 24 08	 mov	 QWORD PTR [rsp+8], rcx
  0000f	55		 push	 rbp
  00010	48 83 ec 60	 sub	 rsp, 96			; 00000060H
  00014	48 8d 6c 24 20	 lea	 rbp, QWORD PTR [rsp+32]
  00019	48 8d 0d 00 00
	00 00		 lea	 rcx, OFFSET FLAT:__67F55BEA_xmemory
  00020	e8 00 00 00 00	 call	 __CheckForDebuggerJustMyCode
  00025	48 8b 45 50	 mov	 rax, QWORD PTR this$[rbp]
  00029	48 8b 4d 58	 mov	 rcx, QWORD PTR _Dest$[rbp]
  0002d	48 89 08	 mov	 QWORD PTR [rax], rcx
  00030	48 8b 45 50	 mov	 rax, QWORD PTR this$[rbp]
  00034	48 8b 4d 58	 mov	 rcx, QWORD PTR _Dest$[rbp]
  00038	48 89 48 08	 mov	 QWORD PTR [rax+8], rcx
  0003c	48 8b 45 50	 mov	 rax, QWORD PTR this$[rbp]
  00040	48 8b 4d 60	 mov	 rcx, QWORD PTR _Al_$[rbp]
  00044	48 89 48 10	 mov	 QWORD PTR [rax+16], rcx
  00048	48 8b 45 50	 mov	 rax, QWORD PTR this$[rbp]
  0004c	48 8d 65 40	 lea	 rsp, QWORD PTR [rbp+64]
  00050	5d		 pop	 rbp
  00051	c3		 ret	 0
??0?$_Uninitialized_backout_al@V?$allocator@UVertexDefault@@@std@@@std@@QEAA@PEAUVertexDefault@@AEAV?$allocator@UVertexDefault@@@1@@Z ENDP ; std::_Uninitialized_backout_al<std::allocator<VertexDefault> >::_Uninitialized_backout_al<std::allocator<VertexDefault> >
_TEXT	ENDS
; Function compile flags: /Odtp /ZI
; File C:\Program Files\Microsoft Visual Studio\2022\Preview\VC\Tools\MSVC\14.38.33030\include\xutility
;	COMDAT ??$_Copy_memmove@PEAUVertexDefault@@PEAU1@@std@@YAPEAUVertexDefault@@PEAU1@00@Z
_TEXT	SEGMENT
_FirstPtr$ = 0
_LastPtr$ = 8
_DestPtr$ = 16
_First_ch$ = 24
_Last_ch$ = 32
_Dest_ch$ = 40
_Count$ = 48
_First$ = 144
_Last$ = 152
_Dest$ = 160
??$_Copy_memmove@PEAUVertexDefault@@PEAU1@@std@@YAPEAUVertexDefault@@PEAU1@00@Z PROC ; std::_Copy_memmove<VertexDefault *,VertexDefault *>, COMDAT

; 4509 : _OutCtgIt _Copy_memmove(_CtgIt _First, _CtgIt _Last, _OutCtgIt _Dest) {

$LN3:
  00000	4c 89 44 24 18	 mov	 QWORD PTR [rsp+24], r8
  00005	48 89 54 24 10	 mov	 QWORD PTR [rsp+16], rdx
  0000a	48 89 4c 24 08	 mov	 QWORD PTR [rsp+8], rcx
  0000f	55		 push	 rbp
  00010	48 81 ec a0 00
	00 00		 sub	 rsp, 160		; 000000a0H
  00017	48 8d 6c 24 20	 lea	 rbp, QWORD PTR [rsp+32]
  0001c	48 8d 0d 00 00
	00 00		 lea	 rcx, OFFSET FLAT:__B7320FC0_xutility
  00023	e8 00 00 00 00	 call	 __CheckForDebuggerJustMyCode

; 4510 :     auto _FirstPtr              = _To_address(_First);

  00028	48 8d 8d 90 00
	00 00		 lea	 rcx, QWORD PTR _First$[rbp]
  0002f	e8 00 00 00 00	 call	 ??$_To_address@PEAUVertexDefault@@@std@@YA?A_PAEBQEAUVertexDefault@@@Z ; std::_To_address<VertexDefault *>
  00034	48 89 45 00	 mov	 QWORD PTR _FirstPtr$[rbp], rax

; 4511 :     auto _LastPtr               = _To_address(_Last);

  00038	48 8d 8d 98 00
	00 00		 lea	 rcx, QWORD PTR _Last$[rbp]
  0003f	e8 00 00 00 00	 call	 ??$_To_address@PEAUVertexDefault@@@std@@YA?A_PAEBQEAUVertexDefault@@@Z ; std::_To_address<VertexDefault *>
  00044	48 89 45 08	 mov	 QWORD PTR _LastPtr$[rbp], rax

; 4512 :     auto _DestPtr               = _To_address(_Dest);

  00048	48 8d 8d a0 00
	00 00		 lea	 rcx, QWORD PTR _Dest$[rbp]
  0004f	e8 00 00 00 00	 call	 ??$_To_address@PEAUVertexDefault@@@std@@YA?A_PAEBQEAUVertexDefault@@@Z ; std::_To_address<VertexDefault *>
  00054	48 89 45 10	 mov	 QWORD PTR _DestPtr$[rbp], rax

; 4513 :     const char* const _First_ch = const_cast<const char*>(reinterpret_cast<const volatile char*>(_FirstPtr));

  00058	48 8b 45 00	 mov	 rax, QWORD PTR _FirstPtr$[rbp]
  0005c	48 89 45 18	 mov	 QWORD PTR _First_ch$[rbp], rax

; 4514 :     const char* const _Last_ch  = const_cast<const char*>(reinterpret_cast<const volatile char*>(_LastPtr));

  00060	48 8b 45 08	 mov	 rax, QWORD PTR _LastPtr$[rbp]
  00064	48 89 45 20	 mov	 QWORD PTR _Last_ch$[rbp], rax

; 4515 :     char* const _Dest_ch        = const_cast<char*>(reinterpret_cast<const volatile char*>(_DestPtr));

  00068	48 8b 45 10	 mov	 rax, QWORD PTR _DestPtr$[rbp]
  0006c	48 89 45 28	 mov	 QWORD PTR _Dest_ch$[rbp], rax

; 4516 :     const auto _Count           = static_cast<size_t>(_Last_ch - _First_ch);

  00070	48 8b 45 18	 mov	 rax, QWORD PTR _First_ch$[rbp]
  00074	48 8b 4d 20	 mov	 rcx, QWORD PTR _Last_ch$[rbp]
  00078	48 2b c8	 sub	 rcx, rax
  0007b	48 8b c1	 mov	 rax, rcx
  0007e	48 89 45 30	 mov	 QWORD PTR _Count$[rbp], rax

; 4517 :     _CSTD memmove(_Dest_ch, _First_ch, _Count);

  00082	4c 8b 45 30	 mov	 r8, QWORD PTR _Count$[rbp]
  00086	48 8b 55 18	 mov	 rdx, QWORD PTR _First_ch$[rbp]
  0008a	48 8b 4d 28	 mov	 rcx, QWORD PTR _Dest_ch$[rbp]
  0008e	e8 00 00 00 00	 call	 memmove

; 4518 :     if constexpr (is_pointer_v<_OutCtgIt>) {
; 4519 :         return reinterpret_cast<_OutCtgIt>(_Dest_ch + _Count);

  00093	48 8b 45 30	 mov	 rax, QWORD PTR _Count$[rbp]
  00097	48 8b 4d 28	 mov	 rcx, QWORD PTR _Dest_ch$[rbp]
  0009b	48 03 c8	 add	 rcx, rax
  0009e	48 8b c1	 mov	 rax, rcx

; 4520 :     } else {
; 4521 :         return _Dest + (_LastPtr - _FirstPtr);
; 4522 :     }
; 4523 : }

  000a1	48 8d a5 80 00
	00 00		 lea	 rsp, QWORD PTR [rbp+128]
  000a8	5d		 pop	 rbp
  000a9	c3		 ret	 0
??$_Copy_memmove@PEAUVertexDefault@@PEAU1@@std@@YAPEAUVertexDefault@@PEAU1@00@Z ENDP ; std::_Copy_memmove<VertexDefault *,VertexDefault *>
_TEXT	ENDS
; Function compile flags: /Odtp /ZI
; File C:\Program Files\Microsoft Visual Studio\2022\Preview\VC\Tools\MSVC\14.38.33030\include\xmemory
;	COMDAT ??$_Unfancy@UVertexDefault@@@std@@YAPEAUVertexDefault@@PEAU1@@Z
_TEXT	SEGMENT
_Ptr$ = 80
??$_Unfancy@UVertexDefault@@@std@@YAPEAUVertexDefault@@PEAU1@@Z PROC ; std::_Unfancy<VertexDefault>, COMDAT

; 35   : _NODISCARD constexpr _Ty* _Unfancy(_Ty* _Ptr) noexcept { // do nothing for plain pointers

$LN3:
  00000	48 89 4c 24 08	 mov	 QWORD PTR [rsp+8], rcx
  00005	55		 push	 rbp
  00006	48 83 ec 60	 sub	 rsp, 96			; 00000060H
  0000a	48 8d 6c 24 20	 lea	 rbp, QWORD PTR [rsp+32]
  0000f	48 8d 0d 00 00
	00 00		 lea	 rcx, OFFSET FLAT:__67F55BEA_xmemory
  00016	e8 00 00 00 00	 call	 __CheckForDebuggerJustMyCode

; 36   :     return _Ptr;

  0001b	48 8b 45 50	 mov	 rax, QWORD PTR _Ptr$[rbp]

; 37   : }

  0001f	48 8d 65 40	 lea	 rsp, QWORD PTR [rbp+64]
  00023	5d		 pop	 rbp
  00024	c3		 ret	 0
??$_Unfancy@UVertexDefault@@@std@@YAPEAUVertexDefault@@PEAU1@@Z ENDP ; std::_Unfancy<VertexDefault>
_TEXT	ENDS
; Function compile flags: /Odtp /ZI
; File C:\Program Files\Microsoft Visual Studio\2022\Preview\VC\Tools\MSVC\14.38.33030\include\xutility
;	COMDAT ??$to_address@UVertexDefault@@@std@@YAPEAUVertexDefault@@QEAU1@@Z
_TEXT	SEGMENT
_Val$ = 80
??$to_address@UVertexDefault@@@std@@YAPEAUVertexDefault@@QEAU1@@Z PROC ; std::to_address<VertexDefault>, COMDAT

; 328  : _NODISCARD constexpr _Ty* to_address(_Ty* const _Val) noexcept {

$LN3:
  00000	48 89 4c 24 08	 mov	 QWORD PTR [rsp+8], rcx
  00005	55		 push	 rbp
  00006	48 83 ec 60	 sub	 rsp, 96			; 00000060H
  0000a	48 8d 6c 24 20	 lea	 rbp, QWORD PTR [rsp+32]
  0000f	48 8d 0d 00 00
	00 00		 lea	 rcx, OFFSET FLAT:__B7320FC0_xutility
  00016	e8 00 00 00 00	 call	 __CheckForDebuggerJustMyCode

; 329  :     static_assert(!is_function_v<_Ty>, "N4950 [pointer.conversion]/1: Mandates: T is not a function type.");
; 330  :     return _Val;

  0001b	48 8b 45 50	 mov	 rax, QWORD PTR _Val$[rbp]

; 331  : }

  0001f	48 8d 65 40	 lea	 rsp, QWORD PTR [rbp+64]
  00023	5d		 pop	 rbp
  00024	c3		 ret	 0
??$to_address@UVertexDefault@@@std@@YAPEAUVertexDefault@@QEAU1@@Z ENDP ; std::to_address<VertexDefault>
_TEXT	ENDS
; Function compile flags: /Odtp /ZI
; File C:\Program Files\Microsoft Visual Studio\2022\Preview\VC\Tools\MSVC\14.38.33030\include\xutility
;	COMDAT ??$_To_address@PEAUVertexDefault@@@std@@YA?A_PAEBQEAUVertexDefault@@@Z
_TEXT	SEGMENT
_Val$ = 80
??$_To_address@PEAUVertexDefault@@@std@@YA?A_PAEBQEAUVertexDefault@@@Z PROC ; std::_To_address<VertexDefault *>, COMDAT

; 4377 : _NODISCARD constexpr auto _To_address(const _Iter& _Val) noexcept {

$LN3:
  00000	48 89 4c 24 08	 mov	 QWORD PTR [rsp+8], rcx
  00005	55		 push	 rbp
  00006	48 83 ec 60	 sub	 rsp, 96			; 00000060H
  0000a	48 8d 6c 24 20	 lea	 rbp, QWORD PTR [rsp+32]
  0000f	48 8d 0d 00 00
	00 00		 lea	 rcx, OFFSET FLAT:__B7320FC0_xutility
  00016	e8 00 00 00 00	 call	 __CheckForDebuggerJustMyCode

; 4378 :     _STL_INTERNAL_STATIC_ASSERT(contiguous_iterator<_Iter>);
; 4379 :     return _STD to_address(_Val);

  0001b	48 8b 45 50	 mov	 rax, QWORD PTR _Val$[rbp]
  0001f	48 8b 08	 mov	 rcx, QWORD PTR [rax]
  00022	e8 00 00 00 00	 call	 ??$to_address@UVertexDefault@@@std@@YAPEAUVertexDefault@@QEAU1@@Z ; std::to_address<VertexDefault>

; 4380 : }

  00027	48 8d 65 40	 lea	 rsp, QWORD PTR [rbp+64]
  0002b	5d		 pop	 rbp
  0002c	c3		 ret	 0
??$_To_address@PEAUVertexDefault@@@std@@YA?A_PAEBQEAUVertexDefault@@@Z ENDP ; std::_To_address<VertexDefault *>
_TEXT	ENDS
; Function compile flags: /Odtp /ZI
; File C:\Program Files\Microsoft Visual Studio\2022\Preview\VC\Tools\MSVC\14.38.33030\include\xutility
;	COMDAT ??$_Unwrap_sent@PEAUVertexDefault@@PEAU1@@ranges@std@@YA?A_T$$QEAPEAUVertexDefault@@@Z
_TEXT	SEGMENT
_Se$ = 80
??$_Unwrap_sent@PEAUVertexDefault@@PEAU1@@ranges@std@@YA?A_T$$QEAPEAUVertexDefault@@@Z PROC ; std::ranges::_Unwrap_sent<VertexDefault *,VertexDefault *>, COMDAT

; 2510 :         !_Unwrappable_sentinel_for<_Sent, _Iter> || _Has_nothrow_unwrapped<_Sent>) {

$LN3:
  00000	48 89 4c 24 08	 mov	 QWORD PTR [rsp+8], rcx
  00005	55		 push	 rbp
  00006	48 83 ec 60	 sub	 rsp, 96			; 00000060H
  0000a	48 8d 6c 24 20	 lea	 rbp, QWORD PTR [rsp+32]
  0000f	48 8d 0d 00 00
	00 00		 lea	 rcx, OFFSET FLAT:__B7320FC0_xutility
  00016	e8 00 00 00 00	 call	 __CheckForDebuggerJustMyCode

; 2511 :         _STL_INTERNAL_STATIC_ASSERT(sentinel_for<remove_cvref_t<_Sent>, remove_cvref_t<_Iter>>);
; 2512 :         if constexpr (is_pointer_v<remove_cvref_t<_Sent>>) {
; 2513 :             return _Se + 0;

  0001b	48 8b 45 50	 mov	 rax, QWORD PTR _Se$[rbp]
  0001f	48 8b 00	 mov	 rax, QWORD PTR [rax]

; 2514 :         } else if constexpr (_Unwrappable_sentinel_for<_Sent, _Iter>) {
; 2515 :             return static_cast<_Sent&&>(_Se)._Unwrapped();
; 2516 :         } else {
; 2517 :             return static_cast<_Sent&&>(_Se);
; 2518 :         }
; 2519 :     }

  00022	48 8d 65 40	 lea	 rsp, QWORD PTR [rbp+64]
  00026	5d		 pop	 rbp
  00027	c3		 ret	 0
??$_Unwrap_sent@PEAUVertexDefault@@PEAU1@@ranges@std@@YA?A_T$$QEAPEAUVertexDefault@@@Z ENDP ; std::ranges::_Unwrap_sent<VertexDefault *,VertexDefault *>
_TEXT	ENDS
; Function compile flags: /Odtp /ZI
; File C:\Program Files\Microsoft Visual Studio\2022\Preview\VC\Tools\MSVC\14.38.33030\include\xutility
;	COMDAT ??$_Unwrap_iter@PEAUVertexDefault@@PEAU1@@ranges@std@@YA?A_T$$QEAPEAUVertexDefault@@@Z
_TEXT	SEGMENT
_It$ = 80
??$_Unwrap_iter@PEAUVertexDefault@@PEAU1@@ranges@std@@YA?A_T$$QEAPEAUVertexDefault@@@Z PROC ; std::ranges::_Unwrap_iter<VertexDefault *,VertexDefault *>, COMDAT

; 2497 :         !_Unwrappable_sentinel_for<_Sent, _Iter> || _Has_nothrow_unwrapped<_Iter>) {

$LN3:
  00000	48 89 4c 24 08	 mov	 QWORD PTR [rsp+8], rcx
  00005	55		 push	 rbp
  00006	48 83 ec 60	 sub	 rsp, 96			; 00000060H
  0000a	48 8d 6c 24 20	 lea	 rbp, QWORD PTR [rsp+32]
  0000f	48 8d 0d 00 00
	00 00		 lea	 rcx, OFFSET FLAT:__B7320FC0_xutility
  00016	e8 00 00 00 00	 call	 __CheckForDebuggerJustMyCode

; 2498 :         _STL_INTERNAL_STATIC_ASSERT(sentinel_for<remove_cvref_t<_Sent>, remove_cvref_t<_Iter>>);
; 2499 :         if constexpr (is_pointer_v<remove_cvref_t<_Iter>>) {
; 2500 :             return _It + 0;

  0001b	48 8b 45 50	 mov	 rax, QWORD PTR _It$[rbp]
  0001f	48 8b 00	 mov	 rax, QWORD PTR [rax]

; 2501 :         } else if constexpr (_Unwrappable_sentinel_for<_Sent, _Iter>) {
; 2502 :             return static_cast<_Iter&&>(_It)._Unwrapped();
; 2503 :         } else {
; 2504 :             return static_cast<_Iter&&>(_It);
; 2505 :         }
; 2506 :     }

  00022	48 8d 65 40	 lea	 rsp, QWORD PTR [rbp+64]
  00026	5d		 pop	 rbp
  00027	c3		 ret	 0
??$_Unwrap_iter@PEAUVertexDefault@@PEAU1@@ranges@std@@YA?A_T$$QEAPEAUVertexDefault@@@Z ENDP ; std::ranges::_Unwrap_iter<VertexDefault *,VertexDefault *>
_TEXT	ENDS
; Function compile flags: /Odtp /ZI
; File C:\Program Files\Microsoft Visual Studio\2022\Preview\VC\Tools\MSVC\14.38.33030\include\xmemory
;	COMDAT ??$_Emplace_back@AEAG@?$_Uninitialized_backout_al@V?$allocator@G@std@@@std@@QEAAXAEAG@Z
_TEXT	SEGMENT
tv74 = 64
tv72 = 72
this$ = 96
<_Vals_0>$ = 104
??$_Emplace_back@AEAG@?$_Uninitialized_backout_al@V?$allocator@G@std@@@std@@QEAAXAEAG@Z PROC ; std::_Uninitialized_backout_al<std::allocator<unsigned short> >::_Emplace_back<unsigned short &>, COMDAT

; 1800 :     _CONSTEXPR20 void _Emplace_back(_Types&&... _Vals) { // construct a new element at *_Last and increment

$LN3:
  00000	48 89 54 24 10	 mov	 QWORD PTR [rsp+16], rdx
  00005	48 89 4c 24 08	 mov	 QWORD PTR [rsp+8], rcx
  0000a	55		 push	 rbp
  0000b	48 83 ec 70	 sub	 rsp, 112		; 00000070H
  0000f	48 8d 6c 24 20	 lea	 rbp, QWORD PTR [rsp+32]
  00014	48 8d 0d 00 00
	00 00		 lea	 rcx, OFFSET FLAT:__67F55BEA_xmemory
  0001b	e8 00 00 00 00	 call	 __CheckForDebuggerJustMyCode

; 1801 :         allocator_traits<_Alloc>::construct(_Al, _Unfancy(_Last), _STD forward<_Types>(_Vals)...);

  00020	48 8b 45 60	 mov	 rax, QWORD PTR this$[rbp]
  00024	48 8b 48 08	 mov	 rcx, QWORD PTR [rax+8]
  00028	e8 00 00 00 00	 call	 ??$_Unfancy@G@std@@YAPEAGPEAG@Z ; std::_Unfancy<unsigned short>
  0002d	48 89 45 40	 mov	 QWORD PTR tv74[rbp], rax
  00031	48 8b 45 60	 mov	 rax, QWORD PTR this$[rbp]
  00035	48 8b 40 10	 mov	 rax, QWORD PTR [rax+16]
  00039	48 89 45 48	 mov	 QWORD PTR tv72[rbp], rax
  0003d	4c 8b 45 68	 mov	 r8, QWORD PTR <_Vals_0>$[rbp]
  00041	48 8b 55 40	 mov	 rdx, QWORD PTR tv74[rbp]
  00045	48 8b 4d 48	 mov	 rcx, QWORD PTR tv72[rbp]
  00049	e8 00 00 00 00	 call	 ??$construct@GAEAG@?$_Default_allocator_traits@V?$allocator@G@std@@@std@@SAXAEAV?$allocator@G@1@QEAGAEAG@Z ; std::_Default_allocator_traits<std::allocator<unsigned short> >::construct<unsigned short,unsigned short &>

; 1802 :         ++_Last;

  0004e	48 8b 45 60	 mov	 rax, QWORD PTR this$[rbp]
  00052	48 8b 40 08	 mov	 rax, QWORD PTR [rax+8]
  00056	48 83 c0 02	 add	 rax, 2
  0005a	48 8b 4d 60	 mov	 rcx, QWORD PTR this$[rbp]
  0005e	48 89 41 08	 mov	 QWORD PTR [rcx+8], rax

; 1803 :     }

  00062	48 8d 65 50	 lea	 rsp, QWORD PTR [rbp+80]
  00066	5d		 pop	 rbp
  00067	c3		 ret	 0
??$_Emplace_back@AEAG@?$_Uninitialized_backout_al@V?$allocator@G@std@@@std@@QEAAXAEAG@Z ENDP ; std::_Uninitialized_backout_al<std::allocator<unsigned short> >::_Emplace_back<unsigned short &>
_TEXT	ENDS
; Function compile flags: /Odtp /ZI
; File C:\Program Files\Microsoft Visual Studio\2022\Preview\VC\Tools\MSVC\14.38.33030\include\xmemory
;	COMDAT ?_Release@?$_Uninitialized_backout_al@V?$allocator@G@std@@@std@@QEAAPEAGXZ
_TEXT	SEGMENT
this$ = 80
?_Release@?$_Uninitialized_backout_al@V?$allocator@G@std@@@std@@QEAAPEAGXZ PROC ; std::_Uninitialized_backout_al<std::allocator<unsigned short> >::_Release, COMDAT

; 1805 :     constexpr pointer _Release() { // suppress any exception handling backout and return _Last

$LN3:
  00000	48 89 4c 24 08	 mov	 QWORD PTR [rsp+8], rcx
  00005	55		 push	 rbp
  00006	48 83 ec 60	 sub	 rsp, 96			; 00000060H
  0000a	48 8d 6c 24 20	 lea	 rbp, QWORD PTR [rsp+32]
  0000f	48 8d 0d 00 00
	00 00		 lea	 rcx, OFFSET FLAT:__67F55BEA_xmemory
  00016	e8 00 00 00 00	 call	 __CheckForDebuggerJustMyCode

; 1806 :         _First = _Last;

  0001b	48 8b 45 50	 mov	 rax, QWORD PTR this$[rbp]
  0001f	48 8b 4d 50	 mov	 rcx, QWORD PTR this$[rbp]
  00023	48 8b 49 08	 mov	 rcx, QWORD PTR [rcx+8]
  00027	48 89 08	 mov	 QWORD PTR [rax], rcx

; 1807 :         return _Last;

  0002a	48 8b 45 50	 mov	 rax, QWORD PTR this$[rbp]
  0002e	48 8b 40 08	 mov	 rax, QWORD PTR [rax+8]

; 1808 :     }

  00032	48 8d 65 40	 lea	 rsp, QWORD PTR [rbp+64]
  00036	5d		 pop	 rbp
  00037	c3		 ret	 0
?_Release@?$_Uninitialized_backout_al@V?$allocator@G@std@@@std@@QEAAPEAGXZ ENDP ; std::_Uninitialized_backout_al<std::allocator<unsigned short> >::_Release
_TEXT	ENDS
; Function compile flags: /Odtp /ZI
; File C:\Program Files\Microsoft Visual Studio\2022\Preview\VC\Tools\MSVC\14.38.33030\include\xmemory
;	COMDAT ??1?$_Uninitialized_backout_al@V?$allocator@G@std@@@std@@QEAA@XZ
_TEXT	SEGMENT
this$ = 80
??1?$_Uninitialized_backout_al@V?$allocator@G@std@@@std@@QEAA@XZ PROC ; std::_Uninitialized_backout_al<std::allocator<unsigned short> >::~_Uninitialized_backout_al<std::allocator<unsigned short> >, COMDAT

; 1795 :     _CONSTEXPR20 ~_Uninitialized_backout_al() {

$LN3:
  00000	48 89 4c 24 08	 mov	 QWORD PTR [rsp+8], rcx
  00005	55		 push	 rbp
  00006	48 83 ec 60	 sub	 rsp, 96			; 00000060H
  0000a	48 8d 6c 24 20	 lea	 rbp, QWORD PTR [rsp+32]
  0000f	48 8d 0d 00 00
	00 00		 lea	 rcx, OFFSET FLAT:__67F55BEA_xmemory
  00016	e8 00 00 00 00	 call	 __CheckForDebuggerJustMyCode

; 1796 :         _Destroy_range(_First, _Last, _Al);

  0001b	48 8b 45 50	 mov	 rax, QWORD PTR this$[rbp]
  0001f	4c 8b 40 10	 mov	 r8, QWORD PTR [rax+16]
  00023	48 8b 45 50	 mov	 rax, QWORD PTR this$[rbp]
  00027	48 8b 50 08	 mov	 rdx, QWORD PTR [rax+8]
  0002b	48 8b 45 50	 mov	 rax, QWORD PTR this$[rbp]
  0002f	48 8b 08	 mov	 rcx, QWORD PTR [rax]
  00032	e8 00 00 00 00	 call	 ??$_Destroy_range@V?$allocator@G@std@@@std@@YAXPEAGQEAGAEAV?$allocator@G@0@@Z ; std::_Destroy_range<std::allocator<unsigned short> >

; 1797 :     }

  00037	48 8d 65 40	 lea	 rsp, QWORD PTR [rbp+64]
  0003b	5d		 pop	 rbp
  0003c	c3		 ret	 0
??1?$_Uninitialized_backout_al@V?$allocator@G@std@@@std@@QEAA@XZ ENDP ; std::_Uninitialized_backout_al<std::allocator<unsigned short> >::~_Uninitialized_backout_al<std::allocator<unsigned short> >
_TEXT	ENDS
; Function compile flags: /Odtp /ZI
; File C:\Program Files\Microsoft Visual Studio\2022\Preview\VC\Tools\MSVC\14.38.33030\include\xmemory
;	COMDAT ??0?$_Uninitialized_backout_al@V?$allocator@G@std@@@std@@QEAA@PEAGAEAV?$allocator@G@1@@Z
_TEXT	SEGMENT
this$ = 80
_Dest$ = 88
_Al_$ = 96
??0?$_Uninitialized_backout_al@V?$allocator@G@std@@@std@@QEAA@PEAGAEAV?$allocator@G@1@@Z PROC ; std::_Uninitialized_backout_al<std::allocator<unsigned short> >::_Uninitialized_backout_al<std::allocator<unsigned short> >, COMDAT

; 1790 :     _CONSTEXPR20 _Uninitialized_backout_al(pointer _Dest, _Alloc& _Al_) : _First(_Dest), _Last(_Dest), _Al(_Al_) {}

$LN3:
  00000	4c 89 44 24 18	 mov	 QWORD PTR [rsp+24], r8
  00005	48 89 54 24 10	 mov	 QWORD PTR [rsp+16], rdx
  0000a	48 89 4c 24 08	 mov	 QWORD PTR [rsp+8], rcx
  0000f	55		 push	 rbp
  00010	48 83 ec 60	 sub	 rsp, 96			; 00000060H
  00014	48 8d 6c 24 20	 lea	 rbp, QWORD PTR [rsp+32]
  00019	48 8d 0d 00 00
	00 00		 lea	 rcx, OFFSET FLAT:__67F55BEA_xmemory
  00020	e8 00 00 00 00	 call	 __CheckForDebuggerJustMyCode
  00025	48 8b 45 50	 mov	 rax, QWORD PTR this$[rbp]
  00029	48 8b 4d 58	 mov	 rcx, QWORD PTR _Dest$[rbp]
  0002d	48 89 08	 mov	 QWORD PTR [rax], rcx
  00030	48 8b 45 50	 mov	 rax, QWORD PTR this$[rbp]
  00034	48 8b 4d 58	 mov	 rcx, QWORD PTR _Dest$[rbp]
  00038	48 89 48 08	 mov	 QWORD PTR [rax+8], rcx
  0003c	48 8b 45 50	 mov	 rax, QWORD PTR this$[rbp]
  00040	48 8b 4d 60	 mov	 rcx, QWORD PTR _Al_$[rbp]
  00044	48 89 48 10	 mov	 QWORD PTR [rax+16], rcx
  00048	48 8b 45 50	 mov	 rax, QWORD PTR this$[rbp]
  0004c	48 8d 65 40	 lea	 rsp, QWORD PTR [rbp+64]
  00050	5d		 pop	 rbp
  00051	c3		 ret	 0
??0?$_Uninitialized_backout_al@V?$allocator@G@std@@@std@@QEAA@PEAGAEAV?$allocator@G@1@@Z ENDP ; std::_Uninitialized_backout_al<std::allocator<unsigned short> >::_Uninitialized_backout_al<std::allocator<unsigned short> >
_TEXT	ENDS
; Function compile flags: /Odtp /ZI
; File C:\Program Files\Microsoft Visual Studio\2022\Preview\VC\Tools\MSVC\14.38.33030\include\xutility
;	COMDAT ??$_Copy_memmove@PEAGPEAG@std@@YAPEAGPEAG00@Z
_TEXT	SEGMENT
_FirstPtr$ = 0
_LastPtr$ = 8
_DestPtr$ = 16
_First_ch$ = 24
_Last_ch$ = 32
_Dest_ch$ = 40
_Count$ = 48
_First$ = 144
_Last$ = 152
_Dest$ = 160
??$_Copy_memmove@PEAGPEAG@std@@YAPEAGPEAG00@Z PROC	; std::_Copy_memmove<unsigned short *,unsigned short *>, COMDAT

; 4509 : _OutCtgIt _Copy_memmove(_CtgIt _First, _CtgIt _Last, _OutCtgIt _Dest) {

$LN3:
  00000	4c 89 44 24 18	 mov	 QWORD PTR [rsp+24], r8
  00005	48 89 54 24 10	 mov	 QWORD PTR [rsp+16], rdx
  0000a	48 89 4c 24 08	 mov	 QWORD PTR [rsp+8], rcx
  0000f	55		 push	 rbp
  00010	48 81 ec a0 00
	00 00		 sub	 rsp, 160		; 000000a0H
  00017	48 8d 6c 24 20	 lea	 rbp, QWORD PTR [rsp+32]
  0001c	48 8d 0d 00 00
	00 00		 lea	 rcx, OFFSET FLAT:__B7320FC0_xutility
  00023	e8 00 00 00 00	 call	 __CheckForDebuggerJustMyCode

; 4510 :     auto _FirstPtr              = _To_address(_First);

  00028	48 8d 8d 90 00
	00 00		 lea	 rcx, QWORD PTR _First$[rbp]
  0002f	e8 00 00 00 00	 call	 ??$_To_address@PEAG@std@@YA?A_PAEBQEAG@Z ; std::_To_address<unsigned short *>
  00034	48 89 45 00	 mov	 QWORD PTR _FirstPtr$[rbp], rax

; 4511 :     auto _LastPtr               = _To_address(_Last);

  00038	48 8d 8d 98 00
	00 00		 lea	 rcx, QWORD PTR _Last$[rbp]
  0003f	e8 00 00 00 00	 call	 ??$_To_address@PEAG@std@@YA?A_PAEBQEAG@Z ; std::_To_address<unsigned short *>
  00044	48 89 45 08	 mov	 QWORD PTR _LastPtr$[rbp], rax

; 4512 :     auto _DestPtr               = _To_address(_Dest);

  00048	48 8d 8d a0 00
	00 00		 lea	 rcx, QWORD PTR _Dest$[rbp]
  0004f	e8 00 00 00 00	 call	 ??$_To_address@PEAG@std@@YA?A_PAEBQEAG@Z ; std::_To_address<unsigned short *>
  00054	48 89 45 10	 mov	 QWORD PTR _DestPtr$[rbp], rax

; 4513 :     const char* const _First_ch = const_cast<const char*>(reinterpret_cast<const volatile char*>(_FirstPtr));

  00058	48 8b 45 00	 mov	 rax, QWORD PTR _FirstPtr$[rbp]
  0005c	48 89 45 18	 mov	 QWORD PTR _First_ch$[rbp], rax

; 4514 :     const char* const _Last_ch  = const_cast<const char*>(reinterpret_cast<const volatile char*>(_LastPtr));

  00060	48 8b 45 08	 mov	 rax, QWORD PTR _LastPtr$[rbp]
  00064	48 89 45 20	 mov	 QWORD PTR _Last_ch$[rbp], rax

; 4515 :     char* const _Dest_ch        = const_cast<char*>(reinterpret_cast<const volatile char*>(_DestPtr));

  00068	48 8b 45 10	 mov	 rax, QWORD PTR _DestPtr$[rbp]
  0006c	48 89 45 28	 mov	 QWORD PTR _Dest_ch$[rbp], rax

; 4516 :     const auto _Count           = static_cast<size_t>(_Last_ch - _First_ch);

  00070	48 8b 45 18	 mov	 rax, QWORD PTR _First_ch$[rbp]
  00074	48 8b 4d 20	 mov	 rcx, QWORD PTR _Last_ch$[rbp]
  00078	48 2b c8	 sub	 rcx, rax
  0007b	48 8b c1	 mov	 rax, rcx
  0007e	48 89 45 30	 mov	 QWORD PTR _Count$[rbp], rax

; 4517 :     _CSTD memmove(_Dest_ch, _First_ch, _Count);

  00082	4c 8b 45 30	 mov	 r8, QWORD PTR _Count$[rbp]
  00086	48 8b 55 18	 mov	 rdx, QWORD PTR _First_ch$[rbp]
  0008a	48 8b 4d 28	 mov	 rcx, QWORD PTR _Dest_ch$[rbp]
  0008e	e8 00 00 00 00	 call	 memmove

; 4518 :     if constexpr (is_pointer_v<_OutCtgIt>) {
; 4519 :         return reinterpret_cast<_OutCtgIt>(_Dest_ch + _Count);

  00093	48 8b 45 30	 mov	 rax, QWORD PTR _Count$[rbp]
  00097	48 8b 4d 28	 mov	 rcx, QWORD PTR _Dest_ch$[rbp]
  0009b	48 03 c8	 add	 rcx, rax
  0009e	48 8b c1	 mov	 rax, rcx

; 4520 :     } else {
; 4521 :         return _Dest + (_LastPtr - _FirstPtr);
; 4522 :     }
; 4523 : }

  000a1	48 8d a5 80 00
	00 00		 lea	 rsp, QWORD PTR [rbp+128]
  000a8	5d		 pop	 rbp
  000a9	c3		 ret	 0
??$_Copy_memmove@PEAGPEAG@std@@YAPEAGPEAG00@Z ENDP	; std::_Copy_memmove<unsigned short *,unsigned short *>
_TEXT	ENDS
; Function compile flags: /Odtp /ZI
; File C:\Program Files\Microsoft Visual Studio\2022\Preview\VC\Tools\MSVC\14.38.33030\include\xmemory
;	COMDAT ??$_Unfancy@G@std@@YAPEAGPEAG@Z
_TEXT	SEGMENT
_Ptr$ = 80
??$_Unfancy@G@std@@YAPEAGPEAG@Z PROC			; std::_Unfancy<unsigned short>, COMDAT

; 35   : _NODISCARD constexpr _Ty* _Unfancy(_Ty* _Ptr) noexcept { // do nothing for plain pointers

$LN3:
  00000	48 89 4c 24 08	 mov	 QWORD PTR [rsp+8], rcx
  00005	55		 push	 rbp
  00006	48 83 ec 60	 sub	 rsp, 96			; 00000060H
  0000a	48 8d 6c 24 20	 lea	 rbp, QWORD PTR [rsp+32]
  0000f	48 8d 0d 00 00
	00 00		 lea	 rcx, OFFSET FLAT:__67F55BEA_xmemory
  00016	e8 00 00 00 00	 call	 __CheckForDebuggerJustMyCode

; 36   :     return _Ptr;

  0001b	48 8b 45 50	 mov	 rax, QWORD PTR _Ptr$[rbp]

; 37   : }

  0001f	48 8d 65 40	 lea	 rsp, QWORD PTR [rbp+64]
  00023	5d		 pop	 rbp
  00024	c3		 ret	 0
??$_Unfancy@G@std@@YAPEAGPEAG@Z ENDP			; std::_Unfancy<unsigned short>
_TEXT	ENDS
; Function compile flags: /Odtp /ZI
; File C:\Program Files\Microsoft Visual Studio\2022\Preview\VC\Tools\MSVC\14.38.33030\include\xutility
;	COMDAT ??$to_address@G@std@@YAPEAGQEAG@Z
_TEXT	SEGMENT
_Val$ = 80
??$to_address@G@std@@YAPEAGQEAG@Z PROC			; std::to_address<unsigned short>, COMDAT

; 328  : _NODISCARD constexpr _Ty* to_address(_Ty* const _Val) noexcept {

$LN3:
  00000	48 89 4c 24 08	 mov	 QWORD PTR [rsp+8], rcx
  00005	55		 push	 rbp
  00006	48 83 ec 60	 sub	 rsp, 96			; 00000060H
  0000a	48 8d 6c 24 20	 lea	 rbp, QWORD PTR [rsp+32]
  0000f	48 8d 0d 00 00
	00 00		 lea	 rcx, OFFSET FLAT:__B7320FC0_xutility
  00016	e8 00 00 00 00	 call	 __CheckForDebuggerJustMyCode

; 329  :     static_assert(!is_function_v<_Ty>, "N4950 [pointer.conversion]/1: Mandates: T is not a function type.");
; 330  :     return _Val;

  0001b	48 8b 45 50	 mov	 rax, QWORD PTR _Val$[rbp]

; 331  : }

  0001f	48 8d 65 40	 lea	 rsp, QWORD PTR [rbp+64]
  00023	5d		 pop	 rbp
  00024	c3		 ret	 0
??$to_address@G@std@@YAPEAGQEAG@Z ENDP			; std::to_address<unsigned short>
_TEXT	ENDS
; Function compile flags: /Odtp /ZI
; File C:\Program Files\Microsoft Visual Studio\2022\Preview\VC\Tools\MSVC\14.38.33030\include\xutility
;	COMDAT ??$_To_address@PEAG@std@@YA?A_PAEBQEAG@Z
_TEXT	SEGMENT
_Val$ = 80
??$_To_address@PEAG@std@@YA?A_PAEBQEAG@Z PROC		; std::_To_address<unsigned short *>, COMDAT

; 4377 : _NODISCARD constexpr auto _To_address(const _Iter& _Val) noexcept {

$LN3:
  00000	48 89 4c 24 08	 mov	 QWORD PTR [rsp+8], rcx
  00005	55		 push	 rbp
  00006	48 83 ec 60	 sub	 rsp, 96			; 00000060H
  0000a	48 8d 6c 24 20	 lea	 rbp, QWORD PTR [rsp+32]
  0000f	48 8d 0d 00 00
	00 00		 lea	 rcx, OFFSET FLAT:__B7320FC0_xutility
  00016	e8 00 00 00 00	 call	 __CheckForDebuggerJustMyCode

; 4378 :     _STL_INTERNAL_STATIC_ASSERT(contiguous_iterator<_Iter>);
; 4379 :     return _STD to_address(_Val);

  0001b	48 8b 45 50	 mov	 rax, QWORD PTR _Val$[rbp]
  0001f	48 8b 08	 mov	 rcx, QWORD PTR [rax]
  00022	e8 00 00 00 00	 call	 ??$to_address@G@std@@YAPEAGQEAG@Z ; std::to_address<unsigned short>

; 4380 : }

  00027	48 8d 65 40	 lea	 rsp, QWORD PTR [rbp+64]
  0002b	5d		 pop	 rbp
  0002c	c3		 ret	 0
??$_To_address@PEAG@std@@YA?A_PAEBQEAG@Z ENDP		; std::_To_address<unsigned short *>
_TEXT	ENDS
; Function compile flags: /Odtp /ZI
; File C:\Program Files\Microsoft Visual Studio\2022\Preview\VC\Tools\MSVC\14.38.33030\include\xutility
;	COMDAT ??$_Unwrap_sent@PEAGPEAG@ranges@std@@YA?A_T$$QEAPEAG@Z
_TEXT	SEGMENT
_Se$ = 80
??$_Unwrap_sent@PEAGPEAG@ranges@std@@YA?A_T$$QEAPEAG@Z PROC ; std::ranges::_Unwrap_sent<unsigned short *,unsigned short *>, COMDAT

; 2510 :         !_Unwrappable_sentinel_for<_Sent, _Iter> || _Has_nothrow_unwrapped<_Sent>) {

$LN3:
  00000	48 89 4c 24 08	 mov	 QWORD PTR [rsp+8], rcx
  00005	55		 push	 rbp
  00006	48 83 ec 60	 sub	 rsp, 96			; 00000060H
  0000a	48 8d 6c 24 20	 lea	 rbp, QWORD PTR [rsp+32]
  0000f	48 8d 0d 00 00
	00 00		 lea	 rcx, OFFSET FLAT:__B7320FC0_xutility
  00016	e8 00 00 00 00	 call	 __CheckForDebuggerJustMyCode

; 2511 :         _STL_INTERNAL_STATIC_ASSERT(sentinel_for<remove_cvref_t<_Sent>, remove_cvref_t<_Iter>>);
; 2512 :         if constexpr (is_pointer_v<remove_cvref_t<_Sent>>) {
; 2513 :             return _Se + 0;

  0001b	48 8b 45 50	 mov	 rax, QWORD PTR _Se$[rbp]
  0001f	48 8b 00	 mov	 rax, QWORD PTR [rax]

; 2514 :         } else if constexpr (_Unwrappable_sentinel_for<_Sent, _Iter>) {
; 2515 :             return static_cast<_Sent&&>(_Se)._Unwrapped();
; 2516 :         } else {
; 2517 :             return static_cast<_Sent&&>(_Se);
; 2518 :         }
; 2519 :     }

  00022	48 8d 65 40	 lea	 rsp, QWORD PTR [rbp+64]
  00026	5d		 pop	 rbp
  00027	c3		 ret	 0
??$_Unwrap_sent@PEAGPEAG@ranges@std@@YA?A_T$$QEAPEAG@Z ENDP ; std::ranges::_Unwrap_sent<unsigned short *,unsigned short *>
_TEXT	ENDS
; Function compile flags: /Odtp /ZI
; File C:\Program Files\Microsoft Visual Studio\2022\Preview\VC\Tools\MSVC\14.38.33030\include\xutility
;	COMDAT ??$_Unwrap_iter@PEAGPEAG@ranges@std@@YA?A_T$$QEAPEAG@Z
_TEXT	SEGMENT
_It$ = 80
??$_Unwrap_iter@PEAGPEAG@ranges@std@@YA?A_T$$QEAPEAG@Z PROC ; std::ranges::_Unwrap_iter<unsigned short *,unsigned short *>, COMDAT

; 2497 :         !_Unwrappable_sentinel_for<_Sent, _Iter> || _Has_nothrow_unwrapped<_Iter>) {

$LN3:
  00000	48 89 4c 24 08	 mov	 QWORD PTR [rsp+8], rcx
  00005	55		 push	 rbp
  00006	48 83 ec 60	 sub	 rsp, 96			; 00000060H
  0000a	48 8d 6c 24 20	 lea	 rbp, QWORD PTR [rsp+32]
  0000f	48 8d 0d 00 00
	00 00		 lea	 rcx, OFFSET FLAT:__B7320FC0_xutility
  00016	e8 00 00 00 00	 call	 __CheckForDebuggerJustMyCode

; 2498 :         _STL_INTERNAL_STATIC_ASSERT(sentinel_for<remove_cvref_t<_Sent>, remove_cvref_t<_Iter>>);
; 2499 :         if constexpr (is_pointer_v<remove_cvref_t<_Iter>>) {
; 2500 :             return _It + 0;

  0001b	48 8b 45 50	 mov	 rax, QWORD PTR _It$[rbp]
  0001f	48 8b 00	 mov	 rax, QWORD PTR [rax]

; 2501 :         } else if constexpr (_Unwrappable_sentinel_for<_Sent, _Iter>) {
; 2502 :             return static_cast<_Iter&&>(_It)._Unwrapped();
; 2503 :         } else {
; 2504 :             return static_cast<_Iter&&>(_It);
; 2505 :         }
; 2506 :     }

  00022	48 8d 65 40	 lea	 rsp, QWORD PTR [rbp+64]
  00026	5d		 pop	 rbp
  00027	c3		 ret	 0
??$_Unwrap_iter@PEAGPEAG@ranges@std@@YA?A_T$$QEAPEAG@Z ENDP ; std::ranges::_Unwrap_iter<unsigned short *,unsigned short *>
_TEXT	ENDS
; Function compile flags: /Odtp /ZI
; File C:\Program Files\Microsoft Visual Studio\2022\Preview\VC\Tools\MSVC\14.38.33030\include\xmemory
;	COMDAT ?deallocate@?$_Default_allocator_traits@V?$allocator@U_Container_proxy@std@@@std@@@std@@SAXAEAV?$allocator@U_Container_proxy@std@@@2@QEAU_Container_proxy@2@_K@Z
_TEXT	SEGMENT
_Al$ = 80
_Ptr$ = 88
_Count$ = 96
?deallocate@?$_Default_allocator_traits@V?$allocator@U_Container_proxy@std@@@std@@@std@@SAXAEAV?$allocator@U_Container_proxy@std@@@2@QEAU_Container_proxy@2@_K@Z PROC ; std::_Default_allocator_traits<std::allocator<std::_Container_proxy> >::deallocate, COMDAT

; 705  :     static _CONSTEXPR20 void deallocate(_Alloc& _Al, const pointer _Ptr, const size_type _Count) {

$LN5:
  00000	4c 89 44 24 18	 mov	 QWORD PTR [rsp+24], r8
  00005	48 89 54 24 10	 mov	 QWORD PTR [rsp+16], rdx
  0000a	48 89 4c 24 08	 mov	 QWORD PTR [rsp+8], rcx
  0000f	55		 push	 rbp
  00010	48 83 ec 60	 sub	 rsp, 96			; 00000060H
  00014	48 8d 6c 24 20	 lea	 rbp, QWORD PTR [rsp+32]
  00019	48 8d 0d 00 00
	00 00		 lea	 rcx, OFFSET FLAT:__67F55BEA_xmemory
  00020	e8 00 00 00 00	 call	 __CheckForDebuggerJustMyCode

; 706  :         // no overflow check on the following multiply; we assume _Allocate did that check
; 707  : #if _HAS_CXX20 // TRANSITION, GH-1532
; 708  :         if (_STD is_constant_evaluated()) {

  00025	e8 00 00 00 00	 call	 ?is_constant_evaluated@std@@YA_NXZ ; std::is_constant_evaluated
  0002a	0f b6 c0	 movzx	 eax, al
  0002d	85 c0		 test	 eax, eax
  0002f	74 13		 je	 SHORT $LN2@deallocate

; 709  :             _Al.deallocate(_Ptr, _Count);

  00031	4c 8b 45 60	 mov	 r8, QWORD PTR _Count$[rbp]
  00035	48 8b 55 58	 mov	 rdx, QWORD PTR _Ptr$[rbp]
  00039	48 8b 4d 50	 mov	 rcx, QWORD PTR _Al$[rbp]
  0003d	e8 00 00 00 00	 call	 ?deallocate@?$allocator@U_Container_proxy@std@@@std@@QEAAXQEAU_Container_proxy@2@_K@Z ; std::allocator<std::_Container_proxy>::deallocate

; 710  :         } else

  00042	eb 11		 jmp	 SHORT $LN3@deallocate
$LN2@deallocate:

; 711  : #endif // _HAS_CXX20
; 712  :         {
; 713  :             (void) _Al;
; 714  :             _Deallocate<_New_alignof<value_type>>(_Ptr, sizeof(value_type) * _Count);

  00044	48 6b 45 60 10	 imul	 rax, QWORD PTR _Count$[rbp], 16
  00049	48 8b d0	 mov	 rdx, rax
  0004c	48 8b 4d 58	 mov	 rcx, QWORD PTR _Ptr$[rbp]
  00050	e8 00 00 00 00	 call	 ??$_Deallocate@$0BA@$0A@@std@@YAXPEAX_K@Z ; std::_Deallocate<16,0>
$LN3@deallocate:

; 715  :         }
; 716  :     }

  00055	48 8d 65 40	 lea	 rsp, QWORD PTR [rbp+64]
  00059	5d		 pop	 rbp
  0005a	c3		 ret	 0
?deallocate@?$_Default_allocator_traits@V?$allocator@U_Container_proxy@std@@@std@@@std@@SAXAEAV?$allocator@U_Container_proxy@std@@@2@QEAU_Container_proxy@2@_K@Z ENDP ; std::_Default_allocator_traits<std::allocator<std::_Container_proxy> >::deallocate
_TEXT	ENDS
; Function compile flags: /Odtp /ZI
; File C:\Program Files\Microsoft Visual Studio\2022\Preview\VC\Tools\MSVC\14.38.33030\include\xmemory
;	COMDAT ??$_Allocate_at_least_helper@V?$allocator@UVertexDefault@@@std@@@std@@YAPEAUVertexDefault@@AEAV?$allocator@UVertexDefault@@@0@AEA_K@Z
_TEXT	SEGMENT
_Al$ = 80
_Count$ = 88
??$_Allocate_at_least_helper@V?$allocator@UVertexDefault@@@std@@@std@@YAPEAUVertexDefault@@AEAV?$allocator@UVertexDefault@@@0@AEA_K@Z PROC ; std::_Allocate_at_least_helper<std::allocator<VertexDefault> >, COMDAT

; 2198 :     _Alloc& _Al, _CRT_GUARDOVERFLOW typename allocator_traits<_Alloc>::size_type& _Count) {

$LN3:
  00000	48 89 54 24 10	 mov	 QWORD PTR [rsp+16], rdx
  00005	48 89 4c 24 08	 mov	 QWORD PTR [rsp+8], rcx
  0000a	55		 push	 rbp
  0000b	48 83 ec 60	 sub	 rsp, 96			; 00000060H
  0000f	48 8d 6c 24 20	 lea	 rbp, QWORD PTR [rsp+32]
  00014	48 8d 0d 00 00
	00 00		 lea	 rcx, OFFSET FLAT:__67F55BEA_xmemory
  0001b	e8 00 00 00 00	 call	 __CheckForDebuggerJustMyCode

; 2199 : #if _HAS_CXX23
; 2200 :     if constexpr (_Should_allocate_at_least<_Alloc>) {
; 2201 :         auto [_Ptr, _Allocated] = _Al.allocate_at_least(_Count);
; 2202 :         _Count                  = _Allocated;
; 2203 :         return _Ptr;
; 2204 :     } else
; 2205 : #endif // _HAS_CXX23
; 2206 :     {
; 2207 :         return _Al.allocate(_Count);

  00020	48 8b 45 58	 mov	 rax, QWORD PTR _Count$[rbp]
  00024	48 8b 10	 mov	 rdx, QWORD PTR [rax]
  00027	48 8b 4d 50	 mov	 rcx, QWORD PTR _Al$[rbp]
  0002b	e8 00 00 00 00	 call	 ?allocate@?$allocator@UVertexDefault@@@std@@QEAAPEAUVertexDefault@@_K@Z ; std::allocator<VertexDefault>::allocate

; 2208 :     }
; 2209 : }

  00030	48 8d 65 40	 lea	 rsp, QWORD PTR [rbp+64]
  00034	5d		 pop	 rbp
  00035	c3		 ret	 0
??$_Allocate_at_least_helper@V?$allocator@UVertexDefault@@@std@@@std@@YAPEAUVertexDefault@@AEAV?$allocator@UVertexDefault@@@0@AEA_K@Z ENDP ; std::_Allocate_at_least_helper<std::allocator<VertexDefault> >
_TEXT	ENDS
; Function compile flags: /Odtp /ZI
; File C:\Program Files\Microsoft Visual Studio\2022\Preview\VC\Tools\MSVC\14.38.33030\include\xmemory
;	COMDAT ??$_Allocate_at_least_helper@V?$allocator@G@std@@@std@@YAPEAGAEAV?$allocator@G@0@AEA_K@Z
_TEXT	SEGMENT
_Al$ = 80
_Count$ = 88
??$_Allocate_at_least_helper@V?$allocator@G@std@@@std@@YAPEAGAEAV?$allocator@G@0@AEA_K@Z PROC ; std::_Allocate_at_least_helper<std::allocator<unsigned short> >, COMDAT

; 2198 :     _Alloc& _Al, _CRT_GUARDOVERFLOW typename allocator_traits<_Alloc>::size_type& _Count) {

$LN3:
  00000	48 89 54 24 10	 mov	 QWORD PTR [rsp+16], rdx
  00005	48 89 4c 24 08	 mov	 QWORD PTR [rsp+8], rcx
  0000a	55		 push	 rbp
  0000b	48 83 ec 60	 sub	 rsp, 96			; 00000060H
  0000f	48 8d 6c 24 20	 lea	 rbp, QWORD PTR [rsp+32]
  00014	48 8d 0d 00 00
	00 00		 lea	 rcx, OFFSET FLAT:__67F55BEA_xmemory
  0001b	e8 00 00 00 00	 call	 __CheckForDebuggerJustMyCode

; 2199 : #if _HAS_CXX23
; 2200 :     if constexpr (_Should_allocate_at_least<_Alloc>) {
; 2201 :         auto [_Ptr, _Allocated] = _Al.allocate_at_least(_Count);
; 2202 :         _Count                  = _Allocated;
; 2203 :         return _Ptr;
; 2204 :     } else
; 2205 : #endif // _HAS_CXX23
; 2206 :     {
; 2207 :         return _Al.allocate(_Count);

  00020	48 8b 45 58	 mov	 rax, QWORD PTR _Count$[rbp]
  00024	48 8b 10	 mov	 rdx, QWORD PTR [rax]
  00027	48 8b 4d 50	 mov	 rcx, QWORD PTR _Al$[rbp]
  0002b	e8 00 00 00 00	 call	 ?allocate@?$allocator@G@std@@QEAAPEAG_K@Z ; std::allocator<unsigned short>::allocate

; 2208 :     }
; 2209 : }

  00030	48 8d 65 40	 lea	 rsp, QWORD PTR [rbp+64]
  00034	5d		 pop	 rbp
  00035	c3		 ret	 0
??$_Allocate_at_least_helper@V?$allocator@G@std@@@std@@YAPEAGAEAV?$allocator@G@0@AEA_K@Z ENDP ; std::_Allocate_at_least_helper<std::allocator<unsigned short> >
_TEXT	ENDS
; Function compile flags: /Odtp /ZI
; File C:\Program Files\Microsoft Visual Studio\2022\Preview\VC\Tools\MSVC\14.38.33030\include\xutility
;	COMDAT ??$construct_at@D$$V$0A@@std@@YAPEADQEAD@Z
_TEXT	SEGMENT
$T1 = 64
$T2 = 72
_Location$ = 112
??$construct_at@D$$V$0A@@std@@YAPEADQEAD@Z PROC		; std::construct_at<char,0>, COMDAT

; 241  :     noexcept(::new(static_cast<void*>(_Location)) _Ty(_STD forward<_Types>(_Args)...))) /* strengthened */ {

$LN3:
  00000	48 89 4c 24 08	 mov	 QWORD PTR [rsp+8], rcx
  00005	55		 push	 rbp
  00006	57		 push	 rdi
  00007	48 83 ec 78	 sub	 rsp, 120		; 00000078H
  0000b	48 8d 6c 24 20	 lea	 rbp, QWORD PTR [rsp+32]
  00010	48 8d 0d 00 00
	00 00		 lea	 rcx, OFFSET FLAT:__B7320FC0_xutility
  00017	e8 00 00 00 00	 call	 __CheckForDebuggerJustMyCode

; 242  :     _MSVC_CONSTEXPR return ::new (static_cast<void*>(_Location)) _Ty(_STD forward<_Types>(_Args)...);

  0001c	48 c7 45 40 01
	00 00 00	 mov	 QWORD PTR $T1[rbp], 1
  00024	48 8b 55 70	 mov	 rdx, QWORD PTR _Location$[rbp]
  00028	48 8b 4d 40	 mov	 rcx, QWORD PTR $T1[rbp]
  0002c	e8 00 00 00 00	 call	 ??2@YAPEAX_KPEAX@Z	; operator new
  00031	48 89 45 48	 mov	 QWORD PTR $T2[rbp], rax
  00035	48 8b 7d 48	 mov	 rdi, QWORD PTR $T2[rbp]
  00039	33 c0		 xor	 eax, eax
  0003b	48 8b 4d 40	 mov	 rcx, QWORD PTR $T1[rbp]
  0003f	f3 aa		 rep stosb
  00041	48 8b 45 48	 mov	 rax, QWORD PTR $T2[rbp]

; 243  : }

  00045	48 8d 65 58	 lea	 rsp, QWORD PTR [rbp+88]
  00049	5f		 pop	 rdi
  0004a	5d		 pop	 rbp
  0004b	c3		 ret	 0
??$construct_at@D$$V$0A@@std@@YAPEADQEAD@Z ENDP		; std::construct_at<char,0>
_TEXT	ENDS
; Function compile flags: /Odtp /ZI
; File C:\Program Files\Microsoft Visual Studio\2022\Preview\VC\Tools\MSVC\14.38.33030\include\xmemory
;	COMDAT ??$_Allocate@$0BA@U_Default_allocate_traits@std@@$0A@@std@@YAPEAX_K@Z
_TEXT	SEGMENT
_Bytes$ = 80
??$_Allocate@$0BA@U_Default_allocate_traits@std@@$0A@@std@@YAPEAX_K@Z PROC ; std::_Allocate<16,std::_Default_allocate_traits,0>, COMDAT

; 230  : __declspec(allocator) _CONSTEXPR20 void* _Allocate(const size_t _Bytes) {

$LN6:
  00000	48 89 4c 24 08	 mov	 QWORD PTR [rsp+8], rcx
  00005	55		 push	 rbp
  00006	48 83 ec 60	 sub	 rsp, 96			; 00000060H
  0000a	48 8d 6c 24 20	 lea	 rbp, QWORD PTR [rsp+32]
  0000f	48 8d 0d 00 00
	00 00		 lea	 rcx, OFFSET FLAT:__67F55BEA_xmemory
  00016	e8 00 00 00 00	 call	 __CheckForDebuggerJustMyCode

; 231  :     // allocate _Bytes when !_HAS_ALIGNED_NEW || _Align <= __STDCPP_DEFAULT_NEW_ALIGNMENT__
; 232  : #if defined(_M_IX86) || defined(_M_X64)
; 233  : #if _HAS_CXX20 // TRANSITION, GH-1532
; 234  :     if (!_STD is_constant_evaluated())

  0001b	e8 00 00 00 00	 call	 ?is_constant_evaluated@std@@YA_NXZ ; std::is_constant_evaluated
  00020	0f b6 c0	 movzx	 eax, al
  00023	85 c0		 test	 eax, eax
  00025	75 15		 jne	 SHORT $LN2@Allocate

; 235  : #endif // _HAS_CXX20
; 236  :     {
; 237  :         if (_Bytes >= _Big_allocation_threshold) { // boost the alignment of big allocations to help autovectorization

  00027	48 81 7d 50 00
	10 00 00	 cmp	 QWORD PTR _Bytes$[rbp], 4096 ; 00001000H
  0002f	72 0b		 jb	 SHORT $LN3@Allocate

; 238  :             return _Allocate_manually_vector_aligned<_Traits>(_Bytes);

  00031	48 8b 4d 50	 mov	 rcx, QWORD PTR _Bytes$[rbp]
  00035	e8 00 00 00 00	 call	 ??$_Allocate_manually_vector_aligned@U_Default_allocate_traits@std@@@std@@YAPEAX_K@Z ; std::_Allocate_manually_vector_aligned<std::_Default_allocate_traits>
  0003a	eb 14		 jmp	 SHORT $LN1@Allocate
$LN3@Allocate:
$LN2@Allocate:

; 239  :         }
; 240  :     }
; 241  : #endif // defined(_M_IX86) || defined(_M_X64)
; 242  : 
; 243  :     if (_Bytes != 0) {

  0003c	48 83 7d 50 00	 cmp	 QWORD PTR _Bytes$[rbp], 0
  00041	74 0b		 je	 SHORT $LN4@Allocate

; 244  :         return _Traits::_Allocate(_Bytes);

  00043	48 8b 4d 50	 mov	 rcx, QWORD PTR _Bytes$[rbp]
  00047	e8 00 00 00 00	 call	 ?_Allocate@_Default_allocate_traits@std@@SAPEAX_K@Z ; std::_Default_allocate_traits::_Allocate
  0004c	eb 02		 jmp	 SHORT $LN1@Allocate
$LN4@Allocate:

; 245  :     }
; 246  : 
; 247  :     return nullptr;

  0004e	33 c0		 xor	 eax, eax
$LN1@Allocate:

; 248  : }

  00050	48 8d 65 40	 lea	 rsp, QWORD PTR [rbp+64]
  00054	5d		 pop	 rbp
  00055	c3		 ret	 0
??$_Allocate@$0BA@U_Default_allocate_traits@std@@$0A@@std@@YAPEAX_K@Z ENDP ; std::_Allocate<16,std::_Default_allocate_traits,0>
_TEXT	ENDS
; Function compile flags: /Odtp /ZI
; File C:\Program Files\Microsoft Visual Studio\2022\Preview\VC\Tools\MSVC\14.38.33030\include\xmemory
;	COMDAT ??$_Get_size_of_n@$0BA@@std@@YA_K_K@Z
_TEXT	SEGMENT
_Overflow_is_possible$ = 0
_Max_possible$1 = 8
_Count$ = 96
??$_Get_size_of_n@$0BA@@std@@YA_K_K@Z PROC		; std::_Get_size_of_n<16>, COMDAT

; 64   : _NODISCARD constexpr size_t _Get_size_of_n(const size_t _Count) {

$LN4:
  00000	48 89 4c 24 08	 mov	 QWORD PTR [rsp+8], rcx
  00005	55		 push	 rbp
  00006	48 83 ec 70	 sub	 rsp, 112		; 00000070H
  0000a	48 8d 6c 24 20	 lea	 rbp, QWORD PTR [rsp+32]
  0000f	48 8d 0d 00 00
	00 00		 lea	 rcx, OFFSET FLAT:__67F55BEA_xmemory
  00016	e8 00 00 00 00	 call	 __CheckForDebuggerJustMyCode

; 65   :     constexpr bool _Overflow_is_possible = _Ty_size > 1;

  0001b	c6 45 00 01	 mov	 BYTE PTR _Overflow_is_possible$[rbp], 1

; 66   : 
; 67   :     if constexpr (_Overflow_is_possible) {
; 68   :         constexpr size_t _Max_possible = static_cast<size_t>(-1) / _Ty_size;

  0001f	48 b8 ff ff ff
	ff ff ff ff 0f	 mov	 rax, 1152921504606846975 ; 0fffffffffffffffH
  00029	48 89 45 08	 mov	 QWORD PTR _Max_possible$1[rbp], rax

; 69   :         if (_Count > _Max_possible) {

  0002d	48 b8 ff ff ff
	ff ff ff ff 0f	 mov	 rax, 1152921504606846975 ; 0fffffffffffffffH
  00037	48 39 45 60	 cmp	 QWORD PTR _Count$[rbp], rax
  0003b	76 05		 jbe	 SHORT $LN2@Get_size_o

; 70   :             _Throw_bad_array_new_length(); // multiply overflow

  0003d	e8 00 00 00 00	 call	 ?_Throw_bad_array_new_length@std@@YAXXZ ; std::_Throw_bad_array_new_length
$LN2@Get_size_o:

; 71   :         }
; 72   :     }
; 73   : 
; 74   :     return _Count * _Ty_size;

  00042	48 6b 45 60 10	 imul	 rax, QWORD PTR _Count$[rbp], 16
$LN3@Get_size_o:

; 75   : }

  00047	48 8d 65 50	 lea	 rsp, QWORD PTR [rbp+80]
  0004b	5d		 pop	 rbp
  0004c	c3		 ret	 0
??$_Get_size_of_n@$0BA@@std@@YA_K_K@Z ENDP		; std::_Get_size_of_n<16>
_TEXT	ENDS
; Function compile flags: /Odtp /ZI
; File C:\Program Files\Microsoft Visual Studio\2022\Preview\VC\Tools\MSVC\14.38.33030\include\type_traits
;	COMDAT ??$addressof@PEAD@std@@YAPEAPEADAEAPEAD@Z
_TEXT	SEGMENT
_Val$ = 80
??$addressof@PEAD@std@@YAPEAPEADAEAPEAD@Z PROC		; std::addressof<char *>, COMDAT

; 1589 : _NODISCARD constexpr _Ty* addressof(_Ty& _Val) noexcept {

$LN3:
  00000	48 89 4c 24 08	 mov	 QWORD PTR [rsp+8], rcx
  00005	55		 push	 rbp
  00006	48 83 ec 60	 sub	 rsp, 96			; 00000060H
  0000a	48 8d 6c 24 20	 lea	 rbp, QWORD PTR [rsp+32]
  0000f	48 8d 0d 00 00
	00 00		 lea	 rcx, OFFSET FLAT:__3DF2A533_type_traits
  00016	e8 00 00 00 00	 call	 __CheckForDebuggerJustMyCode

; 1590 :     return __builtin_addressof(_Val);

  0001b	48 8b 45 50	 mov	 rax, QWORD PTR _Val$[rbp]

; 1591 : }

  0001f	48 8d 65 40	 lea	 rsp, QWORD PTR [rbp+64]
  00023	5d		 pop	 rbp
  00024	c3		 ret	 0
??$addressof@PEAD@std@@YAPEAPEADAEAPEAD@Z ENDP		; std::addressof<char *>
_TEXT	ENDS
; Function compile flags: /Odtp /ZI
; File C:\Program Files\Microsoft Visual Studio\2022\Preview\VC\Tools\MSVC\14.38.33030\include\xutility
;	COMDAT ??$_Construct_in_place@PEADAEBQEAD@std@@YAXAEAPEADAEBQEAD@Z
_TEXT	SEGMENT
$T1 = 64
_Obj$ = 96
<_Args_0>$ = 104
??$_Construct_in_place@PEADAEBQEAD@std@@YAXAEAPEADAEBQEAD@Z PROC ; std::_Construct_in_place<char *,char * const &>, COMDAT

; 248  :     is_nothrow_constructible_v<_Ty, _Types...>) {

$LN5:
  00000	48 89 54 24 10	 mov	 QWORD PTR [rsp+16], rdx
  00005	48 89 4c 24 08	 mov	 QWORD PTR [rsp+8], rcx
  0000a	55		 push	 rbp
  0000b	48 83 ec 70	 sub	 rsp, 112		; 00000070H
  0000f	48 8d 6c 24 20	 lea	 rbp, QWORD PTR [rsp+32]
  00014	48 8d 0d 00 00
	00 00		 lea	 rcx, OFFSET FLAT:__B7320FC0_xutility
  0001b	e8 00 00 00 00	 call	 __CheckForDebuggerJustMyCode

; 249  : #if _HAS_CXX20
; 250  :     if (_STD is_constant_evaluated()) {

  00020	e8 00 00 00 00	 call	 ?is_constant_evaluated@std@@YA_NXZ ; std::is_constant_evaluated
  00025	0f b6 c0	 movzx	 eax, al
  00028	85 c0		 test	 eax, eax
  0002a	74 17		 je	 SHORT $LN2@Construct_

; 251  :         _STD construct_at(_STD addressof(_Obj), _STD forward<_Types>(_Args)...);

  0002c	48 8b 4d 60	 mov	 rcx, QWORD PTR _Obj$[rbp]
  00030	e8 00 00 00 00	 call	 ??$addressof@PEAD@std@@YAPEAPEADAEAPEAD@Z ; std::addressof<char *>
  00035	48 8b 55 68	 mov	 rdx, QWORD PTR <_Args_0>$[rbp]
  00039	48 8b c8	 mov	 rcx, rax
  0003c	e8 00 00 00 00	 call	 ??$construct_at@PEADAEBQEAD$0A@@std@@YAPEAPEADQEAPEADAEBQEAD@Z ; std::construct_at<char *,char * const &,0>

; 252  :     } else

  00041	eb 28		 jmp	 SHORT $LN3@Construct_
$LN2@Construct_:

; 253  : #endif // _HAS_CXX20
; 254  :     {
; 255  :         ::new (static_cast<void*>(_STD addressof(_Obj))) _Ty(_STD forward<_Types>(_Args)...);

  00043	48 8b 4d 60	 mov	 rcx, QWORD PTR _Obj$[rbp]
  00047	e8 00 00 00 00	 call	 ??$addressof@PEAD@std@@YAPEAPEADAEAPEAD@Z ; std::addressof<char *>
  0004c	48 8b d0	 mov	 rdx, rax
  0004f	b9 08 00 00 00	 mov	 ecx, 8
  00054	e8 00 00 00 00	 call	 ??2@YAPEAX_KPEAX@Z	; operator new
  00059	48 89 45 40	 mov	 QWORD PTR $T1[rbp], rax
  0005d	48 8b 45 40	 mov	 rax, QWORD PTR $T1[rbp]
  00061	48 8b 4d 68	 mov	 rcx, QWORD PTR <_Args_0>$[rbp]
  00065	48 8b 09	 mov	 rcx, QWORD PTR [rcx]
  00068	48 89 08	 mov	 QWORD PTR [rax], rcx
$LN3@Construct_:

; 256  :     }
; 257  : }

  0006b	48 8d 65 50	 lea	 rsp, QWORD PTR [rbp+80]
  0006f	5d		 pop	 rbp
  00070	c3		 ret	 0
??$_Construct_in_place@PEADAEBQEAD@std@@YAXAEAPEADAEBQEAD@Z ENDP ; std::_Construct_in_place<char *,char * const &>
_TEXT	ENDS
; Function compile flags: /Odtp /ZI
; File C:\Program Files\Microsoft Visual Studio\2022\Preview\VC\Tools\MSVC\14.38.33030\include\xmemory
;	COMDAT ??$_Allocate_at_least_helper@V?$allocator@D@std@@@std@@YAPEADAEAV?$allocator@D@0@AEA_K@Z
_TEXT	SEGMENT
_Al$ = 80
_Count$ = 88
??$_Allocate_at_least_helper@V?$allocator@D@std@@@std@@YAPEADAEAV?$allocator@D@0@AEA_K@Z PROC ; std::_Allocate_at_least_helper<std::allocator<char> >, COMDAT

; 2198 :     _Alloc& _Al, _CRT_GUARDOVERFLOW typename allocator_traits<_Alloc>::size_type& _Count) {

$LN3:
  00000	48 89 54 24 10	 mov	 QWORD PTR [rsp+16], rdx
  00005	48 89 4c 24 08	 mov	 QWORD PTR [rsp+8], rcx
  0000a	55		 push	 rbp
  0000b	48 83 ec 60	 sub	 rsp, 96			; 00000060H
  0000f	48 8d 6c 24 20	 lea	 rbp, QWORD PTR [rsp+32]
  00014	48 8d 0d 00 00
	00 00		 lea	 rcx, OFFSET FLAT:__67F55BEA_xmemory
  0001b	e8 00 00 00 00	 call	 __CheckForDebuggerJustMyCode

; 2199 : #if _HAS_CXX23
; 2200 :     if constexpr (_Should_allocate_at_least<_Alloc>) {
; 2201 :         auto [_Ptr, _Allocated] = _Al.allocate_at_least(_Count);
; 2202 :         _Count                  = _Allocated;
; 2203 :         return _Ptr;
; 2204 :     } else
; 2205 : #endif // _HAS_CXX23
; 2206 :     {
; 2207 :         return _Al.allocate(_Count);

  00020	48 8b 45 58	 mov	 rax, QWORD PTR _Count$[rbp]
  00024	48 8b 10	 mov	 rdx, QWORD PTR [rax]
  00027	48 8b 4d 50	 mov	 rcx, QWORD PTR _Al$[rbp]
  0002b	e8 00 00 00 00	 call	 ?allocate@?$allocator@D@std@@QEAAPEAD_K@Z ; std::allocator<char>::allocate

; 2208 :     }
; 2209 : }

  00030	48 8d 65 40	 lea	 rsp, QWORD PTR [rbp+64]
  00034	5d		 pop	 rbp
  00035	c3		 ret	 0
??$_Allocate_at_least_helper@V?$allocator@D@std@@@std@@YAPEADAEAV?$allocator@D@0@AEA_K@Z ENDP ; std::_Allocate_at_least_helper<std::allocator<char> >
_TEXT	ENDS
; Function compile flags: /Odtp /ZI
; File C:\Program Files\Microsoft Visual Studio\2022\Preview\VC\Tools\MSVC\14.38.33030\include\xmemory
;	COMDAT ??$_Unfancy@U_Container_proxy@std@@@std@@YAPEAU_Container_proxy@0@PEAU10@@Z
_TEXT	SEGMENT
_Ptr$ = 80
??$_Unfancy@U_Container_proxy@std@@@std@@YAPEAU_Container_proxy@0@PEAU10@@Z PROC ; std::_Unfancy<std::_Container_proxy>, COMDAT

; 35   : _NODISCARD constexpr _Ty* _Unfancy(_Ty* _Ptr) noexcept { // do nothing for plain pointers

$LN3:
  00000	48 89 4c 24 08	 mov	 QWORD PTR [rsp+8], rcx
  00005	55		 push	 rbp
  00006	48 83 ec 60	 sub	 rsp, 96			; 00000060H
  0000a	48 8d 6c 24 20	 lea	 rbp, QWORD PTR [rsp+32]
  0000f	48 8d 0d 00 00
	00 00		 lea	 rcx, OFFSET FLAT:__67F55BEA_xmemory
  00016	e8 00 00 00 00	 call	 __CheckForDebuggerJustMyCode

; 36   :     return _Ptr;

  0001b	48 8b 45 50	 mov	 rax, QWORD PTR _Ptr$[rbp]

; 37   : }

  0001f	48 8d 65 40	 lea	 rsp, QWORD PTR [rbp+64]
  00023	5d		 pop	 rbp
  00024	c3		 ret	 0
??$_Unfancy@U_Container_proxy@std@@@std@@YAPEAU_Container_proxy@0@PEAU10@@Z ENDP ; std::_Unfancy<std::_Container_proxy>
_TEXT	ENDS
; Function compile flags: /Odtp /ZI
; File C:\Program Files\Microsoft Visual Studio\2022\Preview\VC\Tools\MSVC\14.38.33030\include\xmemory
;	COMDAT ??$_Uninitialized_copy@PEAUVertexDefault@@PEAU1@V?$allocator@UVertexDefault@@@std@@@std@@YAPEAUVertexDefault@@PEAU1@00AEAV?$allocator@UVertexDefault@@@0@@Z
_TEXT	SEGMENT
_UFirst$ = 0
_ULast$ = 8
_Can_memmove$ = 16
_Backout$ = 24
$T1 = 112
tv86 = 120
tv84 = 128
tv82 = 136
_First$ = 160
_Last$ = 168
_Dest$ = 176
_Al$ = 184
??$_Uninitialized_copy@PEAUVertexDefault@@PEAU1@V?$allocator@UVertexDefault@@@std@@@std@@YAPEAUVertexDefault@@PEAU1@00AEAV?$allocator@UVertexDefault@@@0@@Z PROC ; std::_Uninitialized_copy<VertexDefault *,VertexDefault *,std::allocator<VertexDefault> >, COMDAT

; 1818 :     _InIt _First, _Se _Last, _Alloc_ptr_t<_Alloc> _Dest, _Alloc& _Al) {

$LN8:
  00000	4c 89 4c 24 20	 mov	 QWORD PTR [rsp+32], r9
  00005	4c 89 44 24 18	 mov	 QWORD PTR [rsp+24], r8
  0000a	48 89 54 24 10	 mov	 QWORD PTR [rsp+16], rdx
  0000f	48 89 4c 24 08	 mov	 QWORD PTR [rsp+8], rcx
  00014	55		 push	 rbp
  00015	48 81 ec b0 00
	00 00		 sub	 rsp, 176		; 000000b0H
  0001c	48 8d 6c 24 20	 lea	 rbp, QWORD PTR [rsp+32]
  00021	48 8d 0d 00 00
	00 00		 lea	 rcx, OFFSET FLAT:__67F55BEA_xmemory
  00028	e8 00 00 00 00	 call	 __CheckForDebuggerJustMyCode

; 1819 :     // copy [_First, _Last) to raw _Dest, using _Al
; 1820 :     // note: only called internally from elsewhere in the STL
; 1821 :     using _Ptrval = typename _Alloc::value_type*;
; 1822 : 
; 1823 : #ifdef __cpp_lib_concepts
; 1824 :     auto _UFirst = _RANGES _Unwrap_iter<_Se>(_STD move(_First));

  0002d	48 8d 8d a0 00
	00 00		 lea	 rcx, QWORD PTR _First$[rbp]
  00034	e8 00 00 00 00	 call	 ??$_Unwrap_iter@PEAUVertexDefault@@PEAU1@@ranges@std@@YA?A_T$$QEAPEAUVertexDefault@@@Z ; std::ranges::_Unwrap_iter<VertexDefault *,VertexDefault *>
  00039	48 89 45 00	 mov	 QWORD PTR _UFirst$[rbp], rax

; 1825 :     auto _ULast  = _RANGES _Unwrap_sent<_InIt>(_STD move(_Last));

  0003d	48 8d 8d a8 00
	00 00		 lea	 rcx, QWORD PTR _Last$[rbp]
  00044	e8 00 00 00 00	 call	 ??$_Unwrap_sent@PEAUVertexDefault@@PEAU1@@ranges@std@@YA?A_T$$QEAPEAUVertexDefault@@@Z ; std::ranges::_Unwrap_sent<VertexDefault *,VertexDefault *>
  00049	48 89 45 08	 mov	 QWORD PTR _ULast$[rbp], rax

; 1826 : #else // ^^^ __cpp_lib_concepts / !__cpp_lib_concepts vvv
; 1827 :     // In pre-concepts world, _Uninitialized_copy should only ever be called with an iterator
; 1828 :     // and sentinel of the same type, so `_Get_unwrapped` is fine to call.
; 1829 :     auto _UFirst = _Get_unwrapped(_STD move(_First));
; 1830 :     auto _ULast  = _Get_unwrapped(_STD move(_Last));
; 1831 : #endif // ^^^ !__cpp_lib_concepts ^^^
; 1832 : 
; 1833 :     constexpr bool _Can_memmove = _Sent_copy_cat<decltype(_UFirst), decltype(_ULast), _Ptrval>::_Bitcopy_constructible

  0004d	c6 45 10 01	 mov	 BYTE PTR _Can_memmove$[rbp], 1

; 1834 :                                && _Uses_default_construct<_Alloc, _Ptrval, decltype(*_UFirst)>::value;
; 1835 : 
; 1836 :     if constexpr (_Can_memmove) {
; 1837 : #if _HAS_CXX20
; 1838 :         if (!_STD is_constant_evaluated())

  00051	e8 00 00 00 00	 call	 ?is_constant_evaluated@std@@YA_NXZ ; std::is_constant_evaluated
  00056	0f b6 c0	 movzx	 eax, al
  00059	85 c0		 test	 eax, eax
  0005b	0f 85 80 00 00
	00		 jne	 $LN5@Uninitiali

; 1839 : #endif // _HAS_CXX20
; 1840 :         {
; 1841 :             if constexpr (is_same_v<decltype(_UFirst), decltype(_ULast)>) {
; 1842 :                 _Copy_memmove(_To_address(_UFirst), _To_address(_ULast), _Unfancy(_Dest));

  00061	48 8b 8d b0 00
	00 00		 mov	 rcx, QWORD PTR _Dest$[rbp]
  00068	e8 00 00 00 00	 call	 ??$_Unfancy@UVertexDefault@@@std@@YAPEAUVertexDefault@@PEAU1@@Z ; std::_Unfancy<VertexDefault>
  0006d	48 89 45 78	 mov	 QWORD PTR tv86[rbp], rax
  00071	48 8d 4d 08	 lea	 rcx, QWORD PTR _ULast$[rbp]
  00075	e8 00 00 00 00	 call	 ??$_To_address@PEAUVertexDefault@@@std@@YA?A_PAEBQEAUVertexDefault@@@Z ; std::_To_address<VertexDefault *>
  0007a	48 89 85 80 00
	00 00		 mov	 QWORD PTR tv84[rbp], rax
  00081	48 8d 4d 00	 lea	 rcx, QWORD PTR _UFirst$[rbp]
  00085	e8 00 00 00 00	 call	 ??$_To_address@PEAUVertexDefault@@@std@@YA?A_PAEBQEAUVertexDefault@@@Z ; std::_To_address<VertexDefault *>
  0008a	48 89 85 88 00
	00 00		 mov	 QWORD PTR tv82[rbp], rax
  00091	4c 8b 45 78	 mov	 r8, QWORD PTR tv86[rbp]
  00095	48 8b 95 80 00
	00 00		 mov	 rdx, QWORD PTR tv84[rbp]
  0009c	48 8b 8d 88 00
	00 00		 mov	 rcx, QWORD PTR tv82[rbp]
  000a3	e8 00 00 00 00	 call	 ??$_Copy_memmove@PEAUVertexDefault@@PEAU1@@std@@YAPEAUVertexDefault@@PEAU1@00@Z ; std::_Copy_memmove<VertexDefault *,VertexDefault *>

; 1843 :                 _Dest += _ULast - _UFirst;

  000a8	48 8b 45 00	 mov	 rax, QWORD PTR _UFirst$[rbp]
  000ac	48 8b 4d 08	 mov	 rcx, QWORD PTR _ULast$[rbp]
  000b0	48 2b c8	 sub	 rcx, rax
  000b3	48 8b c1	 mov	 rax, rcx
  000b6	48 99		 cdq
  000b8	b9 48 00 00 00	 mov	 ecx, 72			; 00000048H
  000bd	48 f7 f9	 idiv	 rcx
  000c0	48 6b c0 48	 imul	 rax, rax, 72		; 00000048H
  000c4	48 8b 8d b0 00
	00 00		 mov	 rcx, QWORD PTR _Dest$[rbp]
  000cb	48 03 c8	 add	 rcx, rax
  000ce	48 8b c1	 mov	 rax, rcx
  000d1	48 89 85 b0 00
	00 00		 mov	 QWORD PTR _Dest$[rbp], rax

; 1844 :             } else {
; 1845 :                 const auto _Count = static_cast<size_t>(_ULast - _UFirst);
; 1846 :                 _Copy_memmove_n(_To_address(_UFirst), _Count, _Unfancy(_Dest));
; 1847 :                 _Dest += _Count;
; 1848 :             }
; 1849 :             return _Dest;

  000d8	48 8b 85 b0 00
	00 00		 mov	 rax, QWORD PTR _Dest$[rbp]
  000df	eb 59		 jmp	 SHORT $LN1@Uninitiali
$LN5@Uninitiali:

; 1850 :         }
; 1851 :     }
; 1852 : 
; 1853 :     _Uninitialized_backout_al<_Alloc> _Backout{_Dest, _Al};

  000e1	4c 8b 85 b8 00
	00 00		 mov	 r8, QWORD PTR _Al$[rbp]
  000e8	48 8b 95 b0 00
	00 00		 mov	 rdx, QWORD PTR _Dest$[rbp]
  000ef	48 8d 4d 18	 lea	 rcx, QWORD PTR _Backout$[rbp]
  000f3	e8 00 00 00 00	 call	 ??0?$_Uninitialized_backout_al@V?$allocator@UVertexDefault@@@std@@@std@@QEAA@PEAUVertexDefault@@AEAV?$allocator@UVertexDefault@@@1@@Z ; std::_Uninitialized_backout_al<std::allocator<VertexDefault> >::_Uninitialized_backout_al<std::allocator<VertexDefault> >
  000f8	90		 npad	 1

; 1854 :     for (; _UFirst != _ULast; ++_UFirst) {

  000f9	eb 0c		 jmp	 SHORT $LN4@Uninitiali
$LN2@Uninitiali:
  000fb	48 8b 45 00	 mov	 rax, QWORD PTR _UFirst$[rbp]
  000ff	48 83 c0 48	 add	 rax, 72			; 00000048H
  00103	48 89 45 00	 mov	 QWORD PTR _UFirst$[rbp], rax
$LN4@Uninitiali:
  00107	48 8b 45 08	 mov	 rax, QWORD PTR _ULast$[rbp]
  0010b	48 39 45 00	 cmp	 QWORD PTR _UFirst$[rbp], rax
  0010f	74 0f		 je	 SHORT $LN3@Uninitiali

; 1855 :         _Backout._Emplace_back(*_UFirst);

  00111	48 8b 55 00	 mov	 rdx, QWORD PTR _UFirst$[rbp]
  00115	48 8d 4d 18	 lea	 rcx, QWORD PTR _Backout$[rbp]
  00119	e8 00 00 00 00	 call	 ??$_Emplace_back@AEAUVertexDefault@@@?$_Uninitialized_backout_al@V?$allocator@UVertexDefault@@@std@@@std@@QEAAXAEAUVertexDefault@@@Z ; std::_Uninitialized_backout_al<std::allocator<VertexDefault> >::_Emplace_back<VertexDefault &>

; 1856 :     }

  0011e	eb db		 jmp	 SHORT $LN2@Uninitiali
$LN3@Uninitiali:

; 1857 : 
; 1858 :     return _Backout._Release();

  00120	48 8d 4d 18	 lea	 rcx, QWORD PTR _Backout$[rbp]
  00124	e8 00 00 00 00	 call	 ?_Release@?$_Uninitialized_backout_al@V?$allocator@UVertexDefault@@@std@@@std@@QEAAPEAUVertexDefault@@XZ ; std::_Uninitialized_backout_al<std::allocator<VertexDefault> >::_Release
  00129	48 89 45 70	 mov	 QWORD PTR $T1[rbp], rax
  0012d	48 8d 4d 18	 lea	 rcx, QWORD PTR _Backout$[rbp]
  00131	e8 00 00 00 00	 call	 ??1?$_Uninitialized_backout_al@V?$allocator@UVertexDefault@@@std@@@std@@QEAA@XZ ; std::_Uninitialized_backout_al<std::allocator<VertexDefault> >::~_Uninitialized_backout_al<std::allocator<VertexDefault> >
  00136	48 8b 45 70	 mov	 rax, QWORD PTR $T1[rbp]
$LN1@Uninitiali:

; 1859 : }

  0013a	48 8d a5 90 00
	00 00		 lea	 rsp, QWORD PTR [rbp+144]
  00141	5d		 pop	 rbp
  00142	c3		 ret	 0
??$_Uninitialized_copy@PEAUVertexDefault@@PEAU1@V?$allocator@UVertexDefault@@@std@@@std@@YAPEAUVertexDefault@@PEAU1@00AEAV?$allocator@UVertexDefault@@@0@@Z ENDP ; std::_Uninitialized_copy<VertexDefault *,VertexDefault *,std::allocator<VertexDefault> >
_TEXT	ENDS
; Function compile flags: /Odtp /ZI
;	COMDAT text$x
text$x	SEGMENT
_UFirst$ = 0
_ULast$ = 8
_Can_memmove$ = 16
_Backout$ = 24
$T1 = 112
tv86 = 120
tv84 = 128
tv82 = 136
_First$ = 160
_Last$ = 168
_Dest$ = 176
_Al$ = 184
?dtor$0@?0???$_Uninitialized_copy@PEAUVertexDefault@@PEAU1@V?$allocator@UVertexDefault@@@std@@@std@@YAPEAUVertexDefault@@PEAU1@00AEAV?$allocator@UVertexDefault@@@0@@Z@4HA PROC ; `std::_Uninitialized_copy<VertexDefault *,VertexDefault *,std::allocator<VertexDefault> >'::`1'::dtor$0
  00000	40 55		 push	 rbp
  00002	48 83 ec 20	 sub	 rsp, 32			; 00000020H
  00006	48 8d 6a 20	 lea	 rbp, QWORD PTR [rdx+32]
  0000a	48 8d 4d 18	 lea	 rcx, QWORD PTR _Backout$[rbp]
  0000e	e8 00 00 00 00	 call	 ??1?$_Uninitialized_backout_al@V?$allocator@UVertexDefault@@@std@@@std@@QEAA@XZ ; std::_Uninitialized_backout_al<std::allocator<VertexDefault> >::~_Uninitialized_backout_al<std::allocator<VertexDefault> >
  00013	48 83 c4 20	 add	 rsp, 32			; 00000020H
  00017	5d		 pop	 rbp
  00018	c3		 ret	 0
?dtor$0@?0???$_Uninitialized_copy@PEAUVertexDefault@@PEAU1@V?$allocator@UVertexDefault@@@std@@@std@@YAPEAUVertexDefault@@PEAU1@00AEAV?$allocator@UVertexDefault@@@0@@Z@4HA ENDP ; `std::_Uninitialized_copy<VertexDefault *,VertexDefault *,std::allocator<VertexDefault> >'::`1'::dtor$0
text$x	ENDS
; Function compile flags: /Odtp /ZI
; File C:\Program Files\Microsoft Visual Studio\2022\Preview\VC\Tools\MSVC\14.38.33030\include\xmemory
;	COMDAT ??1?$_Tidy_guard@V?$vector@UVertexDefault@@V?$allocator@UVertexDefault@@@std@@@std@@@std@@QEAA@XZ
_TEXT	SEGMENT
this$ = 80
??1?$_Tidy_guard@V?$vector@UVertexDefault@@V?$allocator@UVertexDefault@@@std@@@std@@@std@@QEAA@XZ PROC ; std::_Tidy_guard<std::vector<VertexDefault,std::allocator<VertexDefault> > >::~_Tidy_guard<std::vector<VertexDefault,std::allocator<VertexDefault> > >, COMDAT

; 42   :     _CONSTEXPR20 ~_Tidy_guard() {

$LN4:
  00000	48 89 4c 24 08	 mov	 QWORD PTR [rsp+8], rcx
  00005	55		 push	 rbp
  00006	48 83 ec 60	 sub	 rsp, 96			; 00000060H
  0000a	48 8d 6c 24 20	 lea	 rbp, QWORD PTR [rsp+32]
  0000f	48 8d 0d 00 00
	00 00		 lea	 rcx, OFFSET FLAT:__67F55BEA_xmemory
  00016	e8 00 00 00 00	 call	 __CheckForDebuggerJustMyCode

; 43   :         if (_Target) {

  0001b	48 8b 45 50	 mov	 rax, QWORD PTR this$[rbp]
  0001f	48 83 38 00	 cmp	 QWORD PTR [rax], 0
  00023	74 0c		 je	 SHORT $LN2@Tidy_guard

; 44   :             _Target->_Tidy();

  00025	48 8b 45 50	 mov	 rax, QWORD PTR this$[rbp]
  00029	48 8b 08	 mov	 rcx, QWORD PTR [rax]
  0002c	e8 00 00 00 00	 call	 ?_Tidy@?$vector@UVertexDefault@@V?$allocator@UVertexDefault@@@std@@@std@@AEAAXXZ ; std::vector<VertexDefault,std::allocator<VertexDefault> >::_Tidy
$LN2@Tidy_guard:

; 45   :         }
; 46   :     }

  00031	48 8d 65 40	 lea	 rsp, QWORD PTR [rbp+64]
  00035	5d		 pop	 rbp
  00036	c3		 ret	 0
??1?$_Tidy_guard@V?$vector@UVertexDefault@@V?$allocator@UVertexDefault@@@std@@@std@@@std@@QEAA@XZ ENDP ; std::_Tidy_guard<std::vector<VertexDefault,std::allocator<VertexDefault> > >::~_Tidy_guard<std::vector<VertexDefault,std::allocator<VertexDefault> > >
_TEXT	ENDS
; Function compile flags: /Odtp /ZI
; File C:\Program Files\Microsoft Visual Studio\2022\Preview\VC\Tools\MSVC\14.38.33030\include\xmemory
;	COMDAT ??$_Uninitialized_copy@PEAGPEAGV?$allocator@G@std@@@std@@YAPEAGPEAG00AEAV?$allocator@G@0@@Z
_TEXT	SEGMENT
_UFirst$ = 0
_ULast$ = 8
_Can_memmove$ = 16
_Backout$ = 24
$T1 = 112
tv86 = 120
tv84 = 128
tv82 = 136
_First$ = 160
_Last$ = 168
_Dest$ = 176
_Al$ = 184
??$_Uninitialized_copy@PEAGPEAGV?$allocator@G@std@@@std@@YAPEAGPEAG00AEAV?$allocator@G@0@@Z PROC ; std::_Uninitialized_copy<unsigned short *,unsigned short *,std::allocator<unsigned short> >, COMDAT

; 1818 :     _InIt _First, _Se _Last, _Alloc_ptr_t<_Alloc> _Dest, _Alloc& _Al) {

$LN8:
  00000	4c 89 4c 24 20	 mov	 QWORD PTR [rsp+32], r9
  00005	4c 89 44 24 18	 mov	 QWORD PTR [rsp+24], r8
  0000a	48 89 54 24 10	 mov	 QWORD PTR [rsp+16], rdx
  0000f	48 89 4c 24 08	 mov	 QWORD PTR [rsp+8], rcx
  00014	55		 push	 rbp
  00015	48 81 ec b0 00
	00 00		 sub	 rsp, 176		; 000000b0H
  0001c	48 8d 6c 24 20	 lea	 rbp, QWORD PTR [rsp+32]
  00021	48 8d 0d 00 00
	00 00		 lea	 rcx, OFFSET FLAT:__67F55BEA_xmemory
  00028	e8 00 00 00 00	 call	 __CheckForDebuggerJustMyCode

; 1819 :     // copy [_First, _Last) to raw _Dest, using _Al
; 1820 :     // note: only called internally from elsewhere in the STL
; 1821 :     using _Ptrval = typename _Alloc::value_type*;
; 1822 : 
; 1823 : #ifdef __cpp_lib_concepts
; 1824 :     auto _UFirst = _RANGES _Unwrap_iter<_Se>(_STD move(_First));

  0002d	48 8d 8d a0 00
	00 00		 lea	 rcx, QWORD PTR _First$[rbp]
  00034	e8 00 00 00 00	 call	 ??$_Unwrap_iter@PEAGPEAG@ranges@std@@YA?A_T$$QEAPEAG@Z ; std::ranges::_Unwrap_iter<unsigned short *,unsigned short *>
  00039	48 89 45 00	 mov	 QWORD PTR _UFirst$[rbp], rax

; 1825 :     auto _ULast  = _RANGES _Unwrap_sent<_InIt>(_STD move(_Last));

  0003d	48 8d 8d a8 00
	00 00		 lea	 rcx, QWORD PTR _Last$[rbp]
  00044	e8 00 00 00 00	 call	 ??$_Unwrap_sent@PEAGPEAG@ranges@std@@YA?A_T$$QEAPEAG@Z ; std::ranges::_Unwrap_sent<unsigned short *,unsigned short *>
  00049	48 89 45 08	 mov	 QWORD PTR _ULast$[rbp], rax

; 1826 : #else // ^^^ __cpp_lib_concepts / !__cpp_lib_concepts vvv
; 1827 :     // In pre-concepts world, _Uninitialized_copy should only ever be called with an iterator
; 1828 :     // and sentinel of the same type, so `_Get_unwrapped` is fine to call.
; 1829 :     auto _UFirst = _Get_unwrapped(_STD move(_First));
; 1830 :     auto _ULast  = _Get_unwrapped(_STD move(_Last));
; 1831 : #endif // ^^^ !__cpp_lib_concepts ^^^
; 1832 : 
; 1833 :     constexpr bool _Can_memmove = _Sent_copy_cat<decltype(_UFirst), decltype(_ULast), _Ptrval>::_Bitcopy_constructible

  0004d	c6 45 10 01	 mov	 BYTE PTR _Can_memmove$[rbp], 1

; 1834 :                                && _Uses_default_construct<_Alloc, _Ptrval, decltype(*_UFirst)>::value;
; 1835 : 
; 1836 :     if constexpr (_Can_memmove) {
; 1837 : #if _HAS_CXX20
; 1838 :         if (!_STD is_constant_evaluated())

  00051	e8 00 00 00 00	 call	 ?is_constant_evaluated@std@@YA_NXZ ; std::is_constant_evaluated
  00056	0f b6 c0	 movzx	 eax, al
  00059	85 c0		 test	 eax, eax
  0005b	75 73		 jne	 SHORT $LN5@Uninitiali

; 1839 : #endif // _HAS_CXX20
; 1840 :         {
; 1841 :             if constexpr (is_same_v<decltype(_UFirst), decltype(_ULast)>) {
; 1842 :                 _Copy_memmove(_To_address(_UFirst), _To_address(_ULast), _Unfancy(_Dest));

  0005d	48 8b 8d b0 00
	00 00		 mov	 rcx, QWORD PTR _Dest$[rbp]
  00064	e8 00 00 00 00	 call	 ??$_Unfancy@G@std@@YAPEAGPEAG@Z ; std::_Unfancy<unsigned short>
  00069	48 89 45 78	 mov	 QWORD PTR tv86[rbp], rax
  0006d	48 8d 4d 08	 lea	 rcx, QWORD PTR _ULast$[rbp]
  00071	e8 00 00 00 00	 call	 ??$_To_address@PEAG@std@@YA?A_PAEBQEAG@Z ; std::_To_address<unsigned short *>
  00076	48 89 85 80 00
	00 00		 mov	 QWORD PTR tv84[rbp], rax
  0007d	48 8d 4d 00	 lea	 rcx, QWORD PTR _UFirst$[rbp]
  00081	e8 00 00 00 00	 call	 ??$_To_address@PEAG@std@@YA?A_PAEBQEAG@Z ; std::_To_address<unsigned short *>
  00086	48 89 85 88 00
	00 00		 mov	 QWORD PTR tv82[rbp], rax
  0008d	4c 8b 45 78	 mov	 r8, QWORD PTR tv86[rbp]
  00091	48 8b 95 80 00
	00 00		 mov	 rdx, QWORD PTR tv84[rbp]
  00098	48 8b 8d 88 00
	00 00		 mov	 rcx, QWORD PTR tv82[rbp]
  0009f	e8 00 00 00 00	 call	 ??$_Copy_memmove@PEAGPEAG@std@@YAPEAGPEAG00@Z ; std::_Copy_memmove<unsigned short *,unsigned short *>

; 1843 :                 _Dest += _ULast - _UFirst;

  000a4	48 8b 45 00	 mov	 rax, QWORD PTR _UFirst$[rbp]
  000a8	48 8b 4d 08	 mov	 rcx, QWORD PTR _ULast$[rbp]
  000ac	48 2b c8	 sub	 rcx, rax
  000af	48 8b c1	 mov	 rax, rcx
  000b2	48 d1 f8	 sar	 rax, 1
  000b5	48 8b 8d b0 00
	00 00		 mov	 rcx, QWORD PTR _Dest$[rbp]
  000bc	48 8d 04 41	 lea	 rax, QWORD PTR [rcx+rax*2]
  000c0	48 89 85 b0 00
	00 00		 mov	 QWORD PTR _Dest$[rbp], rax

; 1844 :             } else {
; 1845 :                 const auto _Count = static_cast<size_t>(_ULast - _UFirst);
; 1846 :                 _Copy_memmove_n(_To_address(_UFirst), _Count, _Unfancy(_Dest));
; 1847 :                 _Dest += _Count;
; 1848 :             }
; 1849 :             return _Dest;

  000c7	48 8b 85 b0 00
	00 00		 mov	 rax, QWORD PTR _Dest$[rbp]
  000ce	eb 59		 jmp	 SHORT $LN1@Uninitiali
$LN5@Uninitiali:

; 1850 :         }
; 1851 :     }
; 1852 : 
; 1853 :     _Uninitialized_backout_al<_Alloc> _Backout{_Dest, _Al};

  000d0	4c 8b 85 b8 00
	00 00		 mov	 r8, QWORD PTR _Al$[rbp]
  000d7	48 8b 95 b0 00
	00 00		 mov	 rdx, QWORD PTR _Dest$[rbp]
  000de	48 8d 4d 18	 lea	 rcx, QWORD PTR _Backout$[rbp]
  000e2	e8 00 00 00 00	 call	 ??0?$_Uninitialized_backout_al@V?$allocator@G@std@@@std@@QEAA@PEAGAEAV?$allocator@G@1@@Z ; std::_Uninitialized_backout_al<std::allocator<unsigned short> >::_Uninitialized_backout_al<std::allocator<unsigned short> >
  000e7	90		 npad	 1

; 1854 :     for (; _UFirst != _ULast; ++_UFirst) {

  000e8	eb 0c		 jmp	 SHORT $LN4@Uninitiali
$LN2@Uninitiali:
  000ea	48 8b 45 00	 mov	 rax, QWORD PTR _UFirst$[rbp]
  000ee	48 83 c0 02	 add	 rax, 2
  000f2	48 89 45 00	 mov	 QWORD PTR _UFirst$[rbp], rax
$LN4@Uninitiali:
  000f6	48 8b 45 08	 mov	 rax, QWORD PTR _ULast$[rbp]
  000fa	48 39 45 00	 cmp	 QWORD PTR _UFirst$[rbp], rax
  000fe	74 0f		 je	 SHORT $LN3@Uninitiali

; 1855 :         _Backout._Emplace_back(*_UFirst);

  00100	48 8b 55 00	 mov	 rdx, QWORD PTR _UFirst$[rbp]
  00104	48 8d 4d 18	 lea	 rcx, QWORD PTR _Backout$[rbp]
  00108	e8 00 00 00 00	 call	 ??$_Emplace_back@AEAG@?$_Uninitialized_backout_al@V?$allocator@G@std@@@std@@QEAAXAEAG@Z ; std::_Uninitialized_backout_al<std::allocator<unsigned short> >::_Emplace_back<unsigned short &>

; 1856 :     }

  0010d	eb db		 jmp	 SHORT $LN2@Uninitiali
$LN3@Uninitiali:

; 1857 : 
; 1858 :     return _Backout._Release();

  0010f	48 8d 4d 18	 lea	 rcx, QWORD PTR _Backout$[rbp]
  00113	e8 00 00 00 00	 call	 ?_Release@?$_Uninitialized_backout_al@V?$allocator@G@std@@@std@@QEAAPEAGXZ ; std::_Uninitialized_backout_al<std::allocator<unsigned short> >::_Release
  00118	48 89 45 70	 mov	 QWORD PTR $T1[rbp], rax
  0011c	48 8d 4d 18	 lea	 rcx, QWORD PTR _Backout$[rbp]
  00120	e8 00 00 00 00	 call	 ??1?$_Uninitialized_backout_al@V?$allocator@G@std@@@std@@QEAA@XZ ; std::_Uninitialized_backout_al<std::allocator<unsigned short> >::~_Uninitialized_backout_al<std::allocator<unsigned short> >
  00125	48 8b 45 70	 mov	 rax, QWORD PTR $T1[rbp]
$LN1@Uninitiali:

; 1859 : }

  00129	48 8d a5 90 00
	00 00		 lea	 rsp, QWORD PTR [rbp+144]
  00130	5d		 pop	 rbp
  00131	c3		 ret	 0
??$_Uninitialized_copy@PEAGPEAGV?$allocator@G@std@@@std@@YAPEAGPEAG00AEAV?$allocator@G@0@@Z ENDP ; std::_Uninitialized_copy<unsigned short *,unsigned short *,std::allocator<unsigned short> >
_TEXT	ENDS
; Function compile flags: /Odtp /ZI
;	COMDAT text$x
text$x	SEGMENT
_UFirst$ = 0
_ULast$ = 8
_Can_memmove$ = 16
_Backout$ = 24
$T1 = 112
tv86 = 120
tv84 = 128
tv82 = 136
_First$ = 160
_Last$ = 168
_Dest$ = 176
_Al$ = 184
?dtor$0@?0???$_Uninitialized_copy@PEAGPEAGV?$allocator@G@std@@@std@@YAPEAGPEAG00AEAV?$allocator@G@0@@Z@4HA PROC ; `std::_Uninitialized_copy<unsigned short *,unsigned short *,std::allocator<unsigned short> >'::`1'::dtor$0
  00000	40 55		 push	 rbp
  00002	48 83 ec 20	 sub	 rsp, 32			; 00000020H
  00006	48 8d 6a 20	 lea	 rbp, QWORD PTR [rdx+32]
  0000a	48 8d 4d 18	 lea	 rcx, QWORD PTR _Backout$[rbp]
  0000e	e8 00 00 00 00	 call	 ??1?$_Uninitialized_backout_al@V?$allocator@G@std@@@std@@QEAA@XZ ; std::_Uninitialized_backout_al<std::allocator<unsigned short> >::~_Uninitialized_backout_al<std::allocator<unsigned short> >
  00013	48 83 c4 20	 add	 rsp, 32			; 00000020H
  00017	5d		 pop	 rbp
  00018	c3		 ret	 0
?dtor$0@?0???$_Uninitialized_copy@PEAGPEAGV?$allocator@G@std@@@std@@YAPEAGPEAG00AEAV?$allocator@G@0@@Z@4HA ENDP ; `std::_Uninitialized_copy<unsigned short *,unsigned short *,std::allocator<unsigned short> >'::`1'::dtor$0
text$x	ENDS
; Function compile flags: /Odtp /ZI
; File C:\Program Files\Microsoft Visual Studio\2022\Preview\VC\Tools\MSVC\14.38.33030\include\xmemory
;	COMDAT ??1?$_Tidy_guard@V?$vector@GV?$allocator@G@std@@@std@@@std@@QEAA@XZ
_TEXT	SEGMENT
this$ = 80
??1?$_Tidy_guard@V?$vector@GV?$allocator@G@std@@@std@@@std@@QEAA@XZ PROC ; std::_Tidy_guard<std::vector<unsigned short,std::allocator<unsigned short> > >::~_Tidy_guard<std::vector<unsigned short,std::allocator<unsigned short> > >, COMDAT

; 42   :     _CONSTEXPR20 ~_Tidy_guard() {

$LN4:
  00000	48 89 4c 24 08	 mov	 QWORD PTR [rsp+8], rcx
  00005	55		 push	 rbp
  00006	48 83 ec 60	 sub	 rsp, 96			; 00000060H
  0000a	48 8d 6c 24 20	 lea	 rbp, QWORD PTR [rsp+32]
  0000f	48 8d 0d 00 00
	00 00		 lea	 rcx, OFFSET FLAT:__67F55BEA_xmemory
  00016	e8 00 00 00 00	 call	 __CheckForDebuggerJustMyCode

; 43   :         if (_Target) {

  0001b	48 8b 45 50	 mov	 rax, QWORD PTR this$[rbp]
  0001f	48 83 38 00	 cmp	 QWORD PTR [rax], 0
  00023	74 0c		 je	 SHORT $LN2@Tidy_guard

; 44   :             _Target->_Tidy();

  00025	48 8b 45 50	 mov	 rax, QWORD PTR this$[rbp]
  00029	48 8b 08	 mov	 rcx, QWORD PTR [rax]
  0002c	e8 00 00 00 00	 call	 ?_Tidy@?$vector@GV?$allocator@G@std@@@std@@AEAAXXZ ; std::vector<unsigned short,std::allocator<unsigned short> >::_Tidy
$LN2@Tidy_guard:

; 45   :         }
; 46   :     }

  00031	48 8d 65 40	 lea	 rsp, QWORD PTR [rbp+64]
  00035	5d		 pop	 rbp
  00036	c3		 ret	 0
??1?$_Tidy_guard@V?$vector@GV?$allocator@G@std@@@std@@@std@@QEAA@XZ ENDP ; std::_Tidy_guard<std::vector<unsigned short,std::allocator<unsigned short> > >::~_Tidy_guard<std::vector<unsigned short,std::allocator<unsigned short> > >
_TEXT	ENDS
; Function compile flags: /Odtp /ZI
; File C:\Program Files\Microsoft Visual Studio\2022\Preview\VC\Tools\MSVC\14.38.33030\include\xmemory
;	COMDAT ??1?$_Container_proxy_ptr12@V?$allocator@U_Container_proxy@std@@@std@@@std@@QEAA@XZ
_TEXT	SEGMENT
this$ = 80
??1?$_Container_proxy_ptr12@V?$allocator@U_Container_proxy@std@@@std@@@std@@QEAA@XZ PROC ; std::_Container_proxy_ptr12<std::allocator<std::_Container_proxy> >::~_Container_proxy_ptr12<std::allocator<std::_Container_proxy> >, COMDAT

; 1483 :     _CONSTEXPR20 ~_Container_proxy_ptr12() {

$LN4:
  00000	48 89 4c 24 08	 mov	 QWORD PTR [rsp+8], rcx
  00005	55		 push	 rbp
  00006	48 83 ec 60	 sub	 rsp, 96			; 00000060H
  0000a	48 8d 6c 24 20	 lea	 rbp, QWORD PTR [rsp+32]
  0000f	48 8d 0d 00 00
	00 00		 lea	 rcx, OFFSET FLAT:__67F55BEA_xmemory
  00016	e8 00 00 00 00	 call	 __CheckForDebuggerJustMyCode

; 1484 :         if (_Ptr) {

  0001b	48 8b 45 50	 mov	 rax, QWORD PTR this$[rbp]
  0001f	48 83 38 00	 cmp	 QWORD PTR [rax], 0
  00023	74 14		 je	 SHORT $LN2@Container_

; 1485 :             _Delete_plain_internal(_Al, _Ptr);

  00025	48 8b 45 50	 mov	 rax, QWORD PTR this$[rbp]
  00029	48 8b 10	 mov	 rdx, QWORD PTR [rax]
  0002c	48 8b 45 50	 mov	 rax, QWORD PTR this$[rbp]
  00030	48 8b 48 08	 mov	 rcx, QWORD PTR [rax+8]
  00034	e8 00 00 00 00	 call	 ??$_Delete_plain_internal@V?$allocator@U_Container_proxy@std@@@std@@@std@@YAXAEAV?$allocator@U_Container_proxy@std@@@0@QEAU_Container_proxy@0@@Z ; std::_Delete_plain_internal<std::allocator<std::_Container_proxy> >
$LN2@Container_:

; 1486 :         }
; 1487 :     }

  00039	48 8d 65 40	 lea	 rsp, QWORD PTR [rbp+64]
  0003d	5d		 pop	 rbp
  0003e	c3		 ret	 0
??1?$_Container_proxy_ptr12@V?$allocator@U_Container_proxy@std@@@std@@@std@@QEAA@XZ ENDP ; std::_Container_proxy_ptr12<std::allocator<std::_Container_proxy> >::~_Container_proxy_ptr12<std::allocator<std::_Container_proxy> >
_TEXT	ENDS
; Function compile flags: /Odtp /ZI
; File C:\Program Files\Microsoft Visual Studio\2022\Preview\VC\Tools\MSVC\14.38.33030\include\xmemory
;	COMDAT ??0?$_Container_proxy_ptr12@V?$allocator@U_Container_proxy@std@@@std@@@std@@QEAA@AEAV?$allocator@U_Container_proxy@std@@@1@AEAU_Container_base12@1@@Z
_TEXT	SEGMENT
$T1 = 64
this$ = 96
_Al_$ = 104
_Mycont$ = 112
??0?$_Container_proxy_ptr12@V?$allocator@U_Container_proxy@std@@@std@@@std@@QEAA@AEAV?$allocator@U_Container_proxy@std@@@1@AEAU_Container_base12@1@@Z PROC ; std::_Container_proxy_ptr12<std::allocator<std::_Container_proxy> >::_Container_proxy_ptr12<std::allocator<std::_Container_proxy> >, COMDAT

; 1469 :     _CONSTEXPR20 _Container_proxy_ptr12(_Alloc& _Al_, _Container_base12& _Mycont) : _Al(_Al_) {

$LN3:
  00000	4c 89 44 24 18	 mov	 QWORD PTR [rsp+24], r8
  00005	48 89 54 24 10	 mov	 QWORD PTR [rsp+16], rdx
  0000a	48 89 4c 24 08	 mov	 QWORD PTR [rsp+8], rcx
  0000f	55		 push	 rbp
  00010	48 83 ec 70	 sub	 rsp, 112		; 00000070H
  00014	48 8d 6c 24 20	 lea	 rbp, QWORD PTR [rsp+32]
  00019	48 8d 0d 00 00
	00 00		 lea	 rcx, OFFSET FLAT:__67F55BEA_xmemory
  00020	e8 00 00 00 00	 call	 __CheckForDebuggerJustMyCode
  00025	48 8b 4d 60	 mov	 rcx, QWORD PTR this$[rbp]
  00029	e8 00 00 00 00	 call	 ??0_Basic_container_proxy_ptr12@std@@IEAA@XZ ; std::_Basic_container_proxy_ptr12::_Basic_container_proxy_ptr12
  0002e	48 8b 45 60	 mov	 rax, QWORD PTR this$[rbp]
  00032	48 8b 4d 68	 mov	 rcx, QWORD PTR _Al_$[rbp]
  00036	48 89 48 08	 mov	 QWORD PTR [rax+8], rcx

; 1470 :         // create a new _Container_proxy pointing at _Mycont
; 1471 :         _Ptr = _Unfancy(_Al_.allocate(1));

  0003a	ba 01 00 00 00	 mov	 edx, 1
  0003f	48 8b 4d 68	 mov	 rcx, QWORD PTR _Al_$[rbp]
  00043	e8 00 00 00 00	 call	 ?allocate@?$allocator@U_Container_proxy@std@@@std@@QEAAPEAU_Container_proxy@2@_K@Z ; std::allocator<std::_Container_proxy>::allocate
  00048	48 8b c8	 mov	 rcx, rax
  0004b	e8 00 00 00 00	 call	 ??$_Unfancy@U_Container_proxy@std@@@std@@YAPEAU_Container_proxy@0@PEAU10@@Z ; std::_Unfancy<std::_Container_proxy>
  00050	48 8b 4d 60	 mov	 rcx, QWORD PTR this$[rbp]
  00054	48 89 01	 mov	 QWORD PTR [rcx], rax

; 1472 :         _Construct_in_place(*_Ptr, _STD addressof(_Mycont));

  00057	48 8b 4d 70	 mov	 rcx, QWORD PTR _Mycont$[rbp]
  0005b	e8 00 00 00 00	 call	 ??$addressof@U_Container_base12@std@@@std@@YAPEAU_Container_base12@0@AEAU10@@Z ; std::addressof<std::_Container_base12>
  00060	48 89 45 40	 mov	 QWORD PTR $T1[rbp], rax
  00064	48 8d 55 40	 lea	 rdx, QWORD PTR $T1[rbp]
  00068	48 8b 45 60	 mov	 rax, QWORD PTR this$[rbp]
  0006c	48 8b 08	 mov	 rcx, QWORD PTR [rax]
  0006f	e8 00 00 00 00	 call	 ??$_Construct_in_place@U_Container_proxy@std@@PEAU_Container_base12@2@@std@@YAXAEAU_Container_proxy@0@$$QEAPEAU_Container_base12@0@@Z ; std::_Construct_in_place<std::_Container_proxy,std::_Container_base12 *>

; 1473 :         _Mycont._Myproxy = _Ptr;

  00074	48 8b 45 70	 mov	 rax, QWORD PTR _Mycont$[rbp]
  00078	48 8b 4d 60	 mov	 rcx, QWORD PTR this$[rbp]
  0007c	48 8b 09	 mov	 rcx, QWORD PTR [rcx]
  0007f	48 89 08	 mov	 QWORD PTR [rax], rcx

; 1474 :     }

  00082	48 8b 45 60	 mov	 rax, QWORD PTR this$[rbp]
  00086	48 8d 65 50	 lea	 rsp, QWORD PTR [rbp+80]
  0008a	5d		 pop	 rbp
  0008b	c3		 ret	 0
??0?$_Container_proxy_ptr12@V?$allocator@U_Container_proxy@std@@@std@@@std@@QEAA@AEAV?$allocator@U_Container_proxy@std@@@1@AEAU_Container_base12@1@@Z ENDP ; std::_Container_proxy_ptr12<std::allocator<std::_Container_proxy> >::_Container_proxy_ptr12<std::allocator<std::_Container_proxy> >
_TEXT	ENDS
; Function compile flags: /Odtp /ZI
; File C:\Program Files\Microsoft Visual Studio\2022\Preview\VC\Tools\MSVC\14.38.33030\include\xmemory
;	COMDAT ??$_Deallocate_plain@V?$allocator@U_Container_proxy@std@@@std@@@std@@YAXAEAV?$allocator@U_Container_proxy@std@@@0@QEAU_Container_proxy@0@@Z
_TEXT	SEGMENT
_Al$ = 80
_Ptr$ = 88
??$_Deallocate_plain@V?$allocator@U_Container_proxy@std@@@std@@@std@@YAXAEAV?$allocator@U_Container_proxy@std@@@0@QEAU_Container_proxy@0@@Z PROC ; std::_Deallocate_plain<std::allocator<std::_Container_proxy> >, COMDAT

; 1123 : _CONSTEXPR20 void _Deallocate_plain(_Alloc& _Al, typename _Alloc::value_type* const _Ptr) noexcept {

$LN3:
  00000	48 89 54 24 10	 mov	 QWORD PTR [rsp+16], rdx
  00005	48 89 4c 24 08	 mov	 QWORD PTR [rsp+8], rcx
  0000a	55		 push	 rbp
  0000b	48 83 ec 60	 sub	 rsp, 96			; 00000060H
  0000f	48 8d 6c 24 20	 lea	 rbp, QWORD PTR [rsp+32]
  00014	48 8d 0d 00 00
	00 00		 lea	 rcx, OFFSET FLAT:__67F55BEA_xmemory
  0001b	e8 00 00 00 00	 call	 __CheckForDebuggerJustMyCode

; 1124 :     // deallocate a plain pointer using an allocator
; 1125 :     using _Alloc_traits = allocator_traits<_Alloc>;
; 1126 :     if constexpr (is_same_v<_Alloc_ptr_t<_Alloc>, typename _Alloc::value_type*>) {
; 1127 :         _Alloc_traits::deallocate(_Al, _Ptr, 1);

  00020	41 b8 01 00 00
	00		 mov	 r8d, 1
  00026	48 8b 55 58	 mov	 rdx, QWORD PTR _Ptr$[rbp]
  0002a	48 8b 4d 50	 mov	 rcx, QWORD PTR _Al$[rbp]
  0002e	e8 00 00 00 00	 call	 ?deallocate@?$_Default_allocator_traits@V?$allocator@U_Container_proxy@std@@@std@@@std@@SAXAEAV?$allocator@U_Container_proxy@std@@@2@QEAU_Container_proxy@2@_K@Z ; std::_Default_allocator_traits<std::allocator<std::_Container_proxy> >::deallocate
  00033	90		 npad	 1

; 1128 :     } else {
; 1129 :         using _Ptr_traits = pointer_traits<_Alloc_ptr_t<_Alloc>>;
; 1130 :         _Alloc_traits::deallocate(_Al, _Ptr_traits::pointer_to(*_Ptr), 1);
; 1131 :     }
; 1132 : }

  00034	48 8d 65 40	 lea	 rsp, QWORD PTR [rbp+64]
  00038	5d		 pop	 rbp
  00039	c3		 ret	 0
??$_Deallocate_plain@V?$allocator@U_Container_proxy@std@@@std@@@std@@YAXAEAV?$allocator@U_Container_proxy@std@@@0@QEAU_Container_proxy@0@@Z ENDP ; std::_Deallocate_plain<std::allocator<std::_Container_proxy> >
_TEXT	ENDS
; Function compile flags: /Odtp /ZI
; File C:\Program Files\Microsoft Visual Studio\2022\Preview\VC\Tools\MSVC\14.38.33030\include\xutility
;	COMDAT ??$construct_at@U_Container_proxy@std@@PEAU_Container_base12@2@$0A@@std@@YAPEAU_Container_proxy@0@QEAU10@$$QEAPEAU_Container_base12@0@@Z
_TEXT	SEGMENT
$T1 = 64
_Location$ = 96
<_Args_0>$ = 104
??$construct_at@U_Container_proxy@std@@PEAU_Container_base12@2@$0A@@std@@YAPEAU_Container_proxy@0@QEAU10@$$QEAPEAU_Container_base12@0@@Z PROC ; std::construct_at<std::_Container_proxy,std::_Container_base12 *,0>, COMDAT

; 241  :     noexcept(::new(static_cast<void*>(_Location)) _Ty(_STD forward<_Types>(_Args)...))) /* strengthened */ {

$LN3:
  00000	48 89 54 24 10	 mov	 QWORD PTR [rsp+16], rdx
  00005	48 89 4c 24 08	 mov	 QWORD PTR [rsp+8], rcx
  0000a	55		 push	 rbp
  0000b	48 83 ec 70	 sub	 rsp, 112		; 00000070H
  0000f	48 8d 6c 24 20	 lea	 rbp, QWORD PTR [rsp+32]
  00014	48 8d 0d 00 00
	00 00		 lea	 rcx, OFFSET FLAT:__B7320FC0_xutility
  0001b	e8 00 00 00 00	 call	 __CheckForDebuggerJustMyCode

; 242  :     _MSVC_CONSTEXPR return ::new (static_cast<void*>(_Location)) _Ty(_STD forward<_Types>(_Args)...);

  00020	48 8b 55 60	 mov	 rdx, QWORD PTR _Location$[rbp]
  00024	b9 10 00 00 00	 mov	 ecx, 16
  00029	e8 00 00 00 00	 call	 ??2@YAPEAX_KPEAX@Z	; operator new
  0002e	48 89 45 40	 mov	 QWORD PTR $T1[rbp], rax
  00032	48 8b 45 68	 mov	 rax, QWORD PTR <_Args_0>$[rbp]
  00036	48 8b 10	 mov	 rdx, QWORD PTR [rax]
  00039	48 8b 4d 40	 mov	 rcx, QWORD PTR $T1[rbp]
  0003d	e8 00 00 00 00	 call	 ??0_Container_proxy@std@@QEAA@PEAU_Container_base12@1@@Z ; std::_Container_proxy::_Container_proxy

; 243  : }

  00042	48 8d 65 50	 lea	 rsp, QWORD PTR [rbp+80]
  00046	5d		 pop	 rbp
  00047	c3		 ret	 0
??$construct_at@U_Container_proxy@std@@PEAU_Container_base12@2@$0A@@std@@YAPEAU_Container_proxy@0@QEAU10@$$QEAPEAU_Container_base12@0@@Z ENDP ; std::construct_at<std::_Container_proxy,std::_Container_base12 *,0>
_TEXT	ENDS
; Function compile flags: /Odtp /ZI
; File C:\Program Files\Microsoft Visual Studio\2022\Preview\VC\Tools\MSVC\14.38.33030\include\type_traits
;	COMDAT ??$addressof@U_Container_proxy@std@@@std@@YAPEAU_Container_proxy@0@AEAU10@@Z
_TEXT	SEGMENT
_Val$ = 80
??$addressof@U_Container_proxy@std@@@std@@YAPEAU_Container_proxy@0@AEAU10@@Z PROC ; std::addressof<std::_Container_proxy>, COMDAT

; 1589 : _NODISCARD constexpr _Ty* addressof(_Ty& _Val) noexcept {

$LN3:
  00000	48 89 4c 24 08	 mov	 QWORD PTR [rsp+8], rcx
  00005	55		 push	 rbp
  00006	48 83 ec 60	 sub	 rsp, 96			; 00000060H
  0000a	48 8d 6c 24 20	 lea	 rbp, QWORD PTR [rsp+32]
  0000f	48 8d 0d 00 00
	00 00		 lea	 rcx, OFFSET FLAT:__3DF2A533_type_traits
  00016	e8 00 00 00 00	 call	 __CheckForDebuggerJustMyCode

; 1590 :     return __builtin_addressof(_Val);

  0001b	48 8b 45 50	 mov	 rax, QWORD PTR _Val$[rbp]

; 1591 : }

  0001f	48 8d 65 40	 lea	 rsp, QWORD PTR [rbp+64]
  00023	5d		 pop	 rbp
  00024	c3		 ret	 0
??$addressof@U_Container_proxy@std@@@std@@YAPEAU_Container_proxy@0@AEAU10@@Z ENDP ; std::addressof<std::_Container_proxy>
_TEXT	ENDS
; Function compile flags: /Odtp /ZI
; File C:\Program Files\Microsoft Visual Studio\2022\Preview\VC\Tools\MSVC\14.38.33030\include\xutility
;	COMDAT ??$construct_at@DAEBD$0A@@std@@YAPEADQEADAEBD@Z
_TEXT	SEGMENT
$T1 = 64
_Location$ = 96
<_Args_0>$ = 104
??$construct_at@DAEBD$0A@@std@@YAPEADQEADAEBD@Z PROC	; std::construct_at<char,char const &,0>, COMDAT

; 241  :     noexcept(::new(static_cast<void*>(_Location)) _Ty(_STD forward<_Types>(_Args)...))) /* strengthened */ {

$LN3:
  00000	48 89 54 24 10	 mov	 QWORD PTR [rsp+16], rdx
  00005	48 89 4c 24 08	 mov	 QWORD PTR [rsp+8], rcx
  0000a	55		 push	 rbp
  0000b	48 83 ec 70	 sub	 rsp, 112		; 00000070H
  0000f	48 8d 6c 24 20	 lea	 rbp, QWORD PTR [rsp+32]
  00014	48 8d 0d 00 00
	00 00		 lea	 rcx, OFFSET FLAT:__B7320FC0_xutility
  0001b	e8 00 00 00 00	 call	 __CheckForDebuggerJustMyCode

; 242  :     _MSVC_CONSTEXPR return ::new (static_cast<void*>(_Location)) _Ty(_STD forward<_Types>(_Args)...);

  00020	48 8b 55 60	 mov	 rdx, QWORD PTR _Location$[rbp]
  00024	b9 01 00 00 00	 mov	 ecx, 1
  00029	e8 00 00 00 00	 call	 ??2@YAPEAX_KPEAX@Z	; operator new
  0002e	48 89 45 40	 mov	 QWORD PTR $T1[rbp], rax
  00032	48 8b 45 40	 mov	 rax, QWORD PTR $T1[rbp]
  00036	48 8b 4d 68	 mov	 rcx, QWORD PTR <_Args_0>$[rbp]
  0003a	0f b6 09	 movzx	 ecx, BYTE PTR [rcx]
  0003d	88 08		 mov	 BYTE PTR [rax], cl
  0003f	48 8b 45 40	 mov	 rax, QWORD PTR $T1[rbp]

; 243  : }

  00043	48 8d 65 50	 lea	 rsp, QWORD PTR [rbp+80]
  00047	5d		 pop	 rbp
  00048	c3		 ret	 0
??$construct_at@DAEBD$0A@@std@@YAPEADQEADAEBD@Z ENDP	; std::construct_at<char,char const &,0>
_TEXT	ENDS
; Function compile flags: /Odtp /ZI
; File C:\Program Files\Microsoft Visual Studio\2022\Preview\VC\Tools\MSVC\14.38.33030\include\type_traits
;	COMDAT ??$addressof@D@std@@YAPEADAEAD@Z
_TEXT	SEGMENT
_Val$ = 80
??$addressof@D@std@@YAPEADAEAD@Z PROC			; std::addressof<char>, COMDAT

; 1589 : _NODISCARD constexpr _Ty* addressof(_Ty& _Val) noexcept {

$LN3:
  00000	48 89 4c 24 08	 mov	 QWORD PTR [rsp+8], rcx
  00005	55		 push	 rbp
  00006	48 83 ec 60	 sub	 rsp, 96			; 00000060H
  0000a	48 8d 6c 24 20	 lea	 rbp, QWORD PTR [rsp+32]
  0000f	48 8d 0d 00 00
	00 00		 lea	 rcx, OFFSET FLAT:__3DF2A533_type_traits
  00016	e8 00 00 00 00	 call	 __CheckForDebuggerJustMyCode

; 1590 :     return __builtin_addressof(_Val);

  0001b	48 8b 45 50	 mov	 rax, QWORD PTR _Val$[rbp]

; 1591 : }

  0001f	48 8d 65 40	 lea	 rsp, QWORD PTR [rbp+64]
  00023	5d		 pop	 rbp
  00024	c3		 ret	 0
??$addressof@D@std@@YAPEADAEAD@Z ENDP			; std::addressof<char>
_TEXT	ENDS
; Function compile flags: /Odtp /ZI
; File C:\Program Files\Microsoft Visual Studio\2022\Preview\VC\Tools\MSVC\14.38.33030\include\utility
;	COMDAT ??$min@_K@std@@YAAEB_KAEB_K0@Z
_TEXT	SEGMENT
$T1 = 64
tv65 = 72
_Left$ = 96
_Right$ = 104
??$min@_K@std@@YAAEB_KAEB_K0@Z PROC			; std::min<unsigned __int64>, COMDAT

; 98   :     (min) (const _Ty& _Left, const _Ty& _Right) noexcept(noexcept(_Right < _Left)) /* strengthened */ {

$LN5:
  00000	48 89 54 24 10	 mov	 QWORD PTR [rsp+16], rdx
  00005	48 89 4c 24 08	 mov	 QWORD PTR [rsp+8], rcx
  0000a	55		 push	 rbp
  0000b	48 83 ec 70	 sub	 rsp, 112		; 00000070H
  0000f	48 8d 6c 24 20	 lea	 rbp, QWORD PTR [rsp+32]
  00014	48 8d 0d 00 00
	00 00		 lea	 rcx, OFFSET FLAT:__0D603829_utility
  0001b	e8 00 00 00 00	 call	 __CheckForDebuggerJustMyCode

; 99   :     // return smaller of _Left and _Right
; 100  :     return _Right < _Left ? _Right : _Left;

  00020	48 8b 45 68	 mov	 rax, QWORD PTR _Right$[rbp]
  00024	48 8b 4d 60	 mov	 rcx, QWORD PTR _Left$[rbp]
  00028	48 8b 09	 mov	 rcx, QWORD PTR [rcx]
  0002b	48 39 08	 cmp	 QWORD PTR [rax], rcx
  0002e	73 0a		 jae	 SHORT $LN3@min
  00030	48 8b 45 68	 mov	 rax, QWORD PTR _Right$[rbp]
  00034	48 89 45 48	 mov	 QWORD PTR tv65[rbp], rax
  00038	eb 08		 jmp	 SHORT $LN4@min
$LN3@min:
  0003a	48 8b 45 60	 mov	 rax, QWORD PTR _Left$[rbp]
  0003e	48 89 45 48	 mov	 QWORD PTR tv65[rbp], rax
$LN4@min:
  00042	48 8b 45 48	 mov	 rax, QWORD PTR tv65[rbp]
  00046	48 89 45 40	 mov	 QWORD PTR $T1[rbp], rax
  0004a	48 8b 45 40	 mov	 rax, QWORD PTR $T1[rbp]

; 101  : }

  0004e	48 8d 65 50	 lea	 rsp, QWORD PTR [rbp+80]
  00052	5d		 pop	 rbp
  00053	c3		 ret	 0
??$min@_K@std@@YAAEB_KAEB_K0@Z ENDP			; std::min<unsigned __int64>
_TEXT	ENDS
; Function compile flags: /Odtp /ZI
; File C:\Program Files\Microsoft Visual Studio\2022\Preview\VC\Tools\MSVC\14.38.33030\include\xmemory
;	COMDAT ??$_Deallocate@$0BA@$0A@@std@@YAXPEAX_K@Z
_TEXT	SEGMENT
_Ptr$ = 80
_Bytes$ = 88
??$_Deallocate@$0BA@$0A@@std@@YAXPEAX_K@Z PROC		; std::_Deallocate<16,0>, COMDAT

; 251  : _CONSTEXPR20 void _Deallocate(void* _Ptr, size_t _Bytes) noexcept {

$LN6:
  00000	48 89 54 24 10	 mov	 QWORD PTR [rsp+16], rdx
  00005	48 89 4c 24 08	 mov	 QWORD PTR [rsp+8], rcx
  0000a	55		 push	 rbp
  0000b	48 83 ec 60	 sub	 rsp, 96			; 00000060H
  0000f	48 8d 6c 24 20	 lea	 rbp, QWORD PTR [rsp+32]
  00014	48 8d 0d 00 00
	00 00		 lea	 rcx, OFFSET FLAT:__67F55BEA_xmemory
  0001b	e8 00 00 00 00	 call	 __CheckForDebuggerJustMyCode

; 252  :     // deallocate storage allocated by _Allocate when !_HAS_ALIGNED_NEW || _Align <= __STDCPP_DEFAULT_NEW_ALIGNMENT__
; 253  : #if _HAS_CXX20 // TRANSITION, GH-1532
; 254  :     if (_STD is_constant_evaluated()) {

  00020	e8 00 00 00 00	 call	 ?is_constant_evaluated@std@@YA_NXZ ; std::is_constant_evaluated
  00025	0f b6 c0	 movzx	 eax, al
  00028	85 c0		 test	 eax, eax
  0002a	74 0b		 je	 SHORT $LN2@Deallocate

; 255  :         ::operator delete(_Ptr);

  0002c	48 8b 4d 50	 mov	 rcx, QWORD PTR _Ptr$[rbp]
  00030	e8 00 00 00 00	 call	 ??3@YAXPEAX@Z		; operator delete

; 256  :     } else

  00035	eb 25		 jmp	 SHORT $LN3@Deallocate
$LN2@Deallocate:

; 257  : #endif // _HAS_CXX20
; 258  :     {
; 259  : #if defined(_M_IX86) || defined(_M_X64)
; 260  :         if (_Bytes >= _Big_allocation_threshold) { // boost the alignment of big allocations to help autovectorization

  00037	48 81 7d 58 00
	10 00 00	 cmp	 QWORD PTR _Bytes$[rbp], 4096 ; 00001000H
  0003f	72 0d		 jb	 SHORT $LN4@Deallocate

; 261  :             _Adjust_manually_vector_aligned(_Ptr, _Bytes);

  00041	48 8d 55 58	 lea	 rdx, QWORD PTR _Bytes$[rbp]
  00045	48 8d 4d 50	 lea	 rcx, QWORD PTR _Ptr$[rbp]
  00049	e8 00 00 00 00	 call	 ?_Adjust_manually_vector_aligned@std@@YAXAEAPEAXAEA_K@Z ; std::_Adjust_manually_vector_aligned
$LN4@Deallocate:

; 262  :         }
; 263  : #endif // defined(_M_IX86) || defined(_M_X64)
; 264  :         ::operator delete(_Ptr, _Bytes);

  0004e	48 8b 55 58	 mov	 rdx, QWORD PTR _Bytes$[rbp]
  00052	48 8b 4d 50	 mov	 rcx, QWORD PTR _Ptr$[rbp]
  00056	e8 00 00 00 00	 call	 ??3@YAXPEAX_K@Z		; operator delete
  0005b	90		 npad	 1
$LN3@Deallocate:

; 265  :     }
; 266  : }

  0005c	48 8d 65 40	 lea	 rsp, QWORD PTR [rbp+64]
  00060	5d		 pop	 rbp
  00061	c3		 ret	 0
??$_Deallocate@$0BA@$0A@@std@@YAXPEAX_K@Z ENDP		; std::_Deallocate<16,0>
_TEXT	ENDS
; Function compile flags: /Odtp /ZI
; File C:\Program Files\Microsoft Visual Studio\2022\Preview\VC\Tools\MSVC\14.38.33030\include\utility
;	COMDAT ??$max@_K@std@@YAAEB_KAEB_K0@Z
_TEXT	SEGMENT
$T1 = 64
tv65 = 72
_Left$ = 96
_Right$ = 104
??$max@_K@std@@YAAEB_KAEB_K0@Z PROC			; std::max<unsigned __int64>, COMDAT

; 75   :     (max) (const _Ty& _Left, const _Ty& _Right) noexcept(noexcept(_Left < _Right)) /* strengthened */ {

$LN5:
  00000	48 89 54 24 10	 mov	 QWORD PTR [rsp+16], rdx
  00005	48 89 4c 24 08	 mov	 QWORD PTR [rsp+8], rcx
  0000a	55		 push	 rbp
  0000b	48 83 ec 70	 sub	 rsp, 112		; 00000070H
  0000f	48 8d 6c 24 20	 lea	 rbp, QWORD PTR [rsp+32]
  00014	48 8d 0d 00 00
	00 00		 lea	 rcx, OFFSET FLAT:__0D603829_utility
  0001b	e8 00 00 00 00	 call	 __CheckForDebuggerJustMyCode

; 76   :     // return larger of _Left and _Right
; 77   :     return _Left < _Right ? _Right : _Left;

  00020	48 8b 45 60	 mov	 rax, QWORD PTR _Left$[rbp]
  00024	48 8b 4d 68	 mov	 rcx, QWORD PTR _Right$[rbp]
  00028	48 8b 09	 mov	 rcx, QWORD PTR [rcx]
  0002b	48 39 08	 cmp	 QWORD PTR [rax], rcx
  0002e	73 0a		 jae	 SHORT $LN3@max
  00030	48 8b 45 68	 mov	 rax, QWORD PTR _Right$[rbp]
  00034	48 89 45 48	 mov	 QWORD PTR tv65[rbp], rax
  00038	eb 08		 jmp	 SHORT $LN4@max
$LN3@max:
  0003a	48 8b 45 60	 mov	 rax, QWORD PTR _Left$[rbp]
  0003e	48 89 45 48	 mov	 QWORD PTR tv65[rbp], rax
$LN4@max:
  00042	48 8b 45 48	 mov	 rax, QWORD PTR tv65[rbp]
  00046	48 89 45 40	 mov	 QWORD PTR $T1[rbp], rax
  0004a	48 8b 45 40	 mov	 rax, QWORD PTR $T1[rbp]

; 78   : }

  0004e	48 8d 65 50	 lea	 rsp, QWORD PTR [rbp+80]
  00052	5d		 pop	 rbp
  00053	c3		 ret	 0
??$max@_K@std@@YAAEB_KAEB_K0@Z ENDP			; std::max<unsigned __int64>
_TEXT	ENDS
; Function compile flags: /Odtp /ZI
; File C:\Program Files\Microsoft Visual Studio\2022\Preview\VC\Tools\MSVC\14.38.33030\include\xmemory
;	COMDAT ??$_Unfancy@D@std@@YAPEADPEAD@Z
_TEXT	SEGMENT
_Ptr$ = 80
??$_Unfancy@D@std@@YAPEADPEAD@Z PROC			; std::_Unfancy<char>, COMDAT

; 35   : _NODISCARD constexpr _Ty* _Unfancy(_Ty* _Ptr) noexcept { // do nothing for plain pointers

$LN3:
  00000	48 89 4c 24 08	 mov	 QWORD PTR [rsp+8], rcx
  00005	55		 push	 rbp
  00006	48 83 ec 60	 sub	 rsp, 96			; 00000060H
  0000a	48 8d 6c 24 20	 lea	 rbp, QWORD PTR [rsp+32]
  0000f	48 8d 0d 00 00
	00 00		 lea	 rcx, OFFSET FLAT:__67F55BEA_xmemory
  00016	e8 00 00 00 00	 call	 __CheckForDebuggerJustMyCode

; 36   :     return _Ptr;

  0001b	48 8b 45 50	 mov	 rax, QWORD PTR _Ptr$[rbp]

; 37   : }

  0001f	48 8d 65 40	 lea	 rsp, QWORD PTR [rbp+64]
  00023	5d		 pop	 rbp
  00024	c3		 ret	 0
??$_Unfancy@D@std@@YAPEADPEAD@Z ENDP			; std::_Unfancy<char>
_TEXT	ENDS
; Function compile flags: /Odtp /ZI
; File C:\Program Files\Microsoft Visual Studio\2022\Preview\VC\Tools\MSVC\14.38.33030\include\xmemory
;	COMDAT ??$_Destroy_in_place@PEAD@std@@YAXAEAPEAD@Z
_TEXT	SEGMENT
_Obj$ = 80
??$_Destroy_in_place@PEAD@std@@YAXAEAPEAD@Z PROC	; std::_Destroy_in_place<char *>, COMDAT

; 303  : _CONSTEXPR20 void _Destroy_in_place(_Ty& _Obj) noexcept {

$LN3:
  00000	48 89 4c 24 08	 mov	 QWORD PTR [rsp+8], rcx
  00005	55		 push	 rbp
  00006	48 83 ec 60	 sub	 rsp, 96			; 00000060H
  0000a	48 8d 6c 24 20	 lea	 rbp, QWORD PTR [rsp+32]
  0000f	48 8d 0d 00 00
	00 00		 lea	 rcx, OFFSET FLAT:__67F55BEA_xmemory
  00016	e8 00 00 00 00	 call	 __CheckForDebuggerJustMyCode

; 304  :     if constexpr (is_array_v<_Ty>) {
; 305  :         _Destroy_range(_Obj, _Obj + extent_v<_Ty>);
; 306  :     } else {
; 307  :         _Obj.~_Ty();
; 308  :     }
; 309  : }

  0001b	48 8d 65 40	 lea	 rsp, QWORD PTR [rbp+64]
  0001f	5d		 pop	 rbp
  00020	c3		 ret	 0
??$_Destroy_in_place@PEAD@std@@YAXAEAPEAD@Z ENDP	; std::_Destroy_in_place<char *>
_TEXT	ENDS
; Function compile flags: /Odtp /ZI
; File C:\Program Files\Microsoft Visual Studio\2022\Preview\VC\Tools\MSVC\14.38.33030\include\xmemory
;	COMDAT ??$_Destroy_range@V?$allocator@UVertexDefault@@@std@@@std@@YAXPEAUVertexDefault@@QEAU1@AEAV?$allocator@UVertexDefault@@@0@@Z
_TEXT	SEGMENT
_First$ = 80
_Last$ = 88
_Al$ = 96
??$_Destroy_range@V?$allocator@UVertexDefault@@@std@@@std@@YAXPEAUVertexDefault@@QEAU1@AEAV?$allocator@UVertexDefault@@@0@@Z PROC ; std::_Destroy_range<std::allocator<VertexDefault> >, COMDAT

; 1086 : _CONSTEXPR20 void _Destroy_range(_Alloc_ptr_t<_Alloc> _First, const _Alloc_ptr_t<_Alloc> _Last, _Alloc& _Al) noexcept {

$LN3:
  00000	4c 89 44 24 18	 mov	 QWORD PTR [rsp+24], r8
  00005	48 89 54 24 10	 mov	 QWORD PTR [rsp+16], rdx
  0000a	48 89 4c 24 08	 mov	 QWORD PTR [rsp+8], rcx
  0000f	55		 push	 rbp
  00010	48 83 ec 60	 sub	 rsp, 96			; 00000060H
  00014	48 8d 6c 24 20	 lea	 rbp, QWORD PTR [rsp+32]
  00019	48 8d 0d 00 00
	00 00		 lea	 rcx, OFFSET FLAT:__67F55BEA_xmemory
  00020	e8 00 00 00 00	 call	 __CheckForDebuggerJustMyCode

; 1087 :     // note that this is an optimization for debug mode codegen; in release mode the BE removes all of this
; 1088 :     using _Ty = typename _Alloc::value_type;
; 1089 :     if constexpr (!conjunction_v<is_trivially_destructible<_Ty>, _Uses_default_destroy<_Alloc, _Ty*>>) {
; 1090 :         for (; _First != _Last; ++_First) {
; 1091 :             allocator_traits<_Alloc>::destroy(_Al, _Unfancy(_First));
; 1092 :         }
; 1093 :     }
; 1094 : }

  00025	48 8d 65 40	 lea	 rsp, QWORD PTR [rbp+64]
  00029	5d		 pop	 rbp
  0002a	c3		 ret	 0
??$_Destroy_range@V?$allocator@UVertexDefault@@@std@@@std@@YAXPEAUVertexDefault@@QEAU1@AEAV?$allocator@UVertexDefault@@@0@@Z ENDP ; std::_Destroy_range<std::allocator<VertexDefault> >
_TEXT	ENDS
; Function compile flags: /Odtp /ZI
; File C:\Program Files\Microsoft Visual Studio\2022\Preview\VC\Tools\MSVC\14.38.33030\include\xmemory
;	COMDAT ??$_Destroy_range@V?$allocator@G@std@@@std@@YAXPEAGQEAGAEAV?$allocator@G@0@@Z
_TEXT	SEGMENT
_First$ = 80
_Last$ = 88
_Al$ = 96
??$_Destroy_range@V?$allocator@G@std@@@std@@YAXPEAGQEAGAEAV?$allocator@G@0@@Z PROC ; std::_Destroy_range<std::allocator<unsigned short> >, COMDAT

; 1086 : _CONSTEXPR20 void _Destroy_range(_Alloc_ptr_t<_Alloc> _First, const _Alloc_ptr_t<_Alloc> _Last, _Alloc& _Al) noexcept {

$LN3:
  00000	4c 89 44 24 18	 mov	 QWORD PTR [rsp+24], r8
  00005	48 89 54 24 10	 mov	 QWORD PTR [rsp+16], rdx
  0000a	48 89 4c 24 08	 mov	 QWORD PTR [rsp+8], rcx
  0000f	55		 push	 rbp
  00010	48 83 ec 60	 sub	 rsp, 96			; 00000060H
  00014	48 8d 6c 24 20	 lea	 rbp, QWORD PTR [rsp+32]
  00019	48 8d 0d 00 00
	00 00		 lea	 rcx, OFFSET FLAT:__67F55BEA_xmemory
  00020	e8 00 00 00 00	 call	 __CheckForDebuggerJustMyCode

; 1087 :     // note that this is an optimization for debug mode codegen; in release mode the BE removes all of this
; 1088 :     using _Ty = typename _Alloc::value_type;
; 1089 :     if constexpr (!conjunction_v<is_trivially_destructible<_Ty>, _Uses_default_destroy<_Alloc, _Ty*>>) {
; 1090 :         for (; _First != _Last; ++_First) {
; 1091 :             allocator_traits<_Alloc>::destroy(_Al, _Unfancy(_First));
; 1092 :         }
; 1093 :     }
; 1094 : }

  00025	48 8d 65 40	 lea	 rsp, QWORD PTR [rbp+64]
  00029	5d		 pop	 rbp
  0002a	c3		 ret	 0
??$_Destroy_range@V?$allocator@G@std@@@std@@YAXPEAGQEAGAEAV?$allocator@G@0@@Z ENDP ; std::_Destroy_range<std::allocator<unsigned short> >
_TEXT	ENDS
; Function compile flags: /Odtp /ZI
; File C:\Program Files\Microsoft Visual Studio\2022\Preview\VC\Tools\MSVC\14.38.33030\include\xstring
;	COMDAT ??$_Construct@$00PEBD@?$basic_string@DU?$char_traits@D@std@@V?$allocator@D@2@@std@@AEAAXQEBD_K@Z
_TEXT	SEGMENT
_My_data$ = 0
_Al$ = 8
_Alproxy$ = 16
$S23$ = 24
_Proxy$ = 32
_New_capacity$ = 48
_New_ptr$ = 56
$T1 = 128
$T2 = 129
tv154 = 136
tv152 = 144
this$ = 176
_Arg$ = 184
_Count$ = 192
??$_Construct@$00PEBD@?$basic_string@DU?$char_traits@D@std@@V?$allocator@D@2@@std@@AEAAXQEBD_K@Z PROC ; std::basic_string<char,std::char_traits<char>,std::allocator<char> >::_Construct<1,char const *>, COMDAT

; 2609 :     _CONSTEXPR20 void _Construct(const _Char_or_ptr _Arg, _CRT_GUARDOVERFLOW const size_type _Count) {

$LN7:
  00000	4c 89 44 24 18	 mov	 QWORD PTR [rsp+24], r8
  00005	48 89 54 24 10	 mov	 QWORD PTR [rsp+16], rdx
  0000a	48 89 4c 24 08	 mov	 QWORD PTR [rsp+8], rcx
  0000f	55		 push	 rbp
  00010	48 81 ec c0 00
	00 00		 sub	 rsp, 192		; 000000c0H
  00017	48 8d 6c 24 20	 lea	 rbp, QWORD PTR [rsp+32]
  0001c	48 8d 0d 00 00
	00 00		 lea	 rcx, OFFSET FLAT:__1326DD76_xstring
  00023	e8 00 00 00 00	 call	 __CheckForDebuggerJustMyCode

; 2610 :         auto& _My_data = _Mypair._Myval2;

  00028	48 8b 85 b0 00
	00 00		 mov	 rax, QWORD PTR this$[rbp]
  0002f	48 89 45 00	 mov	 QWORD PTR _My_data$[rbp], rax

; 2611 :         _STL_INTERNAL_CHECK(!_My_data._Large_string_engaged());
; 2612 : 
; 2613 :         if constexpr (_Strat == _Construct_strategy::_From_char) {
; 2614 :             _STL_INTERNAL_STATIC_ASSERT(is_same_v<_Char_or_ptr, _Elem>);
; 2615 :         } else {
; 2616 :             _STL_INTERNAL_STATIC_ASSERT(_Is_elem_cptr<_Char_or_ptr>::value);
; 2617 :         }
; 2618 : 
; 2619 :         if (_Count > max_size()) {

  00033	48 8b 8d b0 00
	00 00		 mov	 rcx, QWORD PTR this$[rbp]
  0003a	e8 00 00 00 00	 call	 ?max_size@?$basic_string@DU?$char_traits@D@std@@V?$allocator@D@2@@std@@QEBA_KXZ ; std::basic_string<char,std::char_traits<char>,std::allocator<char> >::max_size
  0003f	48 39 85 c0 00
	00 00		 cmp	 QWORD PTR _Count$[rbp], rax
  00046	76 05		 jbe	 SHORT $LN2@Construct

; 2620 :             _Xlen_string(); // result too long

  00048	e8 00 00 00 00	 call	 ?_Xlen_string@std@@YAXXZ ; std::_Xlen_string
$LN2@Construct:

; 2621 :         }
; 2622 : 
; 2623 :         auto& _Al       = _Getal();

  0004d	48 8b 8d b0 00
	00 00		 mov	 rcx, QWORD PTR this$[rbp]
  00054	e8 00 00 00 00	 call	 ?_Getal@?$basic_string@DU?$char_traits@D@std@@V?$allocator@D@2@@std@@AEAAAEAV?$allocator@D@2@XZ ; std::basic_string<char,std::char_traits<char>,std::allocator<char> >::_Getal
  00059	48 89 45 08	 mov	 QWORD PTR _Al$[rbp], rax

; 2624 :         auto&& _Alproxy = _GET_PROXY_ALLOCATOR(_Alty, _Al);

  0005d	48 8b 55 08	 mov	 rdx, QWORD PTR _Al$[rbp]
  00061	48 8d 4d 18	 lea	 rcx, QWORD PTR $S23$[rbp]
  00065	e8 00 00 00 00	 call	 ??$?0D@?$allocator@U_Container_proxy@std@@@std@@QEAA@AEBV?$allocator@D@1@@Z ; std::allocator<std::_Container_proxy>::allocator<std::_Container_proxy><char>
  0006a	48 8d 45 18	 lea	 rax, QWORD PTR $S23$[rbp]
  0006e	48 89 45 10	 mov	 QWORD PTR _Alproxy$[rbp], rax

; 2625 :         _Container_proxy_ptr<_Alty> _Proxy(_Alproxy, _My_data);

  00072	4c 8b 45 00	 mov	 r8, QWORD PTR _My_data$[rbp]
  00076	48 8b 55 10	 mov	 rdx, QWORD PTR _Alproxy$[rbp]
  0007a	48 8d 4d 20	 lea	 rcx, QWORD PTR _Proxy$[rbp]
  0007e	e8 00 00 00 00	 call	 ??0?$_Container_proxy_ptr12@V?$allocator@U_Container_proxy@std@@@std@@@std@@QEAA@AEAV?$allocator@U_Container_proxy@std@@@1@AEAU_Container_base12@1@@Z ; std::_Container_proxy_ptr12<std::allocator<std::_Container_proxy> >::_Container_proxy_ptr12<std::allocator<std::_Container_proxy> >
  00083	90		 npad	 1

; 2626 : 
; 2627 :         if (_Count < _BUF_SIZE) {

  00084	48 83 bd c0 00
	00 00 10	 cmp	 QWORD PTR _Count$[rbp], 16
  0008c	73 77		 jae	 SHORT $LN3@Construct

; 2628 :             _My_data._Mysize = _Count;

  0008e	48 8b 45 00	 mov	 rax, QWORD PTR _My_data$[rbp]
  00092	48 8b 8d c0 00
	00 00		 mov	 rcx, QWORD PTR _Count$[rbp]
  00099	48 89 48 18	 mov	 QWORD PTR [rax+24], rcx

; 2629 :             _My_data._Myres  = _BUF_SIZE - 1;

  0009d	48 8b 45 00	 mov	 rax, QWORD PTR _My_data$[rbp]
  000a1	48 c7 40 20 0f
	00 00 00	 mov	 QWORD PTR [rax+32], 15

; 2630 : 
; 2631 :             if constexpr (_Strat == _Construct_strategy::_From_char) {
; 2632 :                 _Traits::assign(_My_data._Bx._Buf, _Count, _Arg);
; 2633 :                 _Traits::assign(_My_data._Bx._Buf[_Count], _Elem());
; 2634 :             } else if constexpr (_Strat == _Construct_strategy::_From_ptr) {
; 2635 :                 _Traits::copy(_My_data._Bx._Buf, _Arg, _Count);

  000a9	48 8b 45 00	 mov	 rax, QWORD PTR _My_data$[rbp]
  000ad	48 83 c0 08	 add	 rax, 8
  000b1	4c 8b 85 c0 00
	00 00		 mov	 r8, QWORD PTR _Count$[rbp]
  000b8	48 8b 95 b8 00
	00 00		 mov	 rdx, QWORD PTR _Arg$[rbp]
  000bf	48 8b c8	 mov	 rcx, rax
  000c2	e8 00 00 00 00	 call	 ?copy@?$_Char_traits@DH@std@@SAPEADQEADQEBD_K@Z ; std::_Char_traits<char,int>::copy

; 2636 :                 _Traits::assign(_My_data._Bx._Buf[_Count], _Elem());

  000c7	c6 85 80 00 00
	00 00		 mov	 BYTE PTR $T1[rbp], 0
  000ce	48 8b 45 00	 mov	 rax, QWORD PTR _My_data$[rbp]
  000d2	48 8b 8d c0 00
	00 00		 mov	 rcx, QWORD PTR _Count$[rbp]
  000d9	48 8d 44 08 08	 lea	 rax, QWORD PTR [rax+rcx+8]
  000de	48 8d 95 80 00
	00 00		 lea	 rdx, QWORD PTR $T1[rbp]
  000e5	48 8b c8	 mov	 rcx, rax
  000e8	e8 00 00 00 00	 call	 ?assign@?$_Narrow_char_traits@DH@std@@SAXAEADAEBD@Z ; std::_Narrow_char_traits<char,int>::assign

; 2637 :             } else { // _Strat == _Construct_strategy::_From_string
; 2638 : #ifdef _INSERT_STRING_ANNOTATION
; 2639 :                 _Traits::copy(_My_data._Bx._Buf, _Arg, _Count + 1);
; 2640 : #else // ^^^ _INSERT_STRING_ANNOTATION / !_INSERT_STRING_ANNOTATION vvv
; 2641 :                 _Traits::copy(_My_data._Bx._Buf, _Arg, _BUF_SIZE);
; 2642 : #endif // !_INSERT_STRING_ANNOTATION
; 2643 :             }
; 2644 : 
; 2645 :             _Proxy._Release();

  000ed	48 8d 4d 20	 lea	 rcx, QWORD PTR _Proxy$[rbp]
  000f1	e8 00 00 00 00	 call	 ?_Release@_Basic_container_proxy_ptr12@std@@QEAAXXZ ; std::_Basic_container_proxy_ptr12::_Release
  000f6	90		 npad	 1

; 2646 :             return;

  000f7	48 8d 4d 20	 lea	 rcx, QWORD PTR _Proxy$[rbp]
  000fb	e8 00 00 00 00	 call	 ??1?$_Container_proxy_ptr12@V?$allocator@U_Container_proxy@std@@@std@@@std@@QEAA@XZ ; std::_Container_proxy_ptr12<std::allocator<std::_Container_proxy> >::~_Container_proxy_ptr12<std::allocator<std::_Container_proxy> >
  00100	e9 02 01 00 00	 jmp	 $LN4@Construct
$LN3@Construct:

; 2647 :         }
; 2648 : 
; 2649 :         _My_data._Myres         = _BUF_SIZE - 1;

  00105	48 8b 45 00	 mov	 rax, QWORD PTR _My_data$[rbp]
  00109	48 c7 40 20 0f
	00 00 00	 mov	 QWORD PTR [rax+32], 15

; 2650 :         size_type _New_capacity = _Calculate_growth(_Count);

  00111	48 8b 95 c0 00
	00 00		 mov	 rdx, QWORD PTR _Count$[rbp]
  00118	48 8b 8d b0 00
	00 00		 mov	 rcx, QWORD PTR this$[rbp]
  0011f	e8 00 00 00 00	 call	 ?_Calculate_growth@?$basic_string@DU?$char_traits@D@std@@V?$allocator@D@2@@std@@AEBA_K_K@Z ; std::basic_string<char,std::char_traits<char>,std::allocator<char> >::_Calculate_growth
  00124	48 89 45 30	 mov	 QWORD PTR _New_capacity$[rbp], rax

; 2651 :         ++_New_capacity;

  00128	48 8b 45 30	 mov	 rax, QWORD PTR _New_capacity$[rbp]
  0012c	48 ff c0	 inc	 rax
  0012f	48 89 45 30	 mov	 QWORD PTR _New_capacity$[rbp], rax

; 2652 :         const pointer _New_ptr = _Allocate_at_least_helper(_Al, _New_capacity); // throws

  00133	48 8d 55 30	 lea	 rdx, QWORD PTR _New_capacity$[rbp]
  00137	48 8b 4d 08	 mov	 rcx, QWORD PTR _Al$[rbp]
  0013b	e8 00 00 00 00	 call	 ??$_Allocate_at_least_helper@V?$allocator@D@std@@@std@@YAPEADAEAV?$allocator@D@0@AEA_K@Z ; std::_Allocate_at_least_helper<std::allocator<char> >
  00140	48 89 45 38	 mov	 QWORD PTR _New_ptr$[rbp], rax

; 2653 :         --_New_capacity;

  00144	48 8b 45 30	 mov	 rax, QWORD PTR _New_capacity$[rbp]
  00148	48 ff c8	 dec	 rax
  0014b	48 89 45 30	 mov	 QWORD PTR _New_capacity$[rbp], rax

; 2654 :         _Construct_in_place(_My_data._Bx._Ptr, _New_ptr);

  0014f	48 8b 45 00	 mov	 rax, QWORD PTR _My_data$[rbp]
  00153	48 83 c0 08	 add	 rax, 8
  00157	48 8d 55 38	 lea	 rdx, QWORD PTR _New_ptr$[rbp]
  0015b	48 8b c8	 mov	 rcx, rax
  0015e	e8 00 00 00 00	 call	 ??$_Construct_in_place@PEADAEBQEAD@std@@YAXAEAPEADAEBQEAD@Z ; std::_Construct_in_place<char *,char * const &>

; 2655 : 
; 2656 :         _Start_element_lifetimes(_Unfancy(_New_ptr), _New_capacity + 1);

  00163	48 8b 45 30	 mov	 rax, QWORD PTR _New_capacity$[rbp]
  00167	48 ff c0	 inc	 rax
  0016a	48 89 85 88 00
	00 00		 mov	 QWORD PTR tv154[rbp], rax
  00171	48 8b 4d 38	 mov	 rcx, QWORD PTR _New_ptr$[rbp]
  00175	e8 00 00 00 00	 call	 ??$_Unfancy@D@std@@YAPEADPEAD@Z ; std::_Unfancy<char>
  0017a	48 89 85 90 00
	00 00		 mov	 QWORD PTR tv152[rbp], rax
  00181	48 8b 95 88 00
	00 00		 mov	 rdx, QWORD PTR tv154[rbp]
  00188	48 8b 8d 90 00
	00 00		 mov	 rcx, QWORD PTR tv152[rbp]
  0018f	e8 00 00 00 00	 call	 ?_Start_element_lifetimes@?$basic_string@DU?$char_traits@D@std@@V?$allocator@D@2@@std@@CAXQEAD_K@Z ; std::basic_string<char,std::char_traits<char>,std::allocator<char> >::_Start_element_lifetimes

; 2657 : 
; 2658 :         _My_data._Mysize = _Count;

  00194	48 8b 45 00	 mov	 rax, QWORD PTR _My_data$[rbp]
  00198	48 8b 8d c0 00
	00 00		 mov	 rcx, QWORD PTR _Count$[rbp]
  0019f	48 89 48 18	 mov	 QWORD PTR [rax+24], rcx

; 2659 :         _My_data._Myres  = _New_capacity;

  001a3	48 8b 45 00	 mov	 rax, QWORD PTR _My_data$[rbp]
  001a7	48 8b 4d 30	 mov	 rcx, QWORD PTR _New_capacity$[rbp]
  001ab	48 89 48 20	 mov	 QWORD PTR [rax+32], rcx

; 2660 :         if constexpr (_Strat == _Construct_strategy::_From_char) {
; 2661 :             _Traits::assign(_Unfancy(_New_ptr), _Count, _Arg);
; 2662 :             _Traits::assign(_Unfancy(_New_ptr)[_Count], _Elem());
; 2663 :         } else if constexpr (_Strat == _Construct_strategy::_From_ptr) {
; 2664 :             _Traits::copy(_Unfancy(_New_ptr), _Arg, _Count);

  001af	48 8b 4d 38	 mov	 rcx, QWORD PTR _New_ptr$[rbp]
  001b3	e8 00 00 00 00	 call	 ??$_Unfancy@D@std@@YAPEADPEAD@Z ; std::_Unfancy<char>
  001b8	4c 8b 85 c0 00
	00 00		 mov	 r8, QWORD PTR _Count$[rbp]
  001bf	48 8b 95 b8 00
	00 00		 mov	 rdx, QWORD PTR _Arg$[rbp]
  001c6	48 8b c8	 mov	 rcx, rax
  001c9	e8 00 00 00 00	 call	 ?copy@?$_Char_traits@DH@std@@SAPEADQEADQEBD_K@Z ; std::_Char_traits<char,int>::copy

; 2665 :             _Traits::assign(_Unfancy(_New_ptr)[_Count], _Elem());

  001ce	c6 85 81 00 00
	00 00		 mov	 BYTE PTR $T2[rbp], 0
  001d5	48 8b 4d 38	 mov	 rcx, QWORD PTR _New_ptr$[rbp]
  001d9	e8 00 00 00 00	 call	 ??$_Unfancy@D@std@@YAPEADPEAD@Z ; std::_Unfancy<char>
  001de	48 03 85 c0 00
	00 00		 add	 rax, QWORD PTR _Count$[rbp]
  001e5	48 8d 95 81 00
	00 00		 lea	 rdx, QWORD PTR $T2[rbp]
  001ec	48 8b c8	 mov	 rcx, rax
  001ef	e8 00 00 00 00	 call	 ?assign@?$_Narrow_char_traits@DH@std@@SAXAEADAEBD@Z ; std::_Narrow_char_traits<char,int>::assign

; 2666 :         } else { // _Strat == _Construct_strategy::_From_string
; 2667 :             _Traits::copy(_Unfancy(_New_ptr), _Arg, _Count + 1);
; 2668 :         }
; 2669 : 
; 2670 :         _ASAN_STRING_CREATE(*this);
; 2671 :         _Proxy._Release();

  001f4	48 8d 4d 20	 lea	 rcx, QWORD PTR _Proxy$[rbp]
  001f8	e8 00 00 00 00	 call	 ?_Release@_Basic_container_proxy_ptr12@std@@QEAAXXZ ; std::_Basic_container_proxy_ptr12::_Release
  001fd	90		 npad	 1

; 2672 :     }

  001fe	48 8d 4d 20	 lea	 rcx, QWORD PTR _Proxy$[rbp]
  00202	e8 00 00 00 00	 call	 ??1?$_Container_proxy_ptr12@V?$allocator@U_Container_proxy@std@@@std@@@std@@QEAA@XZ ; std::_Container_proxy_ptr12<std::allocator<std::_Container_proxy> >::~_Container_proxy_ptr12<std::allocator<std::_Container_proxy> >
$LN4@Construct:
  00207	48 8d a5 a0 00
	00 00		 lea	 rsp, QWORD PTR [rbp+160]
  0020e	5d		 pop	 rbp
  0020f	c3		 ret	 0
$LN6@Construct:
??$_Construct@$00PEBD@?$basic_string@DU?$char_traits@D@std@@V?$allocator@D@2@@std@@AEAAXQEBD_K@Z ENDP ; std::basic_string<char,std::char_traits<char>,std::allocator<char> >::_Construct<1,char const *>
_TEXT	ENDS
; Function compile flags: /Odtp /ZI
;	COMDAT text$x
text$x	SEGMENT
_My_data$ = 0
_Al$ = 8
_Alproxy$ = 16
$S23$ = 24
_Proxy$ = 32
_New_capacity$ = 48
_New_ptr$ = 56
$T1 = 128
$T2 = 129
tv154 = 136
tv152 = 144
this$ = 176
_Arg$ = 184
_Count$ = 192
?dtor$0@?0???$_Construct@$00PEBD@?$basic_string@DU?$char_traits@D@std@@V?$allocator@D@2@@std@@AEAAXQEBD_K@Z@4HA PROC ; `std::basic_string<char,std::char_traits<char>,std::allocator<char> >::_Construct<1,char const *>'::`1'::dtor$0
  00000	40 55		 push	 rbp
  00002	48 83 ec 20	 sub	 rsp, 32			; 00000020H
  00006	48 8d 6a 20	 lea	 rbp, QWORD PTR [rdx+32]
  0000a	48 8d 4d 20	 lea	 rcx, QWORD PTR _Proxy$[rbp]
  0000e	e8 00 00 00 00	 call	 ??1?$_Container_proxy_ptr12@V?$allocator@U_Container_proxy@std@@@std@@@std@@QEAA@XZ ; std::_Container_proxy_ptr12<std::allocator<std::_Container_proxy> >::~_Container_proxy_ptr12<std::allocator<std::_Container_proxy> >
  00013	48 83 c4 20	 add	 rsp, 32			; 00000020H
  00017	5d		 pop	 rbp
  00018	c3		 ret	 0
?dtor$0@?0???$_Construct@$00PEBD@?$basic_string@DU?$char_traits@D@std@@V?$allocator@D@2@@std@@AEAAXQEBD_K@Z@4HA ENDP ; `std::basic_string<char,std::char_traits<char>,std::allocator<char> >::_Construct<1,char const *>'::`1'::dtor$0
text$x	ENDS
; Function compile flags: /Odtp /ZI
; File C:\Program Files\Microsoft Visual Studio\2022\Preview\VC\Tools\MSVC\14.38.33030\include\xmemory
;	COMDAT ??$?0$$V@?$_Compressed_pair@V?$allocator@D@std@@V?$_String_val@U?$_Simple_types@D@std@@@2@$00@std@@QEAA@U_Zero_then_variadic_args_t@1@@Z
_TEXT	SEGMENT
this$ = 80
__formal$ = 88
??$?0$$V@?$_Compressed_pair@V?$allocator@D@std@@V?$_String_val@U?$_Simple_types@D@std@@@2@$00@std@@QEAA@U_Zero_then_variadic_args_t@1@@Z PROC ; std::_Compressed_pair<std::allocator<char>,std::_String_val<std::_Simple_types<char> >,1>::_Compressed_pair<std::allocator<char>,std::_String_val<std::_Simple_types<char> >,1><>, COMDAT

; 1519 :         : _Ty1(), _Myval2(_STD forward<_Other2>(_Val2)...) {}

$LN3:
  00000	88 54 24 10	 mov	 BYTE PTR [rsp+16], dl
  00004	48 89 4c 24 08	 mov	 QWORD PTR [rsp+8], rcx
  00009	55		 push	 rbp
  0000a	48 83 ec 60	 sub	 rsp, 96			; 00000060H
  0000e	48 8d 6c 24 20	 lea	 rbp, QWORD PTR [rsp+32]
  00013	48 8d 0d 00 00
	00 00		 lea	 rcx, OFFSET FLAT:__67F55BEA_xmemory
  0001a	e8 00 00 00 00	 call	 __CheckForDebuggerJustMyCode
  0001f	48 8b 4d 50	 mov	 rcx, QWORD PTR this$[rbp]
  00023	e8 00 00 00 00	 call	 ??0?$allocator@D@std@@QEAA@XZ ; std::allocator<char>::allocator<char>
  00028	48 8b 45 50	 mov	 rax, QWORD PTR this$[rbp]
  0002c	48 8b c8	 mov	 rcx, rax
  0002f	e8 00 00 00 00	 call	 ??0?$_String_val@U?$_Simple_types@D@std@@@std@@QEAA@XZ ; std::_String_val<std::_Simple_types<char> >::_String_val<std::_Simple_types<char> >
  00034	48 8b 45 50	 mov	 rax, QWORD PTR this$[rbp]
  00038	48 8d 65 40	 lea	 rsp, QWORD PTR [rbp+64]
  0003c	5d		 pop	 rbp
  0003d	c3		 ret	 0
??$?0$$V@?$_Compressed_pair@V?$allocator@D@std@@V?$_String_val@U?$_Simple_types@D@std@@@2@$00@std@@QEAA@U_Zero_then_variadic_args_t@1@@Z ENDP ; std::_Compressed_pair<std::allocator<char>,std::_String_val<std::_Simple_types<char> >,1>::_Compressed_pair<std::allocator<char>,std::_String_val<std::_Simple_types<char> >,1><>
_TEXT	ENDS
; Function compile flags: /Odtp /ZI
; File C:\Program Files\Microsoft Visual Studio\2022\Preview\VC\Tools\MSVC\14.38.33030\include\xmemory
;	COMDAT ??$?0D@?$allocator@U_Container_proxy@std@@@std@@QEAA@AEBV?$allocator@D@1@@Z
_TEXT	SEGMENT
this$ = 80
__formal$ = 88
??$?0D@?$allocator@U_Container_proxy@std@@@std@@QEAA@AEBV?$allocator@D@1@@Z PROC ; std::allocator<std::_Container_proxy>::allocator<std::_Container_proxy><char>, COMDAT

; 966  :     constexpr allocator(const allocator<_Other>&) noexcept {}

$LN3:
  00000	48 89 54 24 10	 mov	 QWORD PTR [rsp+16], rdx
  00005	48 89 4c 24 08	 mov	 QWORD PTR [rsp+8], rcx
  0000a	55		 push	 rbp
  0000b	48 83 ec 60	 sub	 rsp, 96			; 00000060H
  0000f	48 8d 6c 24 20	 lea	 rbp, QWORD PTR [rsp+32]
  00014	48 8d 0d 00 00
	00 00		 lea	 rcx, OFFSET FLAT:__67F55BEA_xmemory
  0001b	e8 00 00 00 00	 call	 __CheckForDebuggerJustMyCode
  00020	48 8b 45 50	 mov	 rax, QWORD PTR this$[rbp]
  00024	48 8d 65 40	 lea	 rsp, QWORD PTR [rbp+64]
  00028	5d		 pop	 rbp
  00029	c3		 ret	 0
??$?0D@?$allocator@U_Container_proxy@std@@@std@@QEAA@AEBV?$allocator@D@1@@Z ENDP ; std::allocator<std::_Container_proxy>::allocator<std::_Container_proxy><char>
_TEXT	ENDS
; Function compile flags: /Odtp /ZI
; File C:\Program Files\Microsoft Visual Studio\2022\Preview\VC\Tools\MSVC\14.38.33030\include\xmemory
;	COMDAT ??$_Convert_size@_K_K@std@@YA_K_K@Z
_TEXT	SEGMENT
_Len$ = 80
??$_Convert_size@_K_K@std@@YA_K_K@Z PROC		; std::_Convert_size<unsigned __int64,unsigned __int64>, COMDAT

; 1108 :     sizeof(_Unsigned_type) <= sizeof(_Size_type)) {

$LN3:
  00000	48 89 4c 24 08	 mov	 QWORD PTR [rsp+8], rcx
  00005	55		 push	 rbp
  00006	48 83 ec 60	 sub	 rsp, 96			; 00000060H
  0000a	48 8d 6c 24 20	 lea	 rbp, QWORD PTR [rsp+32]
  0000f	48 8d 0d 00 00
	00 00		 lea	 rcx, OFFSET FLAT:__67F55BEA_xmemory
  00016	e8 00 00 00 00	 call	 __CheckForDebuggerJustMyCode

; 1109 :     // convert _Unsigned_type to _Size_type, avoiding truncation
; 1110 :     _STL_INTERNAL_STATIC_ASSERT(_Unsigned_type(-1) > 0);
; 1111 :     _STL_INTERNAL_STATIC_ASSERT(_Size_type(-1) > 0);
; 1112 : 
; 1113 :     if constexpr (sizeof(_Unsigned_type) > sizeof(_Size_type)) {
; 1114 :         if (_Len > (numeric_limits<_Size_type>::max)()) {
; 1115 :             _Xlength_error("size is too long for _Size_type");
; 1116 :         }
; 1117 :     }
; 1118 : 
; 1119 :     return static_cast<_Size_type>(_Len);

  0001b	48 8b 45 50	 mov	 rax, QWORD PTR _Len$[rbp]

; 1120 : }

  0001f	48 8d 65 40	 lea	 rsp, QWORD PTR [rbp+64]
  00023	5d		 pop	 rbp
  00024	c3		 ret	 0
??$_Convert_size@_K_K@std@@YA_K_K@Z ENDP		; std::_Convert_size<unsigned __int64,unsigned __int64>
_TEXT	ENDS
; Function compile flags: /Odtp /ZI
; File C:\Program Files\Microsoft Visual Studio\2022\Preview\VC\Tools\MSVC\14.38.33030\include\xmemory
;	COMDAT ??$_Alloc_proxy@V?$allocator@U_Container_proxy@std@@@std@@@_Container_base12@std@@QEAAX$$QEAV?$allocator@U_Container_proxy@std@@@1@@Z
_TEXT	SEGMENT
_New_proxy$ = 0
$T1 = 72
this$ = 96
_Al$ = 104
??$_Alloc_proxy@V?$allocator@U_Container_proxy@std@@@std@@@_Container_base12@std@@QEAAX$$QEAV?$allocator@U_Container_proxy@std@@@1@@Z PROC ; std::_Container_base12::_Alloc_proxy<std::allocator<std::_Container_proxy> >, COMDAT

; 1207 :     _CONSTEXPR20 void _Alloc_proxy(_Alloc&& _Al) {

$LN3:
  00000	48 89 54 24 10	 mov	 QWORD PTR [rsp+16], rdx
  00005	48 89 4c 24 08	 mov	 QWORD PTR [rsp+8], rcx
  0000a	55		 push	 rbp
  0000b	48 83 ec 70	 sub	 rsp, 112		; 00000070H
  0000f	48 8d 6c 24 20	 lea	 rbp, QWORD PTR [rsp+32]
  00014	48 8d 0d 00 00
	00 00		 lea	 rcx, OFFSET FLAT:__67F55BEA_xmemory
  0001b	e8 00 00 00 00	 call	 __CheckForDebuggerJustMyCode

; 1208 :         _Container_proxy* const _New_proxy = _Unfancy(_Al.allocate(1));

  00020	ba 01 00 00 00	 mov	 edx, 1
  00025	48 8b 4d 68	 mov	 rcx, QWORD PTR _Al$[rbp]
  00029	e8 00 00 00 00	 call	 ?allocate@?$allocator@U_Container_proxy@std@@@std@@QEAAPEAU_Container_proxy@2@_K@Z ; std::allocator<std::_Container_proxy>::allocate
  0002e	48 8b c8	 mov	 rcx, rax
  00031	e8 00 00 00 00	 call	 ??$_Unfancy@U_Container_proxy@std@@@std@@YAPEAU_Container_proxy@0@PEAU10@@Z ; std::_Unfancy<std::_Container_proxy>
  00036	48 89 45 00	 mov	 QWORD PTR _New_proxy$[rbp], rax

; 1209 :         _Construct_in_place(*_New_proxy, this);

  0003a	48 8b 45 60	 mov	 rax, QWORD PTR this$[rbp]
  0003e	48 89 45 48	 mov	 QWORD PTR $T1[rbp], rax
  00042	48 8d 55 48	 lea	 rdx, QWORD PTR $T1[rbp]
  00046	48 8b 4d 00	 mov	 rcx, QWORD PTR _New_proxy$[rbp]
  0004a	e8 00 00 00 00	 call	 ??$_Construct_in_place@U_Container_proxy@std@@PEAU_Container_base12@2@@std@@YAXAEAU_Container_proxy@0@$$QEAPEAU_Container_base12@0@@Z ; std::_Construct_in_place<std::_Container_proxy,std::_Container_base12 *>

; 1210 :         _Myproxy            = _New_proxy;

  0004f	48 8b 45 60	 mov	 rax, QWORD PTR this$[rbp]
  00053	48 8b 4d 00	 mov	 rcx, QWORD PTR _New_proxy$[rbp]
  00057	48 89 08	 mov	 QWORD PTR [rax], rcx

; 1211 :         _New_proxy->_Mycont = this;

  0005a	48 8b 45 00	 mov	 rax, QWORD PTR _New_proxy$[rbp]
  0005e	48 8b 4d 60	 mov	 rcx, QWORD PTR this$[rbp]
  00062	48 89 08	 mov	 QWORD PTR [rax], rcx

; 1212 :     }

  00065	48 8d 65 50	 lea	 rsp, QWORD PTR [rbp+80]
  00069	5d		 pop	 rbp
  0006a	c3		 ret	 0
??$_Alloc_proxy@V?$allocator@U_Container_proxy@std@@@std@@@_Container_base12@std@@QEAAX$$QEAV?$allocator@U_Container_proxy@std@@@1@@Z ENDP ; std::_Container_base12::_Alloc_proxy<std::allocator<std::_Container_proxy> >
_TEXT	ENDS
; Function compile flags: /Odtp /ZI
; File C:\Program Files\Microsoft Visual Studio\2022\Preview\VC\Tools\MSVC\14.38.33030\include\vector
;	COMDAT ??$_Construct_n@AEBQEAUVertexDefault@@AEBQEAU1@@?$vector@UVertexDefault@@V?$allocator@UVertexDefault@@@std@@@std@@AEAAX_KAEBQEAUVertexDefault@@1@Z
_TEXT	SEGMENT
_Al$ = 0
_Alproxy$ = 8
$S14$ = 16
_My_data$ = 24
_Proxy$ = 32
_Guard$1 = 48
this$ = 144
_Count$ = 152
<_Val_0>$ = 160
<_Val_1>$ = 168
??$_Construct_n@AEBQEAUVertexDefault@@AEBQEAU1@@?$vector@UVertexDefault@@V?$allocator@UVertexDefault@@@std@@@std@@AEAAX_KAEBQEAUVertexDefault@@1@Z PROC ; std::vector<VertexDefault,std::allocator<VertexDefault> >::_Construct_n<VertexDefault * const &,VertexDefault * const &>, COMDAT

; 2065 :     _CONSTEXPR20 void _Construct_n(_CRT_GUARDOVERFLOW const size_type _Count, _Valty&&... _Val) {

$LN6:
  00000	4c 89 4c 24 20	 mov	 QWORD PTR [rsp+32], r9
  00005	4c 89 44 24 18	 mov	 QWORD PTR [rsp+24], r8
  0000a	48 89 54 24 10	 mov	 QWORD PTR [rsp+16], rdx
  0000f	48 89 4c 24 08	 mov	 QWORD PTR [rsp+8], rcx
  00014	55		 push	 rbp
  00015	48 81 ec a0 00
	00 00		 sub	 rsp, 160		; 000000a0H
  0001c	48 8d 6c 24 20	 lea	 rbp, QWORD PTR [rsp+32]
  00021	48 8d 0d 00 00
	00 00		 lea	 rcx, OFFSET FLAT:__14F7CB70_vector
  00028	e8 00 00 00 00	 call	 __CheckForDebuggerJustMyCode

; 2066 :         // Dispatches between the three sized constructions.
; 2067 :         // 1-arg -> value-construction, e.g. vector(5)
; 2068 :         // 2-arg -> fill, e.g. vector(5, "meow")
; 2069 :         // 3-arg -> sized range construction, e.g. vector{"Hello", "Fluffy", "World"}
; 2070 :         auto& _Al       = _Getal();

  0002d	48 8b 8d 90 00
	00 00		 mov	 rcx, QWORD PTR this$[rbp]
  00034	e8 00 00 00 00	 call	 ?_Getal@?$vector@UVertexDefault@@V?$allocator@UVertexDefault@@@std@@@std@@AEAAAEAV?$allocator@UVertexDefault@@@2@XZ ; std::vector<VertexDefault,std::allocator<VertexDefault> >::_Getal
  00039	48 89 45 00	 mov	 QWORD PTR _Al$[rbp], rax

; 2071 :         auto&& _Alproxy = _GET_PROXY_ALLOCATOR(_Alty, _Al);

  0003d	48 8b 55 00	 mov	 rdx, QWORD PTR _Al$[rbp]
  00041	48 8d 4d 10	 lea	 rcx, QWORD PTR $S14$[rbp]
  00045	e8 00 00 00 00	 call	 ??$?0UVertexDefault@@@?$allocator@U_Container_proxy@std@@@std@@QEAA@AEBV?$allocator@UVertexDefault@@@1@@Z ; std::allocator<std::_Container_proxy>::allocator<std::_Container_proxy><VertexDefault>
  0004a	48 8d 45 10	 lea	 rax, QWORD PTR $S14$[rbp]
  0004e	48 89 45 08	 mov	 QWORD PTR _Alproxy$[rbp], rax

; 2072 :         auto& _My_data  = _Mypair._Myval2;

  00052	48 8b 85 90 00
	00 00		 mov	 rax, QWORD PTR this$[rbp]
  00059	48 89 45 18	 mov	 QWORD PTR _My_data$[rbp], rax

; 2073 :         _Container_proxy_ptr<_Alty> _Proxy(_Alproxy, _My_data);

  0005d	4c 8b 45 18	 mov	 r8, QWORD PTR _My_data$[rbp]
  00061	48 8b 55 08	 mov	 rdx, QWORD PTR _Alproxy$[rbp]
  00065	48 8d 4d 20	 lea	 rcx, QWORD PTR _Proxy$[rbp]
  00069	e8 00 00 00 00	 call	 ??0?$_Container_proxy_ptr12@V?$allocator@U_Container_proxy@std@@@std@@@std@@QEAA@AEAV?$allocator@U_Container_proxy@std@@@1@AEAU_Container_base12@1@@Z ; std::_Container_proxy_ptr12<std::allocator<std::_Container_proxy> >::_Container_proxy_ptr12<std::allocator<std::_Container_proxy> >
  0006e	90		 npad	 1

; 2074 :         if (_Count != 0) {

  0006f	48 83 bd 98 00
	00 00 00	 cmp	 QWORD PTR _Count$[rbp], 0
  00077	74 5c		 je	 SHORT $LN2@Construct_

; 2075 :             _Buy_nonzero(_Count);

  00079	48 8b 95 98 00
	00 00		 mov	 rdx, QWORD PTR _Count$[rbp]
  00080	48 8b 8d 90 00
	00 00		 mov	 rcx, QWORD PTR this$[rbp]
  00087	e8 00 00 00 00	 call	 ?_Buy_nonzero@?$vector@UVertexDefault@@V?$allocator@UVertexDefault@@@std@@@std@@AEAAX_K@Z ; std::vector<VertexDefault,std::allocator<VertexDefault> >::_Buy_nonzero

; 2076 :             _Tidy_guard<vector> _Guard{this};

  0008c	48 8b 85 90 00
	00 00		 mov	 rax, QWORD PTR this$[rbp]
  00093	48 89 45 30	 mov	 QWORD PTR _Guard$1[rbp], rax

; 2077 :             if constexpr (sizeof...(_Val) == 0) {
; 2078 :                 _My_data._Mylast = _Uninitialized_value_construct_n(_My_data._Myfirst, _Count, _Al);
; 2079 :             } else if constexpr (sizeof...(_Val) == 1) {
; 2080 :                 _STL_INTERNAL_STATIC_ASSERT(is_same_v<_Valty..., const _Ty&>);
; 2081 :                 _My_data._Mylast = _Uninitialized_fill_n(_My_data._Myfirst, _Count, _Val..., _Al);
; 2082 :             } else if constexpr (sizeof...(_Val) == 2) {
; 2083 :                 _My_data._Mylast = _Uninitialized_copy(_STD forward<_Valty>(_Val)..., _My_data._Myfirst, _Al);

  00097	4c 8b 4d 00	 mov	 r9, QWORD PTR _Al$[rbp]
  0009b	48 8b 45 18	 mov	 rax, QWORD PTR _My_data$[rbp]
  0009f	4c 8b 40 08	 mov	 r8, QWORD PTR [rax+8]
  000a3	48 8b 85 a8 00
	00 00		 mov	 rax, QWORD PTR <_Val_1>$[rbp]
  000aa	48 8b 10	 mov	 rdx, QWORD PTR [rax]
  000ad	48 8b 85 a0 00
	00 00		 mov	 rax, QWORD PTR <_Val_0>$[rbp]
  000b4	48 8b 08	 mov	 rcx, QWORD PTR [rax]
  000b7	e8 00 00 00 00	 call	 ??$_Uninitialized_copy@PEAUVertexDefault@@PEAU1@V?$allocator@UVertexDefault@@@std@@@std@@YAPEAUVertexDefault@@PEAU1@00AEAV?$allocator@UVertexDefault@@@0@@Z ; std::_Uninitialized_copy<VertexDefault *,VertexDefault *,std::allocator<VertexDefault> >
  000bc	48 8b 4d 18	 mov	 rcx, QWORD PTR _My_data$[rbp]
  000c0	48 89 41 10	 mov	 QWORD PTR [rcx+16], rax

; 2084 :             } else {
; 2085 :                 static_assert(_Always_false<_Ty>, "Should be unreachable");
; 2086 :             }
; 2087 :             _ASAN_VECTOR_CREATE;
; 2088 :             _Guard._Target = nullptr;

  000c4	48 c7 45 30 00
	00 00 00	 mov	 QWORD PTR _Guard$1[rbp], 0

; 2089 :         }

  000cc	48 8d 4d 30	 lea	 rcx, QWORD PTR _Guard$1[rbp]
  000d0	e8 00 00 00 00	 call	 ??1?$_Tidy_guard@V?$vector@UVertexDefault@@V?$allocator@UVertexDefault@@@std@@@std@@@std@@QEAA@XZ ; std::_Tidy_guard<std::vector<VertexDefault,std::allocator<VertexDefault> > >::~_Tidy_guard<std::vector<VertexDefault,std::allocator<VertexDefault> > >
$LN2@Construct_:

; 2090 : 
; 2091 :         _Proxy._Release();

  000d5	48 8d 4d 20	 lea	 rcx, QWORD PTR _Proxy$[rbp]
  000d9	e8 00 00 00 00	 call	 ?_Release@_Basic_container_proxy_ptr12@std@@QEAAXXZ ; std::_Basic_container_proxy_ptr12::_Release
  000de	90		 npad	 1

; 2092 :     }

  000df	48 8d 4d 20	 lea	 rcx, QWORD PTR _Proxy$[rbp]
  000e3	e8 00 00 00 00	 call	 ??1?$_Container_proxy_ptr12@V?$allocator@U_Container_proxy@std@@@std@@@std@@QEAA@XZ ; std::_Container_proxy_ptr12<std::allocator<std::_Container_proxy> >::~_Container_proxy_ptr12<std::allocator<std::_Container_proxy> >
  000e8	48 8d a5 80 00
	00 00		 lea	 rsp, QWORD PTR [rbp+128]
  000ef	5d		 pop	 rbp
  000f0	c3		 ret	 0
??$_Construct_n@AEBQEAUVertexDefault@@AEBQEAU1@@?$vector@UVertexDefault@@V?$allocator@UVertexDefault@@@std@@@std@@AEAAX_KAEBQEAUVertexDefault@@1@Z ENDP ; std::vector<VertexDefault,std::allocator<VertexDefault> >::_Construct_n<VertexDefault * const &,VertexDefault * const &>
_TEXT	ENDS
; Function compile flags: /Odtp /ZI
;	COMDAT text$x
text$x	SEGMENT
_Al$ = 0
_Alproxy$ = 8
$S14$ = 16
_My_data$ = 24
_Proxy$ = 32
_Guard$1 = 48
this$ = 144
_Count$ = 152
<_Val_0>$ = 160
<_Val_1>$ = 168
?dtor$0@?0???$_Construct_n@AEBQEAUVertexDefault@@AEBQEAU1@@?$vector@UVertexDefault@@V?$allocator@UVertexDefault@@@std@@@std@@AEAAX_KAEBQEAUVertexDefault@@1@Z@4HA PROC ; `std::vector<VertexDefault,std::allocator<VertexDefault> >::_Construct_n<VertexDefault * const &,VertexDefault * const &>'::`1'::dtor$0
  00000	40 55		 push	 rbp
  00002	48 83 ec 20	 sub	 rsp, 32			; 00000020H
  00006	48 8d 6a 20	 lea	 rbp, QWORD PTR [rdx+32]
  0000a	48 8d 4d 20	 lea	 rcx, QWORD PTR _Proxy$[rbp]
  0000e	e8 00 00 00 00	 call	 ??1?$_Container_proxy_ptr12@V?$allocator@U_Container_proxy@std@@@std@@@std@@QEAA@XZ ; std::_Container_proxy_ptr12<std::allocator<std::_Container_proxy> >::~_Container_proxy_ptr12<std::allocator<std::_Container_proxy> >
  00013	48 83 c4 20	 add	 rsp, 32			; 00000020H
  00017	5d		 pop	 rbp
  00018	c3		 ret	 0
?dtor$0@?0???$_Construct_n@AEBQEAUVertexDefault@@AEBQEAU1@@?$vector@UVertexDefault@@V?$allocator@UVertexDefault@@@std@@@std@@AEAAX_KAEBQEAUVertexDefault@@1@Z@4HA ENDP ; `std::vector<VertexDefault,std::allocator<VertexDefault> >::_Construct_n<VertexDefault * const &,VertexDefault * const &>'::`1'::dtor$0
text$x	ENDS
; Function compile flags: /Odtp /ZI
;	COMDAT text$x
text$x	SEGMENT
_Al$ = 0
_Alproxy$ = 8
$S14$ = 16
_My_data$ = 24
_Proxy$ = 32
_Guard$1 = 48
this$ = 144
_Count$ = 152
<_Val_0>$ = 160
<_Val_1>$ = 168
?dtor$1@?0???$_Construct_n@AEBQEAUVertexDefault@@AEBQEAU1@@?$vector@UVertexDefault@@V?$allocator@UVertexDefault@@@std@@@std@@AEAAX_KAEBQEAUVertexDefault@@1@Z@4HA PROC ; `std::vector<VertexDefault,std::allocator<VertexDefault> >::_Construct_n<VertexDefault * const &,VertexDefault * const &>'::`1'::dtor$1
  00000	40 55		 push	 rbp
  00002	48 83 ec 20	 sub	 rsp, 32			; 00000020H
  00006	48 8d 6a 20	 lea	 rbp, QWORD PTR [rdx+32]
  0000a	48 8d 4d 30	 lea	 rcx, QWORD PTR _Guard$1[rbp]
  0000e	e8 00 00 00 00	 call	 ??1?$_Tidy_guard@V?$vector@UVertexDefault@@V?$allocator@UVertexDefault@@@std@@@std@@@std@@QEAA@XZ ; std::_Tidy_guard<std::vector<VertexDefault,std::allocator<VertexDefault> > >::~_Tidy_guard<std::vector<VertexDefault,std::allocator<VertexDefault> > >
  00013	48 83 c4 20	 add	 rsp, 32			; 00000020H
  00017	5d		 pop	 rbp
  00018	c3		 ret	 0
?dtor$1@?0???$_Construct_n@AEBQEAUVertexDefault@@AEBQEAU1@@?$vector@UVertexDefault@@V?$allocator@UVertexDefault@@@std@@@std@@AEAAX_KAEBQEAUVertexDefault@@1@Z@4HA ENDP ; `std::vector<VertexDefault,std::allocator<VertexDefault> >::_Construct_n<VertexDefault * const &,VertexDefault * const &>'::`1'::dtor$1
text$x	ENDS
; Function compile flags: /Odtp /ZI
; File C:\Program Files\Microsoft Visual Studio\2022\Preview\VC\Tools\MSVC\14.38.33030\include\xmemory
;	COMDAT ??$?0V?$allocator@UVertexDefault@@@std@@$$V@?$_Compressed_pair@V?$allocator@UVertexDefault@@@std@@V?$_Vector_val@U?$_Simple_types@UVertexDefault@@@std@@@2@$00@std@@QEAA@U_One_then_variadic_args_t@1@$$QEAV?$allocator@UVertexDefault@@@1@@Z
_TEXT	SEGMENT
this$ = 80
__formal$ = 88
_Val1$ = 96
??$?0V?$allocator@UVertexDefault@@@std@@$$V@?$_Compressed_pair@V?$allocator@UVertexDefault@@@std@@V?$_Vector_val@U?$_Simple_types@UVertexDefault@@@std@@@2@$00@std@@QEAA@U_One_then_variadic_args_t@1@$$QEAV?$allocator@UVertexDefault@@@1@@Z PROC ; std::_Compressed_pair<std::allocator<VertexDefault>,std::_Vector_val<std::_Simple_types<VertexDefault> >,1>::_Compressed_pair<std::allocator<VertexDefault>,std::_Vector_val<std::_Simple_types<VertexDefault> >,1><std::allocator<VertexDefault> >, COMDAT

; 1524 :         : _Ty1(_STD forward<_Other1>(_Val1)), _Myval2(_STD forward<_Other2>(_Val2)...) {}

$LN3:
  00000	4c 89 44 24 18	 mov	 QWORD PTR [rsp+24], r8
  00005	88 54 24 10	 mov	 BYTE PTR [rsp+16], dl
  00009	48 89 4c 24 08	 mov	 QWORD PTR [rsp+8], rcx
  0000e	55		 push	 rbp
  0000f	48 83 ec 60	 sub	 rsp, 96			; 00000060H
  00013	48 8d 6c 24 20	 lea	 rbp, QWORD PTR [rsp+32]
  00018	48 8d 0d 00 00
	00 00		 lea	 rcx, OFFSET FLAT:__67F55BEA_xmemory
  0001f	e8 00 00 00 00	 call	 __CheckForDebuggerJustMyCode
  00024	48 8b 45 50	 mov	 rax, QWORD PTR this$[rbp]
  00028	48 8b c8	 mov	 rcx, rax
  0002b	e8 00 00 00 00	 call	 ??0?$_Vector_val@U?$_Simple_types@UVertexDefault@@@std@@@std@@QEAA@XZ ; std::_Vector_val<std::_Simple_types<VertexDefault> >::_Vector_val<std::_Simple_types<VertexDefault> >
  00030	48 8b 45 50	 mov	 rax, QWORD PTR this$[rbp]
  00034	48 8d 65 40	 lea	 rsp, QWORD PTR [rbp+64]
  00038	5d		 pop	 rbp
  00039	c3		 ret	 0
??$?0V?$allocator@UVertexDefault@@@std@@$$V@?$_Compressed_pair@V?$allocator@UVertexDefault@@@std@@V?$_Vector_val@U?$_Simple_types@UVertexDefault@@@std@@@2@$00@std@@QEAA@U_One_then_variadic_args_t@1@$$QEAV?$allocator@UVertexDefault@@@1@@Z ENDP ; std::_Compressed_pair<std::allocator<VertexDefault>,std::_Vector_val<std::_Simple_types<VertexDefault> >,1>::_Compressed_pair<std::allocator<VertexDefault>,std::_Vector_val<std::_Simple_types<VertexDefault> >,1><std::allocator<VertexDefault> >
_TEXT	ENDS
; Function compile flags: /Odtp /ZI
; File C:\Program Files\Microsoft Visual Studio\2022\Preview\VC\Tools\MSVC\14.38.33030\include\xmemory
;	COMDAT ??$?0UVertexDefault@@@?$allocator@U_Container_proxy@std@@@std@@QEAA@AEBV?$allocator@UVertexDefault@@@1@@Z
_TEXT	SEGMENT
this$ = 80
__formal$ = 88
??$?0UVertexDefault@@@?$allocator@U_Container_proxy@std@@@std@@QEAA@AEBV?$allocator@UVertexDefault@@@1@@Z PROC ; std::allocator<std::_Container_proxy>::allocator<std::_Container_proxy><VertexDefault>, COMDAT

; 966  :     constexpr allocator(const allocator<_Other>&) noexcept {}

$LN3:
  00000	48 89 54 24 10	 mov	 QWORD PTR [rsp+16], rdx
  00005	48 89 4c 24 08	 mov	 QWORD PTR [rsp+8], rcx
  0000a	55		 push	 rbp
  0000b	48 83 ec 60	 sub	 rsp, 96			; 00000060H
  0000f	48 8d 6c 24 20	 lea	 rbp, QWORD PTR [rsp+32]
  00014	48 8d 0d 00 00
	00 00		 lea	 rcx, OFFSET FLAT:__67F55BEA_xmemory
  0001b	e8 00 00 00 00	 call	 __CheckForDebuggerJustMyCode
  00020	48 8b 45 50	 mov	 rax, QWORD PTR this$[rbp]
  00024	48 8d 65 40	 lea	 rsp, QWORD PTR [rbp+64]
  00028	5d		 pop	 rbp
  00029	c3		 ret	 0
??$?0UVertexDefault@@@?$allocator@U_Container_proxy@std@@@std@@QEAA@AEBV?$allocator@UVertexDefault@@@1@@Z ENDP ; std::allocator<std::_Container_proxy>::allocator<std::_Container_proxy><VertexDefault>
_TEXT	ENDS
; Function compile flags: /Odtp /ZI
; File C:\Program Files\Microsoft Visual Studio\2022\Preview\VC\Tools\MSVC\14.38.33030\include\vector
;	COMDAT ??$_Unfancy_maybe_null@UVertexDefault@@@std@@YAPEAUVertexDefault@@PEAU1@@Z
_TEXT	SEGMENT
_Ptr$ = 80
??$_Unfancy_maybe_null@UVertexDefault@@@std@@YAPEAUVertexDefault@@PEAU1@@Z PROC ; std::_Unfancy_maybe_null<VertexDefault>, COMDAT

; 432  : constexpr _Ty* _Unfancy_maybe_null(_Ty* _Ptr) noexcept { // do nothing for plain pointers

$LN3:
  00000	48 89 4c 24 08	 mov	 QWORD PTR [rsp+8], rcx
  00005	55		 push	 rbp
  00006	48 83 ec 60	 sub	 rsp, 96			; 00000060H
  0000a	48 8d 6c 24 20	 lea	 rbp, QWORD PTR [rsp+32]
  0000f	48 8d 0d 00 00
	00 00		 lea	 rcx, OFFSET FLAT:__14F7CB70_vector
  00016	e8 00 00 00 00	 call	 __CheckForDebuggerJustMyCode

; 433  :     return _Ptr;

  0001b	48 8b 45 50	 mov	 rax, QWORD PTR _Ptr$[rbp]

; 434  : }

  0001f	48 8d 65 40	 lea	 rsp, QWORD PTR [rbp+64]
  00023	5d		 pop	 rbp
  00024	c3		 ret	 0
??$_Unfancy_maybe_null@UVertexDefault@@@std@@YAPEAUVertexDefault@@PEAU1@@Z ENDP ; std::_Unfancy_maybe_null<VertexDefault>
_TEXT	ENDS
; Function compile flags: /Odtp /ZI
; File C:\Program Files\Microsoft Visual Studio\2022\Preview\VC\Tools\MSVC\14.38.33030\include\vector
;	COMDAT ??$_Construct_n@AEBQEAGAEBQEAG@?$vector@GV?$allocator@G@std@@@std@@AEAAX_KAEBQEAG1@Z
_TEXT	SEGMENT
_Al$ = 0
_Alproxy$ = 8
$S13$ = 16
_My_data$ = 24
_Proxy$ = 32
_Guard$1 = 48
this$ = 144
_Count$ = 152
<_Val_0>$ = 160
<_Val_1>$ = 168
??$_Construct_n@AEBQEAGAEBQEAG@?$vector@GV?$allocator@G@std@@@std@@AEAAX_KAEBQEAG1@Z PROC ; std::vector<unsigned short,std::allocator<unsigned short> >::_Construct_n<unsigned short * const &,unsigned short * const &>, COMDAT

; 2065 :     _CONSTEXPR20 void _Construct_n(_CRT_GUARDOVERFLOW const size_type _Count, _Valty&&... _Val) {

$LN6:
  00000	4c 89 4c 24 20	 mov	 QWORD PTR [rsp+32], r9
  00005	4c 89 44 24 18	 mov	 QWORD PTR [rsp+24], r8
  0000a	48 89 54 24 10	 mov	 QWORD PTR [rsp+16], rdx
  0000f	48 89 4c 24 08	 mov	 QWORD PTR [rsp+8], rcx
  00014	55		 push	 rbp
  00015	48 81 ec a0 00
	00 00		 sub	 rsp, 160		; 000000a0H
  0001c	48 8d 6c 24 20	 lea	 rbp, QWORD PTR [rsp+32]
  00021	48 8d 0d 00 00
	00 00		 lea	 rcx, OFFSET FLAT:__14F7CB70_vector
  00028	e8 00 00 00 00	 call	 __CheckForDebuggerJustMyCode

; 2066 :         // Dispatches between the three sized constructions.
; 2067 :         // 1-arg -> value-construction, e.g. vector(5)
; 2068 :         // 2-arg -> fill, e.g. vector(5, "meow")
; 2069 :         // 3-arg -> sized range construction, e.g. vector{"Hello", "Fluffy", "World"}
; 2070 :         auto& _Al       = _Getal();

  0002d	48 8b 8d 90 00
	00 00		 mov	 rcx, QWORD PTR this$[rbp]
  00034	e8 00 00 00 00	 call	 ?_Getal@?$vector@GV?$allocator@G@std@@@std@@AEAAAEAV?$allocator@G@2@XZ ; std::vector<unsigned short,std::allocator<unsigned short> >::_Getal
  00039	48 89 45 00	 mov	 QWORD PTR _Al$[rbp], rax

; 2071 :         auto&& _Alproxy = _GET_PROXY_ALLOCATOR(_Alty, _Al);

  0003d	48 8b 55 00	 mov	 rdx, QWORD PTR _Al$[rbp]
  00041	48 8d 4d 10	 lea	 rcx, QWORD PTR $S13$[rbp]
  00045	e8 00 00 00 00	 call	 ??$?0G@?$allocator@U_Container_proxy@std@@@std@@QEAA@AEBV?$allocator@G@1@@Z ; std::allocator<std::_Container_proxy>::allocator<std::_Container_proxy><unsigned short>
  0004a	48 8d 45 10	 lea	 rax, QWORD PTR $S13$[rbp]
  0004e	48 89 45 08	 mov	 QWORD PTR _Alproxy$[rbp], rax

; 2072 :         auto& _My_data  = _Mypair._Myval2;

  00052	48 8b 85 90 00
	00 00		 mov	 rax, QWORD PTR this$[rbp]
  00059	48 89 45 18	 mov	 QWORD PTR _My_data$[rbp], rax

; 2073 :         _Container_proxy_ptr<_Alty> _Proxy(_Alproxy, _My_data);

  0005d	4c 8b 45 18	 mov	 r8, QWORD PTR _My_data$[rbp]
  00061	48 8b 55 08	 mov	 rdx, QWORD PTR _Alproxy$[rbp]
  00065	48 8d 4d 20	 lea	 rcx, QWORD PTR _Proxy$[rbp]
  00069	e8 00 00 00 00	 call	 ??0?$_Container_proxy_ptr12@V?$allocator@U_Container_proxy@std@@@std@@@std@@QEAA@AEAV?$allocator@U_Container_proxy@std@@@1@AEAU_Container_base12@1@@Z ; std::_Container_proxy_ptr12<std::allocator<std::_Container_proxy> >::_Container_proxy_ptr12<std::allocator<std::_Container_proxy> >
  0006e	90		 npad	 1

; 2074 :         if (_Count != 0) {

  0006f	48 83 bd 98 00
	00 00 00	 cmp	 QWORD PTR _Count$[rbp], 0
  00077	74 5c		 je	 SHORT $LN2@Construct_

; 2075 :             _Buy_nonzero(_Count);

  00079	48 8b 95 98 00
	00 00		 mov	 rdx, QWORD PTR _Count$[rbp]
  00080	48 8b 8d 90 00
	00 00		 mov	 rcx, QWORD PTR this$[rbp]
  00087	e8 00 00 00 00	 call	 ?_Buy_nonzero@?$vector@GV?$allocator@G@std@@@std@@AEAAX_K@Z ; std::vector<unsigned short,std::allocator<unsigned short> >::_Buy_nonzero

; 2076 :             _Tidy_guard<vector> _Guard{this};

  0008c	48 8b 85 90 00
	00 00		 mov	 rax, QWORD PTR this$[rbp]
  00093	48 89 45 30	 mov	 QWORD PTR _Guard$1[rbp], rax

; 2077 :             if constexpr (sizeof...(_Val) == 0) {
; 2078 :                 _My_data._Mylast = _Uninitialized_value_construct_n(_My_data._Myfirst, _Count, _Al);
; 2079 :             } else if constexpr (sizeof...(_Val) == 1) {
; 2080 :                 _STL_INTERNAL_STATIC_ASSERT(is_same_v<_Valty..., const _Ty&>);
; 2081 :                 _My_data._Mylast = _Uninitialized_fill_n(_My_data._Myfirst, _Count, _Val..., _Al);
; 2082 :             } else if constexpr (sizeof...(_Val) == 2) {
; 2083 :                 _My_data._Mylast = _Uninitialized_copy(_STD forward<_Valty>(_Val)..., _My_data._Myfirst, _Al);

  00097	4c 8b 4d 00	 mov	 r9, QWORD PTR _Al$[rbp]
  0009b	48 8b 45 18	 mov	 rax, QWORD PTR _My_data$[rbp]
  0009f	4c 8b 40 08	 mov	 r8, QWORD PTR [rax+8]
  000a3	48 8b 85 a8 00
	00 00		 mov	 rax, QWORD PTR <_Val_1>$[rbp]
  000aa	48 8b 10	 mov	 rdx, QWORD PTR [rax]
  000ad	48 8b 85 a0 00
	00 00		 mov	 rax, QWORD PTR <_Val_0>$[rbp]
  000b4	48 8b 08	 mov	 rcx, QWORD PTR [rax]
  000b7	e8 00 00 00 00	 call	 ??$_Uninitialized_copy@PEAGPEAGV?$allocator@G@std@@@std@@YAPEAGPEAG00AEAV?$allocator@G@0@@Z ; std::_Uninitialized_copy<unsigned short *,unsigned short *,std::allocator<unsigned short> >
  000bc	48 8b 4d 18	 mov	 rcx, QWORD PTR _My_data$[rbp]
  000c0	48 89 41 10	 mov	 QWORD PTR [rcx+16], rax

; 2084 :             } else {
; 2085 :                 static_assert(_Always_false<_Ty>, "Should be unreachable");
; 2086 :             }
; 2087 :             _ASAN_VECTOR_CREATE;
; 2088 :             _Guard._Target = nullptr;

  000c4	48 c7 45 30 00
	00 00 00	 mov	 QWORD PTR _Guard$1[rbp], 0

; 2089 :         }

  000cc	48 8d 4d 30	 lea	 rcx, QWORD PTR _Guard$1[rbp]
  000d0	e8 00 00 00 00	 call	 ??1?$_Tidy_guard@V?$vector@GV?$allocator@G@std@@@std@@@std@@QEAA@XZ ; std::_Tidy_guard<std::vector<unsigned short,std::allocator<unsigned short> > >::~_Tidy_guard<std::vector<unsigned short,std::allocator<unsigned short> > >
$LN2@Construct_:

; 2090 : 
; 2091 :         _Proxy._Release();

  000d5	48 8d 4d 20	 lea	 rcx, QWORD PTR _Proxy$[rbp]
  000d9	e8 00 00 00 00	 call	 ?_Release@_Basic_container_proxy_ptr12@std@@QEAAXXZ ; std::_Basic_container_proxy_ptr12::_Release
  000de	90		 npad	 1

; 2092 :     }

  000df	48 8d 4d 20	 lea	 rcx, QWORD PTR _Proxy$[rbp]
  000e3	e8 00 00 00 00	 call	 ??1?$_Container_proxy_ptr12@V?$allocator@U_Container_proxy@std@@@std@@@std@@QEAA@XZ ; std::_Container_proxy_ptr12<std::allocator<std::_Container_proxy> >::~_Container_proxy_ptr12<std::allocator<std::_Container_proxy> >
  000e8	48 8d a5 80 00
	00 00		 lea	 rsp, QWORD PTR [rbp+128]
  000ef	5d		 pop	 rbp
  000f0	c3		 ret	 0
??$_Construct_n@AEBQEAGAEBQEAG@?$vector@GV?$allocator@G@std@@@std@@AEAAX_KAEBQEAG1@Z ENDP ; std::vector<unsigned short,std::allocator<unsigned short> >::_Construct_n<unsigned short * const &,unsigned short * const &>
_TEXT	ENDS
; Function compile flags: /Odtp /ZI
;	COMDAT text$x
text$x	SEGMENT
_Al$ = 0
_Alproxy$ = 8
$S13$ = 16
_My_data$ = 24
_Proxy$ = 32
_Guard$1 = 48
this$ = 144
_Count$ = 152
<_Val_0>$ = 160
<_Val_1>$ = 168
?dtor$0@?0???$_Construct_n@AEBQEAGAEBQEAG@?$vector@GV?$allocator@G@std@@@std@@AEAAX_KAEBQEAG1@Z@4HA PROC ; `std::vector<unsigned short,std::allocator<unsigned short> >::_Construct_n<unsigned short * const &,unsigned short * const &>'::`1'::dtor$0
  00000	40 55		 push	 rbp
  00002	48 83 ec 20	 sub	 rsp, 32			; 00000020H
  00006	48 8d 6a 20	 lea	 rbp, QWORD PTR [rdx+32]
  0000a	48 8d 4d 20	 lea	 rcx, QWORD PTR _Proxy$[rbp]
  0000e	e8 00 00 00 00	 call	 ??1?$_Container_proxy_ptr12@V?$allocator@U_Container_proxy@std@@@std@@@std@@QEAA@XZ ; std::_Container_proxy_ptr12<std::allocator<std::_Container_proxy> >::~_Container_proxy_ptr12<std::allocator<std::_Container_proxy> >
  00013	48 83 c4 20	 add	 rsp, 32			; 00000020H
  00017	5d		 pop	 rbp
  00018	c3		 ret	 0
?dtor$0@?0???$_Construct_n@AEBQEAGAEBQEAG@?$vector@GV?$allocator@G@std@@@std@@AEAAX_KAEBQEAG1@Z@4HA ENDP ; `std::vector<unsigned short,std::allocator<unsigned short> >::_Construct_n<unsigned short * const &,unsigned short * const &>'::`1'::dtor$0
text$x	ENDS
; Function compile flags: /Odtp /ZI
;	COMDAT text$x
text$x	SEGMENT
_Al$ = 0
_Alproxy$ = 8
$S13$ = 16
_My_data$ = 24
_Proxy$ = 32
_Guard$1 = 48
this$ = 144
_Count$ = 152
<_Val_0>$ = 160
<_Val_1>$ = 168
?dtor$1@?0???$_Construct_n@AEBQEAGAEBQEAG@?$vector@GV?$allocator@G@std@@@std@@AEAAX_KAEBQEAG1@Z@4HA PROC ; `std::vector<unsigned short,std::allocator<unsigned short> >::_Construct_n<unsigned short * const &,unsigned short * const &>'::`1'::dtor$1
  00000	40 55		 push	 rbp
  00002	48 83 ec 20	 sub	 rsp, 32			; 00000020H
  00006	48 8d 6a 20	 lea	 rbp, QWORD PTR [rdx+32]
  0000a	48 8d 4d 30	 lea	 rcx, QWORD PTR _Guard$1[rbp]
  0000e	e8 00 00 00 00	 call	 ??1?$_Tidy_guard@V?$vector@GV?$allocator@G@std@@@std@@@std@@QEAA@XZ ; std::_Tidy_guard<std::vector<unsigned short,std::allocator<unsigned short> > >::~_Tidy_guard<std::vector<unsigned short,std::allocator<unsigned short> > >
  00013	48 83 c4 20	 add	 rsp, 32			; 00000020H
  00017	5d		 pop	 rbp
  00018	c3		 ret	 0
?dtor$1@?0???$_Construct_n@AEBQEAGAEBQEAG@?$vector@GV?$allocator@G@std@@@std@@AEAAX_KAEBQEAG1@Z@4HA ENDP ; `std::vector<unsigned short,std::allocator<unsigned short> >::_Construct_n<unsigned short * const &,unsigned short * const &>'::`1'::dtor$1
text$x	ENDS
; Function compile flags: /Odtp /ZI
; File C:\Program Files\Microsoft Visual Studio\2022\Preview\VC\Tools\MSVC\14.38.33030\include\xmemory
;	COMDAT ??$?0V?$allocator@G@std@@$$V@?$_Compressed_pair@V?$allocator@G@std@@V?$_Vector_val@U?$_Simple_types@G@std@@@2@$00@std@@QEAA@U_One_then_variadic_args_t@1@$$QEAV?$allocator@G@1@@Z
_TEXT	SEGMENT
this$ = 80
__formal$ = 88
_Val1$ = 96
??$?0V?$allocator@G@std@@$$V@?$_Compressed_pair@V?$allocator@G@std@@V?$_Vector_val@U?$_Simple_types@G@std@@@2@$00@std@@QEAA@U_One_then_variadic_args_t@1@$$QEAV?$allocator@G@1@@Z PROC ; std::_Compressed_pair<std::allocator<unsigned short>,std::_Vector_val<std::_Simple_types<unsigned short> >,1>::_Compressed_pair<std::allocator<unsigned short>,std::_Vector_val<std::_Simple_types<unsigned short> >,1><std::allocator<unsigned short> >, COMDAT

; 1524 :         : _Ty1(_STD forward<_Other1>(_Val1)), _Myval2(_STD forward<_Other2>(_Val2)...) {}

$LN3:
  00000	4c 89 44 24 18	 mov	 QWORD PTR [rsp+24], r8
  00005	88 54 24 10	 mov	 BYTE PTR [rsp+16], dl
  00009	48 89 4c 24 08	 mov	 QWORD PTR [rsp+8], rcx
  0000e	55		 push	 rbp
  0000f	48 83 ec 60	 sub	 rsp, 96			; 00000060H
  00013	48 8d 6c 24 20	 lea	 rbp, QWORD PTR [rsp+32]
  00018	48 8d 0d 00 00
	00 00		 lea	 rcx, OFFSET FLAT:__67F55BEA_xmemory
  0001f	e8 00 00 00 00	 call	 __CheckForDebuggerJustMyCode
  00024	48 8b 45 50	 mov	 rax, QWORD PTR this$[rbp]
  00028	48 8b c8	 mov	 rcx, rax
  0002b	e8 00 00 00 00	 call	 ??0?$_Vector_val@U?$_Simple_types@G@std@@@std@@QEAA@XZ ; std::_Vector_val<std::_Simple_types<unsigned short> >::_Vector_val<std::_Simple_types<unsigned short> >
  00030	48 8b 45 50	 mov	 rax, QWORD PTR this$[rbp]
  00034	48 8d 65 40	 lea	 rsp, QWORD PTR [rbp+64]
  00038	5d		 pop	 rbp
  00039	c3		 ret	 0
??$?0V?$allocator@G@std@@$$V@?$_Compressed_pair@V?$allocator@G@std@@V?$_Vector_val@U?$_Simple_types@G@std@@@2@$00@std@@QEAA@U_One_then_variadic_args_t@1@$$QEAV?$allocator@G@1@@Z ENDP ; std::_Compressed_pair<std::allocator<unsigned short>,std::_Vector_val<std::_Simple_types<unsigned short> >,1>::_Compressed_pair<std::allocator<unsigned short>,std::_Vector_val<std::_Simple_types<unsigned short> >,1><std::allocator<unsigned short> >
_TEXT	ENDS
; Function compile flags: /Odtp /ZI
; File C:\Program Files\Microsoft Visual Studio\2022\Preview\VC\Tools\MSVC\14.38.33030\include\xmemory
;	COMDAT ??$_Delete_plain_internal@V?$allocator@U_Container_proxy@std@@@std@@@std@@YAXAEAV?$allocator@U_Container_proxy@std@@@0@QEAU_Container_proxy@0@@Z
_TEXT	SEGMENT
_Al$ = 80
_Ptr$ = 88
??$_Delete_plain_internal@V?$allocator@U_Container_proxy@std@@@std@@@std@@YAXAEAV?$allocator@U_Container_proxy@std@@@0@QEAU_Container_proxy@0@@Z PROC ; std::_Delete_plain_internal<std::allocator<std::_Container_proxy> >, COMDAT

; 1135 : _CONSTEXPR20 void _Delete_plain_internal(_Alloc& _Al, typename _Alloc::value_type* const _Ptr) noexcept {

$LN3:
  00000	48 89 54 24 10	 mov	 QWORD PTR [rsp+16], rdx
  00005	48 89 4c 24 08	 mov	 QWORD PTR [rsp+8], rcx
  0000a	55		 push	 rbp
  0000b	48 83 ec 60	 sub	 rsp, 96			; 00000060H
  0000f	48 8d 6c 24 20	 lea	 rbp, QWORD PTR [rsp+32]
  00014	48 8d 0d 00 00
	00 00		 lea	 rcx, OFFSET FLAT:__67F55BEA_xmemory
  0001b	e8 00 00 00 00	 call	 __CheckForDebuggerJustMyCode

; 1136 :     // destroy *_Ptr in place, then deallocate _Ptr using _Al; used for internal container types the user didn't name
; 1137 :     using _Ty = typename _Alloc::value_type;
; 1138 :     _Ptr->~_Ty();
; 1139 :     _Deallocate_plain(_Al, _Ptr);

  00020	48 8b 55 58	 mov	 rdx, QWORD PTR _Ptr$[rbp]
  00024	48 8b 4d 50	 mov	 rcx, QWORD PTR _Al$[rbp]
  00028	e8 00 00 00 00	 call	 ??$_Deallocate_plain@V?$allocator@U_Container_proxy@std@@@std@@@std@@YAXAEAV?$allocator@U_Container_proxy@std@@@0@QEAU_Container_proxy@0@@Z ; std::_Deallocate_plain<std::allocator<std::_Container_proxy> >

; 1140 : }

  0002d	48 8d 65 40	 lea	 rsp, QWORD PTR [rbp+64]
  00031	5d		 pop	 rbp
  00032	c3		 ret	 0
??$_Delete_plain_internal@V?$allocator@U_Container_proxy@std@@@std@@@std@@YAXAEAV?$allocator@U_Container_proxy@std@@@0@QEAU_Container_proxy@0@@Z ENDP ; std::_Delete_plain_internal<std::allocator<std::_Container_proxy> >
_TEXT	ENDS
; Function compile flags: /Odtp /ZI
; File C:\Program Files\Microsoft Visual Studio\2022\Preview\VC\Tools\MSVC\14.38.33030\include\utility
;	COMDAT ??$exchange@PEAU_Container_proxy@std@@$$T@std@@YAPEAU_Container_proxy@0@AEAPEAU10@$$QEA$$T@Z
_TEXT	SEGMENT
_Old_val$ = 0
_Val$ = 96
_New_val$ = 104
??$exchange@PEAU_Container_proxy@std@@$$T@std@@YAPEAU_Container_proxy@0@AEAPEAU10@$$QEA$$T@Z PROC ; std::exchange<std::_Container_proxy *,std::nullptr_t>, COMDAT

; 760  :     conjunction_v<is_nothrow_move_constructible<_Ty>, is_nothrow_assignable<_Ty&, _Other>>) {

$LN3:
  00000	48 89 54 24 10	 mov	 QWORD PTR [rsp+16], rdx
  00005	48 89 4c 24 08	 mov	 QWORD PTR [rsp+8], rcx
  0000a	55		 push	 rbp
  0000b	48 83 ec 70	 sub	 rsp, 112		; 00000070H
  0000f	48 8d 6c 24 20	 lea	 rbp, QWORD PTR [rsp+32]
  00014	48 8d 0d 00 00
	00 00		 lea	 rcx, OFFSET FLAT:__0D603829_utility
  0001b	e8 00 00 00 00	 call	 __CheckForDebuggerJustMyCode

; 761  :     // assign _New_val to _Val, return previous _Val
; 762  :     _Ty _Old_val = static_cast<_Ty&&>(_Val);

  00020	48 8b 45 60	 mov	 rax, QWORD PTR _Val$[rbp]
  00024	48 8b 00	 mov	 rax, QWORD PTR [rax]
  00027	48 89 45 00	 mov	 QWORD PTR _Old_val$[rbp], rax

; 763  :     _Val         = static_cast<_Other&&>(_New_val);

  0002b	48 8b 45 60	 mov	 rax, QWORD PTR _Val$[rbp]
  0002f	48 8b 4d 68	 mov	 rcx, QWORD PTR _New_val$[rbp]
  00033	48 8b 09	 mov	 rcx, QWORD PTR [rcx]
  00036	48 89 08	 mov	 QWORD PTR [rax], rcx

; 764  :     return _Old_val;

  00039	48 8b 45 00	 mov	 rax, QWORD PTR _Old_val$[rbp]

; 765  : }

  0003d	48 8d 65 50	 lea	 rsp, QWORD PTR [rbp+80]
  00041	5d		 pop	 rbp
  00042	c3		 ret	 0
??$exchange@PEAU_Container_proxy@std@@$$T@std@@YAPEAU_Container_proxy@0@AEAPEAU10@$$QEA$$T@Z ENDP ; std::exchange<std::_Container_proxy *,std::nullptr_t>
_TEXT	ENDS
; Function compile flags: /Odtp /ZI
; File C:\Program Files\Microsoft Visual Studio\2022\Preview\VC\Tools\MSVC\14.38.33030\include\xmemory
;	COMDAT ??$?0G@?$allocator@U_Container_proxy@std@@@std@@QEAA@AEBV?$allocator@G@1@@Z
_TEXT	SEGMENT
this$ = 80
__formal$ = 88
??$?0G@?$allocator@U_Container_proxy@std@@@std@@QEAA@AEBV?$allocator@G@1@@Z PROC ; std::allocator<std::_Container_proxy>::allocator<std::_Container_proxy><unsigned short>, COMDAT

; 966  :     constexpr allocator(const allocator<_Other>&) noexcept {}

$LN3:
  00000	48 89 54 24 10	 mov	 QWORD PTR [rsp+16], rdx
  00005	48 89 4c 24 08	 mov	 QWORD PTR [rsp+8], rcx
  0000a	55		 push	 rbp
  0000b	48 83 ec 60	 sub	 rsp, 96			; 00000060H
  0000f	48 8d 6c 24 20	 lea	 rbp, QWORD PTR [rsp+32]
  00014	48 8d 0d 00 00
	00 00		 lea	 rcx, OFFSET FLAT:__67F55BEA_xmemory
  0001b	e8 00 00 00 00	 call	 __CheckForDebuggerJustMyCode
  00020	48 8b 45 50	 mov	 rax, QWORD PTR this$[rbp]
  00024	48 8d 65 40	 lea	 rsp, QWORD PTR [rbp+64]
  00028	5d		 pop	 rbp
  00029	c3		 ret	 0
??$?0G@?$allocator@U_Container_proxy@std@@@std@@QEAA@AEBV?$allocator@G@1@@Z ENDP ; std::allocator<std::_Container_proxy>::allocator<std::_Container_proxy><unsigned short>
_TEXT	ENDS
; Function compile flags: /Odtp /ZI
; File C:\Program Files\Microsoft Visual Studio\2022\Preview\VC\Tools\MSVC\14.38.33030\include\xmemory
;	COMDAT ?allocate@?$allocator@U_Container_proxy@std@@@std@@QEAAPEAU_Container_proxy@2@_K@Z
_TEXT	SEGMENT
this$ = 80
_Count$ = 88
?allocate@?$allocator@U_Container_proxy@std@@@std@@QEAAPEAU_Container_proxy@2@_K@Z PROC ; std::allocator<std::_Container_proxy>::allocate, COMDAT

; 976  :     _NODISCARD_RAW_PTR_ALLOC _CONSTEXPR20 __declspec(allocator) _Ty* allocate(_CRT_GUARDOVERFLOW const size_t _Count) {

$LN3:
  00000	48 89 54 24 10	 mov	 QWORD PTR [rsp+16], rdx
  00005	48 89 4c 24 08	 mov	 QWORD PTR [rsp+8], rcx
  0000a	55		 push	 rbp
  0000b	48 83 ec 60	 sub	 rsp, 96			; 00000060H
  0000f	48 8d 6c 24 20	 lea	 rbp, QWORD PTR [rsp+32]
  00014	48 8d 0d 00 00
	00 00		 lea	 rcx, OFFSET FLAT:__67F55BEA_xmemory
  0001b	e8 00 00 00 00	 call	 __CheckForDebuggerJustMyCode

; 977  :         static_assert(sizeof(value_type) > 0, "value_type must be complete before calling allocate.");
; 978  :         return static_cast<_Ty*>(_Allocate<_New_alignof<_Ty>>(_Get_size_of_n<sizeof(_Ty)>(_Count)));

  00020	48 8b 4d 58	 mov	 rcx, QWORD PTR _Count$[rbp]
  00024	e8 00 00 00 00	 call	 ??$_Get_size_of_n@$0BA@@std@@YA_K_K@Z ; std::_Get_size_of_n<16>
  00029	48 8b c8	 mov	 rcx, rax
  0002c	e8 00 00 00 00	 call	 ??$_Allocate@$0BA@U_Default_allocate_traits@std@@$0A@@std@@YAPEAX_K@Z ; std::_Allocate<16,std::_Default_allocate_traits,0>

; 979  :     }

  00031	48 8d 65 40	 lea	 rsp, QWORD PTR [rbp+64]
  00035	5d		 pop	 rbp
  00036	c3		 ret	 0
?allocate@?$allocator@U_Container_proxy@std@@@std@@QEAAPEAU_Container_proxy@2@_K@Z ENDP ; std::allocator<std::_Container_proxy>::allocate
_TEXT	ENDS
; Function compile flags: /Odtp /ZI
; File C:\Program Files\Microsoft Visual Studio\2022\Preview\VC\Tools\MSVC\14.38.33030\include\xmemory
;	COMDAT ?deallocate@?$allocator@U_Container_proxy@std@@@std@@QEAAXQEAU_Container_proxy@2@_K@Z
_TEXT	SEGMENT
this$ = 80
_Ptr$ = 88
_Count$ = 96
?deallocate@?$allocator@U_Container_proxy@std@@@std@@QEAAXQEAU_Container_proxy@2@_K@Z PROC ; std::allocator<std::_Container_proxy>::deallocate, COMDAT

; 970  :     _CONSTEXPR20 void deallocate(_Ty* const _Ptr, const size_t _Count) {

$LN13:
  00000	4c 89 44 24 18	 mov	 QWORD PTR [rsp+24], r8
  00005	48 89 54 24 10	 mov	 QWORD PTR [rsp+16], rdx
  0000a	48 89 4c 24 08	 mov	 QWORD PTR [rsp+8], rcx
  0000f	55		 push	 rbp
  00010	48 83 ec 70	 sub	 rsp, 112		; 00000070H
  00014	48 8d 6c 24 30	 lea	 rbp, QWORD PTR [rsp+48]
  00019	48 8d 0d 00 00
	00 00		 lea	 rcx, OFFSET FLAT:__67F55BEA_xmemory
  00020	e8 00 00 00 00	 call	 __CheckForDebuggerJustMyCode
$LN4@deallocate:

; 971  :         _STL_ASSERT(_Ptr != nullptr || _Count == 0, "null pointer cannot point to a block of non-zero size");

  00025	48 83 7d 58 00	 cmp	 QWORD PTR _Ptr$[rbp], 0
  0002a	75 07		 jne	 SHORT $LN10@deallocate
  0002c	48 83 7d 60 00	 cmp	 QWORD PTR _Count$[rbp], 0
  00031	75 02		 jne	 SHORT $LN8@deallocate
$LN10@deallocate:
  00033	eb 6b		 jmp	 SHORT $LN9@deallocate
$LN8@deallocate:
$LN7@deallocate:
  00035	48 8d 05 00 00
	00 00		 lea	 rax, OFFSET FLAT:??_C@_0DG@KGHKKGBC@null?5pointer?5cannot?5point?5to?5a?5@
  0003c	48 89 44 24 28	 mov	 QWORD PTR [rsp+40], rax
  00041	48 8d 05 00 00
	00 00		 lea	 rax, OFFSET FLAT:??_C@_02DKCKIIND@?$CFs@
  00048	48 89 44 24 20	 mov	 QWORD PTR [rsp+32], rax
  0004d	45 33 c9	 xor	 r9d, r9d
  00050	41 b8 cb 03 00
	00		 mov	 r8d, 971		; 000003cbH
  00056	48 8d 15 00 00
	00 00		 lea	 rdx, OFFSET FLAT:??_C@_0GA@FLDGEGM@C?3?2Program?5Files?2Microsoft?5Visu@
  0005d	b9 02 00 00 00	 mov	 ecx, 2
  00062	ff 15 00 00 00
	00		 call	 QWORD PTR __imp__CrtDbgReport
  00068	83 f8 01	 cmp	 eax, 1
  0006b	75 03		 jne	 SHORT $LN12@deallocate
  0006d	cc		 int	 3
  0006e	33 c0		 xor	 eax, eax
$LN12@deallocate:
  00070	48 c7 44 24 20
	00 00 00 00	 mov	 QWORD PTR [rsp+32], 0
  00079	41 b9 cb 03 00
	00		 mov	 r9d, 971		; 000003cbH
  0007f	4c 8d 05 00 00
	00 00		 lea	 r8, OFFSET FLAT:??_C@_1MA@IKJDCOIC@?$AAC?$AA?3?$AA?2?$AAP?$AAr?$AAo?$AAg?$AAr?$AAa?$AAm?$AA?5?$AAF?$AAi?$AAl?$AAe@
  00086	48 8d 15 00 00
	00 00		 lea	 rdx, OFFSET FLAT:??_C@_11LOCGONAA@@
  0008d	48 8d 0d 00 00
	00 00		 lea	 rcx, OFFSET FLAT:??_C@_1HA@FACCKGGH@?$AA?$CC?$AAn?$AAu?$AAl?$AAl?$AA?5?$AAp?$AAo?$AAi?$AAn?$AAt?$AAe?$AAr?$AA?5?$AAc@
  00094	ff 15 00 00 00
	00		 call	 QWORD PTR __imp__invalid_parameter
  0009a	33 c0		 xor	 eax, eax
  0009c	85 c0		 test	 eax, eax
  0009e	75 95		 jne	 SHORT $LN7@deallocate
$LN9@deallocate:
  000a0	33 c0		 xor	 eax, eax
  000a2	85 c0		 test	 eax, eax
  000a4	0f 85 7b ff ff
	ff		 jne	 $LN4@deallocate

; 972  :         // no overflow check on the following multiply; we assume _Allocate did that check
; 973  :         _Deallocate<_New_alignof<_Ty>>(_Ptr, sizeof(_Ty) * _Count);

  000aa	48 6b 45 60 10	 imul	 rax, QWORD PTR _Count$[rbp], 16
  000af	48 8b d0	 mov	 rdx, rax
  000b2	48 8b 4d 58	 mov	 rcx, QWORD PTR _Ptr$[rbp]
  000b6	e8 00 00 00 00	 call	 ??$_Deallocate@$0BA@$0A@@std@@YAXPEAX_K@Z ; std::_Deallocate<16,0>

; 974  :     }

  000bb	48 8d 65 40	 lea	 rsp, QWORD PTR [rbp+64]
  000bf	5d		 pop	 rbp
  000c0	c3		 ret	 0
?deallocate@?$allocator@U_Container_proxy@std@@@std@@QEAAXQEAU_Container_proxy@2@_K@Z ENDP ; std::allocator<std::_Container_proxy>::deallocate
_TEXT	ENDS
; Function compile flags: /Odtp /ZI
; File C:\Program Files\Microsoft Visual Studio\2022\Preview\VC\Tools\MSVC\14.38.33030\include\vector
;	COMDAT ??$_Unfancy_maybe_null@G@std@@YAPEAGPEAG@Z
_TEXT	SEGMENT
_Ptr$ = 80
??$_Unfancy_maybe_null@G@std@@YAPEAGPEAG@Z PROC		; std::_Unfancy_maybe_null<unsigned short>, COMDAT

; 432  : constexpr _Ty* _Unfancy_maybe_null(_Ty* _Ptr) noexcept { // do nothing for plain pointers

$LN3:
  00000	48 89 4c 24 08	 mov	 QWORD PTR [rsp+8], rcx
  00005	55		 push	 rbp
  00006	48 83 ec 60	 sub	 rsp, 96			; 00000060H
  0000a	48 8d 6c 24 20	 lea	 rbp, QWORD PTR [rsp+32]
  0000f	48 8d 0d 00 00
	00 00		 lea	 rcx, OFFSET FLAT:__14F7CB70_vector
  00016	e8 00 00 00 00	 call	 __CheckForDebuggerJustMyCode

; 433  :     return _Ptr;

  0001b	48 8b 45 50	 mov	 rax, QWORD PTR _Ptr$[rbp]

; 434  : }

  0001f	48 8d 65 40	 lea	 rsp, QWORD PTR [rbp+64]
  00023	5d		 pop	 rbp
  00024	c3		 ret	 0
??$_Unfancy_maybe_null@G@std@@YAPEAGPEAG@Z ENDP		; std::_Unfancy_maybe_null<unsigned short>
_TEXT	ENDS
; Function compile flags: /Odtp /ZI
; File C:\Users\nahmu\source\repos\Dark Engine\Dark Engine\Source\ThirdParty\DTK12\BufferHelpers.h
;	COMDAT ??$CreateStaticBuffer@G@DirectX@@YAJPEAUID3D12Device@@AEAVResourceUploadBatch@0@PEBG_KW4D3D12_RESOURCE_STATES@@PEAPEAUID3D12Resource@@W4D3D12_RESOURCE_FLAGS@@@Z
_TEXT	SEGMENT
device$ = 80
resourceUpload$ = 88
data$ = 96
count$ = 104
afterState$ = 112
pBuffer$ = 120
resFlags$ = 128
??$CreateStaticBuffer@G@DirectX@@YAJPEAUID3D12Device@@AEAVResourceUploadBatch@0@PEBG_KW4D3D12_RESOURCE_STATES@@PEAPEAUID3D12Resource@@W4D3D12_RESOURCE_FLAGS@@@Z PROC ; DirectX::CreateStaticBuffer<unsigned short>, COMDAT

; 48   :     {

$LN3:
  00000	4c 89 4c 24 20	 mov	 QWORD PTR [rsp+32], r9
  00005	4c 89 44 24 18	 mov	 QWORD PTR [rsp+24], r8
  0000a	48 89 54 24 10	 mov	 QWORD PTR [rsp+16], rdx
  0000f	48 89 4c 24 08	 mov	 QWORD PTR [rsp+8], rcx
  00014	55		 push	 rbp
  00015	48 81 ec 80 00
	00 00		 sub	 rsp, 128		; 00000080H
  0001c	48 8d 6c 24 40	 lea	 rbp, QWORD PTR [rsp+64]
  00021	48 8d 0d 00 00
	00 00		 lea	 rcx, OFFSET FLAT:__CA9F0661_BufferHelpers@h
  00028	e8 00 00 00 00	 call	 __CheckForDebuggerJustMyCode

; 49   :         return CreateStaticBuffer(device, resourceUpload, data, count, sizeof(T), afterState, pBuffer, resFlags);

  0002d	8b 85 80 00 00
	00		 mov	 eax, DWORD PTR resFlags$[rbp]
  00033	89 44 24 38	 mov	 DWORD PTR [rsp+56], eax
  00037	48 8b 45 78	 mov	 rax, QWORD PTR pBuffer$[rbp]
  0003b	48 89 44 24 30	 mov	 QWORD PTR [rsp+48], rax
  00040	8b 45 70	 mov	 eax, DWORD PTR afterState$[rbp]
  00043	89 44 24 28	 mov	 DWORD PTR [rsp+40], eax
  00047	48 c7 44 24 20
	02 00 00 00	 mov	 QWORD PTR [rsp+32], 2
  00050	4c 8b 4d 68	 mov	 r9, QWORD PTR count$[rbp]
  00054	4c 8b 45 60	 mov	 r8, QWORD PTR data$[rbp]
  00058	48 8b 55 58	 mov	 rdx, QWORD PTR resourceUpload$[rbp]
  0005c	48 8b 4d 50	 mov	 rcx, QWORD PTR device$[rbp]
  00060	e8 00 00 00 00	 call	 ?CreateStaticBuffer@DirectX@@YAJPEAUID3D12Device@@AEAVResourceUploadBatch@1@PEBX_K3W4D3D12_RESOURCE_STATES@@PEAPEAUID3D12Resource@@W4D3D12_RESOURCE_FLAGS@@@Z ; DirectX::CreateStaticBuffer

; 50   :     }

  00065	48 8d 65 40	 lea	 rsp, QWORD PTR [rbp+64]
  00069	5d		 pop	 rbp
  0006a	c3		 ret	 0
??$CreateStaticBuffer@G@DirectX@@YAJPEAUID3D12Device@@AEAVResourceUploadBatch@0@PEBG_KW4D3D12_RESOURCE_STATES@@PEAPEAUID3D12Resource@@W4D3D12_RESOURCE_FLAGS@@@Z ENDP ; DirectX::CreateStaticBuffer<unsigned short>
_TEXT	ENDS
; Function compile flags: /Odtp /ZI
; File C:\Users\nahmu\source\repos\Dark Engine\Dark Engine\Source\ThirdParty\DTK12\BufferHelpers.h
;	COMDAT ??$CreateStaticBuffer@UVertexDefault@@@DirectX@@YAJPEAUID3D12Device@@AEAVResourceUploadBatch@0@PEBUVertexDefault@@_KW4D3D12_RESOURCE_STATES@@PEAPEAUID3D12Resource@@W4D3D12_RESOURCE_FLAGS@@@Z
_TEXT	SEGMENT
device$ = 80
resourceUpload$ = 88
data$ = 96
count$ = 104
afterState$ = 112
pBuffer$ = 120
resFlags$ = 128
??$CreateStaticBuffer@UVertexDefault@@@DirectX@@YAJPEAUID3D12Device@@AEAVResourceUploadBatch@0@PEBUVertexDefault@@_KW4D3D12_RESOURCE_STATES@@PEAPEAUID3D12Resource@@W4D3D12_RESOURCE_FLAGS@@@Z PROC ; DirectX::CreateStaticBuffer<VertexDefault>, COMDAT

; 48   :     {

$LN3:
  00000	4c 89 4c 24 20	 mov	 QWORD PTR [rsp+32], r9
  00005	4c 89 44 24 18	 mov	 QWORD PTR [rsp+24], r8
  0000a	48 89 54 24 10	 mov	 QWORD PTR [rsp+16], rdx
  0000f	48 89 4c 24 08	 mov	 QWORD PTR [rsp+8], rcx
  00014	55		 push	 rbp
  00015	48 81 ec 80 00
	00 00		 sub	 rsp, 128		; 00000080H
  0001c	48 8d 6c 24 40	 lea	 rbp, QWORD PTR [rsp+64]
  00021	48 8d 0d 00 00
	00 00		 lea	 rcx, OFFSET FLAT:__CA9F0661_BufferHelpers@h
  00028	e8 00 00 00 00	 call	 __CheckForDebuggerJustMyCode

; 49   :         return CreateStaticBuffer(device, resourceUpload, data, count, sizeof(T), afterState, pBuffer, resFlags);

  0002d	8b 85 80 00 00
	00		 mov	 eax, DWORD PTR resFlags$[rbp]
  00033	89 44 24 38	 mov	 DWORD PTR [rsp+56], eax
  00037	48 8b 45 78	 mov	 rax, QWORD PTR pBuffer$[rbp]
  0003b	48 89 44 24 30	 mov	 QWORD PTR [rsp+48], rax
  00040	8b 45 70	 mov	 eax, DWORD PTR afterState$[rbp]
  00043	89 44 24 28	 mov	 DWORD PTR [rsp+40], eax
  00047	48 c7 44 24 20
	48 00 00 00	 mov	 QWORD PTR [rsp+32], 72	; 00000048H
  00050	4c 8b 4d 68	 mov	 r9, QWORD PTR count$[rbp]
  00054	4c 8b 45 60	 mov	 r8, QWORD PTR data$[rbp]
  00058	48 8b 55 58	 mov	 rdx, QWORD PTR resourceUpload$[rbp]
  0005c	48 8b 4d 50	 mov	 rcx, QWORD PTR device$[rbp]
  00060	e8 00 00 00 00	 call	 ?CreateStaticBuffer@DirectX@@YAJPEAUID3D12Device@@AEAVResourceUploadBatch@1@PEBX_K3W4D3D12_RESOURCE_STATES@@PEAPEAUID3D12Resource@@W4D3D12_RESOURCE_FLAGS@@@Z ; DirectX::CreateStaticBuffer

; 50   :     }

  00065	48 8d 65 40	 lea	 rsp, QWORD PTR [rbp+64]
  00069	5d		 pop	 rbp
  0006a	c3		 ret	 0
??$CreateStaticBuffer@UVertexDefault@@@DirectX@@YAJPEAUID3D12Device@@AEAVResourceUploadBatch@0@PEBUVertexDefault@@_KW4D3D12_RESOURCE_STATES@@PEAPEAUID3D12Resource@@W4D3D12_RESOURCE_FLAGS@@@Z ENDP ; DirectX::CreateStaticBuffer<VertexDefault>
_TEXT	ENDS
; Function compile flags: /Odtp /ZI
; File C:\Program Files\Microsoft Visual Studio\2022\Preview\VC\Tools\MSVC\14.38.33030\include\xmemory
;	COMDAT ?_Get_first@?$_Compressed_pair@V?$allocator@G@std@@V?$_Vector_val@U?$_Simple_types@G@std@@@2@$00@std@@QEBAAEBV?$allocator@G@2@XZ
_TEXT	SEGMENT
this$ = 80
?_Get_first@?$_Compressed_pair@V?$allocator@G@std@@V?$_Vector_val@U?$_Simple_types@G@std@@@2@$00@std@@QEBAAEBV?$allocator@G@2@XZ PROC ; std::_Compressed_pair<std::allocator<unsigned short>,std::_Vector_val<std::_Simple_types<unsigned short> >,1>::_Get_first, COMDAT

; 1530 :     constexpr const _Ty1& _Get_first() const noexcept {

$LN3:
  00000	48 89 4c 24 08	 mov	 QWORD PTR [rsp+8], rcx
  00005	55		 push	 rbp
  00006	48 83 ec 60	 sub	 rsp, 96			; 00000060H
  0000a	48 8d 6c 24 20	 lea	 rbp, QWORD PTR [rsp+32]
  0000f	48 8d 0d 00 00
	00 00		 lea	 rcx, OFFSET FLAT:__67F55BEA_xmemory
  00016	e8 00 00 00 00	 call	 __CheckForDebuggerJustMyCode

; 1531 :         return *this;

  0001b	48 8b 45 50	 mov	 rax, QWORD PTR this$[rbp]

; 1532 :     }

  0001f	48 8d 65 40	 lea	 rsp, QWORD PTR [rbp+64]
  00023	5d		 pop	 rbp
  00024	c3		 ret	 0
?_Get_first@?$_Compressed_pair@V?$allocator@G@std@@V?$_Vector_val@U?$_Simple_types@G@std@@@2@$00@std@@QEBAAEBV?$allocator@G@2@XZ ENDP ; std::_Compressed_pair<std::allocator<unsigned short>,std::_Vector_val<std::_Simple_types<unsigned short> >,1>::_Get_first
_TEXT	ENDS
; Function compile flags: /Odtp /ZI
; File C:\Program Files\Microsoft Visual Studio\2022\Preview\VC\Tools\MSVC\14.38.33030\include\xmemory
;	COMDAT ?_Get_first@?$_Compressed_pair@V?$allocator@G@std@@V?$_Vector_val@U?$_Simple_types@G@std@@@2@$00@std@@QEAAAEAV?$allocator@G@2@XZ
_TEXT	SEGMENT
this$ = 80
?_Get_first@?$_Compressed_pair@V?$allocator@G@std@@V?$_Vector_val@U?$_Simple_types@G@std@@@2@$00@std@@QEAAAEAV?$allocator@G@2@XZ PROC ; std::_Compressed_pair<std::allocator<unsigned short>,std::_Vector_val<std::_Simple_types<unsigned short> >,1>::_Get_first, COMDAT

; 1526 :     constexpr _Ty1& _Get_first() noexcept {

$LN3:
  00000	48 89 4c 24 08	 mov	 QWORD PTR [rsp+8], rcx
  00005	55		 push	 rbp
  00006	48 83 ec 60	 sub	 rsp, 96			; 00000060H
  0000a	48 8d 6c 24 20	 lea	 rbp, QWORD PTR [rsp+32]
  0000f	48 8d 0d 00 00
	00 00		 lea	 rcx, OFFSET FLAT:__67F55BEA_xmemory
  00016	e8 00 00 00 00	 call	 __CheckForDebuggerJustMyCode

; 1527 :         return *this;

  0001b	48 8b 45 50	 mov	 rax, QWORD PTR this$[rbp]

; 1528 :     }

  0001f	48 8d 65 40	 lea	 rsp, QWORD PTR [rbp+64]
  00023	5d		 pop	 rbp
  00024	c3		 ret	 0
?_Get_first@?$_Compressed_pair@V?$allocator@G@std@@V?$_Vector_val@U?$_Simple_types@G@std@@@2@$00@std@@QEAAAEAV?$allocator@G@2@XZ ENDP ; std::_Compressed_pair<std::allocator<unsigned short>,std::_Vector_val<std::_Simple_types<unsigned short> >,1>::_Get_first
_TEXT	ENDS
; Function compile flags: /Odtp /ZI
; File C:\Program Files\Microsoft Visual Studio\2022\Preview\VC\Tools\MSVC\14.38.33030\include\vector
;	COMDAT ??0?$_Vector_val@U?$_Simple_types@G@std@@@std@@QEAA@XZ
_TEXT	SEGMENT
this$ = 80
??0?$_Vector_val@U?$_Simple_types@G@std@@@std@@QEAA@XZ PROC ; std::_Vector_val<std::_Simple_types<unsigned short> >::_Vector_val<std::_Simple_types<unsigned short> >, COMDAT

; 397  :     _CONSTEXPR20 _Vector_val() noexcept : _Myfirst(), _Mylast(), _Myend() {}

$LN3:
  00000	48 89 4c 24 08	 mov	 QWORD PTR [rsp+8], rcx
  00005	55		 push	 rbp
  00006	48 83 ec 60	 sub	 rsp, 96			; 00000060H
  0000a	48 8d 6c 24 20	 lea	 rbp, QWORD PTR [rsp+32]
  0000f	48 8d 0d 00 00
	00 00		 lea	 rcx, OFFSET FLAT:__14F7CB70_vector
  00016	e8 00 00 00 00	 call	 __CheckForDebuggerJustMyCode
  0001b	48 8b 4d 50	 mov	 rcx, QWORD PTR this$[rbp]
  0001f	e8 00 00 00 00	 call	 ??0_Container_base12@std@@QEAA@XZ ; std::_Container_base12::_Container_base12
  00024	48 8b 45 50	 mov	 rax, QWORD PTR this$[rbp]
  00028	48 c7 40 08 00
	00 00 00	 mov	 QWORD PTR [rax+8], 0
  00030	48 8b 45 50	 mov	 rax, QWORD PTR this$[rbp]
  00034	48 c7 40 10 00
	00 00 00	 mov	 QWORD PTR [rax+16], 0
  0003c	48 8b 45 50	 mov	 rax, QWORD PTR this$[rbp]
  00040	48 c7 40 18 00
	00 00 00	 mov	 QWORD PTR [rax+24], 0
  00048	48 8b 45 50	 mov	 rax, QWORD PTR this$[rbp]
  0004c	48 8d 65 40	 lea	 rsp, QWORD PTR [rbp+64]
  00050	5d		 pop	 rbp
  00051	c3		 ret	 0
??0?$_Vector_val@U?$_Simple_types@G@std@@@std@@QEAA@XZ ENDP ; std::_Vector_val<std::_Simple_types<unsigned short> >::_Vector_val<std::_Simple_types<unsigned short> >
_TEXT	ENDS
; Function compile flags: /Odtp /ZI
; File C:\Program Files\Microsoft Visual Studio\2022\Preview\VC\Tools\MSVC\14.38.33030\include\vector
;	COMDAT ?_Getal@?$vector@GV?$allocator@G@std@@@std@@AEBAAEBV?$allocator@G@2@XZ
_TEXT	SEGMENT
this$ = 80
?_Getal@?$vector@GV?$allocator@G@std@@@std@@AEBAAEBV?$allocator@G@2@XZ PROC ; std::vector<unsigned short,std::allocator<unsigned short> >::_Getal, COMDAT

; 2193 :     _NODISCARD _CONSTEXPR20 const _Alty& _Getal() const noexcept {

$LN3:
  00000	48 89 4c 24 08	 mov	 QWORD PTR [rsp+8], rcx
  00005	55		 push	 rbp
  00006	48 83 ec 60	 sub	 rsp, 96			; 00000060H
  0000a	48 8d 6c 24 20	 lea	 rbp, QWORD PTR [rsp+32]
  0000f	48 8d 0d 00 00
	00 00		 lea	 rcx, OFFSET FLAT:__14F7CB70_vector
  00016	e8 00 00 00 00	 call	 __CheckForDebuggerJustMyCode

; 2194 :         return _Mypair._Get_first();

  0001b	48 8b 45 50	 mov	 rax, QWORD PTR this$[rbp]
  0001f	48 8b c8	 mov	 rcx, rax
  00022	e8 00 00 00 00	 call	 ?_Get_first@?$_Compressed_pair@V?$allocator@G@std@@V?$_Vector_val@U?$_Simple_types@G@std@@@2@$00@std@@QEBAAEBV?$allocator@G@2@XZ ; std::_Compressed_pair<std::allocator<unsigned short>,std::_Vector_val<std::_Simple_types<unsigned short> >,1>::_Get_first

; 2195 :     }

  00027	48 8d 65 40	 lea	 rsp, QWORD PTR [rbp+64]
  0002b	5d		 pop	 rbp
  0002c	c3		 ret	 0
?_Getal@?$vector@GV?$allocator@G@std@@@std@@AEBAAEBV?$allocator@G@2@XZ ENDP ; std::vector<unsigned short,std::allocator<unsigned short> >::_Getal
_TEXT	ENDS
; Function compile flags: /Odtp /ZI
; File C:\Program Files\Microsoft Visual Studio\2022\Preview\VC\Tools\MSVC\14.38.33030\include\vector
;	COMDAT ?_Getal@?$vector@GV?$allocator@G@std@@@std@@AEAAAEAV?$allocator@G@2@XZ
_TEXT	SEGMENT
this$ = 80
?_Getal@?$vector@GV?$allocator@G@std@@@std@@AEAAAEAV?$allocator@G@2@XZ PROC ; std::vector<unsigned short,std::allocator<unsigned short> >::_Getal, COMDAT

; 2189 :     _NODISCARD _CONSTEXPR20 _Alty& _Getal() noexcept {

$LN3:
  00000	48 89 4c 24 08	 mov	 QWORD PTR [rsp+8], rcx
  00005	55		 push	 rbp
  00006	48 83 ec 60	 sub	 rsp, 96			; 00000060H
  0000a	48 8d 6c 24 20	 lea	 rbp, QWORD PTR [rsp+32]
  0000f	48 8d 0d 00 00
	00 00		 lea	 rcx, OFFSET FLAT:__14F7CB70_vector
  00016	e8 00 00 00 00	 call	 __CheckForDebuggerJustMyCode

; 2190 :         return _Mypair._Get_first();

  0001b	48 8b 45 50	 mov	 rax, QWORD PTR this$[rbp]
  0001f	48 8b c8	 mov	 rcx, rax
  00022	e8 00 00 00 00	 call	 ?_Get_first@?$_Compressed_pair@V?$allocator@G@std@@V?$_Vector_val@U?$_Simple_types@G@std@@@2@$00@std@@QEAAAEAV?$allocator@G@2@XZ ; std::_Compressed_pair<std::allocator<unsigned short>,std::_Vector_val<std::_Simple_types<unsigned short> >,1>::_Get_first

; 2191 :     }

  00027	48 8d 65 40	 lea	 rsp, QWORD PTR [rbp+64]
  0002b	5d		 pop	 rbp
  0002c	c3		 ret	 0
?_Getal@?$vector@GV?$allocator@G@std@@@std@@AEAAAEAV?$allocator@G@2@XZ ENDP ; std::vector<unsigned short,std::allocator<unsigned short> >::_Getal
_TEXT	ENDS
; Function compile flags: /Odtp /ZI
; File C:\Program Files\Microsoft Visual Studio\2022\Preview\VC\Tools\MSVC\14.38.33030\include\vector
;	COMDAT ?_Xlength@?$vector@GV?$allocator@G@std@@@std@@CAXXZ
_TEXT	SEGMENT
?_Xlength@?$vector@GV?$allocator@G@std@@@std@@CAXXZ PROC ; std::vector<unsigned short,std::allocator<unsigned short> >::_Xlength, COMDAT

; 2146 :     [[noreturn]] static void _Xlength() {

$LN3:
  00000	40 55		 push	 rbp
  00002	48 83 ec 60	 sub	 rsp, 96			; 00000060H
  00006	48 8d 6c 24 20	 lea	 rbp, QWORD PTR [rsp+32]
  0000b	48 8d 0d 00 00
	00 00		 lea	 rcx, OFFSET FLAT:__14F7CB70_vector
  00012	e8 00 00 00 00	 call	 __CheckForDebuggerJustMyCode

; 2147 :         _Xlength_error("vector too long");

  00017	48 8d 0d 00 00
	00 00		 lea	 rcx, OFFSET FLAT:??_C@_0BA@FOIKENOD@vector?5too?5long@
  0001e	e8 00 00 00 00	 call	 ?_Xlength_error@std@@YAXPEBD@Z ; std::_Xlength_error
$LN2@Xlength:

; 2148 :     }

  00023	48 8d 65 40	 lea	 rsp, QWORD PTR [rbp+64]
  00027	5d		 pop	 rbp
  00028	c3		 ret	 0
?_Xlength@?$vector@GV?$allocator@G@std@@@std@@CAXXZ ENDP ; std::vector<unsigned short,std::allocator<unsigned short> >::_Xlength
_TEXT	ENDS
; Function compile flags: /Odtp /ZI
; File C:\Program Files\Microsoft Visual Studio\2022\Preview\VC\Tools\MSVC\14.38.33030\include\vector
;	COMDAT ?_Tidy@?$vector@GV?$allocator@G@std@@@std@@AEAAXXZ
_TEXT	SEGMENT
_Al$ = 0
_My_data$ = 8
_Myfirst$ = 16
_Mylast$ = 24
_Myend$ = 32
this$ = 128
?_Tidy@?$vector@GV?$allocator@G@std@@@std@@AEAAXXZ PROC	; std::vector<unsigned short,std::allocator<unsigned short> >::_Tidy, COMDAT

; 2044 :     _CONSTEXPR20 void _Tidy() noexcept { // free all storage

$LN4:
  00000	48 89 4c 24 08	 mov	 QWORD PTR [rsp+8], rcx
  00005	55		 push	 rbp
  00006	48 81 ec 90 00
	00 00		 sub	 rsp, 144		; 00000090H
  0000d	48 8d 6c 24 20	 lea	 rbp, QWORD PTR [rsp+32]
  00012	48 8d 0d 00 00
	00 00		 lea	 rcx, OFFSET FLAT:__14F7CB70_vector
  00019	e8 00 00 00 00	 call	 __CheckForDebuggerJustMyCode

; 2045 :         auto& _Al         = _Getal();

  0001e	48 8b 8d 80 00
	00 00		 mov	 rcx, QWORD PTR this$[rbp]
  00025	e8 00 00 00 00	 call	 ?_Getal@?$vector@GV?$allocator@G@std@@@std@@AEAAAEAV?$allocator@G@2@XZ ; std::vector<unsigned short,std::allocator<unsigned short> >::_Getal
  0002a	48 89 45 00	 mov	 QWORD PTR _Al$[rbp], rax

; 2046 :         auto& _My_data    = _Mypair._Myval2;

  0002e	48 8b 85 80 00
	00 00		 mov	 rax, QWORD PTR this$[rbp]
  00035	48 89 45 08	 mov	 QWORD PTR _My_data$[rbp], rax

; 2047 :         pointer& _Myfirst = _My_data._Myfirst;

  00039	48 8b 45 08	 mov	 rax, QWORD PTR _My_data$[rbp]
  0003d	48 83 c0 08	 add	 rax, 8
  00041	48 89 45 10	 mov	 QWORD PTR _Myfirst$[rbp], rax

; 2048 :         pointer& _Mylast  = _My_data._Mylast;

  00045	48 8b 45 08	 mov	 rax, QWORD PTR _My_data$[rbp]
  00049	48 83 c0 10	 add	 rax, 16
  0004d	48 89 45 18	 mov	 QWORD PTR _Mylast$[rbp], rax

; 2049 :         pointer& _Myend   = _My_data._Myend;

  00051	48 8b 45 08	 mov	 rax, QWORD PTR _My_data$[rbp]
  00055	48 83 c0 18	 add	 rax, 24
  00059	48 89 45 20	 mov	 QWORD PTR _Myend$[rbp], rax

; 2050 : 
; 2051 :         _My_data._Orphan_all();

  0005d	48 8b 4d 08	 mov	 rcx, QWORD PTR _My_data$[rbp]
  00061	e8 00 00 00 00	 call	 ?_Orphan_all@_Container_base12@std@@QEAAXXZ ; std::_Container_base12::_Orphan_all

; 2052 : 
; 2053 :         if (_Myfirst) { // destroy and deallocate old array

  00066	48 8b 45 10	 mov	 rax, QWORD PTR _Myfirst$[rbp]
  0006a	48 83 38 00	 cmp	 QWORD PTR [rax], 0
  0006e	74 5f		 je	 SHORT $LN2@Tidy

; 2054 :             _Destroy_range(_Myfirst, _Mylast, _Al);

  00070	4c 8b 45 00	 mov	 r8, QWORD PTR _Al$[rbp]
  00074	48 8b 45 18	 mov	 rax, QWORD PTR _Mylast$[rbp]
  00078	48 8b 10	 mov	 rdx, QWORD PTR [rax]
  0007b	48 8b 45 10	 mov	 rax, QWORD PTR _Myfirst$[rbp]
  0007f	48 8b 08	 mov	 rcx, QWORD PTR [rax]
  00082	e8 00 00 00 00	 call	 ??$_Destroy_range@V?$allocator@G@std@@@std@@YAXPEAGQEAGAEAV?$allocator@G@0@@Z ; std::_Destroy_range<std::allocator<unsigned short> >

; 2055 :             _ASAN_VECTOR_REMOVE;
; 2056 :             _Al.deallocate(_Myfirst, static_cast<size_type>(_Myend - _Myfirst));

  00087	48 8b 45 20	 mov	 rax, QWORD PTR _Myend$[rbp]
  0008b	48 8b 4d 10	 mov	 rcx, QWORD PTR _Myfirst$[rbp]
  0008f	48 8b 09	 mov	 rcx, QWORD PTR [rcx]
  00092	48 8b 00	 mov	 rax, QWORD PTR [rax]
  00095	48 2b c1	 sub	 rax, rcx
  00098	48 d1 f8	 sar	 rax, 1
  0009b	4c 8b c0	 mov	 r8, rax
  0009e	48 8b 45 10	 mov	 rax, QWORD PTR _Myfirst$[rbp]
  000a2	48 8b 10	 mov	 rdx, QWORD PTR [rax]
  000a5	48 8b 4d 00	 mov	 rcx, QWORD PTR _Al$[rbp]
  000a9	e8 00 00 00 00	 call	 ?deallocate@?$allocator@G@std@@QEAAXQEAG_K@Z ; std::allocator<unsigned short>::deallocate

; 2057 : 
; 2058 :             _Myfirst = nullptr;

  000ae	48 8b 45 10	 mov	 rax, QWORD PTR _Myfirst$[rbp]
  000b2	48 c7 00 00 00
	00 00		 mov	 QWORD PTR [rax], 0

; 2059 :             _Mylast  = nullptr;

  000b9	48 8b 45 18	 mov	 rax, QWORD PTR _Mylast$[rbp]
  000bd	48 c7 00 00 00
	00 00		 mov	 QWORD PTR [rax], 0

; 2060 :             _Myend   = nullptr;

  000c4	48 8b 45 20	 mov	 rax, QWORD PTR _Myend$[rbp]
  000c8	48 c7 00 00 00
	00 00		 mov	 QWORD PTR [rax], 0
$LN2@Tidy:

; 2061 :         }
; 2062 :     }

  000cf	48 8d 65 70	 lea	 rsp, QWORD PTR [rbp+112]
  000d3	5d		 pop	 rbp
  000d4	c3		 ret	 0
?_Tidy@?$vector@GV?$allocator@G@std@@@std@@AEAAXXZ ENDP	; std::vector<unsigned short,std::allocator<unsigned short> >::_Tidy
_TEXT	ENDS
; Function compile flags: /Odtp /ZI
; File C:\Program Files\Microsoft Visual Studio\2022\Preview\VC\Tools\MSVC\14.38.33030\include\vector
;	COMDAT ?_Buy_nonzero@?$vector@GV?$allocator@G@std@@@std@@AEAAX_K@Z
_TEXT	SEGMENT
this$ = 80
_Newcapacity$ = 88
?_Buy_nonzero@?$vector@GV?$allocator@G@std@@@std@@AEAAX_K@Z PROC ; std::vector<unsigned short,std::allocator<unsigned short> >::_Buy_nonzero, COMDAT

; 2004 :     _CONSTEXPR20 void _Buy_nonzero(const size_type _Newcapacity) {

$LN4:
  00000	48 89 54 24 10	 mov	 QWORD PTR [rsp+16], rdx
  00005	48 89 4c 24 08	 mov	 QWORD PTR [rsp+8], rcx
  0000a	55		 push	 rbp
  0000b	48 83 ec 60	 sub	 rsp, 96			; 00000060H
  0000f	48 8d 6c 24 20	 lea	 rbp, QWORD PTR [rsp+32]
  00014	48 8d 0d 00 00
	00 00		 lea	 rcx, OFFSET FLAT:__14F7CB70_vector
  0001b	e8 00 00 00 00	 call	 __CheckForDebuggerJustMyCode

; 2005 :         // allocate array with _Newcapacity elements
; 2006 : #ifdef _ENABLE_STL_INTERNAL_CHECK
; 2007 :         auto& _My_data    = _Mypair._Myval2;
; 2008 :         pointer& _Myfirst = _My_data._Myfirst;
; 2009 :         pointer& _Mylast  = _My_data._Mylast;
; 2010 :         pointer& _Myend   = _My_data._Myend;
; 2011 :         _STL_INTERNAL_CHECK(!_Myfirst && !_Mylast && !_Myend); // check that *this is tidy
; 2012 :         _STL_INTERNAL_CHECK(0 < _Newcapacity);
; 2013 : #endif // _ENABLE_STL_INTERNAL_CHECK
; 2014 : 
; 2015 :         if (_Newcapacity > max_size()) {

  00020	48 8b 4d 50	 mov	 rcx, QWORD PTR this$[rbp]
  00024	e8 00 00 00 00	 call	 ?max_size@?$vector@GV?$allocator@G@std@@@std@@QEBA_KXZ ; std::vector<unsigned short,std::allocator<unsigned short> >::max_size
  00029	48 39 45 58	 cmp	 QWORD PTR _Newcapacity$[rbp], rax
  0002d	76 05		 jbe	 SHORT $LN2@Buy_nonzer

; 2016 :             _Xlength();

  0002f	e8 00 00 00 00	 call	 ?_Xlength@?$vector@GV?$allocator@G@std@@@std@@CAXXZ ; std::vector<unsigned short,std::allocator<unsigned short> >::_Xlength
$LN2@Buy_nonzer:

; 2017 :         }
; 2018 : 
; 2019 :         _Buy_raw(_Newcapacity);

  00034	48 8b 55 58	 mov	 rdx, QWORD PTR _Newcapacity$[rbp]
  00038	48 8b 4d 50	 mov	 rcx, QWORD PTR this$[rbp]
  0003c	e8 00 00 00 00	 call	 ?_Buy_raw@?$vector@GV?$allocator@G@std@@@std@@AEAAX_K@Z ; std::vector<unsigned short,std::allocator<unsigned short> >::_Buy_raw
$LN3@Buy_nonzer:

; 2020 :     }

  00041	48 8d 65 40	 lea	 rsp, QWORD PTR [rbp+64]
  00045	5d		 pop	 rbp
  00046	c3		 ret	 0
?_Buy_nonzero@?$vector@GV?$allocator@G@std@@@std@@AEAAX_K@Z ENDP ; std::vector<unsigned short,std::allocator<unsigned short> >::_Buy_nonzero
_TEXT	ENDS
; Function compile flags: /Odtp /ZI
; File C:\Program Files\Microsoft Visual Studio\2022\Preview\VC\Tools\MSVC\14.38.33030\include\vector
;	COMDAT ?_Buy_raw@?$vector@GV?$allocator@G@std@@@std@@AEAAX_K@Z
_TEXT	SEGMENT
_My_data$ = 0
_Myfirst$ = 8
_Mylast$ = 16
_Myend$ = 24
_Newvec$ = 32
this$ = 128
_Newcapacity$ = 136
?_Buy_raw@?$vector@GV?$allocator@G@std@@@std@@AEAAX_K@Z PROC ; std::vector<unsigned short,std::allocator<unsigned short> >::_Buy_raw, COMDAT

; 1988 :     _CONSTEXPR20 void _Buy_raw(size_type _Newcapacity) {

$LN3:
  00000	48 89 54 24 10	 mov	 QWORD PTR [rsp+16], rdx
  00005	48 89 4c 24 08	 mov	 QWORD PTR [rsp+8], rcx
  0000a	55		 push	 rbp
  0000b	48 81 ec 90 00
	00 00		 sub	 rsp, 144		; 00000090H
  00012	48 8d 6c 24 20	 lea	 rbp, QWORD PTR [rsp+32]
  00017	48 8d 0d 00 00
	00 00		 lea	 rcx, OFFSET FLAT:__14F7CB70_vector
  0001e	e8 00 00 00 00	 call	 __CheckForDebuggerJustMyCode

; 1989 :         // allocate array with _Newcapacity elements
; 1990 :         auto& _My_data    = _Mypair._Myval2;

  00023	48 8b 85 80 00
	00 00		 mov	 rax, QWORD PTR this$[rbp]
  0002a	48 89 45 00	 mov	 QWORD PTR _My_data$[rbp], rax

; 1991 :         pointer& _Myfirst = _My_data._Myfirst;

  0002e	48 8b 45 00	 mov	 rax, QWORD PTR _My_data$[rbp]
  00032	48 83 c0 08	 add	 rax, 8
  00036	48 89 45 08	 mov	 QWORD PTR _Myfirst$[rbp], rax

; 1992 :         pointer& _Mylast  = _My_data._Mylast;

  0003a	48 8b 45 00	 mov	 rax, QWORD PTR _My_data$[rbp]
  0003e	48 83 c0 10	 add	 rax, 16
  00042	48 89 45 10	 mov	 QWORD PTR _Mylast$[rbp], rax

; 1993 :         pointer& _Myend   = _My_data._Myend;

  00046	48 8b 45 00	 mov	 rax, QWORD PTR _My_data$[rbp]
  0004a	48 83 c0 18	 add	 rax, 24
  0004e	48 89 45 18	 mov	 QWORD PTR _Myend$[rbp], rax

; 1994 : 
; 1995 :         _STL_INTERNAL_CHECK(!_Myfirst && !_Mylast && !_Myend); // check that *this is tidy
; 1996 :         _STL_INTERNAL_CHECK(0 < _Newcapacity && _Newcapacity <= max_size());
; 1997 : 
; 1998 :         const pointer _Newvec = _Allocate_at_least_helper(_Getal(), _Newcapacity);

  00052	48 8b 8d 80 00
	00 00		 mov	 rcx, QWORD PTR this$[rbp]
  00059	e8 00 00 00 00	 call	 ?_Getal@?$vector@GV?$allocator@G@std@@@std@@AEAAAEAV?$allocator@G@2@XZ ; std::vector<unsigned short,std::allocator<unsigned short> >::_Getal
  0005e	48 8d 95 88 00
	00 00		 lea	 rdx, QWORD PTR _Newcapacity$[rbp]
  00065	48 8b c8	 mov	 rcx, rax
  00068	e8 00 00 00 00	 call	 ??$_Allocate_at_least_helper@V?$allocator@G@std@@@std@@YAPEAGAEAV?$allocator@G@0@AEA_K@Z ; std::_Allocate_at_least_helper<std::allocator<unsigned short> >
  0006d	48 89 45 20	 mov	 QWORD PTR _Newvec$[rbp], rax

; 1999 :         _Myfirst              = _Newvec;

  00071	48 8b 45 08	 mov	 rax, QWORD PTR _Myfirst$[rbp]
  00075	48 8b 4d 20	 mov	 rcx, QWORD PTR _Newvec$[rbp]
  00079	48 89 08	 mov	 QWORD PTR [rax], rcx

; 2000 :         _Mylast               = _Newvec;

  0007c	48 8b 45 10	 mov	 rax, QWORD PTR _Mylast$[rbp]
  00080	48 8b 4d 20	 mov	 rcx, QWORD PTR _Newvec$[rbp]
  00084	48 89 08	 mov	 QWORD PTR [rax], rcx

; 2001 :         _Myend                = _Newvec + _Newcapacity;

  00087	48 8b 45 20	 mov	 rax, QWORD PTR _Newvec$[rbp]
  0008b	48 8b 8d 88 00
	00 00		 mov	 rcx, QWORD PTR _Newcapacity$[rbp]
  00092	48 8d 04 48	 lea	 rax, QWORD PTR [rax+rcx*2]
  00096	48 8b 4d 18	 mov	 rcx, QWORD PTR _Myend$[rbp]
  0009a	48 89 01	 mov	 QWORD PTR [rcx], rax

; 2002 :     }

  0009d	48 8d 65 70	 lea	 rsp, QWORD PTR [rbp+112]
  000a1	5d		 pop	 rbp
  000a2	c3		 ret	 0
?_Buy_raw@?$vector@GV?$allocator@G@std@@@std@@AEAAX_K@Z ENDP ; std::vector<unsigned short,std::allocator<unsigned short> >::_Buy_raw
_TEXT	ENDS
; Function compile flags: /Odtp /ZI
; File C:\Program Files\Microsoft Visual Studio\2022\Preview\VC\Tools\MSVC\14.38.33030\include\vector
;	COMDAT ?max_size@?$vector@GV?$allocator@G@std@@@std@@QEBA_KXZ
_TEXT	SEGMENT
$T1 = 64
$T2 = 72
this$ = 96
?max_size@?$vector@GV?$allocator@G@std@@@std@@QEBA_KXZ PROC ; std::vector<unsigned short,std::allocator<unsigned short> >::max_size, COMDAT

; 1881 :     _NODISCARD _CONSTEXPR20 size_type max_size() const noexcept {

$LN3:
  00000	48 89 4c 24 08	 mov	 QWORD PTR [rsp+8], rcx
  00005	55		 push	 rbp
  00006	48 83 ec 70	 sub	 rsp, 112		; 00000070H
  0000a	48 8d 6c 24 20	 lea	 rbp, QWORD PTR [rsp+32]
  0000f	48 8d 0d 00 00
	00 00		 lea	 rcx, OFFSET FLAT:__14F7CB70_vector
  00016	e8 00 00 00 00	 call	 __CheckForDebuggerJustMyCode

; 1882 :         return (_STD min)(

  0001b	48 8b 4d 60	 mov	 rcx, QWORD PTR this$[rbp]
  0001f	e8 00 00 00 00	 call	 ?_Getal@?$vector@GV?$allocator@G@std@@@std@@AEBAAEBV?$allocator@G@2@XZ ; std::vector<unsigned short,std::allocator<unsigned short> >::_Getal
  00024	48 8b c8	 mov	 rcx, rax
  00027	e8 00 00 00 00	 call	 ?max_size@?$_Default_allocator_traits@V?$allocator@G@std@@@std@@SA_KAEBV?$allocator@G@2@@Z ; std::_Default_allocator_traits<std::allocator<unsigned short> >::max_size
  0002c	48 89 45 40	 mov	 QWORD PTR $T1[rbp], rax
  00030	e8 00 00 00 00	 call	 ?max@?$numeric_limits@_J@std@@SA_JXZ ; std::numeric_limits<__int64>::max
  00035	48 89 45 48	 mov	 QWORD PTR $T2[rbp], rax
  00039	48 8d 55 40	 lea	 rdx, QWORD PTR $T1[rbp]
  0003d	48 8d 4d 48	 lea	 rcx, QWORD PTR $T2[rbp]
  00041	e8 00 00 00 00	 call	 ??$min@_K@std@@YAAEB_KAEB_K0@Z ; std::min<unsigned __int64>
  00046	48 8b 00	 mov	 rax, QWORD PTR [rax]

; 1883 :             static_cast<size_type>((numeric_limits<difference_type>::max)()), _Alty_traits::max_size(_Getal()));
; 1884 :     }

  00049	48 8d 65 50	 lea	 rsp, QWORD PTR [rbp+80]
  0004d	5d		 pop	 rbp
  0004e	c3		 ret	 0
?max_size@?$vector@GV?$allocator@G@std@@@std@@QEBA_KXZ ENDP ; std::vector<unsigned short,std::allocator<unsigned short> >::max_size
_TEXT	ENDS
; Function compile flags: /Odtp /ZI
; File C:\Program Files\Microsoft Visual Studio\2022\Preview\VC\Tools\MSVC\14.38.33030\include\vector
;	COMDAT ?size@?$vector@GV?$allocator@G@std@@@std@@QEBA_KXZ
_TEXT	SEGMENT
_My_data$ = 0
this$ = 96
?size@?$vector@GV?$allocator@G@std@@@std@@QEBA_KXZ PROC	; std::vector<unsigned short,std::allocator<unsigned short> >::size, COMDAT

; 1876 :     _NODISCARD _CONSTEXPR20 size_type size() const noexcept {

$LN3:
  00000	48 89 4c 24 08	 mov	 QWORD PTR [rsp+8], rcx
  00005	55		 push	 rbp
  00006	48 83 ec 70	 sub	 rsp, 112		; 00000070H
  0000a	48 8d 6c 24 20	 lea	 rbp, QWORD PTR [rsp+32]
  0000f	48 8d 0d 00 00
	00 00		 lea	 rcx, OFFSET FLAT:__14F7CB70_vector
  00016	e8 00 00 00 00	 call	 __CheckForDebuggerJustMyCode

; 1877 :         auto& _My_data = _Mypair._Myval2;

  0001b	48 8b 45 60	 mov	 rax, QWORD PTR this$[rbp]
  0001f	48 89 45 00	 mov	 QWORD PTR _My_data$[rbp], rax

; 1878 :         return static_cast<size_type>(_My_data._Mylast - _My_data._Myfirst);

  00023	48 8b 45 00	 mov	 rax, QWORD PTR _My_data$[rbp]
  00027	48 8b 4d 00	 mov	 rcx, QWORD PTR _My_data$[rbp]
  0002b	48 8b 49 08	 mov	 rcx, QWORD PTR [rcx+8]
  0002f	48 8b 40 10	 mov	 rax, QWORD PTR [rax+16]
  00033	48 2b c1	 sub	 rax, rcx
  00036	48 d1 f8	 sar	 rax, 1

; 1879 :     }

  00039	48 8d 65 50	 lea	 rsp, QWORD PTR [rbp+80]
  0003d	5d		 pop	 rbp
  0003e	c3		 ret	 0
?size@?$vector@GV?$allocator@G@std@@@std@@QEBA_KXZ ENDP	; std::vector<unsigned short,std::allocator<unsigned short> >::size
_TEXT	ENDS
; Function compile flags: /Odtp /ZI
; File C:\Program Files\Microsoft Visual Studio\2022\Preview\VC\Tools\MSVC\14.38.33030\include\vector
;	COMDAT ?data@?$vector@GV?$allocator@G@std@@@std@@QEAAPEAGXZ
_TEXT	SEGMENT
this$ = 80
?data@?$vector@GV?$allocator@G@std@@@std@@QEAAPEAGXZ PROC ; std::vector<unsigned short,std::allocator<unsigned short> >::data, COMDAT

; 1795 :     _NODISCARD _CONSTEXPR20 _Ty* data() noexcept {

$LN3:
  00000	48 89 4c 24 08	 mov	 QWORD PTR [rsp+8], rcx
  00005	55		 push	 rbp
  00006	48 83 ec 60	 sub	 rsp, 96			; 00000060H
  0000a	48 8d 6c 24 20	 lea	 rbp, QWORD PTR [rsp+32]
  0000f	48 8d 0d 00 00
	00 00		 lea	 rcx, OFFSET FLAT:__14F7CB70_vector
  00016	e8 00 00 00 00	 call	 __CheckForDebuggerJustMyCode

; 1796 :         return _Unfancy_maybe_null(_Mypair._Myval2._Myfirst);

  0001b	48 8b 45 50	 mov	 rax, QWORD PTR this$[rbp]
  0001f	48 8b 48 08	 mov	 rcx, QWORD PTR [rax+8]
  00023	e8 00 00 00 00	 call	 ??$_Unfancy_maybe_null@G@std@@YAPEAGPEAG@Z ; std::_Unfancy_maybe_null<unsigned short>

; 1797 :     }

  00028	48 8d 65 40	 lea	 rsp, QWORD PTR [rbp+64]
  0002c	5d		 pop	 rbp
  0002d	c3		 ret	 0
?data@?$vector@GV?$allocator@G@std@@@std@@QEAAPEAGXZ ENDP ; std::vector<unsigned short,std::allocator<unsigned short> >::data
_TEXT	ENDS
; Function compile flags: /Odtp /ZI
; File C:\Program Files\Microsoft Visual Studio\2022\Preview\VC\Tools\MSVC\14.38.33030\include\vector
;	COMDAT ??1?$vector@GV?$allocator@G@std@@@std@@QEAA@XZ
_TEXT	SEGMENT
_Alproxy$ = 0
$S1$ = 8
$T1 = 73
this$ = 112
??1?$vector@GV?$allocator@G@std@@@std@@QEAA@XZ PROC	; std::vector<unsigned short,std::allocator<unsigned short> >::~vector<unsigned short,std::allocator<unsigned short> >, COMDAT

; 765  :     _CONSTEXPR20 ~vector() noexcept {

$LN3:
  00000	48 89 4c 24 08	 mov	 QWORD PTR [rsp+8], rcx
  00005	55		 push	 rbp
  00006	48 81 ec 80 00
	00 00		 sub	 rsp, 128		; 00000080H
  0000d	48 8d 6c 24 20	 lea	 rbp, QWORD PTR [rsp+32]
  00012	48 8d 0d 00 00
	00 00		 lea	 rcx, OFFSET FLAT:__14F7CB70_vector
  00019	e8 00 00 00 00	 call	 __CheckForDebuggerJustMyCode

; 766  :         _Tidy();

  0001e	48 8b 4d 70	 mov	 rcx, QWORD PTR this$[rbp]
  00022	e8 00 00 00 00	 call	 ?_Tidy@?$vector@GV?$allocator@G@std@@@std@@AEAAXXZ ; std::vector<unsigned short,std::allocator<unsigned short> >::_Tidy

; 767  : #if _ITERATOR_DEBUG_LEVEL != 0
; 768  :         auto&& _Alproxy = _GET_PROXY_ALLOCATOR(_Alty, _Getal());

  00027	48 8b 4d 70	 mov	 rcx, QWORD PTR this$[rbp]
  0002b	e8 00 00 00 00	 call	 ?_Getal@?$vector@GV?$allocator@G@std@@@std@@AEAAAEAV?$allocator@G@2@XZ ; std::vector<unsigned short,std::allocator<unsigned short> >::_Getal
  00030	48 8b d0	 mov	 rdx, rax
  00033	48 8d 4d 08	 lea	 rcx, QWORD PTR $S1$[rbp]
  00037	e8 00 00 00 00	 call	 ??$?0G@?$allocator@U_Container_proxy@std@@@std@@QEAA@AEBV?$allocator@G@1@@Z ; std::allocator<std::_Container_proxy>::allocator<std::_Container_proxy><unsigned short>
  0003c	48 8d 45 08	 lea	 rax, QWORD PTR $S1$[rbp]
  00040	48 89 45 00	 mov	 QWORD PTR _Alproxy$[rbp], rax

; 769  :         _Delete_plain_internal(_Alproxy, _STD exchange(_Mypair._Myval2._Myproxy, nullptr));

  00044	48 c7 45 49 00
	00 00 00	 mov	 QWORD PTR $T1[rbp], 0
  0004c	48 8b 45 70	 mov	 rax, QWORD PTR this$[rbp]
  00050	48 8d 55 49	 lea	 rdx, QWORD PTR $T1[rbp]
  00054	48 8b c8	 mov	 rcx, rax
  00057	e8 00 00 00 00	 call	 ??$exchange@PEAU_Container_proxy@std@@$$T@std@@YAPEAU_Container_proxy@0@AEAPEAU10@$$QEA$$T@Z ; std::exchange<std::_Container_proxy *,std::nullptr_t>
  0005c	48 8b d0	 mov	 rdx, rax
  0005f	48 8b 4d 00	 mov	 rcx, QWORD PTR _Alproxy$[rbp]
  00063	e8 00 00 00 00	 call	 ??$_Delete_plain_internal@V?$allocator@U_Container_proxy@std@@@std@@@std@@YAXAEAV?$allocator@U_Container_proxy@std@@@0@QEAU_Container_proxy@0@@Z ; std::_Delete_plain_internal<std::allocator<std::_Container_proxy> >

; 770  : #endif // _ITERATOR_DEBUG_LEVEL != 0
; 771  :     }

  00068	48 8d 65 60	 lea	 rsp, QWORD PTR [rbp+96]
  0006c	5d		 pop	 rbp
  0006d	c3		 ret	 0
??1?$vector@GV?$allocator@G@std@@@std@@QEAA@XZ ENDP	; std::vector<unsigned short,std::allocator<unsigned short> >::~vector<unsigned short,std::allocator<unsigned short> >
_TEXT	ENDS
; Function compile flags: /Odtp /ZI
; File C:\Program Files\Microsoft Visual Studio\2022\Preview\VC\Tools\MSVC\14.38.33030\include\vector
;	COMDAT ??0?$vector@GV?$allocator@G@std@@@std@@QEAA@AEBV01@@Z
_TEXT	SEGMENT
_Right_data$ = 0
_Count$ = 8
$T1 = 80
$T2 = 81
$T3 = 82
tv78 = 88
tv76 = 96
this$ = 128
_Right$ = 136
??0?$vector@GV?$allocator@G@std@@@std@@QEAA@AEBV01@@Z PROC ; std::vector<unsigned short,std::allocator<unsigned short> >::vector<unsigned short,std::allocator<unsigned short> >, COMDAT

; 682  :         : _Mypair(_One_then_variadic_args_t{}, _Alty_traits::select_on_container_copy_construction(_Right._Getal())) {

$LN3:
  00000	48 89 54 24 10	 mov	 QWORD PTR [rsp+16], rdx
  00005	48 89 4c 24 08	 mov	 QWORD PTR [rsp+8], rcx
  0000a	55		 push	 rbp
  0000b	48 81 ec 90 00
	00 00		 sub	 rsp, 144		; 00000090H
  00012	48 8d 6c 24 20	 lea	 rbp, QWORD PTR [rsp+32]
  00017	48 8d 0d 00 00
	00 00		 lea	 rcx, OFFSET FLAT:__14F7CB70_vector
  0001e	e8 00 00 00 00	 call	 __CheckForDebuggerJustMyCode
  00023	48 8b 85 80 00
	00 00		 mov	 rax, QWORD PTR this$[rbp]
  0002a	48 89 45 58	 mov	 QWORD PTR tv78[rbp], rax
  0002e	48 8b 8d 88 00
	00 00		 mov	 rcx, QWORD PTR _Right$[rbp]
  00035	e8 00 00 00 00	 call	 ?_Getal@?$vector@GV?$allocator@G@std@@@std@@AEBAAEBV?$allocator@G@2@XZ ; std::vector<unsigned short,std::allocator<unsigned short> >::_Getal
  0003a	48 8b d0	 mov	 rdx, rax
  0003d	48 8d 4d 50	 lea	 rcx, QWORD PTR $T1[rbp]
  00041	e8 00 00 00 00	 call	 ?select_on_container_copy_construction@?$_Default_allocator_traits@V?$allocator@G@std@@@std@@SA?AV?$allocator@G@2@AEBV32@@Z ; std::_Default_allocator_traits<std::allocator<unsigned short> >::select_on_container_copy_construction
  00046	48 89 45 60	 mov	 QWORD PTR tv76[rbp], rax
  0004a	0f b6 45 51	 movzx	 eax, BYTE PTR $T2[rbp]
  0004e	88 45 52	 mov	 BYTE PTR $T3[rbp], al
  00051	4c 8b 45 60	 mov	 r8, QWORD PTR tv76[rbp]
  00055	0f b6 55 52	 movzx	 edx, BYTE PTR $T3[rbp]
  00059	48 8b 4d 58	 mov	 rcx, QWORD PTR tv78[rbp]
  0005d	e8 00 00 00 00	 call	 ??$?0V?$allocator@G@std@@$$V@?$_Compressed_pair@V?$allocator@G@std@@V?$_Vector_val@U?$_Simple_types@G@std@@@2@$00@std@@QEAA@U_One_then_variadic_args_t@1@$$QEAV?$allocator@G@1@@Z ; std::_Compressed_pair<std::allocator<unsigned short>,std::_Vector_val<std::_Simple_types<unsigned short> >,1>::_Compressed_pair<std::allocator<unsigned short>,std::_Vector_val<std::_Simple_types<unsigned short> >,1><std::allocator<unsigned short> >

; 683  :         const auto& _Right_data = _Right._Mypair._Myval2;

  00062	48 8b 85 88 00
	00 00		 mov	 rax, QWORD PTR _Right$[rbp]
  00069	48 89 45 00	 mov	 QWORD PTR _Right_data$[rbp], rax

; 684  :         const auto _Count       = static_cast<size_type>(_Right_data._Mylast - _Right_data._Myfirst);

  0006d	48 8b 45 00	 mov	 rax, QWORD PTR _Right_data$[rbp]
  00071	48 8b 4d 00	 mov	 rcx, QWORD PTR _Right_data$[rbp]
  00075	48 8b 49 08	 mov	 rcx, QWORD PTR [rcx+8]
  00079	48 8b 40 10	 mov	 rax, QWORD PTR [rax+16]
  0007d	48 2b c1	 sub	 rax, rcx
  00080	48 d1 f8	 sar	 rax, 1
  00083	48 89 45 08	 mov	 QWORD PTR _Count$[rbp], rax

; 685  :         _Construct_n(_Count, _Right_data._Myfirst, _Right_data._Mylast);

  00087	48 8b 45 00	 mov	 rax, QWORD PTR _Right_data$[rbp]
  0008b	48 83 c0 10	 add	 rax, 16
  0008f	48 8b 4d 00	 mov	 rcx, QWORD PTR _Right_data$[rbp]
  00093	48 83 c1 08	 add	 rcx, 8
  00097	4c 8b c8	 mov	 r9, rax
  0009a	4c 8b c1	 mov	 r8, rcx
  0009d	48 8b 55 08	 mov	 rdx, QWORD PTR _Count$[rbp]
  000a1	48 8b 8d 80 00
	00 00		 mov	 rcx, QWORD PTR this$[rbp]
  000a8	e8 00 00 00 00	 call	 ??$_Construct_n@AEBQEAGAEBQEAG@?$vector@GV?$allocator@G@std@@@std@@AEAAX_KAEBQEAG1@Z ; std::vector<unsigned short,std::allocator<unsigned short> >::_Construct_n<unsigned short * const &,unsigned short * const &>

; 686  :     }

  000ad	48 8b 85 80 00
	00 00		 mov	 rax, QWORD PTR this$[rbp]
  000b4	48 8d 65 70	 lea	 rsp, QWORD PTR [rbp+112]
  000b8	5d		 pop	 rbp
  000b9	c3		 ret	 0
??0?$vector@GV?$allocator@G@std@@@std@@QEAA@AEBV01@@Z ENDP ; std::vector<unsigned short,std::allocator<unsigned short> >::vector<unsigned short,std::allocator<unsigned short> >
_TEXT	ENDS
; Function compile flags: /Odtp /ZI
; File C:\Program Files\Microsoft Visual Studio\2022\Preview\VC\Tools\MSVC\14.38.33030\include\xmemory
;	COMDAT ?select_on_container_copy_construction@?$_Default_allocator_traits@V?$allocator@G@std@@@std@@SA?AV?$allocator@G@2@AEBV32@@Z
_TEXT	SEGMENT
__$ReturnUdt$ = 80
_Al$ = 88
?select_on_container_copy_construction@?$_Default_allocator_traits@V?$allocator@G@std@@@std@@SA?AV?$allocator@G@2@AEBV32@@Z PROC ; std::_Default_allocator_traits<std::allocator<unsigned short> >::select_on_container_copy_construction, COMDAT

; 740  :     _NODISCARD static _CONSTEXPR20 _Alloc select_on_container_copy_construction(const _Alloc& _Al) {

$LN3:
  00000	48 89 54 24 10	 mov	 QWORD PTR [rsp+16], rdx
  00005	48 89 4c 24 08	 mov	 QWORD PTR [rsp+8], rcx
  0000a	55		 push	 rbp
  0000b	48 83 ec 60	 sub	 rsp, 96			; 00000060H
  0000f	48 8d 6c 24 20	 lea	 rbp, QWORD PTR [rsp+32]
  00014	48 8d 0d 00 00
	00 00		 lea	 rcx, OFFSET FLAT:__67F55BEA_xmemory
  0001b	e8 00 00 00 00	 call	 __CheckForDebuggerJustMyCode

; 741  :         return _Al;

  00020	48 8b 45 50	 mov	 rax, QWORD PTR __$ReturnUdt$[rbp]

; 742  :     }

  00024	48 8d 65 40	 lea	 rsp, QWORD PTR [rbp+64]
  00028	5d		 pop	 rbp
  00029	c3		 ret	 0
?select_on_container_copy_construction@?$_Default_allocator_traits@V?$allocator@G@std@@@std@@SA?AV?$allocator@G@2@AEBV32@@Z ENDP ; std::_Default_allocator_traits<std::allocator<unsigned short> >::select_on_container_copy_construction
_TEXT	ENDS
; Function compile flags: /Odtp /ZI
; File C:\Program Files\Microsoft Visual Studio\2022\Preview\VC\Tools\MSVC\14.38.33030\include\xmemory
;	COMDAT ?max_size@?$_Default_allocator_traits@V?$allocator@G@std@@@std@@SA_KAEBV?$allocator@G@2@@Z
_TEXT	SEGMENT
__formal$ = 80
?max_size@?$_Default_allocator_traits@V?$allocator@G@std@@@std@@SA_KAEBV?$allocator@G@2@@Z PROC ; std::_Default_allocator_traits<std::allocator<unsigned short> >::max_size, COMDAT

; 736  :     _NODISCARD static _CONSTEXPR20 size_type max_size(const _Alloc&) noexcept {

$LN3:
  00000	48 89 4c 24 08	 mov	 QWORD PTR [rsp+8], rcx
  00005	55		 push	 rbp
  00006	48 83 ec 60	 sub	 rsp, 96			; 00000060H
  0000a	48 8d 6c 24 20	 lea	 rbp, QWORD PTR [rsp+32]
  0000f	48 8d 0d 00 00
	00 00		 lea	 rcx, OFFSET FLAT:__67F55BEA_xmemory
  00016	e8 00 00 00 00	 call	 __CheckForDebuggerJustMyCode

; 737  :         return static_cast<size_t>(-1) / sizeof(value_type);

  0001b	48 b8 ff ff ff
	ff ff ff ff 7f	 mov	 rax, 9223372036854775807 ; 7fffffffffffffffH

; 738  :     }

  00025	48 8d 65 40	 lea	 rsp, QWORD PTR [rbp+64]
  00029	5d		 pop	 rbp
  0002a	c3		 ret	 0
?max_size@?$_Default_allocator_traits@V?$allocator@G@std@@@std@@SA_KAEBV?$allocator@G@2@@Z ENDP ; std::_Default_allocator_traits<std::allocator<unsigned short> >::max_size
_TEXT	ENDS
; Function compile flags: /Odtp /ZI
; File C:\Program Files\Microsoft Visual Studio\2022\Preview\VC\Tools\MSVC\14.38.33030\include\xmemory
;	COMDAT ?allocate@?$allocator@G@std@@QEAAPEAG_K@Z
_TEXT	SEGMENT
this$ = 80
_Count$ = 88
?allocate@?$allocator@G@std@@QEAAPEAG_K@Z PROC		; std::allocator<unsigned short>::allocate, COMDAT

; 976  :     _NODISCARD_RAW_PTR_ALLOC _CONSTEXPR20 __declspec(allocator) _Ty* allocate(_CRT_GUARDOVERFLOW const size_t _Count) {

$LN3:
  00000	48 89 54 24 10	 mov	 QWORD PTR [rsp+16], rdx
  00005	48 89 4c 24 08	 mov	 QWORD PTR [rsp+8], rcx
  0000a	55		 push	 rbp
  0000b	48 83 ec 60	 sub	 rsp, 96			; 00000060H
  0000f	48 8d 6c 24 20	 lea	 rbp, QWORD PTR [rsp+32]
  00014	48 8d 0d 00 00
	00 00		 lea	 rcx, OFFSET FLAT:__67F55BEA_xmemory
  0001b	e8 00 00 00 00	 call	 __CheckForDebuggerJustMyCode

; 977  :         static_assert(sizeof(value_type) > 0, "value_type must be complete before calling allocate.");
; 978  :         return static_cast<_Ty*>(_Allocate<_New_alignof<_Ty>>(_Get_size_of_n<sizeof(_Ty)>(_Count)));

  00020	48 8b 4d 58	 mov	 rcx, QWORD PTR _Count$[rbp]
  00024	e8 00 00 00 00	 call	 ??$_Get_size_of_n@$01@std@@YA_K_K@Z ; std::_Get_size_of_n<2>
  00029	48 8b c8	 mov	 rcx, rax
  0002c	e8 00 00 00 00	 call	 ??$_Allocate@$0BA@U_Default_allocate_traits@std@@$0A@@std@@YAPEAX_K@Z ; std::_Allocate<16,std::_Default_allocate_traits,0>

; 979  :     }

  00031	48 8d 65 40	 lea	 rsp, QWORD PTR [rbp+64]
  00035	5d		 pop	 rbp
  00036	c3		 ret	 0
?allocate@?$allocator@G@std@@QEAAPEAG_K@Z ENDP		; std::allocator<unsigned short>::allocate
_TEXT	ENDS
; Function compile flags: /Odtp /ZI
; File C:\Program Files\Microsoft Visual Studio\2022\Preview\VC\Tools\MSVC\14.38.33030\include\xmemory
;	COMDAT ?deallocate@?$allocator@G@std@@QEAAXQEAG_K@Z
_TEXT	SEGMENT
this$ = 80
_Ptr$ = 88
_Count$ = 96
?deallocate@?$allocator@G@std@@QEAAXQEAG_K@Z PROC	; std::allocator<unsigned short>::deallocate, COMDAT

; 970  :     _CONSTEXPR20 void deallocate(_Ty* const _Ptr, const size_t _Count) {

$LN13:
  00000	4c 89 44 24 18	 mov	 QWORD PTR [rsp+24], r8
  00005	48 89 54 24 10	 mov	 QWORD PTR [rsp+16], rdx
  0000a	48 89 4c 24 08	 mov	 QWORD PTR [rsp+8], rcx
  0000f	55		 push	 rbp
  00010	48 83 ec 70	 sub	 rsp, 112		; 00000070H
  00014	48 8d 6c 24 30	 lea	 rbp, QWORD PTR [rsp+48]
  00019	48 8d 0d 00 00
	00 00		 lea	 rcx, OFFSET FLAT:__67F55BEA_xmemory
  00020	e8 00 00 00 00	 call	 __CheckForDebuggerJustMyCode
$LN4@deallocate:

; 971  :         _STL_ASSERT(_Ptr != nullptr || _Count == 0, "null pointer cannot point to a block of non-zero size");

  00025	48 83 7d 58 00	 cmp	 QWORD PTR _Ptr$[rbp], 0
  0002a	75 07		 jne	 SHORT $LN10@deallocate
  0002c	48 83 7d 60 00	 cmp	 QWORD PTR _Count$[rbp], 0
  00031	75 02		 jne	 SHORT $LN8@deallocate
$LN10@deallocate:
  00033	eb 6b		 jmp	 SHORT $LN9@deallocate
$LN8@deallocate:
$LN7@deallocate:
  00035	48 8d 05 00 00
	00 00		 lea	 rax, OFFSET FLAT:??_C@_0DG@KGHKKGBC@null?5pointer?5cannot?5point?5to?5a?5@
  0003c	48 89 44 24 28	 mov	 QWORD PTR [rsp+40], rax
  00041	48 8d 05 00 00
	00 00		 lea	 rax, OFFSET FLAT:??_C@_02DKCKIIND@?$CFs@
  00048	48 89 44 24 20	 mov	 QWORD PTR [rsp+32], rax
  0004d	45 33 c9	 xor	 r9d, r9d
  00050	41 b8 cb 03 00
	00		 mov	 r8d, 971		; 000003cbH
  00056	48 8d 15 00 00
	00 00		 lea	 rdx, OFFSET FLAT:??_C@_0GA@FLDGEGM@C?3?2Program?5Files?2Microsoft?5Visu@
  0005d	b9 02 00 00 00	 mov	 ecx, 2
  00062	ff 15 00 00 00
	00		 call	 QWORD PTR __imp__CrtDbgReport
  00068	83 f8 01	 cmp	 eax, 1
  0006b	75 03		 jne	 SHORT $LN12@deallocate
  0006d	cc		 int	 3
  0006e	33 c0		 xor	 eax, eax
$LN12@deallocate:
  00070	48 c7 44 24 20
	00 00 00 00	 mov	 QWORD PTR [rsp+32], 0
  00079	41 b9 cb 03 00
	00		 mov	 r9d, 971		; 000003cbH
  0007f	4c 8d 05 00 00
	00 00		 lea	 r8, OFFSET FLAT:??_C@_1MA@IKJDCOIC@?$AAC?$AA?3?$AA?2?$AAP?$AAr?$AAo?$AAg?$AAr?$AAa?$AAm?$AA?5?$AAF?$AAi?$AAl?$AAe@
  00086	48 8d 15 00 00
	00 00		 lea	 rdx, OFFSET FLAT:??_C@_11LOCGONAA@@
  0008d	48 8d 0d 00 00
	00 00		 lea	 rcx, OFFSET FLAT:??_C@_1HA@FACCKGGH@?$AA?$CC?$AAn?$AAu?$AAl?$AAl?$AA?5?$AAp?$AAo?$AAi?$AAn?$AAt?$AAe?$AAr?$AA?5?$AAc@
  00094	ff 15 00 00 00
	00		 call	 QWORD PTR __imp__invalid_parameter
  0009a	33 c0		 xor	 eax, eax
  0009c	85 c0		 test	 eax, eax
  0009e	75 95		 jne	 SHORT $LN7@deallocate
$LN9@deallocate:
  000a0	33 c0		 xor	 eax, eax
  000a2	85 c0		 test	 eax, eax
  000a4	0f 85 7b ff ff
	ff		 jne	 $LN4@deallocate

; 972  :         // no overflow check on the following multiply; we assume _Allocate did that check
; 973  :         _Deallocate<_New_alignof<_Ty>>(_Ptr, sizeof(_Ty) * _Count);

  000aa	48 8b 45 60	 mov	 rax, QWORD PTR _Count$[rbp]
  000ae	48 d1 e0	 shl	 rax, 1
  000b1	48 8b d0	 mov	 rdx, rax
  000b4	48 8b 4d 58	 mov	 rcx, QWORD PTR _Ptr$[rbp]
  000b8	e8 00 00 00 00	 call	 ??$_Deallocate@$0BA@$0A@@std@@YAXPEAX_K@Z ; std::_Deallocate<16,0>

; 974  :     }

  000bd	48 8d 65 40	 lea	 rsp, QWORD PTR [rbp+64]
  000c1	5d		 pop	 rbp
  000c2	c3		 ret	 0
?deallocate@?$allocator@G@std@@QEAAXQEAG_K@Z ENDP	; std::allocator<unsigned short>::deallocate
_TEXT	ENDS
; Function compile flags: /Odtp /ZI
; File C:\Program Files\Microsoft Visual Studio\2022\Preview\VC\Tools\MSVC\14.38.33030\include\xmemory
;	COMDAT ?_Get_first@?$_Compressed_pair@V?$allocator@UVertexDefault@@@std@@V?$_Vector_val@U?$_Simple_types@UVertexDefault@@@std@@@2@$00@std@@QEBAAEBV?$allocator@UVertexDefault@@@2@XZ
_TEXT	SEGMENT
this$ = 80
?_Get_first@?$_Compressed_pair@V?$allocator@UVertexDefault@@@std@@V?$_Vector_val@U?$_Simple_types@UVertexDefault@@@std@@@2@$00@std@@QEBAAEBV?$allocator@UVertexDefault@@@2@XZ PROC ; std::_Compressed_pair<std::allocator<VertexDefault>,std::_Vector_val<std::_Simple_types<VertexDefault> >,1>::_Get_first, COMDAT

; 1530 :     constexpr const _Ty1& _Get_first() const noexcept {

$LN3:
  00000	48 89 4c 24 08	 mov	 QWORD PTR [rsp+8], rcx
  00005	55		 push	 rbp
  00006	48 83 ec 60	 sub	 rsp, 96			; 00000060H
  0000a	48 8d 6c 24 20	 lea	 rbp, QWORD PTR [rsp+32]
  0000f	48 8d 0d 00 00
	00 00		 lea	 rcx, OFFSET FLAT:__67F55BEA_xmemory
  00016	e8 00 00 00 00	 call	 __CheckForDebuggerJustMyCode

; 1531 :         return *this;

  0001b	48 8b 45 50	 mov	 rax, QWORD PTR this$[rbp]

; 1532 :     }

  0001f	48 8d 65 40	 lea	 rsp, QWORD PTR [rbp+64]
  00023	5d		 pop	 rbp
  00024	c3		 ret	 0
?_Get_first@?$_Compressed_pair@V?$allocator@UVertexDefault@@@std@@V?$_Vector_val@U?$_Simple_types@UVertexDefault@@@std@@@2@$00@std@@QEBAAEBV?$allocator@UVertexDefault@@@2@XZ ENDP ; std::_Compressed_pair<std::allocator<VertexDefault>,std::_Vector_val<std::_Simple_types<VertexDefault> >,1>::_Get_first
_TEXT	ENDS
; Function compile flags: /Odtp /ZI
; File C:\Program Files\Microsoft Visual Studio\2022\Preview\VC\Tools\MSVC\14.38.33030\include\xmemory
;	COMDAT ?_Get_first@?$_Compressed_pair@V?$allocator@UVertexDefault@@@std@@V?$_Vector_val@U?$_Simple_types@UVertexDefault@@@std@@@2@$00@std@@QEAAAEAV?$allocator@UVertexDefault@@@2@XZ
_TEXT	SEGMENT
this$ = 80
?_Get_first@?$_Compressed_pair@V?$allocator@UVertexDefault@@@std@@V?$_Vector_val@U?$_Simple_types@UVertexDefault@@@std@@@2@$00@std@@QEAAAEAV?$allocator@UVertexDefault@@@2@XZ PROC ; std::_Compressed_pair<std::allocator<VertexDefault>,std::_Vector_val<std::_Simple_types<VertexDefault> >,1>::_Get_first, COMDAT

; 1526 :     constexpr _Ty1& _Get_first() noexcept {

$LN3:
  00000	48 89 4c 24 08	 mov	 QWORD PTR [rsp+8], rcx
  00005	55		 push	 rbp
  00006	48 83 ec 60	 sub	 rsp, 96			; 00000060H
  0000a	48 8d 6c 24 20	 lea	 rbp, QWORD PTR [rsp+32]
  0000f	48 8d 0d 00 00
	00 00		 lea	 rcx, OFFSET FLAT:__67F55BEA_xmemory
  00016	e8 00 00 00 00	 call	 __CheckForDebuggerJustMyCode

; 1527 :         return *this;

  0001b	48 8b 45 50	 mov	 rax, QWORD PTR this$[rbp]

; 1528 :     }

  0001f	48 8d 65 40	 lea	 rsp, QWORD PTR [rbp+64]
  00023	5d		 pop	 rbp
  00024	c3		 ret	 0
?_Get_first@?$_Compressed_pair@V?$allocator@UVertexDefault@@@std@@V?$_Vector_val@U?$_Simple_types@UVertexDefault@@@std@@@2@$00@std@@QEAAAEAV?$allocator@UVertexDefault@@@2@XZ ENDP ; std::_Compressed_pair<std::allocator<VertexDefault>,std::_Vector_val<std::_Simple_types<VertexDefault> >,1>::_Get_first
_TEXT	ENDS
; Function compile flags: /Odtp /ZI
; File C:\Program Files\Microsoft Visual Studio\2022\Preview\VC\Tools\MSVC\14.38.33030\include\vector
;	COMDAT ??0?$_Vector_val@U?$_Simple_types@UVertexDefault@@@std@@@std@@QEAA@XZ
_TEXT	SEGMENT
this$ = 80
??0?$_Vector_val@U?$_Simple_types@UVertexDefault@@@std@@@std@@QEAA@XZ PROC ; std::_Vector_val<std::_Simple_types<VertexDefault> >::_Vector_val<std::_Simple_types<VertexDefault> >, COMDAT

; 397  :     _CONSTEXPR20 _Vector_val() noexcept : _Myfirst(), _Mylast(), _Myend() {}

$LN3:
  00000	48 89 4c 24 08	 mov	 QWORD PTR [rsp+8], rcx
  00005	55		 push	 rbp
  00006	48 83 ec 60	 sub	 rsp, 96			; 00000060H
  0000a	48 8d 6c 24 20	 lea	 rbp, QWORD PTR [rsp+32]
  0000f	48 8d 0d 00 00
	00 00		 lea	 rcx, OFFSET FLAT:__14F7CB70_vector
  00016	e8 00 00 00 00	 call	 __CheckForDebuggerJustMyCode
  0001b	48 8b 4d 50	 mov	 rcx, QWORD PTR this$[rbp]
  0001f	e8 00 00 00 00	 call	 ??0_Container_base12@std@@QEAA@XZ ; std::_Container_base12::_Container_base12
  00024	48 8b 45 50	 mov	 rax, QWORD PTR this$[rbp]
  00028	48 c7 40 08 00
	00 00 00	 mov	 QWORD PTR [rax+8], 0
  00030	48 8b 45 50	 mov	 rax, QWORD PTR this$[rbp]
  00034	48 c7 40 10 00
	00 00 00	 mov	 QWORD PTR [rax+16], 0
  0003c	48 8b 45 50	 mov	 rax, QWORD PTR this$[rbp]
  00040	48 c7 40 18 00
	00 00 00	 mov	 QWORD PTR [rax+24], 0
  00048	48 8b 45 50	 mov	 rax, QWORD PTR this$[rbp]
  0004c	48 8d 65 40	 lea	 rsp, QWORD PTR [rbp+64]
  00050	5d		 pop	 rbp
  00051	c3		 ret	 0
??0?$_Vector_val@U?$_Simple_types@UVertexDefault@@@std@@@std@@QEAA@XZ ENDP ; std::_Vector_val<std::_Simple_types<VertexDefault> >::_Vector_val<std::_Simple_types<VertexDefault> >
_TEXT	ENDS
; Function compile flags: /Odtp /ZI
; File C:\Program Files\Microsoft Visual Studio\2022\Preview\VC\Tools\MSVC\14.38.33030\include\vector
;	COMDAT ?_Getal@?$vector@UVertexDefault@@V?$allocator@UVertexDefault@@@std@@@std@@AEBAAEBV?$allocator@UVertexDefault@@@2@XZ
_TEXT	SEGMENT
this$ = 80
?_Getal@?$vector@UVertexDefault@@V?$allocator@UVertexDefault@@@std@@@std@@AEBAAEBV?$allocator@UVertexDefault@@@2@XZ PROC ; std::vector<VertexDefault,std::allocator<VertexDefault> >::_Getal, COMDAT

; 2193 :     _NODISCARD _CONSTEXPR20 const _Alty& _Getal() const noexcept {

$LN3:
  00000	48 89 4c 24 08	 mov	 QWORD PTR [rsp+8], rcx
  00005	55		 push	 rbp
  00006	48 83 ec 60	 sub	 rsp, 96			; 00000060H
  0000a	48 8d 6c 24 20	 lea	 rbp, QWORD PTR [rsp+32]
  0000f	48 8d 0d 00 00
	00 00		 lea	 rcx, OFFSET FLAT:__14F7CB70_vector
  00016	e8 00 00 00 00	 call	 __CheckForDebuggerJustMyCode

; 2194 :         return _Mypair._Get_first();

  0001b	48 8b 45 50	 mov	 rax, QWORD PTR this$[rbp]
  0001f	48 8b c8	 mov	 rcx, rax
  00022	e8 00 00 00 00	 call	 ?_Get_first@?$_Compressed_pair@V?$allocator@UVertexDefault@@@std@@V?$_Vector_val@U?$_Simple_types@UVertexDefault@@@std@@@2@$00@std@@QEBAAEBV?$allocator@UVertexDefault@@@2@XZ ; std::_Compressed_pair<std::allocator<VertexDefault>,std::_Vector_val<std::_Simple_types<VertexDefault> >,1>::_Get_first

; 2195 :     }

  00027	48 8d 65 40	 lea	 rsp, QWORD PTR [rbp+64]
  0002b	5d		 pop	 rbp
  0002c	c3		 ret	 0
?_Getal@?$vector@UVertexDefault@@V?$allocator@UVertexDefault@@@std@@@std@@AEBAAEBV?$allocator@UVertexDefault@@@2@XZ ENDP ; std::vector<VertexDefault,std::allocator<VertexDefault> >::_Getal
_TEXT	ENDS
; Function compile flags: /Odtp /ZI
; File C:\Program Files\Microsoft Visual Studio\2022\Preview\VC\Tools\MSVC\14.38.33030\include\vector
;	COMDAT ?_Getal@?$vector@UVertexDefault@@V?$allocator@UVertexDefault@@@std@@@std@@AEAAAEAV?$allocator@UVertexDefault@@@2@XZ
_TEXT	SEGMENT
this$ = 80
?_Getal@?$vector@UVertexDefault@@V?$allocator@UVertexDefault@@@std@@@std@@AEAAAEAV?$allocator@UVertexDefault@@@2@XZ PROC ; std::vector<VertexDefault,std::allocator<VertexDefault> >::_Getal, COMDAT

; 2189 :     _NODISCARD _CONSTEXPR20 _Alty& _Getal() noexcept {

$LN3:
  00000	48 89 4c 24 08	 mov	 QWORD PTR [rsp+8], rcx
  00005	55		 push	 rbp
  00006	48 83 ec 60	 sub	 rsp, 96			; 00000060H
  0000a	48 8d 6c 24 20	 lea	 rbp, QWORD PTR [rsp+32]
  0000f	48 8d 0d 00 00
	00 00		 lea	 rcx, OFFSET FLAT:__14F7CB70_vector
  00016	e8 00 00 00 00	 call	 __CheckForDebuggerJustMyCode

; 2190 :         return _Mypair._Get_first();

  0001b	48 8b 45 50	 mov	 rax, QWORD PTR this$[rbp]
  0001f	48 8b c8	 mov	 rcx, rax
  00022	e8 00 00 00 00	 call	 ?_Get_first@?$_Compressed_pair@V?$allocator@UVertexDefault@@@std@@V?$_Vector_val@U?$_Simple_types@UVertexDefault@@@std@@@2@$00@std@@QEAAAEAV?$allocator@UVertexDefault@@@2@XZ ; std::_Compressed_pair<std::allocator<VertexDefault>,std::_Vector_val<std::_Simple_types<VertexDefault> >,1>::_Get_first

; 2191 :     }

  00027	48 8d 65 40	 lea	 rsp, QWORD PTR [rbp+64]
  0002b	5d		 pop	 rbp
  0002c	c3		 ret	 0
?_Getal@?$vector@UVertexDefault@@V?$allocator@UVertexDefault@@@std@@@std@@AEAAAEAV?$allocator@UVertexDefault@@@2@XZ ENDP ; std::vector<VertexDefault,std::allocator<VertexDefault> >::_Getal
_TEXT	ENDS
; Function compile flags: /Odtp /ZI
; File C:\Program Files\Microsoft Visual Studio\2022\Preview\VC\Tools\MSVC\14.38.33030\include\vector
;	COMDAT ?_Xlength@?$vector@UVertexDefault@@V?$allocator@UVertexDefault@@@std@@@std@@CAXXZ
_TEXT	SEGMENT
?_Xlength@?$vector@UVertexDefault@@V?$allocator@UVertexDefault@@@std@@@std@@CAXXZ PROC ; std::vector<VertexDefault,std::allocator<VertexDefault> >::_Xlength, COMDAT

; 2146 :     [[noreturn]] static void _Xlength() {

$LN3:
  00000	40 55		 push	 rbp
  00002	48 83 ec 60	 sub	 rsp, 96			; 00000060H
  00006	48 8d 6c 24 20	 lea	 rbp, QWORD PTR [rsp+32]
  0000b	48 8d 0d 00 00
	00 00		 lea	 rcx, OFFSET FLAT:__14F7CB70_vector
  00012	e8 00 00 00 00	 call	 __CheckForDebuggerJustMyCode

; 2147 :         _Xlength_error("vector too long");

  00017	48 8d 0d 00 00
	00 00		 lea	 rcx, OFFSET FLAT:??_C@_0BA@FOIKENOD@vector?5too?5long@
  0001e	e8 00 00 00 00	 call	 ?_Xlength_error@std@@YAXPEBD@Z ; std::_Xlength_error
$LN2@Xlength:

; 2148 :     }

  00023	48 8d 65 40	 lea	 rsp, QWORD PTR [rbp+64]
  00027	5d		 pop	 rbp
  00028	c3		 ret	 0
?_Xlength@?$vector@UVertexDefault@@V?$allocator@UVertexDefault@@@std@@@std@@CAXXZ ENDP ; std::vector<VertexDefault,std::allocator<VertexDefault> >::_Xlength
_TEXT	ENDS
; Function compile flags: /Odtp /ZI
; File C:\Program Files\Microsoft Visual Studio\2022\Preview\VC\Tools\MSVC\14.38.33030\include\vector
;	COMDAT ?_Tidy@?$vector@UVertexDefault@@V?$allocator@UVertexDefault@@@std@@@std@@AEAAXXZ
_TEXT	SEGMENT
_Al$ = 0
_My_data$ = 8
_Myfirst$ = 16
_Mylast$ = 24
_Myend$ = 32
this$ = 128
?_Tidy@?$vector@UVertexDefault@@V?$allocator@UVertexDefault@@@std@@@std@@AEAAXXZ PROC ; std::vector<VertexDefault,std::allocator<VertexDefault> >::_Tidy, COMDAT

; 2044 :     _CONSTEXPR20 void _Tidy() noexcept { // free all storage

$LN4:
  00000	48 89 4c 24 08	 mov	 QWORD PTR [rsp+8], rcx
  00005	55		 push	 rbp
  00006	48 81 ec 90 00
	00 00		 sub	 rsp, 144		; 00000090H
  0000d	48 8d 6c 24 20	 lea	 rbp, QWORD PTR [rsp+32]
  00012	48 8d 0d 00 00
	00 00		 lea	 rcx, OFFSET FLAT:__14F7CB70_vector
  00019	e8 00 00 00 00	 call	 __CheckForDebuggerJustMyCode

; 2045 :         auto& _Al         = _Getal();

  0001e	48 8b 8d 80 00
	00 00		 mov	 rcx, QWORD PTR this$[rbp]
  00025	e8 00 00 00 00	 call	 ?_Getal@?$vector@UVertexDefault@@V?$allocator@UVertexDefault@@@std@@@std@@AEAAAEAV?$allocator@UVertexDefault@@@2@XZ ; std::vector<VertexDefault,std::allocator<VertexDefault> >::_Getal
  0002a	48 89 45 00	 mov	 QWORD PTR _Al$[rbp], rax

; 2046 :         auto& _My_data    = _Mypair._Myval2;

  0002e	48 8b 85 80 00
	00 00		 mov	 rax, QWORD PTR this$[rbp]
  00035	48 89 45 08	 mov	 QWORD PTR _My_data$[rbp], rax

; 2047 :         pointer& _Myfirst = _My_data._Myfirst;

  00039	48 8b 45 08	 mov	 rax, QWORD PTR _My_data$[rbp]
  0003d	48 83 c0 08	 add	 rax, 8
  00041	48 89 45 10	 mov	 QWORD PTR _Myfirst$[rbp], rax

; 2048 :         pointer& _Mylast  = _My_data._Mylast;

  00045	48 8b 45 08	 mov	 rax, QWORD PTR _My_data$[rbp]
  00049	48 83 c0 10	 add	 rax, 16
  0004d	48 89 45 18	 mov	 QWORD PTR _Mylast$[rbp], rax

; 2049 :         pointer& _Myend   = _My_data._Myend;

  00051	48 8b 45 08	 mov	 rax, QWORD PTR _My_data$[rbp]
  00055	48 83 c0 18	 add	 rax, 24
  00059	48 89 45 20	 mov	 QWORD PTR _Myend$[rbp], rax

; 2050 : 
; 2051 :         _My_data._Orphan_all();

  0005d	48 8b 4d 08	 mov	 rcx, QWORD PTR _My_data$[rbp]
  00061	e8 00 00 00 00	 call	 ?_Orphan_all@_Container_base12@std@@QEAAXXZ ; std::_Container_base12::_Orphan_all

; 2052 : 
; 2053 :         if (_Myfirst) { // destroy and deallocate old array

  00066	48 8b 45 10	 mov	 rax, QWORD PTR _Myfirst$[rbp]
  0006a	48 83 38 00	 cmp	 QWORD PTR [rax], 0
  0006e	74 66		 je	 SHORT $LN2@Tidy

; 2054 :             _Destroy_range(_Myfirst, _Mylast, _Al);

  00070	4c 8b 45 00	 mov	 r8, QWORD PTR _Al$[rbp]
  00074	48 8b 45 18	 mov	 rax, QWORD PTR _Mylast$[rbp]
  00078	48 8b 10	 mov	 rdx, QWORD PTR [rax]
  0007b	48 8b 45 10	 mov	 rax, QWORD PTR _Myfirst$[rbp]
  0007f	48 8b 08	 mov	 rcx, QWORD PTR [rax]
  00082	e8 00 00 00 00	 call	 ??$_Destroy_range@V?$allocator@UVertexDefault@@@std@@@std@@YAXPEAUVertexDefault@@QEAU1@AEAV?$allocator@UVertexDefault@@@0@@Z ; std::_Destroy_range<std::allocator<VertexDefault> >

; 2055 :             _ASAN_VECTOR_REMOVE;
; 2056 :             _Al.deallocate(_Myfirst, static_cast<size_type>(_Myend - _Myfirst));

  00087	48 8b 45 20	 mov	 rax, QWORD PTR _Myend$[rbp]
  0008b	48 8b 4d 10	 mov	 rcx, QWORD PTR _Myfirst$[rbp]
  0008f	48 8b 09	 mov	 rcx, QWORD PTR [rcx]
  00092	48 8b 00	 mov	 rax, QWORD PTR [rax]
  00095	48 2b c1	 sub	 rax, rcx
  00098	48 99		 cdq
  0009a	b9 48 00 00 00	 mov	 ecx, 72			; 00000048H
  0009f	48 f7 f9	 idiv	 rcx
  000a2	4c 8b c0	 mov	 r8, rax
  000a5	48 8b 45 10	 mov	 rax, QWORD PTR _Myfirst$[rbp]
  000a9	48 8b 10	 mov	 rdx, QWORD PTR [rax]
  000ac	48 8b 4d 00	 mov	 rcx, QWORD PTR _Al$[rbp]
  000b0	e8 00 00 00 00	 call	 ?deallocate@?$allocator@UVertexDefault@@@std@@QEAAXQEAUVertexDefault@@_K@Z ; std::allocator<VertexDefault>::deallocate

; 2057 : 
; 2058 :             _Myfirst = nullptr;

  000b5	48 8b 45 10	 mov	 rax, QWORD PTR _Myfirst$[rbp]
  000b9	48 c7 00 00 00
	00 00		 mov	 QWORD PTR [rax], 0

; 2059 :             _Mylast  = nullptr;

  000c0	48 8b 45 18	 mov	 rax, QWORD PTR _Mylast$[rbp]
  000c4	48 c7 00 00 00
	00 00		 mov	 QWORD PTR [rax], 0

; 2060 :             _Myend   = nullptr;

  000cb	48 8b 45 20	 mov	 rax, QWORD PTR _Myend$[rbp]
  000cf	48 c7 00 00 00
	00 00		 mov	 QWORD PTR [rax], 0
$LN2@Tidy:

; 2061 :         }
; 2062 :     }

  000d6	48 8d 65 70	 lea	 rsp, QWORD PTR [rbp+112]
  000da	5d		 pop	 rbp
  000db	c3		 ret	 0
?_Tidy@?$vector@UVertexDefault@@V?$allocator@UVertexDefault@@@std@@@std@@AEAAXXZ ENDP ; std::vector<VertexDefault,std::allocator<VertexDefault> >::_Tidy
_TEXT	ENDS
; Function compile flags: /Odtp /ZI
; File C:\Program Files\Microsoft Visual Studio\2022\Preview\VC\Tools\MSVC\14.38.33030\include\vector
;	COMDAT ?_Buy_nonzero@?$vector@UVertexDefault@@V?$allocator@UVertexDefault@@@std@@@std@@AEAAX_K@Z
_TEXT	SEGMENT
this$ = 80
_Newcapacity$ = 88
?_Buy_nonzero@?$vector@UVertexDefault@@V?$allocator@UVertexDefault@@@std@@@std@@AEAAX_K@Z PROC ; std::vector<VertexDefault,std::allocator<VertexDefault> >::_Buy_nonzero, COMDAT

; 2004 :     _CONSTEXPR20 void _Buy_nonzero(const size_type _Newcapacity) {

$LN4:
  00000	48 89 54 24 10	 mov	 QWORD PTR [rsp+16], rdx
  00005	48 89 4c 24 08	 mov	 QWORD PTR [rsp+8], rcx
  0000a	55		 push	 rbp
  0000b	48 83 ec 60	 sub	 rsp, 96			; 00000060H
  0000f	48 8d 6c 24 20	 lea	 rbp, QWORD PTR [rsp+32]
  00014	48 8d 0d 00 00
	00 00		 lea	 rcx, OFFSET FLAT:__14F7CB70_vector
  0001b	e8 00 00 00 00	 call	 __CheckForDebuggerJustMyCode

; 2005 :         // allocate array with _Newcapacity elements
; 2006 : #ifdef _ENABLE_STL_INTERNAL_CHECK
; 2007 :         auto& _My_data    = _Mypair._Myval2;
; 2008 :         pointer& _Myfirst = _My_data._Myfirst;
; 2009 :         pointer& _Mylast  = _My_data._Mylast;
; 2010 :         pointer& _Myend   = _My_data._Myend;
; 2011 :         _STL_INTERNAL_CHECK(!_Myfirst && !_Mylast && !_Myend); // check that *this is tidy
; 2012 :         _STL_INTERNAL_CHECK(0 < _Newcapacity);
; 2013 : #endif // _ENABLE_STL_INTERNAL_CHECK
; 2014 : 
; 2015 :         if (_Newcapacity > max_size()) {

  00020	48 8b 4d 50	 mov	 rcx, QWORD PTR this$[rbp]
  00024	e8 00 00 00 00	 call	 ?max_size@?$vector@UVertexDefault@@V?$allocator@UVertexDefault@@@std@@@std@@QEBA_KXZ ; std::vector<VertexDefault,std::allocator<VertexDefault> >::max_size
  00029	48 39 45 58	 cmp	 QWORD PTR _Newcapacity$[rbp], rax
  0002d	76 05		 jbe	 SHORT $LN2@Buy_nonzer

; 2016 :             _Xlength();

  0002f	e8 00 00 00 00	 call	 ?_Xlength@?$vector@UVertexDefault@@V?$allocator@UVertexDefault@@@std@@@std@@CAXXZ ; std::vector<VertexDefault,std::allocator<VertexDefault> >::_Xlength
$LN2@Buy_nonzer:

; 2017 :         }
; 2018 : 
; 2019 :         _Buy_raw(_Newcapacity);

  00034	48 8b 55 58	 mov	 rdx, QWORD PTR _Newcapacity$[rbp]
  00038	48 8b 4d 50	 mov	 rcx, QWORD PTR this$[rbp]
  0003c	e8 00 00 00 00	 call	 ?_Buy_raw@?$vector@UVertexDefault@@V?$allocator@UVertexDefault@@@std@@@std@@AEAAX_K@Z ; std::vector<VertexDefault,std::allocator<VertexDefault> >::_Buy_raw
$LN3@Buy_nonzer:

; 2020 :     }

  00041	48 8d 65 40	 lea	 rsp, QWORD PTR [rbp+64]
  00045	5d		 pop	 rbp
  00046	c3		 ret	 0
?_Buy_nonzero@?$vector@UVertexDefault@@V?$allocator@UVertexDefault@@@std@@@std@@AEAAX_K@Z ENDP ; std::vector<VertexDefault,std::allocator<VertexDefault> >::_Buy_nonzero
_TEXT	ENDS
; Function compile flags: /Odtp /ZI
; File C:\Program Files\Microsoft Visual Studio\2022\Preview\VC\Tools\MSVC\14.38.33030\include\vector
;	COMDAT ?_Buy_raw@?$vector@UVertexDefault@@V?$allocator@UVertexDefault@@@std@@@std@@AEAAX_K@Z
_TEXT	SEGMENT
_My_data$ = 0
_Myfirst$ = 8
_Mylast$ = 16
_Myend$ = 24
_Newvec$ = 32
this$ = 128
_Newcapacity$ = 136
?_Buy_raw@?$vector@UVertexDefault@@V?$allocator@UVertexDefault@@@std@@@std@@AEAAX_K@Z PROC ; std::vector<VertexDefault,std::allocator<VertexDefault> >::_Buy_raw, COMDAT

; 1988 :     _CONSTEXPR20 void _Buy_raw(size_type _Newcapacity) {

$LN3:
  00000	48 89 54 24 10	 mov	 QWORD PTR [rsp+16], rdx
  00005	48 89 4c 24 08	 mov	 QWORD PTR [rsp+8], rcx
  0000a	55		 push	 rbp
  0000b	48 81 ec 90 00
	00 00		 sub	 rsp, 144		; 00000090H
  00012	48 8d 6c 24 20	 lea	 rbp, QWORD PTR [rsp+32]
  00017	48 8d 0d 00 00
	00 00		 lea	 rcx, OFFSET FLAT:__14F7CB70_vector
  0001e	e8 00 00 00 00	 call	 __CheckForDebuggerJustMyCode

; 1989 :         // allocate array with _Newcapacity elements
; 1990 :         auto& _My_data    = _Mypair._Myval2;

  00023	48 8b 85 80 00
	00 00		 mov	 rax, QWORD PTR this$[rbp]
  0002a	48 89 45 00	 mov	 QWORD PTR _My_data$[rbp], rax

; 1991 :         pointer& _Myfirst = _My_data._Myfirst;

  0002e	48 8b 45 00	 mov	 rax, QWORD PTR _My_data$[rbp]
  00032	48 83 c0 08	 add	 rax, 8
  00036	48 89 45 08	 mov	 QWORD PTR _Myfirst$[rbp], rax

; 1992 :         pointer& _Mylast  = _My_data._Mylast;

  0003a	48 8b 45 00	 mov	 rax, QWORD PTR _My_data$[rbp]
  0003e	48 83 c0 10	 add	 rax, 16
  00042	48 89 45 10	 mov	 QWORD PTR _Mylast$[rbp], rax

; 1993 :         pointer& _Myend   = _My_data._Myend;

  00046	48 8b 45 00	 mov	 rax, QWORD PTR _My_data$[rbp]
  0004a	48 83 c0 18	 add	 rax, 24
  0004e	48 89 45 18	 mov	 QWORD PTR _Myend$[rbp], rax

; 1994 : 
; 1995 :         _STL_INTERNAL_CHECK(!_Myfirst && !_Mylast && !_Myend); // check that *this is tidy
; 1996 :         _STL_INTERNAL_CHECK(0 < _Newcapacity && _Newcapacity <= max_size());
; 1997 : 
; 1998 :         const pointer _Newvec = _Allocate_at_least_helper(_Getal(), _Newcapacity);

  00052	48 8b 8d 80 00
	00 00		 mov	 rcx, QWORD PTR this$[rbp]
  00059	e8 00 00 00 00	 call	 ?_Getal@?$vector@UVertexDefault@@V?$allocator@UVertexDefault@@@std@@@std@@AEAAAEAV?$allocator@UVertexDefault@@@2@XZ ; std::vector<VertexDefault,std::allocator<VertexDefault> >::_Getal
  0005e	48 8d 95 88 00
	00 00		 lea	 rdx, QWORD PTR _Newcapacity$[rbp]
  00065	48 8b c8	 mov	 rcx, rax
  00068	e8 00 00 00 00	 call	 ??$_Allocate_at_least_helper@V?$allocator@UVertexDefault@@@std@@@std@@YAPEAUVertexDefault@@AEAV?$allocator@UVertexDefault@@@0@AEA_K@Z ; std::_Allocate_at_least_helper<std::allocator<VertexDefault> >
  0006d	48 89 45 20	 mov	 QWORD PTR _Newvec$[rbp], rax

; 1999 :         _Myfirst              = _Newvec;

  00071	48 8b 45 08	 mov	 rax, QWORD PTR _Myfirst$[rbp]
  00075	48 8b 4d 20	 mov	 rcx, QWORD PTR _Newvec$[rbp]
  00079	48 89 08	 mov	 QWORD PTR [rax], rcx

; 2000 :         _Mylast               = _Newvec;

  0007c	48 8b 45 10	 mov	 rax, QWORD PTR _Mylast$[rbp]
  00080	48 8b 4d 20	 mov	 rcx, QWORD PTR _Newvec$[rbp]
  00084	48 89 08	 mov	 QWORD PTR [rax], rcx

; 2001 :         _Myend                = _Newvec + _Newcapacity;

  00087	48 6b 85 88 00
	00 00 48	 imul	 rax, QWORD PTR _Newcapacity$[rbp], 72 ; 00000048H
  0008f	48 8b 4d 20	 mov	 rcx, QWORD PTR _Newvec$[rbp]
  00093	48 03 c8	 add	 rcx, rax
  00096	48 8b c1	 mov	 rax, rcx
  00099	48 8b 4d 18	 mov	 rcx, QWORD PTR _Myend$[rbp]
  0009d	48 89 01	 mov	 QWORD PTR [rcx], rax

; 2002 :     }

  000a0	48 8d 65 70	 lea	 rsp, QWORD PTR [rbp+112]
  000a4	5d		 pop	 rbp
  000a5	c3		 ret	 0
?_Buy_raw@?$vector@UVertexDefault@@V?$allocator@UVertexDefault@@@std@@@std@@AEAAX_K@Z ENDP ; std::vector<VertexDefault,std::allocator<VertexDefault> >::_Buy_raw
_TEXT	ENDS
; Function compile flags: /Odtp /ZI
; File C:\Program Files\Microsoft Visual Studio\2022\Preview\VC\Tools\MSVC\14.38.33030\include\vector
;	COMDAT ?max_size@?$vector@UVertexDefault@@V?$allocator@UVertexDefault@@@std@@@std@@QEBA_KXZ
_TEXT	SEGMENT
$T1 = 64
$T2 = 72
this$ = 96
?max_size@?$vector@UVertexDefault@@V?$allocator@UVertexDefault@@@std@@@std@@QEBA_KXZ PROC ; std::vector<VertexDefault,std::allocator<VertexDefault> >::max_size, COMDAT

; 1881 :     _NODISCARD _CONSTEXPR20 size_type max_size() const noexcept {

$LN3:
  00000	48 89 4c 24 08	 mov	 QWORD PTR [rsp+8], rcx
  00005	55		 push	 rbp
  00006	48 83 ec 70	 sub	 rsp, 112		; 00000070H
  0000a	48 8d 6c 24 20	 lea	 rbp, QWORD PTR [rsp+32]
  0000f	48 8d 0d 00 00
	00 00		 lea	 rcx, OFFSET FLAT:__14F7CB70_vector
  00016	e8 00 00 00 00	 call	 __CheckForDebuggerJustMyCode

; 1882 :         return (_STD min)(

  0001b	48 8b 4d 60	 mov	 rcx, QWORD PTR this$[rbp]
  0001f	e8 00 00 00 00	 call	 ?_Getal@?$vector@UVertexDefault@@V?$allocator@UVertexDefault@@@std@@@std@@AEBAAEBV?$allocator@UVertexDefault@@@2@XZ ; std::vector<VertexDefault,std::allocator<VertexDefault> >::_Getal
  00024	48 8b c8	 mov	 rcx, rax
  00027	e8 00 00 00 00	 call	 ?max_size@?$_Default_allocator_traits@V?$allocator@UVertexDefault@@@std@@@std@@SA_KAEBV?$allocator@UVertexDefault@@@2@@Z ; std::_Default_allocator_traits<std::allocator<VertexDefault> >::max_size
  0002c	48 89 45 40	 mov	 QWORD PTR $T1[rbp], rax
  00030	e8 00 00 00 00	 call	 ?max@?$numeric_limits@_J@std@@SA_JXZ ; std::numeric_limits<__int64>::max
  00035	48 89 45 48	 mov	 QWORD PTR $T2[rbp], rax
  00039	48 8d 55 40	 lea	 rdx, QWORD PTR $T1[rbp]
  0003d	48 8d 4d 48	 lea	 rcx, QWORD PTR $T2[rbp]
  00041	e8 00 00 00 00	 call	 ??$min@_K@std@@YAAEB_KAEB_K0@Z ; std::min<unsigned __int64>
  00046	48 8b 00	 mov	 rax, QWORD PTR [rax]

; 1883 :             static_cast<size_type>((numeric_limits<difference_type>::max)()), _Alty_traits::max_size(_Getal()));
; 1884 :     }

  00049	48 8d 65 50	 lea	 rsp, QWORD PTR [rbp+80]
  0004d	5d		 pop	 rbp
  0004e	c3		 ret	 0
?max_size@?$vector@UVertexDefault@@V?$allocator@UVertexDefault@@@std@@@std@@QEBA_KXZ ENDP ; std::vector<VertexDefault,std::allocator<VertexDefault> >::max_size
_TEXT	ENDS
; Function compile flags: /Odtp /ZI
; File C:\Program Files\Microsoft Visual Studio\2022\Preview\VC\Tools\MSVC\14.38.33030\include\vector
;	COMDAT ?size@?$vector@UVertexDefault@@V?$allocator@UVertexDefault@@@std@@@std@@QEBA_KXZ
_TEXT	SEGMENT
_My_data$ = 0
this$ = 96
?size@?$vector@UVertexDefault@@V?$allocator@UVertexDefault@@@std@@@std@@QEBA_KXZ PROC ; std::vector<VertexDefault,std::allocator<VertexDefault> >::size, COMDAT

; 1876 :     _NODISCARD _CONSTEXPR20 size_type size() const noexcept {

$LN3:
  00000	48 89 4c 24 08	 mov	 QWORD PTR [rsp+8], rcx
  00005	55		 push	 rbp
  00006	48 83 ec 70	 sub	 rsp, 112		; 00000070H
  0000a	48 8d 6c 24 20	 lea	 rbp, QWORD PTR [rsp+32]
  0000f	48 8d 0d 00 00
	00 00		 lea	 rcx, OFFSET FLAT:__14F7CB70_vector
  00016	e8 00 00 00 00	 call	 __CheckForDebuggerJustMyCode

; 1877 :         auto& _My_data = _Mypair._Myval2;

  0001b	48 8b 45 60	 mov	 rax, QWORD PTR this$[rbp]
  0001f	48 89 45 00	 mov	 QWORD PTR _My_data$[rbp], rax

; 1878 :         return static_cast<size_type>(_My_data._Mylast - _My_data._Myfirst);

  00023	48 8b 45 00	 mov	 rax, QWORD PTR _My_data$[rbp]
  00027	48 8b 4d 00	 mov	 rcx, QWORD PTR _My_data$[rbp]
  0002b	48 8b 49 08	 mov	 rcx, QWORD PTR [rcx+8]
  0002f	48 8b 40 10	 mov	 rax, QWORD PTR [rax+16]
  00033	48 2b c1	 sub	 rax, rcx
  00036	48 99		 cdq
  00038	b9 48 00 00 00	 mov	 ecx, 72			; 00000048H
  0003d	48 f7 f9	 idiv	 rcx

; 1879 :     }

  00040	48 8d 65 50	 lea	 rsp, QWORD PTR [rbp+80]
  00044	5d		 pop	 rbp
  00045	c3		 ret	 0
?size@?$vector@UVertexDefault@@V?$allocator@UVertexDefault@@@std@@@std@@QEBA_KXZ ENDP ; std::vector<VertexDefault,std::allocator<VertexDefault> >::size
_TEXT	ENDS
; Function compile flags: /Odtp /ZI
; File C:\Program Files\Microsoft Visual Studio\2022\Preview\VC\Tools\MSVC\14.38.33030\include\vector
;	COMDAT ?data@?$vector@UVertexDefault@@V?$allocator@UVertexDefault@@@std@@@std@@QEAAPEAUVertexDefault@@XZ
_TEXT	SEGMENT
this$ = 80
?data@?$vector@UVertexDefault@@V?$allocator@UVertexDefault@@@std@@@std@@QEAAPEAUVertexDefault@@XZ PROC ; std::vector<VertexDefault,std::allocator<VertexDefault> >::data, COMDAT

; 1795 :     _NODISCARD _CONSTEXPR20 _Ty* data() noexcept {

$LN3:
  00000	48 89 4c 24 08	 mov	 QWORD PTR [rsp+8], rcx
  00005	55		 push	 rbp
  00006	48 83 ec 60	 sub	 rsp, 96			; 00000060H
  0000a	48 8d 6c 24 20	 lea	 rbp, QWORD PTR [rsp+32]
  0000f	48 8d 0d 00 00
	00 00		 lea	 rcx, OFFSET FLAT:__14F7CB70_vector
  00016	e8 00 00 00 00	 call	 __CheckForDebuggerJustMyCode

; 1796 :         return _Unfancy_maybe_null(_Mypair._Myval2._Myfirst);

  0001b	48 8b 45 50	 mov	 rax, QWORD PTR this$[rbp]
  0001f	48 8b 48 08	 mov	 rcx, QWORD PTR [rax+8]
  00023	e8 00 00 00 00	 call	 ??$_Unfancy_maybe_null@UVertexDefault@@@std@@YAPEAUVertexDefault@@PEAU1@@Z ; std::_Unfancy_maybe_null<VertexDefault>

; 1797 :     }

  00028	48 8d 65 40	 lea	 rsp, QWORD PTR [rbp+64]
  0002c	5d		 pop	 rbp
  0002d	c3		 ret	 0
?data@?$vector@UVertexDefault@@V?$allocator@UVertexDefault@@@std@@@std@@QEAAPEAUVertexDefault@@XZ ENDP ; std::vector<VertexDefault,std::allocator<VertexDefault> >::data
_TEXT	ENDS
; Function compile flags: /Odtp /ZI
; File C:\Program Files\Microsoft Visual Studio\2022\Preview\VC\Tools\MSVC\14.38.33030\include\vector
;	COMDAT ??1?$vector@UVertexDefault@@V?$allocator@UVertexDefault@@@std@@@std@@QEAA@XZ
_TEXT	SEGMENT
_Alproxy$ = 0
$S2$ = 8
$T1 = 73
this$ = 112
??1?$vector@UVertexDefault@@V?$allocator@UVertexDefault@@@std@@@std@@QEAA@XZ PROC ; std::vector<VertexDefault,std::allocator<VertexDefault> >::~vector<VertexDefault,std::allocator<VertexDefault> >, COMDAT

; 765  :     _CONSTEXPR20 ~vector() noexcept {

$LN3:
  00000	48 89 4c 24 08	 mov	 QWORD PTR [rsp+8], rcx
  00005	55		 push	 rbp
  00006	48 81 ec 80 00
	00 00		 sub	 rsp, 128		; 00000080H
  0000d	48 8d 6c 24 20	 lea	 rbp, QWORD PTR [rsp+32]
  00012	48 8d 0d 00 00
	00 00		 lea	 rcx, OFFSET FLAT:__14F7CB70_vector
  00019	e8 00 00 00 00	 call	 __CheckForDebuggerJustMyCode

; 766  :         _Tidy();

  0001e	48 8b 4d 70	 mov	 rcx, QWORD PTR this$[rbp]
  00022	e8 00 00 00 00	 call	 ?_Tidy@?$vector@UVertexDefault@@V?$allocator@UVertexDefault@@@std@@@std@@AEAAXXZ ; std::vector<VertexDefault,std::allocator<VertexDefault> >::_Tidy

; 767  : #if _ITERATOR_DEBUG_LEVEL != 0
; 768  :         auto&& _Alproxy = _GET_PROXY_ALLOCATOR(_Alty, _Getal());

  00027	48 8b 4d 70	 mov	 rcx, QWORD PTR this$[rbp]
  0002b	e8 00 00 00 00	 call	 ?_Getal@?$vector@UVertexDefault@@V?$allocator@UVertexDefault@@@std@@@std@@AEAAAEAV?$allocator@UVertexDefault@@@2@XZ ; std::vector<VertexDefault,std::allocator<VertexDefault> >::_Getal
  00030	48 8b d0	 mov	 rdx, rax
  00033	48 8d 4d 08	 lea	 rcx, QWORD PTR $S2$[rbp]
  00037	e8 00 00 00 00	 call	 ??$?0UVertexDefault@@@?$allocator@U_Container_proxy@std@@@std@@QEAA@AEBV?$allocator@UVertexDefault@@@1@@Z ; std::allocator<std::_Container_proxy>::allocator<std::_Container_proxy><VertexDefault>
  0003c	48 8d 45 08	 lea	 rax, QWORD PTR $S2$[rbp]
  00040	48 89 45 00	 mov	 QWORD PTR _Alproxy$[rbp], rax

; 769  :         _Delete_plain_internal(_Alproxy, _STD exchange(_Mypair._Myval2._Myproxy, nullptr));

  00044	48 c7 45 49 00
	00 00 00	 mov	 QWORD PTR $T1[rbp], 0
  0004c	48 8b 45 70	 mov	 rax, QWORD PTR this$[rbp]
  00050	48 8d 55 49	 lea	 rdx, QWORD PTR $T1[rbp]
  00054	48 8b c8	 mov	 rcx, rax
  00057	e8 00 00 00 00	 call	 ??$exchange@PEAU_Container_proxy@std@@$$T@std@@YAPEAU_Container_proxy@0@AEAPEAU10@$$QEA$$T@Z ; std::exchange<std::_Container_proxy *,std::nullptr_t>
  0005c	48 8b d0	 mov	 rdx, rax
  0005f	48 8b 4d 00	 mov	 rcx, QWORD PTR _Alproxy$[rbp]
  00063	e8 00 00 00 00	 call	 ??$_Delete_plain_internal@V?$allocator@U_Container_proxy@std@@@std@@@std@@YAXAEAV?$allocator@U_Container_proxy@std@@@0@QEAU_Container_proxy@0@@Z ; std::_Delete_plain_internal<std::allocator<std::_Container_proxy> >

; 770  : #endif // _ITERATOR_DEBUG_LEVEL != 0
; 771  :     }

  00068	48 8d 65 60	 lea	 rsp, QWORD PTR [rbp+96]
  0006c	5d		 pop	 rbp
  0006d	c3		 ret	 0
??1?$vector@UVertexDefault@@V?$allocator@UVertexDefault@@@std@@@std@@QEAA@XZ ENDP ; std::vector<VertexDefault,std::allocator<VertexDefault> >::~vector<VertexDefault,std::allocator<VertexDefault> >
_TEXT	ENDS
; Function compile flags: /Odtp /ZI
; File C:\Program Files\Microsoft Visual Studio\2022\Preview\VC\Tools\MSVC\14.38.33030\include\vector
;	COMDAT ??0?$vector@UVertexDefault@@V?$allocator@UVertexDefault@@@std@@@std@@QEAA@AEBV01@@Z
_TEXT	SEGMENT
_Right_data$ = 0
_Count$ = 8
$T1 = 80
$T2 = 81
$T3 = 82
tv78 = 88
tv76 = 96
this$ = 128
_Right$ = 136
??0?$vector@UVertexDefault@@V?$allocator@UVertexDefault@@@std@@@std@@QEAA@AEBV01@@Z PROC ; std::vector<VertexDefault,std::allocator<VertexDefault> >::vector<VertexDefault,std::allocator<VertexDefault> >, COMDAT

; 682  :         : _Mypair(_One_then_variadic_args_t{}, _Alty_traits::select_on_container_copy_construction(_Right._Getal())) {

$LN3:
  00000	48 89 54 24 10	 mov	 QWORD PTR [rsp+16], rdx
  00005	48 89 4c 24 08	 mov	 QWORD PTR [rsp+8], rcx
  0000a	55		 push	 rbp
  0000b	48 81 ec 90 00
	00 00		 sub	 rsp, 144		; 00000090H
  00012	48 8d 6c 24 20	 lea	 rbp, QWORD PTR [rsp+32]
  00017	48 8d 0d 00 00
	00 00		 lea	 rcx, OFFSET FLAT:__14F7CB70_vector
  0001e	e8 00 00 00 00	 call	 __CheckForDebuggerJustMyCode
  00023	48 8b 85 80 00
	00 00		 mov	 rax, QWORD PTR this$[rbp]
  0002a	48 89 45 58	 mov	 QWORD PTR tv78[rbp], rax
  0002e	48 8b 8d 88 00
	00 00		 mov	 rcx, QWORD PTR _Right$[rbp]
  00035	e8 00 00 00 00	 call	 ?_Getal@?$vector@UVertexDefault@@V?$allocator@UVertexDefault@@@std@@@std@@AEBAAEBV?$allocator@UVertexDefault@@@2@XZ ; std::vector<VertexDefault,std::allocator<VertexDefault> >::_Getal
  0003a	48 8b d0	 mov	 rdx, rax
  0003d	48 8d 4d 50	 lea	 rcx, QWORD PTR $T1[rbp]
  00041	e8 00 00 00 00	 call	 ?select_on_container_copy_construction@?$_Default_allocator_traits@V?$allocator@UVertexDefault@@@std@@@std@@SA?AV?$allocator@UVertexDefault@@@2@AEBV32@@Z ; std::_Default_allocator_traits<std::allocator<VertexDefault> >::select_on_container_copy_construction
  00046	48 89 45 60	 mov	 QWORD PTR tv76[rbp], rax
  0004a	0f b6 45 51	 movzx	 eax, BYTE PTR $T2[rbp]
  0004e	88 45 52	 mov	 BYTE PTR $T3[rbp], al
  00051	4c 8b 45 60	 mov	 r8, QWORD PTR tv76[rbp]
  00055	0f b6 55 52	 movzx	 edx, BYTE PTR $T3[rbp]
  00059	48 8b 4d 58	 mov	 rcx, QWORD PTR tv78[rbp]
  0005d	e8 00 00 00 00	 call	 ??$?0V?$allocator@UVertexDefault@@@std@@$$V@?$_Compressed_pair@V?$allocator@UVertexDefault@@@std@@V?$_Vector_val@U?$_Simple_types@UVertexDefault@@@std@@@2@$00@std@@QEAA@U_One_then_variadic_args_t@1@$$QEAV?$allocator@UVertexDefault@@@1@@Z ; std::_Compressed_pair<std::allocator<VertexDefault>,std::_Vector_val<std::_Simple_types<VertexDefault> >,1>::_Compressed_pair<std::allocator<VertexDefault>,std::_Vector_val<std::_Simple_types<VertexDefault> >,1><std::allocator<VertexDefault> >

; 683  :         const auto& _Right_data = _Right._Mypair._Myval2;

  00062	48 8b 85 88 00
	00 00		 mov	 rax, QWORD PTR _Right$[rbp]
  00069	48 89 45 00	 mov	 QWORD PTR _Right_data$[rbp], rax

; 684  :         const auto _Count       = static_cast<size_type>(_Right_data._Mylast - _Right_data._Myfirst);

  0006d	48 8b 45 00	 mov	 rax, QWORD PTR _Right_data$[rbp]
  00071	48 8b 4d 00	 mov	 rcx, QWORD PTR _Right_data$[rbp]
  00075	48 8b 49 08	 mov	 rcx, QWORD PTR [rcx+8]
  00079	48 8b 40 10	 mov	 rax, QWORD PTR [rax+16]
  0007d	48 2b c1	 sub	 rax, rcx
  00080	48 99		 cdq
  00082	b9 48 00 00 00	 mov	 ecx, 72			; 00000048H
  00087	48 f7 f9	 idiv	 rcx
  0008a	48 89 45 08	 mov	 QWORD PTR _Count$[rbp], rax

; 685  :         _Construct_n(_Count, _Right_data._Myfirst, _Right_data._Mylast);

  0008e	48 8b 45 00	 mov	 rax, QWORD PTR _Right_data$[rbp]
  00092	48 83 c0 10	 add	 rax, 16
  00096	48 8b 4d 00	 mov	 rcx, QWORD PTR _Right_data$[rbp]
  0009a	48 83 c1 08	 add	 rcx, 8
  0009e	4c 8b c8	 mov	 r9, rax
  000a1	4c 8b c1	 mov	 r8, rcx
  000a4	48 8b 55 08	 mov	 rdx, QWORD PTR _Count$[rbp]
  000a8	48 8b 8d 80 00
	00 00		 mov	 rcx, QWORD PTR this$[rbp]
  000af	e8 00 00 00 00	 call	 ??$_Construct_n@AEBQEAUVertexDefault@@AEBQEAU1@@?$vector@UVertexDefault@@V?$allocator@UVertexDefault@@@std@@@std@@AEAAX_KAEBQEAUVertexDefault@@1@Z ; std::vector<VertexDefault,std::allocator<VertexDefault> >::_Construct_n<VertexDefault * const &,VertexDefault * const &>

; 686  :     }

  000b4	48 8b 85 80 00
	00 00		 mov	 rax, QWORD PTR this$[rbp]
  000bb	48 8d 65 70	 lea	 rsp, QWORD PTR [rbp+112]
  000bf	5d		 pop	 rbp
  000c0	c3		 ret	 0
??0?$vector@UVertexDefault@@V?$allocator@UVertexDefault@@@std@@@std@@QEAA@AEBV01@@Z ENDP ; std::vector<VertexDefault,std::allocator<VertexDefault> >::vector<VertexDefault,std::allocator<VertexDefault> >
_TEXT	ENDS
; Function compile flags: /Odtp /ZI
; File C:\Program Files\Microsoft Visual Studio\2022\Preview\VC\Tools\MSVC\14.38.33030\include\xmemory
;	COMDAT ?select_on_container_copy_construction@?$_Default_allocator_traits@V?$allocator@UVertexDefault@@@std@@@std@@SA?AV?$allocator@UVertexDefault@@@2@AEBV32@@Z
_TEXT	SEGMENT
__$ReturnUdt$ = 80
_Al$ = 88
?select_on_container_copy_construction@?$_Default_allocator_traits@V?$allocator@UVertexDefault@@@std@@@std@@SA?AV?$allocator@UVertexDefault@@@2@AEBV32@@Z PROC ; std::_Default_allocator_traits<std::allocator<VertexDefault> >::select_on_container_copy_construction, COMDAT

; 740  :     _NODISCARD static _CONSTEXPR20 _Alloc select_on_container_copy_construction(const _Alloc& _Al) {

$LN3:
  00000	48 89 54 24 10	 mov	 QWORD PTR [rsp+16], rdx
  00005	48 89 4c 24 08	 mov	 QWORD PTR [rsp+8], rcx
  0000a	55		 push	 rbp
  0000b	48 83 ec 60	 sub	 rsp, 96			; 00000060H
  0000f	48 8d 6c 24 20	 lea	 rbp, QWORD PTR [rsp+32]
  00014	48 8d 0d 00 00
	00 00		 lea	 rcx, OFFSET FLAT:__67F55BEA_xmemory
  0001b	e8 00 00 00 00	 call	 __CheckForDebuggerJustMyCode

; 741  :         return _Al;

  00020	48 8b 45 50	 mov	 rax, QWORD PTR __$ReturnUdt$[rbp]

; 742  :     }

  00024	48 8d 65 40	 lea	 rsp, QWORD PTR [rbp+64]
  00028	5d		 pop	 rbp
  00029	c3		 ret	 0
?select_on_container_copy_construction@?$_Default_allocator_traits@V?$allocator@UVertexDefault@@@std@@@std@@SA?AV?$allocator@UVertexDefault@@@2@AEBV32@@Z ENDP ; std::_Default_allocator_traits<std::allocator<VertexDefault> >::select_on_container_copy_construction
_TEXT	ENDS
; Function compile flags: /Odtp /ZI
; File C:\Program Files\Microsoft Visual Studio\2022\Preview\VC\Tools\MSVC\14.38.33030\include\xmemory
;	COMDAT ?max_size@?$_Default_allocator_traits@V?$allocator@UVertexDefault@@@std@@@std@@SA_KAEBV?$allocator@UVertexDefault@@@2@@Z
_TEXT	SEGMENT
__formal$ = 80
?max_size@?$_Default_allocator_traits@V?$allocator@UVertexDefault@@@std@@@std@@SA_KAEBV?$allocator@UVertexDefault@@@2@@Z PROC ; std::_Default_allocator_traits<std::allocator<VertexDefault> >::max_size, COMDAT

; 736  :     _NODISCARD static _CONSTEXPR20 size_type max_size(const _Alloc&) noexcept {

$LN3:
  00000	48 89 4c 24 08	 mov	 QWORD PTR [rsp+8], rcx
  00005	55		 push	 rbp
  00006	48 83 ec 60	 sub	 rsp, 96			; 00000060H
  0000a	48 8d 6c 24 20	 lea	 rbp, QWORD PTR [rsp+32]
  0000f	48 8d 0d 00 00
	00 00		 lea	 rcx, OFFSET FLAT:__67F55BEA_xmemory
  00016	e8 00 00 00 00	 call	 __CheckForDebuggerJustMyCode

; 737  :         return static_cast<size_t>(-1) / sizeof(value_type);

  0001b	48 b8 8e e3 38
	8e e3 38 8e 03	 mov	 rax, 256204778801521550	; 038e38e38e38e38eH

; 738  :     }

  00025	48 8d 65 40	 lea	 rsp, QWORD PTR [rbp+64]
  00029	5d		 pop	 rbp
  0002a	c3		 ret	 0
?max_size@?$_Default_allocator_traits@V?$allocator@UVertexDefault@@@std@@@std@@SA_KAEBV?$allocator@UVertexDefault@@@2@@Z ENDP ; std::_Default_allocator_traits<std::allocator<VertexDefault> >::max_size
_TEXT	ENDS
; Function compile flags: /Odtp /ZI
; File C:\Program Files\Microsoft Visual Studio\2022\Preview\VC\Tools\MSVC\14.38.33030\include\xmemory
;	COMDAT ?allocate@?$allocator@UVertexDefault@@@std@@QEAAPEAUVertexDefault@@_K@Z
_TEXT	SEGMENT
this$ = 80
_Count$ = 88
?allocate@?$allocator@UVertexDefault@@@std@@QEAAPEAUVertexDefault@@_K@Z PROC ; std::allocator<VertexDefault>::allocate, COMDAT

; 976  :     _NODISCARD_RAW_PTR_ALLOC _CONSTEXPR20 __declspec(allocator) _Ty* allocate(_CRT_GUARDOVERFLOW const size_t _Count) {

$LN3:
  00000	48 89 54 24 10	 mov	 QWORD PTR [rsp+16], rdx
  00005	48 89 4c 24 08	 mov	 QWORD PTR [rsp+8], rcx
  0000a	55		 push	 rbp
  0000b	48 83 ec 60	 sub	 rsp, 96			; 00000060H
  0000f	48 8d 6c 24 20	 lea	 rbp, QWORD PTR [rsp+32]
  00014	48 8d 0d 00 00
	00 00		 lea	 rcx, OFFSET FLAT:__67F55BEA_xmemory
  0001b	e8 00 00 00 00	 call	 __CheckForDebuggerJustMyCode

; 977  :         static_assert(sizeof(value_type) > 0, "value_type must be complete before calling allocate.");
; 978  :         return static_cast<_Ty*>(_Allocate<_New_alignof<_Ty>>(_Get_size_of_n<sizeof(_Ty)>(_Count)));

  00020	48 8b 4d 58	 mov	 rcx, QWORD PTR _Count$[rbp]
  00024	e8 00 00 00 00	 call	 ??$_Get_size_of_n@$0EI@@std@@YA_K_K@Z ; std::_Get_size_of_n<72>
  00029	48 8b c8	 mov	 rcx, rax
  0002c	e8 00 00 00 00	 call	 ??$_Allocate@$0BA@U_Default_allocate_traits@std@@$0A@@std@@YAPEAX_K@Z ; std::_Allocate<16,std::_Default_allocate_traits,0>

; 979  :     }

  00031	48 8d 65 40	 lea	 rsp, QWORD PTR [rbp+64]
  00035	5d		 pop	 rbp
  00036	c3		 ret	 0
?allocate@?$allocator@UVertexDefault@@@std@@QEAAPEAUVertexDefault@@_K@Z ENDP ; std::allocator<VertexDefault>::allocate
_TEXT	ENDS
; Function compile flags: /Odtp /ZI
; File C:\Program Files\Microsoft Visual Studio\2022\Preview\VC\Tools\MSVC\14.38.33030\include\xmemory
;	COMDAT ?deallocate@?$allocator@UVertexDefault@@@std@@QEAAXQEAUVertexDefault@@_K@Z
_TEXT	SEGMENT
this$ = 80
_Ptr$ = 88
_Count$ = 96
?deallocate@?$allocator@UVertexDefault@@@std@@QEAAXQEAUVertexDefault@@_K@Z PROC ; std::allocator<VertexDefault>::deallocate, COMDAT

; 970  :     _CONSTEXPR20 void deallocate(_Ty* const _Ptr, const size_t _Count) {

$LN13:
  00000	4c 89 44 24 18	 mov	 QWORD PTR [rsp+24], r8
  00005	48 89 54 24 10	 mov	 QWORD PTR [rsp+16], rdx
  0000a	48 89 4c 24 08	 mov	 QWORD PTR [rsp+8], rcx
  0000f	55		 push	 rbp
  00010	48 83 ec 70	 sub	 rsp, 112		; 00000070H
  00014	48 8d 6c 24 30	 lea	 rbp, QWORD PTR [rsp+48]
  00019	48 8d 0d 00 00
	00 00		 lea	 rcx, OFFSET FLAT:__67F55BEA_xmemory
  00020	e8 00 00 00 00	 call	 __CheckForDebuggerJustMyCode
$LN4@deallocate:

; 971  :         _STL_ASSERT(_Ptr != nullptr || _Count == 0, "null pointer cannot point to a block of non-zero size");

  00025	48 83 7d 58 00	 cmp	 QWORD PTR _Ptr$[rbp], 0
  0002a	75 07		 jne	 SHORT $LN10@deallocate
  0002c	48 83 7d 60 00	 cmp	 QWORD PTR _Count$[rbp], 0
  00031	75 02		 jne	 SHORT $LN8@deallocate
$LN10@deallocate:
  00033	eb 6b		 jmp	 SHORT $LN9@deallocate
$LN8@deallocate:
$LN7@deallocate:
  00035	48 8d 05 00 00
	00 00		 lea	 rax, OFFSET FLAT:??_C@_0DG@KGHKKGBC@null?5pointer?5cannot?5point?5to?5a?5@
  0003c	48 89 44 24 28	 mov	 QWORD PTR [rsp+40], rax
  00041	48 8d 05 00 00
	00 00		 lea	 rax, OFFSET FLAT:??_C@_02DKCKIIND@?$CFs@
  00048	48 89 44 24 20	 mov	 QWORD PTR [rsp+32], rax
  0004d	45 33 c9	 xor	 r9d, r9d
  00050	41 b8 cb 03 00
	00		 mov	 r8d, 971		; 000003cbH
  00056	48 8d 15 00 00
	00 00		 lea	 rdx, OFFSET FLAT:??_C@_0GA@FLDGEGM@C?3?2Program?5Files?2Microsoft?5Visu@
  0005d	b9 02 00 00 00	 mov	 ecx, 2
  00062	ff 15 00 00 00
	00		 call	 QWORD PTR __imp__CrtDbgReport
  00068	83 f8 01	 cmp	 eax, 1
  0006b	75 03		 jne	 SHORT $LN12@deallocate
  0006d	cc		 int	 3
  0006e	33 c0		 xor	 eax, eax
$LN12@deallocate:
  00070	48 c7 44 24 20
	00 00 00 00	 mov	 QWORD PTR [rsp+32], 0
  00079	41 b9 cb 03 00
	00		 mov	 r9d, 971		; 000003cbH
  0007f	4c 8d 05 00 00
	00 00		 lea	 r8, OFFSET FLAT:??_C@_1MA@IKJDCOIC@?$AAC?$AA?3?$AA?2?$AAP?$AAr?$AAo?$AAg?$AAr?$AAa?$AAm?$AA?5?$AAF?$AAi?$AAl?$AAe@
  00086	48 8d 15 00 00
	00 00		 lea	 rdx, OFFSET FLAT:??_C@_11LOCGONAA@@
  0008d	48 8d 0d 00 00
	00 00		 lea	 rcx, OFFSET FLAT:??_C@_1HA@FACCKGGH@?$AA?$CC?$AAn?$AAu?$AAl?$AAl?$AA?5?$AAp?$AAo?$AAi?$AAn?$AAt?$AAe?$AAr?$AA?5?$AAc@
  00094	ff 15 00 00 00
	00		 call	 QWORD PTR __imp__invalid_parameter
  0009a	33 c0		 xor	 eax, eax
  0009c	85 c0		 test	 eax, eax
  0009e	75 95		 jne	 SHORT $LN7@deallocate
$LN9@deallocate:
  000a0	33 c0		 xor	 eax, eax
  000a2	85 c0		 test	 eax, eax
  000a4	0f 85 7b ff ff
	ff		 jne	 $LN4@deallocate

; 972  :         // no overflow check on the following multiply; we assume _Allocate did that check
; 973  :         _Deallocate<_New_alignof<_Ty>>(_Ptr, sizeof(_Ty) * _Count);

  000aa	48 6b 45 60 48	 imul	 rax, QWORD PTR _Count$[rbp], 72 ; 00000048H
  000af	48 8b d0	 mov	 rdx, rax
  000b2	48 8b 4d 58	 mov	 rcx, QWORD PTR _Ptr$[rbp]
  000b6	e8 00 00 00 00	 call	 ??$_Deallocate@$0BA@$0A@@std@@YAXPEAX_K@Z ; std::_Deallocate<16,0>

; 974  :     }

  000bb	48 8d 65 40	 lea	 rsp, QWORD PTR [rbp+64]
  000bf	5d		 pop	 rbp
  000c0	c3		 ret	 0
?deallocate@?$allocator@UVertexDefault@@@std@@QEAAXQEAUVertexDefault@@_K@Z ENDP ; std::allocator<VertexDefault>::deallocate
_TEXT	ENDS
; Function compile flags: /Odtp /ZI
;	COMDAT ??1?$future@X@std@@QEAA@XZ
_TEXT	SEGMENT
this$ = 80
??1?$future@X@std@@QEAA@XZ PROC				; std::future<void>::~future<void>, COMDAT
$LN3:
  00000	48 89 4c 24 08	 mov	 QWORD PTR [rsp+8], rcx
  00005	55		 push	 rbp
  00006	48 83 ec 60	 sub	 rsp, 96			; 00000060H
  0000a	48 8d 6c 24 20	 lea	 rbp, QWORD PTR [rsp+32]
  0000f	48 8b 4d 50	 mov	 rcx, QWORD PTR this$[rbp]
  00013	e8 00 00 00 00	 call	 ??1?$_State_manager@H@std@@QEAA@XZ ; std::_State_manager<int>::~_State_manager<int>
  00018	48 8d 65 40	 lea	 rsp, QWORD PTR [rbp+64]
  0001c	5d		 pop	 rbp
  0001d	c3		 ret	 0
??1?$future@X@std@@QEAA@XZ ENDP				; std::future<void>::~future<void>
_TEXT	ENDS
; Function compile flags: /Odtp /ZI
; File C:\Program Files\Microsoft Visual Studio\2022\Preview\VC\Tools\MSVC\14.38.33030\include\future
;	COMDAT ?wait@?$_State_manager@H@std@@QEBAXXZ
_TEXT	SEGMENT
this$ = 80
?wait@?$_State_manager@H@std@@QEBAXXZ PROC		; std::_State_manager<int>::wait, COMDAT

; 772  :     void wait() const { // wait for signal

$LN4:
  00000	48 89 4c 24 08	 mov	 QWORD PTR [rsp+8], rcx
  00005	55		 push	 rbp
  00006	48 83 ec 60	 sub	 rsp, 96			; 00000060H
  0000a	48 8d 6c 24 20	 lea	 rbp, QWORD PTR [rsp+32]
  0000f	48 8d 0d 00 00
	00 00		 lea	 rcx, OFFSET FLAT:__C772B2A3_future
  00016	e8 00 00 00 00	 call	 __CheckForDebuggerJustMyCode

; 773  :         if (!valid()) {

  0001b	48 8b 4d 50	 mov	 rcx, QWORD PTR this$[rbp]
  0001f	e8 00 00 00 00	 call	 ?valid@?$_State_manager@H@std@@QEBA_NXZ ; std::_State_manager<int>::valid
  00024	0f b6 c0	 movzx	 eax, al
  00027	85 c0		 test	 eax, eax
  00029	75 0a		 jne	 SHORT $LN2@wait

; 774  :             _Throw_future_error2(future_errc::no_state);

  0002b	b9 04 00 00 00	 mov	 ecx, 4
  00030	e8 00 00 00 00	 call	 ?_Throw_future_error2@std@@YAXW4future_errc@1@@Z ; std::_Throw_future_error2
$LN2@wait:

; 775  :         }
; 776  : 
; 777  :         _Assoc_state->_Wait();

  00035	48 8b 45 50	 mov	 rax, QWORD PTR this$[rbp]
  00039	48 8b 00	 mov	 rax, QWORD PTR [rax]
  0003c	48 8b 4d 50	 mov	 rcx, QWORD PTR this$[rbp]
  00040	48 8b 09	 mov	 rcx, QWORD PTR [rcx]
  00043	48 8b 00	 mov	 rax, QWORD PTR [rax]
  00046	ff 50 08	 call	 QWORD PTR [rax+8]
$LN3@wait:

; 778  :     }

  00049	48 8d 65 40	 lea	 rsp, QWORD PTR [rbp+64]
  0004d	5d		 pop	 rbp
  0004e	c3		 ret	 0
?wait@?$_State_manager@H@std@@QEBAXXZ ENDP		; std::_State_manager<int>::wait
_TEXT	ENDS
; Function compile flags: /Odtp /ZI
; File C:\Program Files\Microsoft Visual Studio\2022\Preview\VC\Tools\MSVC\14.38.33030\include\future
;	COMDAT ?valid@?$_State_manager@H@std@@QEBA_NXZ
_TEXT	SEGMENT
tv74 = 64
this$ = 96
?valid@?$_State_manager@H@std@@QEBA_NXZ PROC		; std::_State_manager<int>::valid, COMDAT

; 768  :     _NODISCARD bool valid() const noexcept {

$LN6:
  00000	48 89 4c 24 08	 mov	 QWORD PTR [rsp+8], rcx
  00005	55		 push	 rbp
  00006	48 83 ec 70	 sub	 rsp, 112		; 00000070H
  0000a	48 8d 6c 24 20	 lea	 rbp, QWORD PTR [rsp+32]
  0000f	48 8d 0d 00 00
	00 00		 lea	 rcx, OFFSET FLAT:__C772B2A3_future
  00016	e8 00 00 00 00	 call	 __CheckForDebuggerJustMyCode

; 769  :         return _Assoc_state && !(_Get_only_once && _Assoc_state->_Already_retrieved());

  0001b	48 8b 45 60	 mov	 rax, QWORD PTR this$[rbp]
  0001f	48 83 38 00	 cmp	 QWORD PTR [rax], 0
  00023	74 28		 je	 SHORT $LN4@valid
  00025	48 8b 45 60	 mov	 rax, QWORD PTR this$[rbp]
  00029	0f b6 40 08	 movzx	 eax, BYTE PTR [rax+8]
  0002d	85 c0		 test	 eax, eax
  0002f	74 13		 je	 SHORT $LN3@valid
  00031	48 8b 45 60	 mov	 rax, QWORD PTR this$[rbp]
  00035	48 8b 08	 mov	 rcx, QWORD PTR [rax]
  00038	e8 00 00 00 00	 call	 ?_Already_retrieved@?$_Associated_state@H@std@@QEBA_NXZ ; std::_Associated_state<int>::_Already_retrieved
  0003d	0f b6 c0	 movzx	 eax, al
  00040	85 c0		 test	 eax, eax
  00042	75 09		 jne	 SHORT $LN4@valid
$LN3@valid:
  00044	c7 45 40 01 00
	00 00		 mov	 DWORD PTR tv74[rbp], 1
  0004b	eb 07		 jmp	 SHORT $LN5@valid
$LN4@valid:
  0004d	c7 45 40 00 00
	00 00		 mov	 DWORD PTR tv74[rbp], 0
$LN5@valid:
  00054	0f b6 45 40	 movzx	 eax, BYTE PTR tv74[rbp]

; 770  :     }

  00058	48 8d 65 50	 lea	 rsp, QWORD PTR [rbp+80]
  0005c	5d		 pop	 rbp
  0005d	c3		 ret	 0
?valid@?$_State_manager@H@std@@QEBA_NXZ ENDP		; std::_State_manager<int>::valid
_TEXT	ENDS
; Function compile flags: /Odtp /ZI
; File C:\Program Files\Microsoft Visual Studio\2022\Preview\VC\Tools\MSVC\14.38.33030\include\future
;	COMDAT ??1?$_State_manager@H@std@@QEAA@XZ
_TEXT	SEGMENT
this$ = 80
??1?$_State_manager@H@std@@QEAA@XZ PROC			; std::_State_manager<int>::~_State_manager<int>, COMDAT

; 734  :     ~_State_manager() noexcept {

$LN4:
  00000	48 89 4c 24 08	 mov	 QWORD PTR [rsp+8], rcx
  00005	55		 push	 rbp
  00006	48 83 ec 60	 sub	 rsp, 96			; 00000060H
  0000a	48 8d 6c 24 20	 lea	 rbp, QWORD PTR [rsp+32]
  0000f	48 8d 0d 00 00
	00 00		 lea	 rcx, OFFSET FLAT:__C772B2A3_future
  00016	e8 00 00 00 00	 call	 __CheckForDebuggerJustMyCode

; 735  :         if (_Assoc_state) {

  0001b	48 8b 45 50	 mov	 rax, QWORD PTR this$[rbp]
  0001f	48 83 38 00	 cmp	 QWORD PTR [rax], 0
  00023	74 0c		 je	 SHORT $LN2@State_mana

; 736  :             _Assoc_state->_Release();

  00025	48 8b 45 50	 mov	 rax, QWORD PTR this$[rbp]
  00029	48 8b 08	 mov	 rcx, QWORD PTR [rax]
  0002c	e8 00 00 00 00	 call	 ?_Release@?$_Associated_state@H@std@@QEAAXXZ ; std::_Associated_state<int>::_Release
$LN2@State_mana:

; 737  :         }
; 738  :     }

  00031	48 8d 65 40	 lea	 rsp, QWORD PTR [rbp+64]
  00035	5d		 pop	 rbp
  00036	c3		 ret	 0
??1?$_State_manager@H@std@@QEAA@XZ ENDP			; std::_State_manager<int>::~_State_manager<int>
_TEXT	ENDS
; Function compile flags: /Odtp /ZI
; File C:\Program Files\Microsoft Visual Studio\2022\Preview\VC\Tools\MSVC\14.38.33030\include\future
;	COMDAT ?_Delete_this@?$_Associated_state@H@std@@AEAAXXZ
_TEXT	SEGMENT
$T1 = 64
tv85 = 72
tv75 = 72
tv86 = 80
tv77 = 80
this$ = 112
?_Delete_this@?$_Associated_state@H@std@@AEAAXXZ PROC	; std::_Associated_state<int>::_Delete_this, COMDAT

; 432  :     void _Delete_this() noexcept { // delete this object

$LN7:
  00000	48 89 4c 24 08	 mov	 QWORD PTR [rsp+8], rcx
  00005	55		 push	 rbp
  00006	48 81 ec 80 00
	00 00		 sub	 rsp, 128		; 00000080H
  0000d	48 8d 6c 24 20	 lea	 rbp, QWORD PTR [rsp+32]
  00012	48 8d 0d 00 00
	00 00		 lea	 rcx, OFFSET FLAT:__C772B2A3_future
  00019	e8 00 00 00 00	 call	 __CheckForDebuggerJustMyCode

; 433  :         if (_Deleter) {

  0001e	48 8b 45 70	 mov	 rax, QWORD PTR this$[rbp]
  00022	48 83 b8 c8 00
	00 00 00	 cmp	 QWORD PTR [rax+200], 0
  0002a	74 31		 je	 SHORT $LN2@Delete_thi

; 434  :             _Deleter->_Delete(this);

  0002c	48 8b 45 70	 mov	 rax, QWORD PTR this$[rbp]
  00030	48 8b 80 c8 00
	00 00		 mov	 rax, QWORD PTR [rax+200]
  00037	48 89 45 48	 mov	 QWORD PTR tv75[rbp], rax
  0003b	48 8b 45 70	 mov	 rax, QWORD PTR this$[rbp]
  0003f	48 8b 80 c8 00
	00 00		 mov	 rax, QWORD PTR [rax+200]
  00046	48 8b 00	 mov	 rax, QWORD PTR [rax]
  00049	48 8b 00	 mov	 rax, QWORD PTR [rax]
  0004c	48 89 45 50	 mov	 QWORD PTR tv77[rbp], rax
  00050	48 8b 55 70	 mov	 rdx, QWORD PTR this$[rbp]
  00054	48 8b 4d 48	 mov	 rcx, QWORD PTR tv75[rbp]
  00058	ff 55 50	 call	 QWORD PTR tv77[rbp]

; 435  :         } else {

  0005b	eb 37		 jmp	 SHORT $LN3@Delete_thi
$LN2@Delete_thi:

; 436  :             delete this;

  0005d	48 8b 45 70	 mov	 rax, QWORD PTR this$[rbp]
  00061	48 89 45 40	 mov	 QWORD PTR $T1[rbp], rax
  00065	48 83 7d 40 00	 cmp	 QWORD PTR $T1[rbp], 0
  0006a	74 20		 je	 SHORT $LN5@Delete_thi
  0006c	48 8b 45 40	 mov	 rax, QWORD PTR $T1[rbp]
  00070	48 8b 00	 mov	 rax, QWORD PTR [rax]
  00073	48 8b 00	 mov	 rax, QWORD PTR [rax]
  00076	48 89 45 48	 mov	 QWORD PTR tv85[rbp], rax
  0007a	ba 01 00 00 00	 mov	 edx, 1
  0007f	48 8b 4d 40	 mov	 rcx, QWORD PTR $T1[rbp]
  00083	ff 55 48	 call	 QWORD PTR tv85[rbp]
  00086	48 89 45 50	 mov	 QWORD PTR tv86[rbp], rax
  0008a	eb 08		 jmp	 SHORT $LN3@Delete_thi
$LN5@Delete_thi:
  0008c	48 c7 45 50 00
	00 00 00	 mov	 QWORD PTR tv86[rbp], 0
$LN3@Delete_thi:

; 437  :         }
; 438  :     }

  00094	48 8d 65 60	 lea	 rsp, QWORD PTR [rbp+96]
  00098	5d		 pop	 rbp
  00099	c3		 ret	 0
?_Delete_this@?$_Associated_state@H@std@@AEAAXXZ ENDP	; std::_Associated_state<int>::_Delete_this
_TEXT	ENDS
; Function compile flags: /Odtp /ZI
; File C:\Program Files\Microsoft Visual Studio\2022\Preview\VC\Tools\MSVC\14.38.33030\include\future
;	COMDAT ?_Already_retrieved@?$_Associated_state@H@std@@QEBA_NXZ
_TEXT	SEGMENT
this$ = 80
?_Already_retrieved@?$_Associated_state@H@std@@QEBA_NXZ PROC ; std::_Associated_state<int>::_Already_retrieved, COMDAT

; 380  :     bool _Already_retrieved() const noexcept {

$LN3:
  00000	48 89 4c 24 08	 mov	 QWORD PTR [rsp+8], rcx
  00005	55		 push	 rbp
  00006	48 83 ec 60	 sub	 rsp, 96			; 00000060H
  0000a	48 8d 6c 24 20	 lea	 rbp, QWORD PTR [rsp+32]
  0000f	48 8d 0d 00 00
	00 00		 lea	 rcx, OFFSET FLAT:__C772B2A3_future
  00016	e8 00 00 00 00	 call	 __CheckForDebuggerJustMyCode

; 381  :         return _Retrieved;

  0001b	48 8b 45 50	 mov	 rax, QWORD PTR this$[rbp]
  0001f	0f b6 80 b8 00
	00 00		 movzx	 eax, BYTE PTR [rax+184]

; 382  :     }

  00026	48 8d 65 40	 lea	 rsp, QWORD PTR [rbp+64]
  0002a	5d		 pop	 rbp
  0002b	c3		 ret	 0
?_Already_retrieved@?$_Associated_state@H@std@@QEBA_NXZ ENDP ; std::_Associated_state<int>::_Already_retrieved
_TEXT	ENDS
; Function compile flags: /Odtp /ZI
; File C:\Program Files\Microsoft Visual Studio\2022\Preview\VC\Tools\MSVC\14.38.33030\include\future
;	COMDAT ?_Release@?$_Associated_state@H@std@@QEAAXXZ
_TEXT	SEGMENT
this$ = 80
?_Release@?$_Associated_state@H@std@@QEAAXXZ PROC	; std::_Associated_state<int>::_Release, COMDAT

; 226  :     void _Release() noexcept { // decrement reference count and destroy when zero

$LN4:
  00000	48 89 4c 24 08	 mov	 QWORD PTR [rsp+8], rcx
  00005	55		 push	 rbp
  00006	48 83 ec 60	 sub	 rsp, 96			; 00000060H
  0000a	48 8d 6c 24 20	 lea	 rbp, QWORD PTR [rsp+32]
  0000f	48 8d 0d 00 00
	00 00		 lea	 rcx, OFFSET FLAT:__C772B2A3_future
  00016	e8 00 00 00 00	 call	 __CheckForDebuggerJustMyCode

; 227  :         if (_MT_DECR(_Refs) == 0) {

  0001b	48 8b 45 50	 mov	 rax, QWORD PTR this$[rbp]
  0001f	48 83 c0 08	 add	 rax, 8
  00023	b9 ff ff ff ff	 mov	 ecx, -1
  00028	f0 0f c1 08	 lock xadd DWORD PTR [rax], ecx
  0002c	ff c9		 dec	 ecx
  0002e	8b c1		 mov	 eax, ecx
  00030	85 c0		 test	 eax, eax
  00032	75 09		 jne	 SHORT $LN2@Release

; 228  :             _Delete_this();

  00034	48 8b 4d 50	 mov	 rcx, QWORD PTR this$[rbp]
  00038	e8 00 00 00 00	 call	 ?_Delete_this@?$_Associated_state@H@std@@AEAAXXZ ; std::_Associated_state<int>::_Delete_this
$LN2@Release:

; 229  :         }
; 230  :     }

  0003d	48 8d 65 40	 lea	 rsp, QWORD PTR [rbp+64]
  00041	5d		 pop	 rbp
  00042	c3		 ret	 0
?_Release@?$_Associated_state@H@std@@QEAAXXZ ENDP	; std::_Associated_state<int>::_Release
_TEXT	ENDS
; Function compile flags: /Odtp /ZI
; File C:\Program Files\Microsoft Visual Studio\2022\Preview\VC\Tools\MSVC\14.38.33030\include\system_error
;	COMDAT ??$_Immortalize_memcpy_image@V_Future_error_category2@std@@@std@@YAAEBV_Future_error_category2@0@XZ
_TEXT	SEGMENT
??$_Immortalize_memcpy_image@V_Future_error_category2@std@@@std@@YAAEBV_Future_error_category2@0@XZ PROC ; std::_Immortalize_memcpy_image<std::_Future_error_category2>, COMDAT

; 647  : _NODISCARD const _Ty& _Immortalize_memcpy_image() noexcept {

$LN3:
  00000	40 55		 push	 rbp
  00002	48 83 ec 60	 sub	 rsp, 96			; 00000060H
  00006	48 8d 6c 24 20	 lea	 rbp, QWORD PTR [rsp+32]
  0000b	48 8d 0d 00 00
	00 00		 lea	 rcx, OFFSET FLAT:__E8E950EC_system_error
  00012	e8 00 00 00 00	 call	 __CheckForDebuggerJustMyCode

; 648  :     static constexpr _Ty _Static;
; 649  :     return _Static;

  00017	48 8d 05 00 00
	00 00		 lea	 rax, OFFSET FLAT:?_Static@?1???$_Immortalize_memcpy_image@V_Future_error_category2@std@@@std@@YAAEBV_Future_error_category2@1@XZ@4V21@B ; `std::_Immortalize_memcpy_image<std::_Future_error_category2>'::`2'::_Static

; 650  : }

  0001e	48 8d 65 40	 lea	 rsp, QWORD PTR [rbp+64]
  00022	5d		 pop	 rbp
  00023	c3		 ret	 0
??$_Immortalize_memcpy_image@V_Future_error_category2@std@@@std@@YAAEBV_Future_error_category2@0@XZ ENDP ; std::_Immortalize_memcpy_image<std::_Future_error_category2>
_TEXT	ENDS
; Function compile flags: /Odtp /ZI
;	COMDAT ??_G_Future_error_category2@std@@UEAAPEAXI@Z
_TEXT	SEGMENT
this$ = 80
__flags$ = 88
??_G_Future_error_category2@std@@UEAAPEAXI@Z PROC	; std::_Future_error_category2::`scalar deleting destructor', COMDAT
$LN4:
  00000	89 54 24 10	 mov	 DWORD PTR [rsp+16], edx
  00004	48 89 4c 24 08	 mov	 QWORD PTR [rsp+8], rcx
  00009	55		 push	 rbp
  0000a	48 83 ec 60	 sub	 rsp, 96			; 00000060H
  0000e	48 8d 6c 24 20	 lea	 rbp, QWORD PTR [rsp+32]
  00013	48 8b 4d 50	 mov	 rcx, QWORD PTR this$[rbp]
  00017	e8 00 00 00 00	 call	 ??1_Future_error_category2@std@@UEAA@XZ
  0001c	8b 45 58	 mov	 eax, DWORD PTR __flags$[rbp]
  0001f	83 e0 01	 and	 eax, 1
  00022	85 c0		 test	 eax, eax
  00024	74 0e		 je	 SHORT $LN2@scalar
  00026	ba 10 00 00 00	 mov	 edx, 16
  0002b	48 8b 4d 50	 mov	 rcx, QWORD PTR this$[rbp]
  0002f	e8 00 00 00 00	 call	 ??3@YAXPEAX_K@Z		; operator delete
$LN2@scalar:
  00034	48 8b 45 50	 mov	 rax, QWORD PTR this$[rbp]
  00038	48 8d 65 40	 lea	 rsp, QWORD PTR [rbp+64]
  0003c	5d		 pop	 rbp
  0003d	c3		 ret	 0
??_G_Future_error_category2@std@@UEAAPEAXI@Z ENDP	; std::_Future_error_category2::`scalar deleting destructor'
_TEXT	ENDS
; Function compile flags: /Odtp /ZI
;	COMDAT ??1_Future_error_category2@std@@UEAA@XZ
_TEXT	SEGMENT
this$ = 80
??1_Future_error_category2@std@@UEAA@XZ PROC		; std::_Future_error_category2::~_Future_error_category2, COMDAT
$LN3:
  00000	48 89 4c 24 08	 mov	 QWORD PTR [rsp+8], rcx
  00005	55		 push	 rbp
  00006	48 83 ec 60	 sub	 rsp, 96			; 00000060H
  0000a	48 8d 6c 24 20	 lea	 rbp, QWORD PTR [rsp+32]
  0000f	48 8b 4d 50	 mov	 rcx, QWORD PTR this$[rbp]
  00013	e8 00 00 00 00	 call	 ??1error_category@std@@UEAA@XZ ; std::error_category::~error_category
  00018	48 8d 65 40	 lea	 rsp, QWORD PTR [rbp+64]
  0001c	5d		 pop	 rbp
  0001d	c3		 ret	 0
??1_Future_error_category2@std@@UEAA@XZ ENDP		; std::_Future_error_category2::~_Future_error_category2
_TEXT	ENDS
; Function compile flags: /Odtp /ZI
; File C:\Program Files\Microsoft Visual Studio\2022\Preview\VC\Tools\MSVC\14.38.33030\include\future
;	COMDAT ?message@_Future_error_category2@std@@UEBA?AV?$basic_string@DU?$char_traits@D@std@@V?$allocator@D@2@@2@H@Z
_TEXT	SEGMENT
_Name$ = 0
$T1 = 72
this$ = 96
__$ReturnUdt$ = 104
_Errcode$ = 112
?message@_Future_error_category2@std@@UEBA?AV?$basic_string@DU?$char_traits@D@std@@V?$allocator@D@2@@2@H@Z PROC ; std::_Future_error_category2::message, COMDAT

; 155  :     string message(int _Errcode) const override {

$LN6:
  00000	44 89 44 24 18	 mov	 DWORD PTR [rsp+24], r8d
  00005	48 89 54 24 10	 mov	 QWORD PTR [rsp+16], rdx
  0000a	48 89 4c 24 08	 mov	 QWORD PTR [rsp+8], rcx
  0000f	55		 push	 rbp
  00010	48 83 ec 70	 sub	 rsp, 112		; 00000070H
  00014	48 8d 6c 24 20	 lea	 rbp, QWORD PTR [rsp+32]
  00019	c7 45 48 00 00
	00 00		 mov	 DWORD PTR $T1[rbp], 0
  00020	48 8d 0d 00 00
	00 00		 lea	 rcx, OFFSET FLAT:__C772B2A3_future
  00027	e8 00 00 00 00	 call	 __CheckForDebuggerJustMyCode

; 156  :         const char* _Name = _Future_error_map(_Errcode);

  0002c	8b 4d 70	 mov	 ecx, DWORD PTR _Errcode$[rbp]
  0002f	e8 00 00 00 00	 call	 ?_Future_error_map@std@@YAPEBDH@Z ; std::_Future_error_map
  00034	48 89 45 00	 mov	 QWORD PTR _Name$[rbp], rax

; 157  :         if (_Name) {

  00038	48 83 7d 00 00	 cmp	 QWORD PTR _Name$[rbp], 0
  0003d	74 1c		 je	 SHORT $LN2@message

; 158  :             return _Name;

  0003f	48 8b 55 00	 mov	 rdx, QWORD PTR _Name$[rbp]
  00043	48 8b 4d 68	 mov	 rcx, QWORD PTR __$ReturnUdt$[rbp]
  00047	e8 00 00 00 00	 call	 ??0?$basic_string@DU?$char_traits@D@std@@V?$allocator@D@2@@std@@QEAA@QEBD@Z ; std::basic_string<char,std::char_traits<char>,std::allocator<char> >::basic_string<char,std::char_traits<char>,std::allocator<char> >
  0004c	8b 45 48	 mov	 eax, DWORD PTR $T1[rbp]
  0004f	83 c8 01	 or	 eax, 1
  00052	89 45 48	 mov	 DWORD PTR $T1[rbp], eax
  00055	48 8b 45 68	 mov	 rax, QWORD PTR __$ReturnUdt$[rbp]
  00059	eb 21		 jmp	 SHORT $LN1@message
$LN2@message:

; 159  :         }
; 160  : 
; 161  :         return _Syserror_map(_Errcode);

  0005b	8b 4d 70	 mov	 ecx, DWORD PTR _Errcode$[rbp]
  0005e	e8 00 00 00 00	 call	 ?_Syserror_map@std@@YAPEBDH@Z ; std::_Syserror_map
  00063	48 8b d0	 mov	 rdx, rax
  00066	48 8b 4d 68	 mov	 rcx, QWORD PTR __$ReturnUdt$[rbp]
  0006a	e8 00 00 00 00	 call	 ??0?$basic_string@DU?$char_traits@D@std@@V?$allocator@D@2@@std@@QEAA@QEBD@Z ; std::basic_string<char,std::char_traits<char>,std::allocator<char> >::basic_string<char,std::char_traits<char>,std::allocator<char> >
  0006f	8b 45 48	 mov	 eax, DWORD PTR $T1[rbp]
  00072	83 c8 01	 or	 eax, 1
  00075	89 45 48	 mov	 DWORD PTR $T1[rbp], eax
  00078	48 8b 45 68	 mov	 rax, QWORD PTR __$ReturnUdt$[rbp]
$LN1@message:

; 162  :     }

  0007c	48 8d 65 50	 lea	 rsp, QWORD PTR [rbp+80]
  00080	5d		 pop	 rbp
  00081	c3		 ret	 0
?message@_Future_error_category2@std@@UEBA?AV?$basic_string@DU?$char_traits@D@std@@V?$allocator@D@2@@2@H@Z ENDP ; std::_Future_error_category2::message
_TEXT	ENDS
; Function compile flags: /Odtp /ZI
; File C:\Program Files\Microsoft Visual Studio\2022\Preview\VC\Tools\MSVC\14.38.33030\include\future
;	COMDAT ?name@_Future_error_category2@std@@UEBAPEBDXZ
_TEXT	SEGMENT
this$ = 80
?name@_Future_error_category2@std@@UEBAPEBDXZ PROC	; std::_Future_error_category2::name, COMDAT

; 151  :     const char* name() const noexcept override {

$LN3:
  00000	48 89 4c 24 08	 mov	 QWORD PTR [rsp+8], rcx
  00005	55		 push	 rbp
  00006	48 83 ec 60	 sub	 rsp, 96			; 00000060H
  0000a	48 8d 6c 24 20	 lea	 rbp, QWORD PTR [rsp+32]
  0000f	48 8d 0d 00 00
	00 00		 lea	 rcx, OFFSET FLAT:__C772B2A3_future
  00016	e8 00 00 00 00	 call	 __CheckForDebuggerJustMyCode

; 152  :         return "future";

  0001b	48 8d 05 00 00
	00 00		 lea	 rax, OFFSET FLAT:??_C@_06MOFGPAFB@future@

; 153  :     }

  00022	48 8d 65 40	 lea	 rsp, QWORD PTR [rbp+64]
  00026	5d		 pop	 rbp
  00027	c3		 ret	 0
?name@_Future_error_category2@std@@UEBAPEBDXZ ENDP	; std::_Future_error_category2::name
_TEXT	ENDS
; Function compile flags: /Odtp /ZI
; File C:\Program Files\Microsoft Visual Studio\2022\Preview\VC\Tools\MSVC\14.38.33030\include\future
;	COMDAT ?_Throw_future_error2@std@@YAXW4future_errc@1@@Z
_TEXT	SEGMENT
$T1 = 64
_Ec$ = 128
?_Throw_future_error2@std@@YAXW4future_errc@1@@Z PROC	; std::_Throw_future_error2, COMDAT

; 143  : [[noreturn]] inline void _Throw_future_error2(const future_errc _Ec) {

$LN3:
  00000	89 4c 24 08	 mov	 DWORD PTR [rsp+8], ecx
  00004	55		 push	 rbp
  00005	48 81 ec 90 00
	00 00		 sub	 rsp, 144		; 00000090H
  0000c	48 8d 6c 24 20	 lea	 rbp, QWORD PTR [rsp+32]
  00011	48 8d 0d 00 00
	00 00		 lea	 rcx, OFFSET FLAT:__C772B2A3_future
  00018	e8 00 00 00 00	 call	 __CheckForDebuggerJustMyCode

; 144  :     _THROW(future_error{_Ec});

  0001d	8b 95 80 00 00
	00		 mov	 edx, DWORD PTR _Ec$[rbp]
  00023	48 8d 4d 40	 lea	 rcx, QWORD PTR $T1[rbp]
  00027	e8 00 00 00 00	 call	 ??0future_error@std@@QEAA@W4future_errc@1@@Z ; std::future_error::future_error
  0002c	48 8d 15 00 00
	00 00		 lea	 rdx, OFFSET FLAT:_TI3?AVfuture_error@std@@
  00033	48 8d 4d 40	 lea	 rcx, QWORD PTR $T1[rbp]
  00037	e8 00 00 00 00	 call	 _CxxThrowException
$LN2@Throw_futu:

; 145  : }

  0003c	48 8d 65 70	 lea	 rsp, QWORD PTR [rbp+112]
  00040	5d		 pop	 rbp
  00041	c3		 ret	 0
?_Throw_future_error2@std@@YAXW4future_errc@1@@Z ENDP	; std::_Throw_future_error2
_TEXT	ENDS
; Function compile flags: /Odtp /ZI
;	COMDAT ??_Gfuture_error@std@@UEAAPEAXI@Z
_TEXT	SEGMENT
this$ = 80
__flags$ = 88
??_Gfuture_error@std@@UEAAPEAXI@Z PROC			; std::future_error::`scalar deleting destructor', COMDAT
$LN4:
  00000	89 54 24 10	 mov	 DWORD PTR [rsp+16], edx
  00004	48 89 4c 24 08	 mov	 QWORD PTR [rsp+8], rcx
  00009	55		 push	 rbp
  0000a	48 83 ec 60	 sub	 rsp, 96			; 00000060H
  0000e	48 8d 6c 24 20	 lea	 rbp, QWORD PTR [rsp+32]
  00013	48 8b 4d 50	 mov	 rcx, QWORD PTR this$[rbp]
  00017	e8 00 00 00 00	 call	 ??1future_error@std@@UEAA@XZ
  0001c	8b 45 58	 mov	 eax, DWORD PTR __flags$[rbp]
  0001f	83 e0 01	 and	 eax, 1
  00022	85 c0		 test	 eax, eax
  00024	74 0e		 je	 SHORT $LN2@scalar
  00026	ba 28 00 00 00	 mov	 edx, 40			; 00000028H
  0002b	48 8b 4d 50	 mov	 rcx, QWORD PTR this$[rbp]
  0002f	e8 00 00 00 00	 call	 ??3@YAXPEAX_K@Z		; operator delete
$LN2@scalar:
  00034	48 8b 45 50	 mov	 rax, QWORD PTR this$[rbp]
  00038	48 8d 65 40	 lea	 rsp, QWORD PTR [rbp+64]
  0003c	5d		 pop	 rbp
  0003d	c3		 ret	 0
??_Gfuture_error@std@@UEAAPEAXI@Z ENDP			; std::future_error::`scalar deleting destructor'
_TEXT	ENDS
; Function compile flags: /Odtp /ZI
;	COMDAT ??0future_error@std@@QEAA@AEBV01@@Z
_TEXT	SEGMENT
this$ = 96
__that$ = 104
??0future_error@std@@QEAA@AEBV01@@Z PROC		; std::future_error::future_error, COMDAT
$LN3:
  00000	48 89 54 24 10	 mov	 QWORD PTR [rsp+16], rdx
  00005	48 89 4c 24 08	 mov	 QWORD PTR [rsp+8], rcx
  0000a	55		 push	 rbp
  0000b	56		 push	 rsi
  0000c	57		 push	 rdi
  0000d	48 83 ec 60	 sub	 rsp, 96			; 00000060H
  00011	48 8d 6c 24 20	 lea	 rbp, QWORD PTR [rsp+32]
  00016	48 8b 55 68	 mov	 rdx, QWORD PTR __that$[rbp]
  0001a	48 8b 4d 60	 mov	 rcx, QWORD PTR this$[rbp]
  0001e	e8 00 00 00 00	 call	 ??0logic_error@std@@QEAA@AEBV01@@Z
  00023	48 8b 45 60	 mov	 rax, QWORD PTR this$[rbp]
  00027	48 8d 0d 00 00
	00 00		 lea	 rcx, OFFSET FLAT:??_7future_error@std@@6B@
  0002e	48 89 08	 mov	 QWORD PTR [rax], rcx
  00031	48 8b 45 60	 mov	 rax, QWORD PTR this$[rbp]
  00035	48 8b 4d 68	 mov	 rcx, QWORD PTR __that$[rbp]
  00039	48 8d 78 18	 lea	 rdi, QWORD PTR [rax+24]
  0003d	48 8d 71 18	 lea	 rsi, QWORD PTR [rcx+24]
  00041	b9 10 00 00 00	 mov	 ecx, 16
  00046	f3 a4		 rep movsb
  00048	48 8b 45 60	 mov	 rax, QWORD PTR this$[rbp]
  0004c	48 8d 65 40	 lea	 rsp, QWORD PTR [rbp+64]
  00050	5f		 pop	 rdi
  00051	5e		 pop	 rsi
  00052	5d		 pop	 rbp
  00053	c3		 ret	 0
??0future_error@std@@QEAA@AEBV01@@Z ENDP		; std::future_error::future_error
_TEXT	ENDS
; Function compile flags: /Odtp /ZI
;	COMDAT ??1future_error@std@@UEAA@XZ
_TEXT	SEGMENT
this$ = 80
??1future_error@std@@UEAA@XZ PROC			; std::future_error::~future_error, COMDAT
$LN3:
  00000	48 89 4c 24 08	 mov	 QWORD PTR [rsp+8], rcx
  00005	55		 push	 rbp
  00006	48 83 ec 60	 sub	 rsp, 96			; 00000060H
  0000a	48 8d 6c 24 20	 lea	 rbp, QWORD PTR [rsp+32]
  0000f	48 8b 4d 50	 mov	 rcx, QWORD PTR this$[rbp]
  00013	e8 00 00 00 00	 call	 ??1logic_error@std@@UEAA@XZ
  00018	48 8d 65 40	 lea	 rsp, QWORD PTR [rbp+64]
  0001c	5d		 pop	 rbp
  0001d	c3		 ret	 0
??1future_error@std@@UEAA@XZ ENDP			; std::future_error::~future_error
_TEXT	ENDS
; Function compile flags: /Odtp /ZI
; File C:\Program Files\Microsoft Visual Studio\2022\Preview\VC\Tools\MSVC\14.38.33030\include\future
;	COMDAT ?what@future_error@std@@UEBAPEBDXZ
_TEXT	SEGMENT
this$ = 80
?what@future_error@std@@UEBAPEBDXZ PROC			; std::future_error::what, COMDAT

; 127  :     _NODISCARD const char* __CLR_OR_THIS_CALL what() const noexcept override { // get message string

$LN3:
  00000	48 89 4c 24 08	 mov	 QWORD PTR [rsp+8], rcx
  00005	55		 push	 rbp
  00006	48 83 ec 60	 sub	 rsp, 96			; 00000060H
  0000a	48 8d 6c 24 20	 lea	 rbp, QWORD PTR [rsp+32]
  0000f	48 8d 0d 00 00
	00 00		 lea	 rcx, OFFSET FLAT:__C772B2A3_future
  00016	e8 00 00 00 00	 call	 __CheckForDebuggerJustMyCode

; 128  :         return _Future_error_map(_Mycode.value());

  0001b	48 8b 45 50	 mov	 rax, QWORD PTR this$[rbp]
  0001f	48 83 c0 18	 add	 rax, 24
  00023	48 8b c8	 mov	 rcx, rax
  00026	e8 00 00 00 00	 call	 ?value@error_code@std@@QEBAHXZ ; std::error_code::value
  0002b	8b c8		 mov	 ecx, eax
  0002d	e8 00 00 00 00	 call	 ?_Future_error_map@std@@YAPEBDH@Z ; std::_Future_error_map

; 129  :     }

  00032	48 8d 65 40	 lea	 rsp, QWORD PTR [rbp+64]
  00036	5d		 pop	 rbp
  00037	c3		 ret	 0
?what@future_error@std@@UEBAPEBDXZ ENDP			; std::future_error::what
_TEXT	ENDS
; Function compile flags: /Odtp /ZI
; File C:\Program Files\Microsoft Visual Studio\2022\Preview\VC\Tools\MSVC\14.38.33030\include\future
;	COMDAT ??0future_error@std@@QEAA@W4future_errc@1@@Z
_TEXT	SEGMENT
this$ = 80
_Ec$ = 88
??0future_error@std@@QEAA@W4future_errc@1@@Z PROC	; std::future_error::future_error, COMDAT

; 121  :     explicit future_error(future_errc _Ec) : logic_error(""), _Mycode(_STD make_error_code(_Ec)) {}

$LN4:
  00000	89 54 24 10	 mov	 DWORD PTR [rsp+16], edx
  00004	48 89 4c 24 08	 mov	 QWORD PTR [rsp+8], rcx
  00009	55		 push	 rbp
  0000a	48 83 ec 60	 sub	 rsp, 96			; 00000060H
  0000e	48 8d 6c 24 20	 lea	 rbp, QWORD PTR [rsp+32]
  00013	48 8d 0d 00 00
	00 00		 lea	 rcx, OFFSET FLAT:__C772B2A3_future
  0001a	e8 00 00 00 00	 call	 __CheckForDebuggerJustMyCode
  0001f	48 8d 15 00 00
	00 00		 lea	 rdx, OFFSET FLAT:??_C@_00CNPNBAHC@@
  00026	48 8b 4d 50	 mov	 rcx, QWORD PTR this$[rbp]
  0002a	e8 00 00 00 00	 call	 ??0logic_error@std@@QEAA@PEBD@Z ; std::logic_error::logic_error
  0002f	48 8b 45 50	 mov	 rax, QWORD PTR this$[rbp]
  00033	48 8d 0d 00 00
	00 00		 lea	 rcx, OFFSET FLAT:??_7future_error@std@@6B@
  0003a	48 89 08	 mov	 QWORD PTR [rax], rcx
  0003d	48 8b 45 50	 mov	 rax, QWORD PTR this$[rbp]
  00041	48 83 c0 18	 add	 rax, 24
  00045	8b 55 58	 mov	 edx, DWORD PTR _Ec$[rbp]
  00048	48 8b c8	 mov	 rcx, rax
  0004b	e8 00 00 00 00	 call	 ?make_error_code@std@@YA?AVerror_code@1@W4future_errc@1@@Z ; std::make_error_code
  00050	48 8b 45 50	 mov	 rax, QWORD PTR this$[rbp]
  00054	48 8d 65 40	 lea	 rsp, QWORD PTR [rbp+64]
  00058	5d		 pop	 rbp
  00059	c3		 ret	 0
??0future_error@std@@QEAA@W4future_errc@1@@Z ENDP	; std::future_error::future_error
_TEXT	ENDS
; Function compile flags: /Odtp /ZI
; File C:\Program Files\Microsoft Visual Studio\2022\Preview\VC\Tools\MSVC\14.38.33030\include\future
;	COMDAT ?_Future_error_map@std@@YAPEBDH@Z
_TEXT	SEGMENT
tv64 = 64
_Errcode$ = 96
?_Future_error_map@std@@YAPEBDH@Z PROC			; std::_Future_error_map, COMDAT

; 97   : _NODISCARD inline const char* _Future_error_map(int _Errcode) noexcept { // convert to name of future error

$LN10:
  00000	89 4c 24 08	 mov	 DWORD PTR [rsp+8], ecx
  00004	55		 push	 rbp
  00005	48 83 ec 70	 sub	 rsp, 112		; 00000070H
  00009	48 8d 6c 24 20	 lea	 rbp, QWORD PTR [rsp+32]
  0000e	48 8d 0d 00 00
	00 00		 lea	 rcx, OFFSET FLAT:__C772B2A3_future
  00015	e8 00 00 00 00	 call	 __CheckForDebuggerJustMyCode

; 98   :     switch (static_cast<future_errc>(_Errcode)) { // switch on error code value

  0001a	8b 45 60	 mov	 eax, DWORD PTR _Errcode$[rbp]
  0001d	89 45 40	 mov	 DWORD PTR tv64[rbp], eax
  00020	83 7d 40 01	 cmp	 DWORD PTR tv64[rbp], 1
  00024	74 14		 je	 SHORT $LN4@Future_err
  00026	83 7d 40 02	 cmp	 DWORD PTR tv64[rbp], 2
  0002a	74 17		 je	 SHORT $LN5@Future_err
  0002c	83 7d 40 03	 cmp	 DWORD PTR tv64[rbp], 3
  00030	74 1a		 je	 SHORT $LN6@Future_err
  00032	83 7d 40 04	 cmp	 DWORD PTR tv64[rbp], 4
  00036	74 1d		 je	 SHORT $LN7@Future_err
  00038	eb 24		 jmp	 SHORT $LN8@Future_err
$LN4@Future_err:

; 99   :     case future_errc::broken_promise:
; 100  :         return "broken promise";

  0003a	48 8d 05 00 00
	00 00		 lea	 rax, OFFSET FLAT:??_C@_0P@JCDOJLHG@broken?5promise@
  00041	eb 1d		 jmp	 SHORT $LN1@Future_err
$LN5@Future_err:

; 101  : 
; 102  :     case future_errc::future_already_retrieved:
; 103  :         return "future already retrieved";

  00043	48 8d 05 00 00
	00 00		 lea	 rax, OFFSET FLAT:??_C@_0BJ@JOKOCMFN@future?5already?5retrieved@
  0004a	eb 14		 jmp	 SHORT $LN1@Future_err
$LN6@Future_err:

; 104  : 
; 105  :     case future_errc::promise_already_satisfied:
; 106  :         return "promise already satisfied";

  0004c	48 8d 05 00 00
	00 00		 lea	 rax, OFFSET FLAT:??_C@_0BK@JNDAEPJA@promise?5already?5satisfied@
  00053	eb 0b		 jmp	 SHORT $LN1@Future_err
$LN7@Future_err:

; 107  : 
; 108  :     case future_errc::no_state:
; 109  :         return "no state";

  00055	48 8d 05 00 00
	00 00		 lea	 rax, OFFSET FLAT:??_C@_08CCNMMIE@no?5state@
  0005c	eb 02		 jmp	 SHORT $LN1@Future_err
$LN8@Future_err:

; 110  : 
; 111  :     default:
; 112  :         return nullptr;

  0005e	33 c0		 xor	 eax, eax
$LN1@Future_err:

; 113  :     }
; 114  : }

  00060	48 8d 65 50	 lea	 rsp, QWORD PTR [rbp+80]
  00064	5d		 pop	 rbp
  00065	c3		 ret	 0
?_Future_error_map@std@@YAPEBDH@Z ENDP			; std::_Future_error_map
_TEXT	ENDS
; Function compile flags: /Odtp /ZI
; File C:\Program Files\Microsoft Visual Studio\2022\Preview\VC\Tools\MSVC\14.38.33030\include\future
;	COMDAT ?make_error_code@std@@YA?AVerror_code@1@W4future_errc@1@@Z
_TEXT	SEGMENT
__$ReturnUdt$ = 80
_Ec$ = 88
?make_error_code@std@@YA?AVerror_code@1@W4future_errc@1@@Z PROC ; std::make_error_code, COMDAT

; 89   : _EXPORT_STD _NODISCARD inline error_code make_error_code(future_errc _Ec) noexcept {

$LN3:
  00000	89 54 24 10	 mov	 DWORD PTR [rsp+16], edx
  00004	48 89 4c 24 08	 mov	 QWORD PTR [rsp+8], rcx
  00009	55		 push	 rbp
  0000a	48 83 ec 60	 sub	 rsp, 96			; 00000060H
  0000e	48 8d 6c 24 20	 lea	 rbp, QWORD PTR [rsp+32]
  00013	48 8d 0d 00 00
	00 00		 lea	 rcx, OFFSET FLAT:__C772B2A3_future
  0001a	e8 00 00 00 00	 call	 __CheckForDebuggerJustMyCode

; 90   :     return error_code(static_cast<int>(_Ec), _STD future_category());

  0001f	e8 00 00 00 00	 call	 ?future_category@std@@YAAEBVerror_category@1@XZ ; std::future_category
  00024	4c 8b c0	 mov	 r8, rax
  00027	8b 55 58	 mov	 edx, DWORD PTR _Ec$[rbp]
  0002a	48 8b 4d 50	 mov	 rcx, QWORD PTR __$ReturnUdt$[rbp]
  0002e	e8 00 00 00 00	 call	 ??0error_code@std@@QEAA@HAEBVerror_category@1@@Z ; std::error_code::error_code
  00033	48 8b 45 50	 mov	 rax, QWORD PTR __$ReturnUdt$[rbp]

; 91   : }

  00037	48 8d 65 40	 lea	 rsp, QWORD PTR [rbp+64]
  0003b	5d		 pop	 rbp
  0003c	c3		 ret	 0
?make_error_code@std@@YA?AVerror_code@1@W4future_errc@1@@Z ENDP ; std::make_error_code
_TEXT	ENDS
; Function compile flags: /Odtp /ZI
; File C:\Program Files\Microsoft Visual Studio\2022\Preview\VC\Tools\MSVC\14.38.33030\include\future
;	COMDAT ?future_category@std@@YAAEBVerror_category@1@XZ
_TEXT	SEGMENT
?future_category@std@@YAAEBVerror_category@1@XZ PROC	; std::future_category, COMDAT

; 165  : _EXPORT_STD _NODISCARD inline const error_category& future_category() noexcept {

$LN3:
  00000	40 55		 push	 rbp
  00002	48 83 ec 60	 sub	 rsp, 96			; 00000060H
  00006	48 8d 6c 24 20	 lea	 rbp, QWORD PTR [rsp+32]
  0000b	48 8d 0d 00 00
	00 00		 lea	 rcx, OFFSET FLAT:__C772B2A3_future
  00012	e8 00 00 00 00	 call	 __CheckForDebuggerJustMyCode

; 166  :     return _Immortalize_memcpy_image<_Future_error_category2>();

  00017	e8 00 00 00 00	 call	 ??$_Immortalize_memcpy_image@V_Future_error_category2@std@@@std@@YAAEBV_Future_error_category2@0@XZ ; std::_Immortalize_memcpy_image<std::_Future_error_category2>

; 167  : }

  0001c	48 8d 65 40	 lea	 rsp, QWORD PTR [rbp+64]
  00020	5d		 pop	 rbp
  00021	c3		 ret	 0
?future_category@std@@YAAEBVerror_category@1@XZ ENDP	; std::future_category
_TEXT	ENDS
; Function compile flags: /Odtp /ZI
; File C:\Program Files\Microsoft Visual Studio\2022\Preview\VC\Tools\MSVC\14.38.33030\include\system_error
;	COMDAT ??8std@@YA_NAEBVerror_condition@0@0@Z
_TEXT	SEGMENT
tv74 = 64
tv72 = 72
tv76 = 80
tv82 = 84
_Left$ = 112
_Right$ = 120
??8std@@YA_NAEBVerror_condition@0@0@Z PROC		; std::operator==, COMDAT

; 308  :     _NODISCARD_FRIEND bool operator==(const error_condition& _Left, const error_condition& _Right) noexcept {

$LN5:
  00000	48 89 54 24 10	 mov	 QWORD PTR [rsp+16], rdx
  00005	48 89 4c 24 08	 mov	 QWORD PTR [rsp+8], rcx
  0000a	55		 push	 rbp
  0000b	48 81 ec 80 00
	00 00		 sub	 rsp, 128		; 00000080H
  00012	48 8d 6c 24 20	 lea	 rbp, QWORD PTR [rsp+32]
  00017	48 8d 0d 00 00
	00 00		 lea	 rcx, OFFSET FLAT:__E8E950EC_system_error
  0001e	e8 00 00 00 00	 call	 __CheckForDebuggerJustMyCode

; 309  :         return _Left.category() == _Right.category() && _Left.value() == _Right.value();

  00023	48 8b 4d 70	 mov	 rcx, QWORD PTR _Left$[rbp]
  00027	e8 00 00 00 00	 call	 ?category@error_condition@std@@QEBAAEBVerror_category@2@XZ ; std::error_condition::category
  0002c	48 89 45 40	 mov	 QWORD PTR tv74[rbp], rax
  00030	48 8b 4d 78	 mov	 rcx, QWORD PTR _Right$[rbp]
  00034	e8 00 00 00 00	 call	 ?category@error_condition@std@@QEBAAEBVerror_category@2@XZ ; std::error_condition::category
  00039	48 89 45 48	 mov	 QWORD PTR tv72[rbp], rax
  0003d	48 8b 55 48	 mov	 rdx, QWORD PTR tv72[rbp]
  00041	48 8b 4d 40	 mov	 rcx, QWORD PTR tv74[rbp]
  00045	e8 00 00 00 00	 call	 ??8error_category@std@@QEBA_NAEBV01@@Z ; std::error_category::operator==
  0004a	0f b6 c0	 movzx	 eax, al
  0004d	85 c0		 test	 eax, eax
  0004f	74 25		 je	 SHORT $LN3@operator
  00051	48 8b 4d 70	 mov	 rcx, QWORD PTR _Left$[rbp]
  00055	e8 00 00 00 00	 call	 ?value@error_condition@std@@QEBAHXZ ; std::error_condition::value
  0005a	89 45 50	 mov	 DWORD PTR tv76[rbp], eax
  0005d	48 8b 4d 78	 mov	 rcx, QWORD PTR _Right$[rbp]
  00061	e8 00 00 00 00	 call	 ?value@error_condition@std@@QEBAHXZ ; std::error_condition::value
  00066	8b 4d 50	 mov	 ecx, DWORD PTR tv76[rbp]
  00069	3b c8		 cmp	 ecx, eax
  0006b	75 09		 jne	 SHORT $LN3@operator
  0006d	c7 45 54 01 00
	00 00		 mov	 DWORD PTR tv82[rbp], 1
  00074	eb 07		 jmp	 SHORT $LN4@operator
$LN3@operator:
  00076	c7 45 54 00 00
	00 00		 mov	 DWORD PTR tv82[rbp], 0
$LN4@operator:
  0007d	0f b6 45 54	 movzx	 eax, BYTE PTR tv82[rbp]

; 310  :     }

  00081	48 8d 65 60	 lea	 rsp, QWORD PTR [rbp+96]
  00085	5d		 pop	 rbp
  00086	c3		 ret	 0
??8std@@YA_NAEBVerror_condition@0@0@Z ENDP		; std::operator==
_TEXT	ENDS
; Function compile flags: /Odtp /ZI
; File C:\Program Files\Microsoft Visual Studio\2022\Preview\VC\Tools\MSVC\14.38.33030\include\system_error
;	COMDAT ?category@error_condition@std@@QEBAAEBVerror_category@2@XZ
_TEXT	SEGMENT
this$ = 80
?category@error_condition@std@@QEBAAEBVerror_category@2@XZ PROC ; std::error_condition::category, COMDAT

; 295  :     _NODISCARD const error_category& category() const noexcept {

$LN3:
  00000	48 89 4c 24 08	 mov	 QWORD PTR [rsp+8], rcx
  00005	55		 push	 rbp
  00006	48 83 ec 60	 sub	 rsp, 96			; 00000060H
  0000a	48 8d 6c 24 20	 lea	 rbp, QWORD PTR [rsp+32]
  0000f	48 8d 0d 00 00
	00 00		 lea	 rcx, OFFSET FLAT:__E8E950EC_system_error
  00016	e8 00 00 00 00	 call	 __CheckForDebuggerJustMyCode

; 296  :         return *_Mycat;

  0001b	48 8b 45 50	 mov	 rax, QWORD PTR this$[rbp]
  0001f	48 8b 40 08	 mov	 rax, QWORD PTR [rax+8]

; 297  :     }

  00023	48 8d 65 40	 lea	 rsp, QWORD PTR [rbp+64]
  00027	5d		 pop	 rbp
  00028	c3		 ret	 0
?category@error_condition@std@@QEBAAEBVerror_category@2@XZ ENDP ; std::error_condition::category
_TEXT	ENDS
; Function compile flags: /Odtp /ZI
; File C:\Program Files\Microsoft Visual Studio\2022\Preview\VC\Tools\MSVC\14.38.33030\include\system_error
;	COMDAT ?value@error_condition@std@@QEBAHXZ
_TEXT	SEGMENT
this$ = 80
?value@error_condition@std@@QEBAHXZ PROC		; std::error_condition::value, COMDAT

; 291  :     _NODISCARD int value() const noexcept {

$LN3:
  00000	48 89 4c 24 08	 mov	 QWORD PTR [rsp+8], rcx
  00005	55		 push	 rbp
  00006	48 83 ec 60	 sub	 rsp, 96			; 00000060H
  0000a	48 8d 6c 24 20	 lea	 rbp, QWORD PTR [rsp+32]
  0000f	48 8d 0d 00 00
	00 00		 lea	 rcx, OFFSET FLAT:__E8E950EC_system_error
  00016	e8 00 00 00 00	 call	 __CheckForDebuggerJustMyCode

; 292  :         return _Myval;

  0001b	48 8b 45 50	 mov	 rax, QWORD PTR this$[rbp]
  0001f	8b 00		 mov	 eax, DWORD PTR [rax]

; 293  :     }

  00021	48 8d 65 40	 lea	 rsp, QWORD PTR [rbp+64]
  00025	5d		 pop	 rbp
  00026	c3		 ret	 0
?value@error_condition@std@@QEBAHXZ ENDP		; std::error_condition::value
_TEXT	ENDS
; Function compile flags: /Odtp /ZI
; File C:\Program Files\Microsoft Visual Studio\2022\Preview\VC\Tools\MSVC\14.38.33030\include\system_error
;	COMDAT ??0error_condition@std@@QEAA@HAEBVerror_category@1@@Z
_TEXT	SEGMENT
this$ = 80
_Val$ = 88
_Cat$ = 96
??0error_condition@std@@QEAA@HAEBVerror_category@1@@Z PROC ; std::error_condition::error_condition, COMDAT

; 266  :     error_condition(int _Val, const error_category& _Cat) noexcept : _Myval(_Val), _Mycat(&_Cat) {}

$LN3:
  00000	4c 89 44 24 18	 mov	 QWORD PTR [rsp+24], r8
  00005	89 54 24 10	 mov	 DWORD PTR [rsp+16], edx
  00009	48 89 4c 24 08	 mov	 QWORD PTR [rsp+8], rcx
  0000e	55		 push	 rbp
  0000f	48 83 ec 60	 sub	 rsp, 96			; 00000060H
  00013	48 8d 6c 24 20	 lea	 rbp, QWORD PTR [rsp+32]
  00018	48 8d 0d 00 00
	00 00		 lea	 rcx, OFFSET FLAT:__E8E950EC_system_error
  0001f	e8 00 00 00 00	 call	 __CheckForDebuggerJustMyCode
  00024	48 8b 45 50	 mov	 rax, QWORD PTR this$[rbp]
  00028	8b 4d 58	 mov	 ecx, DWORD PTR _Val$[rbp]
  0002b	89 08		 mov	 DWORD PTR [rax], ecx
  0002d	48 8b 45 50	 mov	 rax, QWORD PTR this$[rbp]
  00031	48 8b 4d 60	 mov	 rcx, QWORD PTR _Cat$[rbp]
  00035	48 89 48 08	 mov	 QWORD PTR [rax+8], rcx
  00039	48 8b 45 50	 mov	 rax, QWORD PTR this$[rbp]
  0003d	48 8d 65 40	 lea	 rsp, QWORD PTR [rbp+64]
  00041	5d		 pop	 rbp
  00042	c3		 ret	 0
??0error_condition@std@@QEAA@HAEBVerror_category@1@@Z ENDP ; std::error_condition::error_condition
_TEXT	ENDS
; Function compile flags: /Odtp /ZI
; File C:\Program Files\Microsoft Visual Studio\2022\Preview\VC\Tools\MSVC\14.38.33030\include\system_error
;	COMDAT ?category@error_code@std@@QEBAAEBVerror_category@2@XZ
_TEXT	SEGMENT
this$ = 80
?category@error_code@std@@QEBAAEBVerror_category@2@XZ PROC ; std::error_code::category, COMDAT

; 202  :     _NODISCARD const error_category& category() const noexcept {

$LN3:
  00000	48 89 4c 24 08	 mov	 QWORD PTR [rsp+8], rcx
  00005	55		 push	 rbp
  00006	48 83 ec 60	 sub	 rsp, 96			; 00000060H
  0000a	48 8d 6c 24 20	 lea	 rbp, QWORD PTR [rsp+32]
  0000f	48 8d 0d 00 00
	00 00		 lea	 rcx, OFFSET FLAT:__E8E950EC_system_error
  00016	e8 00 00 00 00	 call	 __CheckForDebuggerJustMyCode

; 203  :         return *_Mycat;

  0001b	48 8b 45 50	 mov	 rax, QWORD PTR this$[rbp]
  0001f	48 8b 40 08	 mov	 rax, QWORD PTR [rax+8]

; 204  :     }

  00023	48 8d 65 40	 lea	 rsp, QWORD PTR [rbp+64]
  00027	5d		 pop	 rbp
  00028	c3		 ret	 0
?category@error_code@std@@QEBAAEBVerror_category@2@XZ ENDP ; std::error_code::category
_TEXT	ENDS
; Function compile flags: /Odtp /ZI
; File C:\Program Files\Microsoft Visual Studio\2022\Preview\VC\Tools\MSVC\14.38.33030\include\system_error
;	COMDAT ?value@error_code@std@@QEBAHXZ
_TEXT	SEGMENT
this$ = 80
?value@error_code@std@@QEBAHXZ PROC			; std::error_code::value, COMDAT

; 198  :     _NODISCARD int value() const noexcept {

$LN3:
  00000	48 89 4c 24 08	 mov	 QWORD PTR [rsp+8], rcx
  00005	55		 push	 rbp
  00006	48 83 ec 60	 sub	 rsp, 96			; 00000060H
  0000a	48 8d 6c 24 20	 lea	 rbp, QWORD PTR [rsp+32]
  0000f	48 8d 0d 00 00
	00 00		 lea	 rcx, OFFSET FLAT:__E8E950EC_system_error
  00016	e8 00 00 00 00	 call	 __CheckForDebuggerJustMyCode

; 199  :         return _Myval;

  0001b	48 8b 45 50	 mov	 rax, QWORD PTR this$[rbp]
  0001f	8b 00		 mov	 eax, DWORD PTR [rax]

; 200  :     }

  00021	48 8d 65 40	 lea	 rsp, QWORD PTR [rbp+64]
  00025	5d		 pop	 rbp
  00026	c3		 ret	 0
?value@error_code@std@@QEBAHXZ ENDP			; std::error_code::value
_TEXT	ENDS
; Function compile flags: /Odtp /ZI
; File C:\Program Files\Microsoft Visual Studio\2022\Preview\VC\Tools\MSVC\14.38.33030\include\system_error
;	COMDAT ??0error_code@std@@QEAA@HAEBVerror_category@1@@Z
_TEXT	SEGMENT
this$ = 80
_Val$ = 88
_Cat$ = 96
??0error_code@std@@QEAA@HAEBVerror_category@1@@Z PROC	; std::error_code::error_code, COMDAT

; 173  :     error_code(int _Val, const error_category& _Cat) noexcept : _Myval(_Val), _Mycat(&_Cat) {}

$LN3:
  00000	4c 89 44 24 18	 mov	 QWORD PTR [rsp+24], r8
  00005	89 54 24 10	 mov	 DWORD PTR [rsp+16], edx
  00009	48 89 4c 24 08	 mov	 QWORD PTR [rsp+8], rcx
  0000e	55		 push	 rbp
  0000f	48 83 ec 60	 sub	 rsp, 96			; 00000060H
  00013	48 8d 6c 24 20	 lea	 rbp, QWORD PTR [rsp+32]
  00018	48 8d 0d 00 00
	00 00		 lea	 rcx, OFFSET FLAT:__E8E950EC_system_error
  0001f	e8 00 00 00 00	 call	 __CheckForDebuggerJustMyCode
  00024	48 8b 45 50	 mov	 rax, QWORD PTR this$[rbp]
  00028	8b 4d 58	 mov	 ecx, DWORD PTR _Val$[rbp]
  0002b	89 08		 mov	 DWORD PTR [rax], ecx
  0002d	48 8b 45 50	 mov	 rax, QWORD PTR this$[rbp]
  00031	48 8b 4d 60	 mov	 rcx, QWORD PTR _Cat$[rbp]
  00035	48 89 48 08	 mov	 QWORD PTR [rax+8], rcx
  00039	48 8b 45 50	 mov	 rax, QWORD PTR this$[rbp]
  0003d	48 8d 65 40	 lea	 rsp, QWORD PTR [rbp+64]
  00041	5d		 pop	 rbp
  00042	c3		 ret	 0
??0error_code@std@@QEAA@HAEBVerror_category@1@@Z ENDP	; std::error_code::error_code
_TEXT	ENDS
; Function compile flags: /Odtp /ZI
; File C:\Program Files\Microsoft Visual Studio\2022\Preview\VC\Tools\MSVC\14.38.33030\include\type_traits
;	COMDAT ??$_Bit_cast@_KT_Addr_storage@error_category@std@@$0A@@std@@YA_KAEBT_Addr_storage@error_category@0@@Z
_TEXT	SEGMENT
$T1 = 64
_Val$ = 96
??$_Bit_cast@_KT_Addr_storage@error_category@std@@$0A@@std@@YA_KAEBT_Addr_storage@error_category@0@@Z PROC ; std::_Bit_cast<unsigned __int64,std::error_category::_Addr_storage,0>, COMDAT

; 2516 : _NODISCARD constexpr _To _Bit_cast(const _From& _Val) noexcept {

$LN3:
  00000	48 89 4c 24 08	 mov	 QWORD PTR [rsp+8], rcx
  00005	55		 push	 rbp
  00006	48 83 ec 70	 sub	 rsp, 112		; 00000070H
  0000a	48 8d 6c 24 20	 lea	 rbp, QWORD PTR [rsp+32]
  0000f	48 8d 0d 00 00
	00 00		 lea	 rcx, OFFSET FLAT:__3DF2A533_type_traits
  00016	e8 00 00 00 00	 call	 __CheckForDebuggerJustMyCode

; 2517 :     return __builtin_bit_cast(_To, _Val);

  0001b	48 8b 45 60	 mov	 rax, QWORD PTR _Val$[rbp]
  0001f	48 8b 00	 mov	 rax, QWORD PTR [rax]
  00022	48 89 45 40	 mov	 QWORD PTR $T1[rbp], rax
  00026	48 8b 45 40	 mov	 rax, QWORD PTR $T1[rbp]

; 2518 : }

  0002a	48 8d 65 50	 lea	 rsp, QWORD PTR [rbp+80]
  0002e	5d		 pop	 rbp
  0002f	c3		 ret	 0
??$_Bit_cast@_KT_Addr_storage@error_category@std@@$0A@@std@@YA_KAEBT_Addr_storage@error_category@0@@Z ENDP ; std::_Bit_cast<unsigned __int64,std::error_category::_Addr_storage,0>
_TEXT	ENDS
; Function compile flags: /Odtp /ZI
; File C:\Program Files\Microsoft Visual Studio\2022\Preview\VC\Tools\MSVC\14.38.33030\include\system_error
;	COMDAT ??8error_category@std@@QEBA_NAEBV01@@Z
_TEXT	SEGMENT
tv64 = 64
tv71 = 72
this$ = 96
_Right$ = 104
??8error_category@std@@QEBA_NAEBV01@@Z PROC		; std::error_category::operator==, COMDAT

; 99   :     _NODISCARD bool operator==(const error_category& _Right) const noexcept {

$LN5:
  00000	48 89 54 24 10	 mov	 QWORD PTR [rsp+16], rdx
  00005	48 89 4c 24 08	 mov	 QWORD PTR [rsp+8], rcx
  0000a	55		 push	 rbp
  0000b	48 83 ec 70	 sub	 rsp, 112		; 00000070H
  0000f	48 8d 6c 24 20	 lea	 rbp, QWORD PTR [rsp+32]
  00014	48 8d 0d 00 00
	00 00		 lea	 rcx, OFFSET FLAT:__E8E950EC_system_error
  0001b	e8 00 00 00 00	 call	 __CheckForDebuggerJustMyCode

; 100  : #ifdef _M_CEE_PURE
; 101  :         return _Addr == _Right._Addr;
; 102  : #else // ^^^ defined(_M_CEE_PURE) / !defined(_M_CEE_PURE) vvv
; 103  :         return _Bit_cast<uintptr_t>(_Addr) == _Bit_cast<uintptr_t>(_Right._Addr);

  00020	48 8b 45 60	 mov	 rax, QWORD PTR this$[rbp]
  00024	48 83 c0 08	 add	 rax, 8
  00028	48 8b c8	 mov	 rcx, rax
  0002b	e8 00 00 00 00	 call	 ??$_Bit_cast@_KT_Addr_storage@error_category@std@@$0A@@std@@YA_KAEBT_Addr_storage@error_category@0@@Z ; std::_Bit_cast<unsigned __int64,std::error_category::_Addr_storage,0>
  00030	48 89 45 40	 mov	 QWORD PTR tv64[rbp], rax
  00034	48 8b 4d 68	 mov	 rcx, QWORD PTR _Right$[rbp]
  00038	48 83 c1 08	 add	 rcx, 8
  0003c	e8 00 00 00 00	 call	 ??$_Bit_cast@_KT_Addr_storage@error_category@std@@$0A@@std@@YA_KAEBT_Addr_storage@error_category@0@@Z ; std::_Bit_cast<unsigned __int64,std::error_category::_Addr_storage,0>
  00041	48 8b 4d 40	 mov	 rcx, QWORD PTR tv64[rbp]
  00045	48 3b c8	 cmp	 rcx, rax
  00048	75 09		 jne	 SHORT $LN3@operator
  0004a	c7 45 48 01 00
	00 00		 mov	 DWORD PTR tv71[rbp], 1
  00051	eb 07		 jmp	 SHORT $LN4@operator
$LN3@operator:
  00053	c7 45 48 00 00
	00 00		 mov	 DWORD PTR tv71[rbp], 0
$LN4@operator:
  0005a	0f b6 45 48	 movzx	 eax, BYTE PTR tv71[rbp]

; 104  : #endif // ^^^ !defined(_M_CEE_PURE) ^^^
; 105  :     }

  0005e	48 8d 65 50	 lea	 rsp, QWORD PTR [rbp+80]
  00062	5d		 pop	 rbp
  00063	c3		 ret	 0
??8error_category@std@@QEBA_NAEBV01@@Z ENDP		; std::error_category::operator==
_TEXT	ENDS
; Function compile flags: /Odtp /ZI
; File C:\Program Files\Microsoft Visual Studio\2022\Preview\VC\Tools\MSVC\14.38.33030\include\system_error
;	COMDAT ?equivalent@error_category@std@@UEBA_NAEBVerror_code@2@H@Z
_TEXT	SEGMENT
tv74 = 64
this$ = 96
_Code$ = 104
_Errval$ = 112
?equivalent@error_category@std@@UEBA_NAEBVerror_code@2@H@Z PROC ; std::error_category::equivalent, COMDAT

; 424  : _NODISCARD inline bool error_category::equivalent(const error_code& _Code, int _Errval) const noexcept {

$LN5:
  00000	44 89 44 24 18	 mov	 DWORD PTR [rsp+24], r8d
  00005	48 89 54 24 10	 mov	 QWORD PTR [rsp+16], rdx
  0000a	48 89 4c 24 08	 mov	 QWORD PTR [rsp+8], rcx
  0000f	55		 push	 rbp
  00010	48 83 ec 70	 sub	 rsp, 112		; 00000070H
  00014	48 8d 6c 24 20	 lea	 rbp, QWORD PTR [rsp+32]
  00019	48 8d 0d 00 00
	00 00		 lea	 rcx, OFFSET FLAT:__E8E950EC_system_error
  00020	e8 00 00 00 00	 call	 __CheckForDebuggerJustMyCode

; 425  :     return *this == _Code.category() && _Code.value() == _Errval;

  00025	48 8b 4d 68	 mov	 rcx, QWORD PTR _Code$[rbp]
  00029	e8 00 00 00 00	 call	 ?category@error_code@std@@QEBAAEBVerror_category@2@XZ ; std::error_code::category
  0002e	48 8b d0	 mov	 rdx, rax
  00031	48 8b 4d 60	 mov	 rcx, QWORD PTR this$[rbp]
  00035	e8 00 00 00 00	 call	 ??8error_category@std@@QEBA_NAEBV01@@Z ; std::error_category::operator==
  0003a	0f b6 c0	 movzx	 eax, al
  0003d	85 c0		 test	 eax, eax
  0003f	74 17		 je	 SHORT $LN3@equivalent
  00041	48 8b 4d 68	 mov	 rcx, QWORD PTR _Code$[rbp]
  00045	e8 00 00 00 00	 call	 ?value@error_code@std@@QEBAHXZ ; std::error_code::value
  0004a	3b 45 70	 cmp	 eax, DWORD PTR _Errval$[rbp]
  0004d	75 09		 jne	 SHORT $LN3@equivalent
  0004f	c7 45 40 01 00
	00 00		 mov	 DWORD PTR tv74[rbp], 1
  00056	eb 07		 jmp	 SHORT $LN4@equivalent
$LN3@equivalent:
  00058	c7 45 40 00 00
	00 00		 mov	 DWORD PTR tv74[rbp], 0
$LN4@equivalent:
  0005f	0f b6 45 40	 movzx	 eax, BYTE PTR tv74[rbp]

; 426  : }

  00063	48 8d 65 50	 lea	 rsp, QWORD PTR [rbp+80]
  00067	5d		 pop	 rbp
  00068	c3		 ret	 0
?equivalent@error_category@std@@UEBA_NAEBVerror_code@2@H@Z ENDP ; std::error_category::equivalent
_TEXT	ENDS
; Function compile flags: /Odtp /ZI
; File C:\Program Files\Microsoft Visual Studio\2022\Preview\VC\Tools\MSVC\14.38.33030\include\system_error
;	COMDAT ?equivalent@error_category@std@@UEBA_NHAEBVerror_condition@2@@Z
_TEXT	SEGMENT
$T1 = 64
tv73 = 80
this$ = 112
_Errval$ = 120
_Cond$ = 128
?equivalent@error_category@std@@UEBA_NHAEBVerror_condition@2@@Z PROC ; std::error_category::equivalent, COMDAT

; 420  : _NODISCARD inline bool error_category::equivalent(int _Errval, const error_condition& _Cond) const noexcept {

$LN3:
  00000	4c 89 44 24 18	 mov	 QWORD PTR [rsp+24], r8
  00005	89 54 24 10	 mov	 DWORD PTR [rsp+16], edx
  00009	48 89 4c 24 08	 mov	 QWORD PTR [rsp+8], rcx
  0000e	55		 push	 rbp
  0000f	48 81 ec 80 00
	00 00		 sub	 rsp, 128		; 00000080H
  00016	48 8d 6c 24 20	 lea	 rbp, QWORD PTR [rsp+32]
  0001b	48 8d 0d 00 00
	00 00		 lea	 rcx, OFFSET FLAT:__E8E950EC_system_error
  00022	e8 00 00 00 00	 call	 __CheckForDebuggerJustMyCode

; 421  :     return default_error_condition(_Errval) == _Cond;

  00027	48 8b 45 70	 mov	 rax, QWORD PTR this$[rbp]
  0002b	48 8b 00	 mov	 rax, QWORD PTR [rax]
  0002e	48 8b 40 18	 mov	 rax, QWORD PTR [rax+24]
  00032	48 89 45 50	 mov	 QWORD PTR tv73[rbp], rax
  00036	44 8b 45 78	 mov	 r8d, DWORD PTR _Errval$[rbp]
  0003a	48 8d 55 40	 lea	 rdx, QWORD PTR $T1[rbp]
  0003e	48 8b 4d 70	 mov	 rcx, QWORD PTR this$[rbp]
  00042	ff 55 50	 call	 QWORD PTR tv73[rbp]
  00045	48 8b 95 80 00
	00 00		 mov	 rdx, QWORD PTR _Cond$[rbp]
  0004c	48 8b c8	 mov	 rcx, rax
  0004f	e8 00 00 00 00	 call	 ??8std@@YA_NAEBVerror_condition@0@0@Z ; std::operator==

; 422  : }

  00054	48 8d 65 60	 lea	 rsp, QWORD PTR [rbp+96]
  00058	5d		 pop	 rbp
  00059	c3		 ret	 0
?equivalent@error_category@std@@UEBA_NHAEBVerror_condition@2@@Z ENDP ; std::error_category::equivalent
_TEXT	ENDS
; Function compile flags: /Odtp /ZI
; File C:\Program Files\Microsoft Visual Studio\2022\Preview\VC\Tools\MSVC\14.38.33030\include\system_error
;	COMDAT ?default_error_condition@error_category@std@@UEBA?AVerror_condition@2@H@Z
_TEXT	SEGMENT
this$ = 80
__$ReturnUdt$ = 88
_Errval$ = 96
?default_error_condition@error_category@std@@UEBA?AVerror_condition@2@H@Z PROC ; std::error_category::default_error_condition, COMDAT

; 415  : _NODISCARD inline error_condition error_category::default_error_condition(int _Errval) const noexcept {

$LN3:
  00000	44 89 44 24 18	 mov	 DWORD PTR [rsp+24], r8d
  00005	48 89 54 24 10	 mov	 QWORD PTR [rsp+16], rdx
  0000a	48 89 4c 24 08	 mov	 QWORD PTR [rsp+8], rcx
  0000f	55		 push	 rbp
  00010	48 83 ec 60	 sub	 rsp, 96			; 00000060H
  00014	48 8d 6c 24 20	 lea	 rbp, QWORD PTR [rsp+32]
  00019	48 8d 0d 00 00
	00 00		 lea	 rcx, OFFSET FLAT:__E8E950EC_system_error
  00020	e8 00 00 00 00	 call	 __CheckForDebuggerJustMyCode

; 416  :     // make error_condition for error code
; 417  :     return error_condition(_Errval, *this);

  00025	4c 8b 45 50	 mov	 r8, QWORD PTR this$[rbp]
  00029	8b 55 60	 mov	 edx, DWORD PTR _Errval$[rbp]
  0002c	48 8b 4d 58	 mov	 rcx, QWORD PTR __$ReturnUdt$[rbp]
  00030	e8 00 00 00 00	 call	 ??0error_condition@std@@QEAA@HAEBVerror_category@1@@Z ; std::error_condition::error_condition
  00035	48 8b 45 58	 mov	 rax, QWORD PTR __$ReturnUdt$[rbp]

; 418  : }

  00039	48 8d 65 40	 lea	 rsp, QWORD PTR [rbp+64]
  0003d	5d		 pop	 rbp
  0003e	c3		 ret	 0
?default_error_condition@error_category@std@@UEBA?AVerror_condition@2@H@Z ENDP ; std::error_category::default_error_condition
_TEXT	ENDS
; Function compile flags: /Odtp /ZI
; File C:\Program Files\Microsoft Visual Studio\2022\Preview\VC\Tools\MSVC\14.38.33030\include\system_error
;	COMDAT ??1error_category@std@@UEAA@XZ
_TEXT	SEGMENT
this$ = 80
??1error_category@std@@UEAA@XZ PROC			; std::error_category::~error_category, COMDAT

; 87   :     _CONSTEXPR20 virtual ~error_category() noexcept = default;

$LN3:
  00000	48 89 4c 24 08	 mov	 QWORD PTR [rsp+8], rcx
  00005	55		 push	 rbp
  00006	48 83 ec 60	 sub	 rsp, 96			; 00000060H
  0000a	48 8d 6c 24 20	 lea	 rbp, QWORD PTR [rsp+32]
  0000f	48 8d 0d 00 00
	00 00		 lea	 rcx, OFFSET FLAT:__E8E950EC_system_error
  00016	e8 00 00 00 00	 call	 __CheckForDebuggerJustMyCode
  0001b	48 8d 65 40	 lea	 rsp, QWORD PTR [rbp+64]
  0001f	5d		 pop	 rbp
  00020	c3		 ret	 0
??1error_category@std@@UEAA@XZ ENDP			; std::error_category::~error_category
_TEXT	ENDS
; Function compile flags: /Odtp /ZI
;	COMDAT ??_Glogic_error@std@@UEAAPEAXI@Z
_TEXT	SEGMENT
this$ = 80
__flags$ = 88
??_Glogic_error@std@@UEAAPEAXI@Z PROC			; std::logic_error::`scalar deleting destructor', COMDAT
$LN4:
  00000	89 54 24 10	 mov	 DWORD PTR [rsp+16], edx
  00004	48 89 4c 24 08	 mov	 QWORD PTR [rsp+8], rcx
  00009	55		 push	 rbp
  0000a	48 83 ec 60	 sub	 rsp, 96			; 00000060H
  0000e	48 8d 6c 24 20	 lea	 rbp, QWORD PTR [rsp+32]
  00013	48 8b 4d 50	 mov	 rcx, QWORD PTR this$[rbp]
  00017	e8 00 00 00 00	 call	 ??1logic_error@std@@UEAA@XZ
  0001c	8b 45 58	 mov	 eax, DWORD PTR __flags$[rbp]
  0001f	83 e0 01	 and	 eax, 1
  00022	85 c0		 test	 eax, eax
  00024	74 0e		 je	 SHORT $LN2@scalar
  00026	ba 18 00 00 00	 mov	 edx, 24
  0002b	48 8b 4d 50	 mov	 rcx, QWORD PTR this$[rbp]
  0002f	e8 00 00 00 00	 call	 ??3@YAXPEAX_K@Z		; operator delete
$LN2@scalar:
  00034	48 8b 45 50	 mov	 rax, QWORD PTR this$[rbp]
  00038	48 8d 65 40	 lea	 rsp, QWORD PTR [rbp+64]
  0003c	5d		 pop	 rbp
  0003d	c3		 ret	 0
??_Glogic_error@std@@UEAAPEAXI@Z ENDP			; std::logic_error::`scalar deleting destructor'
_TEXT	ENDS
; Function compile flags: /Odtp /ZI
;	COMDAT ??0logic_error@std@@QEAA@AEBV01@@Z
_TEXT	SEGMENT
this$ = 80
__that$ = 88
??0logic_error@std@@QEAA@AEBV01@@Z PROC			; std::logic_error::logic_error, COMDAT
$LN3:
  00000	48 89 54 24 10	 mov	 QWORD PTR [rsp+16], rdx
  00005	48 89 4c 24 08	 mov	 QWORD PTR [rsp+8], rcx
  0000a	55		 push	 rbp
  0000b	48 83 ec 60	 sub	 rsp, 96			; 00000060H
  0000f	48 8d 6c 24 20	 lea	 rbp, QWORD PTR [rsp+32]
  00014	48 8b 55 58	 mov	 rdx, QWORD PTR __that$[rbp]
  00018	48 8b 4d 50	 mov	 rcx, QWORD PTR this$[rbp]
  0001c	e8 00 00 00 00	 call	 ??0exception@std@@QEAA@AEBV01@@Z ; std::exception::exception
  00021	48 8b 45 50	 mov	 rax, QWORD PTR this$[rbp]
  00025	48 8d 0d 00 00
	00 00		 lea	 rcx, OFFSET FLAT:??_7logic_error@std@@6B@
  0002c	48 89 08	 mov	 QWORD PTR [rax], rcx
  0002f	48 8b 45 50	 mov	 rax, QWORD PTR this$[rbp]
  00033	48 8d 65 40	 lea	 rsp, QWORD PTR [rbp+64]
  00037	5d		 pop	 rbp
  00038	c3		 ret	 0
??0logic_error@std@@QEAA@AEBV01@@Z ENDP			; std::logic_error::logic_error
_TEXT	ENDS
; Function compile flags: /Odtp /ZI
;	COMDAT ??1logic_error@std@@UEAA@XZ
_TEXT	SEGMENT
this$ = 80
??1logic_error@std@@UEAA@XZ PROC			; std::logic_error::~logic_error, COMDAT
$LN3:
  00000	48 89 4c 24 08	 mov	 QWORD PTR [rsp+8], rcx
  00005	55		 push	 rbp
  00006	48 83 ec 60	 sub	 rsp, 96			; 00000060H
  0000a	48 8d 6c 24 20	 lea	 rbp, QWORD PTR [rsp+32]
  0000f	48 8b 4d 50	 mov	 rcx, QWORD PTR this$[rbp]
  00013	e8 00 00 00 00	 call	 ??1exception@std@@UEAA@XZ ; std::exception::~exception
  00018	48 8d 65 40	 lea	 rsp, QWORD PTR [rbp+64]
  0001c	5d		 pop	 rbp
  0001d	c3		 ret	 0
??1logic_error@std@@UEAA@XZ ENDP			; std::logic_error::~logic_error
_TEXT	ENDS
; Function compile flags: /Odtp /ZI
; File C:\Program Files\Microsoft Visual Studio\2022\Preview\VC\Tools\MSVC\14.38.33030\include\stdexcept
;	COMDAT ??0logic_error@std@@QEAA@PEBD@Z
_TEXT	SEGMENT
this$ = 80
_Message$ = 88
??0logic_error@std@@QEAA@PEBD@Z PROC			; std::logic_error::logic_error, COMDAT

; 26   :     explicit logic_error(const char* _Message) : _Mybase(_Message) {}

$LN4:
  00000	48 89 54 24 10	 mov	 QWORD PTR [rsp+16], rdx
  00005	48 89 4c 24 08	 mov	 QWORD PTR [rsp+8], rcx
  0000a	55		 push	 rbp
  0000b	48 83 ec 60	 sub	 rsp, 96			; 00000060H
  0000f	48 8d 6c 24 20	 lea	 rbp, QWORD PTR [rsp+32]
  00014	48 8d 0d 00 00
	00 00		 lea	 rcx, OFFSET FLAT:__A4A32444_stdexcept
  0001b	e8 00 00 00 00	 call	 __CheckForDebuggerJustMyCode
  00020	48 8b 55 58	 mov	 rdx, QWORD PTR _Message$[rbp]
  00024	48 8b 4d 50	 mov	 rcx, QWORD PTR this$[rbp]
  00028	e8 00 00 00 00	 call	 ??0exception@std@@QEAA@QEBD@Z ; std::exception::exception
  0002d	48 8b 45 50	 mov	 rax, QWORD PTR this$[rbp]
  00031	48 8d 0d 00 00
	00 00		 lea	 rcx, OFFSET FLAT:??_7logic_error@std@@6B@
  00038	48 89 08	 mov	 QWORD PTR [rax], rcx
  0003b	48 8b 45 50	 mov	 rax, QWORD PTR this$[rbp]
  0003f	48 8d 65 40	 lea	 rsp, QWORD PTR [rbp+64]
  00043	5d		 pop	 rbp
  00044	c3		 ret	 0
??0logic_error@std@@QEAA@PEBD@Z ENDP			; std::logic_error::logic_error
_TEXT	ENDS
; Function compile flags: /Odtp /ZI
; File C:\Users\nahmu\source\repos\Dark Engine\Dark Engine\Source\Runtime\Render\D3D12\D3D12Mesh.cpp
;	COMDAT ?Init@D3D12Mesh@@QEAAXV?$vector@UVertexDefault@@V?$allocator@UVertexDefault@@@std@@@std@@V?$vector@GV?$allocator@G@std@@@3@@Z
_TEXT	SEGMENT
upload$ = 0
$T1 = 80
tv155 = 96
tv132 = 96
tv67 = 96
tv208 = 104
tv153 = 104
tv130 = 104
tv151 = 112
tv128 = 112
this$ = 144
vertices$ = 152
indices$ = 160
?Init@D3D12Mesh@@QEAAXV?$vector@UVertexDefault@@V?$allocator@UVertexDefault@@@std@@@std@@V?$vector@GV?$allocator@G@std@@@3@@Z PROC ; D3D12Mesh::Init, COMDAT

; 21   : {

$LN7:
  00000	4c 89 44 24 18	 mov	 QWORD PTR [rsp+24], r8
  00005	48 89 54 24 10	 mov	 QWORD PTR [rsp+16], rdx
  0000a	48 89 4c 24 08	 mov	 QWORD PTR [rsp+8], rcx
  0000f	55		 push	 rbp
  00010	48 81 ec c0 00
	00 00		 sub	 rsp, 192		; 000000c0H
  00017	48 8d 6c 24 40	 lea	 rbp, QWORD PTR [rsp+64]
  0001c	48 8d 0d 00 00
	00 00		 lea	 rcx, OFFSET FLAT:__7F2737F9_D3D12Mesh@cpp
  00023	e8 00 00 00 00	 call	 __CheckForDebuggerJustMyCode

; 22   : 	ResourceUploadBatch upload(m_device);

  00028	48 8b 85 90 00
	00 00		 mov	 rax, QWORD PTR this$[rbp]
  0002f	48 8b 10	 mov	 rdx, QWORD PTR [rax]
  00032	48 8d 4d 00	 lea	 rcx, QWORD PTR upload$[rbp]
  00036	e8 00 00 00 00	 call	 ??0ResourceUploadBatch@DirectX@@QEAA@PEAUID3D12Device@@@Z ; DirectX::ResourceUploadBatch::ResourceUploadBatch
  0003b	90		 npad	 1

; 23   : 
; 24   : 
; 25   : 	upload.Begin();

  0003c	33 d2		 xor	 edx, edx
  0003e	48 8d 4d 00	 lea	 rcx, QWORD PTR upload$[rbp]
  00042	e8 00 00 00 00	 call	 ?Begin@ResourceUploadBatch@DirectX@@QEAAXW4D3D12_COMMAND_LIST_TYPE@@@Z ; DirectX::ResourceUploadBatch::Begin

; 26   : 	CreateStaticBuffer(m_device, upload, vertices.data(), vertices.size(),

  00047	48 8b 8d 98 00
	00 00		 mov	 rcx, QWORD PTR vertices$[rbp]
  0004e	e8 00 00 00 00	 call	 ?size@?$vector@UVertexDefault@@V?$allocator@UVertexDefault@@@std@@@std@@QEBA_KXZ ; std::vector<VertexDefault,std::allocator<VertexDefault> >::size
  00053	48 89 45 60	 mov	 QWORD PTR tv132[rbp], rax
  00057	48 8b 8d 98 00
	00 00		 mov	 rcx, QWORD PTR vertices$[rbp]
  0005e	e8 00 00 00 00	 call	 ?data@?$vector@UVertexDefault@@V?$allocator@UVertexDefault@@@std@@@std@@QEAAPEAUVertexDefault@@XZ ; std::vector<VertexDefault,std::allocator<VertexDefault> >::data
  00063	48 89 45 68	 mov	 QWORD PTR tv130[rbp], rax
  00067	48 8b 85 90 00
	00 00		 mov	 rax, QWORD PTR this$[rbp]
  0006e	48 8b 00	 mov	 rax, QWORD PTR [rax]
  00071	48 89 45 70	 mov	 QWORD PTR tv128[rbp], rax
  00075	48 8b 85 90 00
	00 00		 mov	 rax, QWORD PTR this$[rbp]
  0007c	48 83 c0 08	 add	 rax, 8
  00080	c7 44 24 30 00
	00 00 00	 mov	 DWORD PTR [rsp+48], 0
  00088	48 89 44 24 28	 mov	 QWORD PTR [rsp+40], rax
  0008d	c7 44 24 20 01
	00 00 00	 mov	 DWORD PTR [rsp+32], 1
  00095	4c 8b 4d 60	 mov	 r9, QWORD PTR tv132[rbp]
  00099	4c 8b 45 68	 mov	 r8, QWORD PTR tv130[rbp]
  0009d	48 8d 55 00	 lea	 rdx, QWORD PTR upload$[rbp]
  000a1	48 8b 4d 70	 mov	 rcx, QWORD PTR tv128[rbp]
  000a5	e8 00 00 00 00	 call	 ??$CreateStaticBuffer@UVertexDefault@@@DirectX@@YAJPEAUID3D12Device@@AEAVResourceUploadBatch@0@PEBUVertexDefault@@_KW4D3D12_RESOURCE_STATES@@PEAPEAUID3D12Resource@@W4D3D12_RESOURCE_FLAGS@@@Z ; DirectX::CreateStaticBuffer<VertexDefault>

; 27   : 		D3D12_RESOURCE_STATE_VERTEX_AND_CONSTANT_BUFFER, &m_vertexBuffer);
; 28   : 
; 29   : 	CreateStaticBuffer(m_device, upload, indices.data(), indices.size(),

  000aa	48 8b 8d a0 00
	00 00		 mov	 rcx, QWORD PTR indices$[rbp]
  000b1	e8 00 00 00 00	 call	 ?size@?$vector@GV?$allocator@G@std@@@std@@QEBA_KXZ ; std::vector<unsigned short,std::allocator<unsigned short> >::size
  000b6	48 89 45 60	 mov	 QWORD PTR tv155[rbp], rax
  000ba	48 8b 8d a0 00
	00 00		 mov	 rcx, QWORD PTR indices$[rbp]
  000c1	e8 00 00 00 00	 call	 ?data@?$vector@GV?$allocator@G@std@@@std@@QEAAPEAGXZ ; std::vector<unsigned short,std::allocator<unsigned short> >::data
  000c6	48 89 45 68	 mov	 QWORD PTR tv153[rbp], rax
  000ca	48 8b 85 90 00
	00 00		 mov	 rax, QWORD PTR this$[rbp]
  000d1	48 8b 00	 mov	 rax, QWORD PTR [rax]
  000d4	48 89 45 70	 mov	 QWORD PTR tv151[rbp], rax
  000d8	48 8b 85 90 00
	00 00		 mov	 rax, QWORD PTR this$[rbp]
  000df	48 83 c0 10	 add	 rax, 16
  000e3	c7 44 24 30 00
	00 00 00	 mov	 DWORD PTR [rsp+48], 0
  000eb	48 89 44 24 28	 mov	 QWORD PTR [rsp+40], rax
  000f0	c7 44 24 20 02
	00 00 00	 mov	 DWORD PTR [rsp+32], 2
  000f8	4c 8b 4d 60	 mov	 r9, QWORD PTR tv155[rbp]
  000fc	4c 8b 45 68	 mov	 r8, QWORD PTR tv153[rbp]
  00100	48 8d 55 00	 lea	 rdx, QWORD PTR upload$[rbp]
  00104	48 8b 4d 70	 mov	 rcx, QWORD PTR tv151[rbp]
  00108	e8 00 00 00 00	 call	 ??$CreateStaticBuffer@G@DirectX@@YAJPEAUID3D12Device@@AEAVResourceUploadBatch@0@PEBG_KW4D3D12_RESOURCE_STATES@@PEAPEAUID3D12Resource@@W4D3D12_RESOURCE_FLAGS@@@Z ; DirectX::CreateStaticBuffer<unsigned short>

; 30   : 		D3D12_RESOURCE_STATE_INDEX_BUFFER, &m_indexBuffer);
; 31   : 	upload.End(D3DUtil::GetCommandQueue()).wait();

  0010d	e8 00 00 00 00	 call	 ?GetCommandQueue@D3DUtil@@SAPEAUID3D12CommandQueue@@XZ ; D3DUtil::GetCommandQueue
  00112	4c 8b c0	 mov	 r8, rax
  00115	48 8d 55 50	 lea	 rdx, QWORD PTR $T1[rbp]
  00119	48 8d 4d 00	 lea	 rcx, QWORD PTR upload$[rbp]
  0011d	e8 00 00 00 00	 call	 ?End@ResourceUploadBatch@DirectX@@QEAA?AV?$future@X@std@@PEAUID3D12CommandQueue@@@Z ; DirectX::ResourceUploadBatch::End
  00122	48 89 45 60	 mov	 QWORD PTR tv67[rbp], rax
  00126	48 8b 45 60	 mov	 rax, QWORD PTR tv67[rbp]
  0012a	48 89 45 68	 mov	 QWORD PTR tv208[rbp], rax
  0012e	48 8b 4d 68	 mov	 rcx, QWORD PTR tv208[rbp]
  00132	e8 00 00 00 00	 call	 ?wait@?$_State_manager@H@std@@QEBAXXZ ; std::_State_manager<int>::wait
  00137	90		 npad	 1
  00138	48 8d 4d 50	 lea	 rcx, QWORD PTR $T1[rbp]
  0013c	e8 00 00 00 00	 call	 ??1?$future@X@std@@QEAA@XZ

; 32   : 
; 33   : 
; 34   : 
; 35   : 	m_vertexBufferView.BufferLocation = m_vertexBuffer->GetGPUVirtualAddress();

  00141	48 8b 85 90 00
	00 00		 mov	 rax, QWORD PTR this$[rbp]
  00148	48 8b 40 08	 mov	 rax, QWORD PTR [rax+8]
  0014c	48 8b 8d 90 00
	00 00		 mov	 rcx, QWORD PTR this$[rbp]
  00153	48 8b 49 08	 mov	 rcx, QWORD PTR [rcx+8]
  00157	48 8b 00	 mov	 rax, QWORD PTR [rax]
  0015a	ff 50 58	 call	 QWORD PTR [rax+88]
  0015d	48 8b 8d 90 00
	00 00		 mov	 rcx, QWORD PTR this$[rbp]
  00164	48 89 41 18	 mov	 QWORD PTR [rcx+24], rax

; 36   : 	m_vertexBufferView.SizeInBytes = sizeof(Vertex) * vertices.size();

  00168	48 8b 8d 98 00
	00 00		 mov	 rcx, QWORD PTR vertices$[rbp]
  0016f	e8 00 00 00 00	 call	 ?size@?$vector@UVertexDefault@@V?$allocator@UVertexDefault@@@std@@@std@@QEBA_KXZ ; std::vector<VertexDefault,std::allocator<VertexDefault> >::size
  00174	48 6b c0 48	 imul	 rax, rax, 72		; 00000048H
  00178	48 8b 8d 90 00
	00 00		 mov	 rcx, QWORD PTR this$[rbp]
  0017f	89 41 20	 mov	 DWORD PTR [rcx+32], eax

; 37   : 	m_vertexBufferView.StrideInBytes = sizeof(Vertex);

  00182	48 8b 85 90 00
	00 00		 mov	 rax, QWORD PTR this$[rbp]
  00189	c7 40 24 48 00
	00 00		 mov	 DWORD PTR [rax+36], 72	; 00000048H

; 38   : 
; 39   : 	m_indexBufferView.BufferLocation = m_indexBuffer->GetGPUVirtualAddress();

  00190	48 8b 85 90 00
	00 00		 mov	 rax, QWORD PTR this$[rbp]
  00197	48 8b 40 10	 mov	 rax, QWORD PTR [rax+16]
  0019b	48 8b 8d 90 00
	00 00		 mov	 rcx, QWORD PTR this$[rbp]
  001a2	48 8b 49 10	 mov	 rcx, QWORD PTR [rcx+16]
  001a6	48 8b 00	 mov	 rax, QWORD PTR [rax]
  001a9	ff 50 58	 call	 QWORD PTR [rax+88]
  001ac	48 8b 8d 90 00
	00 00		 mov	 rcx, QWORD PTR this$[rbp]
  001b3	48 89 41 28	 mov	 QWORD PTR [rcx+40], rax

; 40   : 	m_indexBufferView.Format = DXGI_FORMAT_R16_UINT;

  001b7	48 8b 85 90 00
	00 00		 mov	 rax, QWORD PTR this$[rbp]
  001be	c7 40 34 39 00
	00 00		 mov	 DWORD PTR [rax+52], 57	; 00000039H

; 41   : 	m_indexBufferView.SizeInBytes = sizeof(WORD) * indices.size();

  001c5	48 8b 8d a0 00
	00 00		 mov	 rcx, QWORD PTR indices$[rbp]
  001cc	e8 00 00 00 00	 call	 ?size@?$vector@GV?$allocator@G@std@@@std@@QEBA_KXZ ; std::vector<unsigned short,std::allocator<unsigned short> >::size
  001d1	48 d1 e0	 shl	 rax, 1
  001d4	48 8b 8d 90 00
	00 00		 mov	 rcx, QWORD PTR this$[rbp]
  001db	89 41 30	 mov	 DWORD PTR [rcx+48], eax

; 42   : }

  001de	48 8d 4d 00	 lea	 rcx, QWORD PTR upload$[rbp]
  001e2	e8 00 00 00 00	 call	 ??1ResourceUploadBatch@DirectX@@UEAA@XZ ; DirectX::ResourceUploadBatch::~ResourceUploadBatch
  001e7	90		 npad	 1
  001e8	48 8b 8d 98 00
	00 00		 mov	 rcx, QWORD PTR vertices$[rbp]
  001ef	e8 00 00 00 00	 call	 ??1?$vector@UVertexDefault@@V?$allocator@UVertexDefault@@@std@@@std@@QEAA@XZ ; std::vector<VertexDefault,std::allocator<VertexDefault> >::~vector<VertexDefault,std::allocator<VertexDefault> >
  001f4	90		 npad	 1
  001f5	48 8b 8d a0 00
	00 00		 mov	 rcx, QWORD PTR indices$[rbp]
  001fc	e8 00 00 00 00	 call	 ??1?$vector@GV?$allocator@G@std@@@std@@QEAA@XZ ; std::vector<unsigned short,std::allocator<unsigned short> >::~vector<unsigned short,std::allocator<unsigned short> >
  00201	48 8d a5 80 00
	00 00		 lea	 rsp, QWORD PTR [rbp+128]
  00208	5d		 pop	 rbp
  00209	c3		 ret	 0
?Init@D3D12Mesh@@QEAAXV?$vector@UVertexDefault@@V?$allocator@UVertexDefault@@@std@@@std@@V?$vector@GV?$allocator@G@std@@@3@@Z ENDP ; D3D12Mesh::Init
_TEXT	ENDS
; Function compile flags: /Odtp /ZI
;	COMDAT text$x
text$x	SEGMENT
upload$ = 0
$T1 = 80
tv155 = 96
tv132 = 96
tv67 = 96
tv208 = 104
tv153 = 104
tv130 = 104
tv151 = 112
tv128 = 112
this$ = 144
vertices$ = 152
indices$ = 160
?dtor$0@?0??Init@D3D12Mesh@@QEAAXV?$vector@UVertexDefault@@V?$allocator@UVertexDefault@@@std@@@std@@V?$vector@GV?$allocator@G@std@@@3@@Z@4HA PROC ; `D3D12Mesh::Init'::`1'::dtor$0
  00000	40 55		 push	 rbp
  00002	48 83 ec 20	 sub	 rsp, 32			; 00000020H
  00006	48 8d 6a 40	 lea	 rbp, QWORD PTR [rdx+64]
  0000a	48 8b 8d a0 00
	00 00		 mov	 rcx, QWORD PTR indices$[rbp]
  00011	e8 00 00 00 00	 call	 ??1?$vector@GV?$allocator@G@std@@@std@@QEAA@XZ ; std::vector<unsigned short,std::allocator<unsigned short> >::~vector<unsigned short,std::allocator<unsigned short> >
  00016	48 83 c4 20	 add	 rsp, 32			; 00000020H
  0001a	5d		 pop	 rbp
  0001b	c3		 ret	 0
?dtor$0@?0??Init@D3D12Mesh@@QEAAXV?$vector@UVertexDefault@@V?$allocator@UVertexDefault@@@std@@@std@@V?$vector@GV?$allocator@G@std@@@3@@Z@4HA ENDP ; `D3D12Mesh::Init'::`1'::dtor$0
text$x	ENDS
; Function compile flags: /Odtp /ZI
;	COMDAT text$x
text$x	SEGMENT
upload$ = 0
$T1 = 80
tv155 = 96
tv132 = 96
tv67 = 96
tv208 = 104
tv153 = 104
tv130 = 104
tv151 = 112
tv128 = 112
this$ = 144
vertices$ = 152
indices$ = 160
?dtor$1@?0??Init@D3D12Mesh@@QEAAXV?$vector@UVertexDefault@@V?$allocator@UVertexDefault@@@std@@@std@@V?$vector@GV?$allocator@G@std@@@3@@Z@4HA PROC ; `D3D12Mesh::Init'::`1'::dtor$1
  00000	40 55		 push	 rbp
  00002	48 83 ec 20	 sub	 rsp, 32			; 00000020H
  00006	48 8d 6a 40	 lea	 rbp, QWORD PTR [rdx+64]
  0000a	48 8b 8d 98 00
	00 00		 mov	 rcx, QWORD PTR vertices$[rbp]
  00011	e8 00 00 00 00	 call	 ??1?$vector@UVertexDefault@@V?$allocator@UVertexDefault@@@std@@@std@@QEAA@XZ ; std::vector<VertexDefault,std::allocator<VertexDefault> >::~vector<VertexDefault,std::allocator<VertexDefault> >
  00016	48 83 c4 20	 add	 rsp, 32			; 00000020H
  0001a	5d		 pop	 rbp
  0001b	c3		 ret	 0
?dtor$1@?0??Init@D3D12Mesh@@QEAAXV?$vector@UVertexDefault@@V?$allocator@UVertexDefault@@@std@@@std@@V?$vector@GV?$allocator@G@std@@@3@@Z@4HA ENDP ; `D3D12Mesh::Init'::`1'::dtor$1
text$x	ENDS
; Function compile flags: /Odtp /ZI
;	COMDAT text$x
text$x	SEGMENT
upload$ = 0
$T1 = 80
tv155 = 96
tv132 = 96
tv67 = 96
tv208 = 104
tv153 = 104
tv130 = 104
tv151 = 112
tv128 = 112
this$ = 144
vertices$ = 152
indices$ = 160
?dtor$2@?0??Init@D3D12Mesh@@QEAAXV?$vector@UVertexDefault@@V?$allocator@UVertexDefault@@@std@@@std@@V?$vector@GV?$allocator@G@std@@@3@@Z@4HA PROC ; `D3D12Mesh::Init'::`1'::dtor$2
  00000	40 55		 push	 rbp
  00002	48 83 ec 20	 sub	 rsp, 32			; 00000020H
  00006	48 8d 6a 40	 lea	 rbp, QWORD PTR [rdx+64]
  0000a	48 8d 4d 00	 lea	 rcx, QWORD PTR upload$[rbp]
  0000e	e8 00 00 00 00	 call	 ??1ResourceUploadBatch@DirectX@@UEAA@XZ ; DirectX::ResourceUploadBatch::~ResourceUploadBatch
  00013	48 83 c4 20	 add	 rsp, 32			; 00000020H
  00017	5d		 pop	 rbp
  00018	c3		 ret	 0
?dtor$2@?0??Init@D3D12Mesh@@QEAAXV?$vector@UVertexDefault@@V?$allocator@UVertexDefault@@@std@@@std@@V?$vector@GV?$allocator@G@std@@@3@@Z@4HA ENDP ; `D3D12Mesh::Init'::`1'::dtor$2
text$x	ENDS
; Function compile flags: /Odtp /ZI
;	COMDAT text$x
text$x	SEGMENT
upload$ = 0
$T1 = 80
tv155 = 96
tv132 = 96
tv67 = 96
tv208 = 104
tv153 = 104
tv130 = 104
tv151 = 112
tv128 = 112
this$ = 144
vertices$ = 152
indices$ = 160
?dtor$3@?0??Init@D3D12Mesh@@QEAAXV?$vector@UVertexDefault@@V?$allocator@UVertexDefault@@@std@@@std@@V?$vector@GV?$allocator@G@std@@@3@@Z@4HA PROC ; `D3D12Mesh::Init'::`1'::dtor$3
  00000	40 55		 push	 rbp
  00002	48 83 ec 20	 sub	 rsp, 32			; 00000020H
  00006	48 8d 6a 40	 lea	 rbp, QWORD PTR [rdx+64]
  0000a	48 8d 4d 50	 lea	 rcx, QWORD PTR $T1[rbp]
  0000e	e8 00 00 00 00	 call	 ??1?$future@X@std@@QEAA@XZ
  00013	48 83 c4 20	 add	 rsp, 32			; 00000020H
  00017	5d		 pop	 rbp
  00018	c3		 ret	 0
?dtor$3@?0??Init@D3D12Mesh@@QEAAXV?$vector@UVertexDefault@@V?$allocator@UVertexDefault@@@std@@@std@@V?$vector@GV?$allocator@G@std@@@3@@Z@4HA ENDP ; `D3D12Mesh::Init'::`1'::dtor$3
text$x	ENDS
; Function compile flags: /Odtp /ZI
; File C:\Users\nahmu\source\repos\Dark Engine\Dark Engine\Source\Runtime\Render\D3D12\D3D12Mesh.cpp
;	COMDAT ??0D3D12Mesh@@QEAA@V?$vector@UVertexDefault@@V?$allocator@UVertexDefault@@@std@@@std@@V?$vector@GV?$allocator@G@std@@@2@@Z
_TEXT	SEGMENT
$T1 = 64
$T2 = 96
$T3 = 104
$T4 = 136
tv68 = 144
tv135 = 152
tv87 = 160
tv137 = 168
tv95 = 176
this$ = 208
vertices$ = 216
indices$ = 224
??0D3D12Mesh@@QEAA@V?$vector@UVertexDefault@@V?$allocator@UVertexDefault@@@std@@@std@@V?$vector@GV?$allocator@G@std@@@2@@Z PROC ; D3D12Mesh::D3D12Mesh, COMDAT

; 14   : {

$LN8:
  00000	4c 89 44 24 18	 mov	 QWORD PTR [rsp+24], r8
  00005	48 89 54 24 10	 mov	 QWORD PTR [rsp+16], rdx
  0000a	48 89 4c 24 08	 mov	 QWORD PTR [rsp+8], rcx
  0000f	55		 push	 rbp
  00010	48 81 ec e0 00
	00 00		 sub	 rsp, 224		; 000000e0H
  00017	48 8d 6c 24 20	 lea	 rbp, QWORD PTR [rsp+32]
  0001c	48 8d 0d 00 00
	00 00		 lea	 rcx, OFFSET FLAT:__7F2737F9_D3D12Mesh@cpp
  00023	e8 00 00 00 00	 call	 __CheckForDebuggerJustMyCode
  00028	48 8b 85 d0 00
	00 00		 mov	 rax, QWORD PTR this$[rbp]
  0002f	48 83 c0 38	 add	 rax, 56			; 00000038H
  00033	48 8b c8	 mov	 rcx, rax
  00036	e8 00 00 00 00	 call	 ??0?$basic_string@DU?$char_traits@D@std@@V?$allocator@D@2@@std@@QEAA@XZ ; std::basic_string<char,std::char_traits<char>,std::allocator<char> >::basic_string<char,std::char_traits<char>,std::allocator<char> >
  0003b	90		 npad	 1

; 15   : 	m_device = D3DUtil::GetDevice();

  0003c	e8 00 00 00 00	 call	 ?GetDevice@D3DUtil@@SAPEAUID3D12Device8@@XZ ; D3DUtil::GetDevice
  00041	48 8b 8d d0 00
	00 00		 mov	 rcx, QWORD PTR this$[rbp]
  00048	48 89 01	 mov	 QWORD PTR [rcx], rax

; 16   : 	Init(vertices, indices);

  0004b	48 8d 45 40	 lea	 rax, QWORD PTR $T1[rbp]
  0004f	48 89 45 60	 mov	 QWORD PTR $T2[rbp], rax
  00053	48 8b 95 e0 00
	00 00		 mov	 rdx, QWORD PTR indices$[rbp]
  0005a	48 8b 4d 60	 mov	 rcx, QWORD PTR $T2[rbp]
  0005e	e8 00 00 00 00	 call	 ??0?$vector@GV?$allocator@G@std@@@std@@QEAA@AEBV01@@Z ; std::vector<unsigned short,std::allocator<unsigned short> >::vector<unsigned short,std::allocator<unsigned short> >
  00063	48 89 85 90 00
	00 00		 mov	 QWORD PTR tv68[rbp], rax
  0006a	48 8b 85 90 00
	00 00		 mov	 rax, QWORD PTR tv68[rbp]
  00071	48 89 85 98 00
	00 00		 mov	 QWORD PTR tv135[rbp], rax
  00078	48 8b 85 98 00
	00 00		 mov	 rax, QWORD PTR tv135[rbp]
  0007f	48 89 85 a0 00
	00 00		 mov	 QWORD PTR tv87[rbp], rax
  00086	48 8d 45 68	 lea	 rax, QWORD PTR $T3[rbp]
  0008a	48 89 85 88 00
	00 00		 mov	 QWORD PTR $T4[rbp], rax
  00091	48 8b 95 d8 00
	00 00		 mov	 rdx, QWORD PTR vertices$[rbp]
  00098	48 8b 8d 88 00
	00 00		 mov	 rcx, QWORD PTR $T4[rbp]
  0009f	e8 00 00 00 00	 call	 ??0?$vector@UVertexDefault@@V?$allocator@UVertexDefault@@@std@@@std@@QEAA@AEBV01@@Z ; std::vector<VertexDefault,std::allocator<VertexDefault> >::vector<VertexDefault,std::allocator<VertexDefault> >
  000a4	48 89 85 a8 00
	00 00		 mov	 QWORD PTR tv137[rbp], rax
  000ab	48 8b 85 a8 00
	00 00		 mov	 rax, QWORD PTR tv137[rbp]
  000b2	48 89 85 b0 00
	00 00		 mov	 QWORD PTR tv95[rbp], rax
  000b9	4c 8b 85 a0 00
	00 00		 mov	 r8, QWORD PTR tv87[rbp]
  000c0	48 8b 95 b0 00
	00 00		 mov	 rdx, QWORD PTR tv95[rbp]
  000c7	48 8b 8d d0 00
	00 00		 mov	 rcx, QWORD PTR this$[rbp]
  000ce	e8 00 00 00 00	 call	 ?Init@D3D12Mesh@@QEAAXV?$vector@UVertexDefault@@V?$allocator@UVertexDefault@@@std@@@std@@V?$vector@GV?$allocator@G@std@@@3@@Z ; D3D12Mesh::Init
  000d3	90		 npad	 1

; 17   : }

  000d4	48 8b 8d d8 00
	00 00		 mov	 rcx, QWORD PTR vertices$[rbp]
  000db	e8 00 00 00 00	 call	 ??1?$vector@UVertexDefault@@V?$allocator@UVertexDefault@@@std@@@std@@QEAA@XZ ; std::vector<VertexDefault,std::allocator<VertexDefault> >::~vector<VertexDefault,std::allocator<VertexDefault> >
  000e0	90		 npad	 1
  000e1	48 8b 8d e0 00
	00 00		 mov	 rcx, QWORD PTR indices$[rbp]
  000e8	e8 00 00 00 00	 call	 ??1?$vector@GV?$allocator@G@std@@@std@@QEAA@XZ ; std::vector<unsigned short,std::allocator<unsigned short> >::~vector<unsigned short,std::allocator<unsigned short> >
  000ed	48 8b 85 d0 00
	00 00		 mov	 rax, QWORD PTR this$[rbp]
  000f4	48 8d a5 c0 00
	00 00		 lea	 rsp, QWORD PTR [rbp+192]
  000fb	5d		 pop	 rbp
  000fc	c3		 ret	 0
??0D3D12Mesh@@QEAA@V?$vector@UVertexDefault@@V?$allocator@UVertexDefault@@@std@@@std@@V?$vector@GV?$allocator@G@std@@@2@@Z ENDP ; D3D12Mesh::D3D12Mesh
_TEXT	ENDS
; Function compile flags: /Odtp /ZI
;	COMDAT text$x
text$x	SEGMENT
$T1 = 64
$T2 = 96
$T3 = 104
$T4 = 136
tv68 = 144
tv135 = 152
tv87 = 160
tv137 = 168
tv95 = 176
this$ = 208
vertices$ = 216
indices$ = 224
?dtor$0@?0???0D3D12Mesh@@QEAA@V?$vector@UVertexDefault@@V?$allocator@UVertexDefault@@@std@@@std@@V?$vector@GV?$allocator@G@std@@@2@@Z@4HA PROC ; `D3D12Mesh::D3D12Mesh'::`1'::dtor$0
  00000	40 55		 push	 rbp
  00002	48 83 ec 20	 sub	 rsp, 32			; 00000020H
  00006	48 8d 6a 20	 lea	 rbp, QWORD PTR [rdx+32]
  0000a	48 8b 8d e0 00
	00 00		 mov	 rcx, QWORD PTR indices$[rbp]
  00011	e8 00 00 00 00	 call	 ??1?$vector@GV?$allocator@G@std@@@std@@QEAA@XZ ; std::vector<unsigned short,std::allocator<unsigned short> >::~vector<unsigned short,std::allocator<unsigned short> >
  00016	48 83 c4 20	 add	 rsp, 32			; 00000020H
  0001a	5d		 pop	 rbp
  0001b	c3		 ret	 0
?dtor$0@?0???0D3D12Mesh@@QEAA@V?$vector@UVertexDefault@@V?$allocator@UVertexDefault@@@std@@@std@@V?$vector@GV?$allocator@G@std@@@2@@Z@4HA ENDP ; `D3D12Mesh::D3D12Mesh'::`1'::dtor$0
text$x	ENDS
; Function compile flags: /Odtp /ZI
;	COMDAT text$x
text$x	SEGMENT
$T1 = 64
$T2 = 96
$T3 = 104
$T4 = 136
tv68 = 144
tv135 = 152
tv87 = 160
tv137 = 168
tv95 = 176
this$ = 208
vertices$ = 216
indices$ = 224
?dtor$1@?0???0D3D12Mesh@@QEAA@V?$vector@UVertexDefault@@V?$allocator@UVertexDefault@@@std@@@std@@V?$vector@GV?$allocator@G@std@@@2@@Z@4HA PROC ; `D3D12Mesh::D3D12Mesh'::`1'::dtor$1
  00000	40 55		 push	 rbp
  00002	48 83 ec 20	 sub	 rsp, 32			; 00000020H
  00006	48 8d 6a 20	 lea	 rbp, QWORD PTR [rdx+32]
  0000a	48 8b 8d d8 00
	00 00		 mov	 rcx, QWORD PTR vertices$[rbp]
  00011	e8 00 00 00 00	 call	 ??1?$vector@UVertexDefault@@V?$allocator@UVertexDefault@@@std@@@std@@QEAA@XZ ; std::vector<VertexDefault,std::allocator<VertexDefault> >::~vector<VertexDefault,std::allocator<VertexDefault> >
  00016	48 83 c4 20	 add	 rsp, 32			; 00000020H
  0001a	5d		 pop	 rbp
  0001b	c3		 ret	 0
?dtor$1@?0???0D3D12Mesh@@QEAA@V?$vector@UVertexDefault@@V?$allocator@UVertexDefault@@@std@@@std@@V?$vector@GV?$allocator@G@std@@@2@@Z@4HA ENDP ; `D3D12Mesh::D3D12Mesh'::`1'::dtor$1
text$x	ENDS
; Function compile flags: /Odtp /ZI
;	COMDAT text$x
text$x	SEGMENT
$T1 = 64
$T2 = 96
$T3 = 104
$T4 = 136
tv68 = 144
tv135 = 152
tv87 = 160
tv137 = 168
tv95 = 176
this$ = 208
vertices$ = 216
indices$ = 224
?dtor$2@?0???0D3D12Mesh@@QEAA@V?$vector@UVertexDefault@@V?$allocator@UVertexDefault@@@std@@@std@@V?$vector@GV?$allocator@G@std@@@2@@Z@4HA PROC ; `D3D12Mesh::D3D12Mesh'::`1'::dtor$2
  00000	40 55		 push	 rbp
  00002	48 83 ec 20	 sub	 rsp, 32			; 00000020H
  00006	48 8d 6a 20	 lea	 rbp, QWORD PTR [rdx+32]
  0000a	48 8b 8d d0 00
	00 00		 mov	 rcx, QWORD PTR this$[rbp]
  00011	48 83 c1 38	 add	 rcx, 56			; 00000038H
  00015	e8 00 00 00 00	 call	 ??1?$basic_string@DU?$char_traits@D@std@@V?$allocator@D@2@@std@@QEAA@XZ ; std::basic_string<char,std::char_traits<char>,std::allocator<char> >::~basic_string<char,std::char_traits<char>,std::allocator<char> >
  0001a	48 83 c4 20	 add	 rsp, 32			; 00000020H
  0001e	5d		 pop	 rbp
  0001f	c3		 ret	 0
?dtor$2@?0???0D3D12Mesh@@QEAA@V?$vector@UVertexDefault@@V?$allocator@UVertexDefault@@@std@@@std@@V?$vector@GV?$allocator@G@std@@@2@@Z@4HA ENDP ; `D3D12Mesh::D3D12Mesh'::`1'::dtor$2
text$x	ENDS
; Function compile flags: /Odtp /ZI
;	COMDAT text$x
text$x	SEGMENT
$T1 = 64
$T2 = 96
$T3 = 104
$T4 = 136
tv68 = 144
tv135 = 152
tv87 = 160
tv137 = 168
tv95 = 176
this$ = 208
vertices$ = 216
indices$ = 224
?dtor$3@?0???0D3D12Mesh@@QEAA@V?$vector@UVertexDefault@@V?$allocator@UVertexDefault@@@std@@@std@@V?$vector@GV?$allocator@G@std@@@2@@Z@4HA PROC ; `D3D12Mesh::D3D12Mesh'::`1'::dtor$3
  00000	40 55		 push	 rbp
  00002	48 83 ec 20	 sub	 rsp, 32			; 00000020H
  00006	48 8d 6a 20	 lea	 rbp, QWORD PTR [rdx+32]
  0000a	48 8b 4d 60	 mov	 rcx, QWORD PTR $T2[rbp]
  0000e	e8 00 00 00 00	 call	 ??1?$vector@GV?$allocator@G@std@@@std@@QEAA@XZ ; std::vector<unsigned short,std::allocator<unsigned short> >::~vector<unsigned short,std::allocator<unsigned short> >
  00013	48 83 c4 20	 add	 rsp, 32			; 00000020H
  00017	5d		 pop	 rbp
  00018	c3		 ret	 0
?dtor$3@?0???0D3D12Mesh@@QEAA@V?$vector@UVertexDefault@@V?$allocator@UVertexDefault@@@std@@@std@@V?$vector@GV?$allocator@G@std@@@2@@Z@4HA ENDP ; `D3D12Mesh::D3D12Mesh'::`1'::dtor$3
text$x	ENDS
; Function compile flags: /Odtp /ZI
; File C:\Users\nahmu\source\repos\Dark Engine\Dark Engine\Source\Runtime\Render\D3D12\D3D12Mesh.cpp
;	COMDAT ??0D3D12Mesh@@QEAA@XZ
_TEXT	SEGMENT
this$ = 80
??0D3D12Mesh@@QEAA@XZ PROC				; D3D12Mesh::D3D12Mesh, COMDAT

; 9    : {

$LN4:
  00000	48 89 4c 24 08	 mov	 QWORD PTR [rsp+8], rcx
  00005	55		 push	 rbp
  00006	48 83 ec 60	 sub	 rsp, 96			; 00000060H
  0000a	48 8d 6c 24 20	 lea	 rbp, QWORD PTR [rsp+32]
  0000f	48 8d 0d 00 00
	00 00		 lea	 rcx, OFFSET FLAT:__7F2737F9_D3D12Mesh@cpp
  00016	e8 00 00 00 00	 call	 __CheckForDebuggerJustMyCode
  0001b	48 8b 45 50	 mov	 rax, QWORD PTR this$[rbp]
  0001f	48 83 c0 38	 add	 rax, 56			; 00000038H
  00023	48 8b c8	 mov	 rcx, rax
  00026	e8 00 00 00 00	 call	 ??0?$basic_string@DU?$char_traits@D@std@@V?$allocator@D@2@@std@@QEAA@XZ ; std::basic_string<char,std::char_traits<char>,std::allocator<char> >::basic_string<char,std::char_traits<char>,std::allocator<char> >
  0002b	90		 npad	 1

; 10   : 	m_device = D3DUtil::GetDevice();

  0002c	e8 00 00 00 00	 call	 ?GetDevice@D3DUtil@@SAPEAUID3D12Device8@@XZ ; D3DUtil::GetDevice
  00031	48 8b 4d 50	 mov	 rcx, QWORD PTR this$[rbp]
  00035	48 89 01	 mov	 QWORD PTR [rcx], rax

; 11   : }

  00038	48 8b 45 50	 mov	 rax, QWORD PTR this$[rbp]
  0003c	48 8d 65 40	 lea	 rsp, QWORD PTR [rbp+64]
  00040	5d		 pop	 rbp
  00041	c3		 ret	 0
??0D3D12Mesh@@QEAA@XZ ENDP				; D3D12Mesh::D3D12Mesh
_TEXT	ENDS
; Function compile flags: /Odtp /ZI
;	COMDAT text$x
text$x	SEGMENT
this$ = 80
?dtor$0@?0???0D3D12Mesh@@QEAA@XZ@4HA PROC		; `D3D12Mesh::D3D12Mesh'::`1'::dtor$0
  00000	40 55		 push	 rbp
  00002	48 83 ec 20	 sub	 rsp, 32			; 00000020H
  00006	48 8d 6a 20	 lea	 rbp, QWORD PTR [rdx+32]
  0000a	48 8b 4d 50	 mov	 rcx, QWORD PTR this$[rbp]
  0000e	48 83 c1 38	 add	 rcx, 56			; 00000038H
  00012	e8 00 00 00 00	 call	 ??1?$basic_string@DU?$char_traits@D@std@@V?$allocator@D@2@@std@@QEAA@XZ ; std::basic_string<char,std::char_traits<char>,std::allocator<char> >::~basic_string<char,std::char_traits<char>,std::allocator<char> >
  00017	48 83 c4 20	 add	 rsp, 32			; 00000020H
  0001b	5d		 pop	 rbp
  0001c	c3		 ret	 0
?dtor$0@?0???0D3D12Mesh@@QEAA@XZ@4HA ENDP		; `D3D12Mesh::D3D12Mesh'::`1'::dtor$0
text$x	ENDS
; Function compile flags: /Odtp /ZI
;	COMDAT ??_E?$ComPtr@UIUnknown@@@WRL@Microsoft@@QEAAPEAXI@Z
_TEXT	SEGMENT
this$ = 80
__flags$ = 88
??_E?$ComPtr@UIUnknown@@@WRL@Microsoft@@QEAAPEAXI@Z PROC ; Microsoft::WRL::ComPtr<IUnknown>::`vector deleting destructor', COMDAT
$LN6:
  00000	89 54 24 10	 mov	 DWORD PTR [rsp+16], edx
  00004	48 89 4c 24 08	 mov	 QWORD PTR [rsp+8], rcx
  00009	55		 push	 rbp
  0000a	48 83 ec 60	 sub	 rsp, 96			; 00000060H
  0000e	48 8d 6c 24 20	 lea	 rbp, QWORD PTR [rsp+32]
  00013	8b 45 58	 mov	 eax, DWORD PTR __flags$[rbp]
  00016	83 e0 02	 and	 eax, 2
  00019	85 c0		 test	 eax, eax
  0001b	74 51		 je	 SHORT $LN2@vector
  0001d	4c 8d 0d 00 00
	00 00		 lea	 r9, OFFSET FLAT:??1?$ComPtr@UIUnknown@@@WRL@Microsoft@@QEAA@XZ ; Microsoft::WRL::ComPtr<IUnknown>::~ComPtr<IUnknown>
  00024	48 8b 45 50	 mov	 rax, QWORD PTR this$[rbp]
  00028	4c 8b 40 f8	 mov	 r8, QWORD PTR [rax-8]
  0002c	ba 08 00 00 00	 mov	 edx, 8
  00031	48 8b 4d 50	 mov	 rcx, QWORD PTR this$[rbp]
  00035	e8 00 00 00 00	 call	 ??_M@YAXPEAX_K1P6AX0@Z@Z
  0003a	8b 45 58	 mov	 eax, DWORD PTR __flags$[rbp]
  0003d	83 e0 01	 and	 eax, 1
  00040	85 c0		 test	 eax, eax
  00042	74 20		 je	 SHORT $LN3@vector
  00044	48 8b 45 50	 mov	 rax, QWORD PTR this$[rbp]
  00048	48 8b 40 f8	 mov	 rax, QWORD PTR [rax-8]
  0004c	48 8d 04 c5 08
	00 00 00	 lea	 rax, QWORD PTR [rax*8+8]
  00054	48 8b 4d 50	 mov	 rcx, QWORD PTR this$[rbp]
  00058	48 83 e9 08	 sub	 rcx, 8
  0005c	48 8b d0	 mov	 rdx, rax
  0005f	e8 00 00 00 00	 call	 ??_V@YAXPEAX_K@Z	; operator delete[]
$LN3@vector:
  00064	48 8b 45 50	 mov	 rax, QWORD PTR this$[rbp]
  00068	48 83 e8 08	 sub	 rax, 8
  0006c	eb 25		 jmp	 SHORT $LN1@vector
$LN2@vector:
  0006e	48 8b 4d 50	 mov	 rcx, QWORD PTR this$[rbp]
  00072	e8 00 00 00 00	 call	 ??1?$ComPtr@UIUnknown@@@WRL@Microsoft@@QEAA@XZ ; Microsoft::WRL::ComPtr<IUnknown>::~ComPtr<IUnknown>
  00077	8b 45 58	 mov	 eax, DWORD PTR __flags$[rbp]
  0007a	83 e0 01	 and	 eax, 1
  0007d	85 c0		 test	 eax, eax
  0007f	74 0e		 je	 SHORT $LN4@vector
  00081	ba 08 00 00 00	 mov	 edx, 8
  00086	48 8b 4d 50	 mov	 rcx, QWORD PTR this$[rbp]
  0008a	e8 00 00 00 00	 call	 ??3@YAXPEAX_K@Z		; operator delete
$LN4@vector:
  0008f	48 8b 45 50	 mov	 rax, QWORD PTR this$[rbp]
$LN1@vector:
  00093	48 8d 65 40	 lea	 rsp, QWORD PTR [rbp+64]
  00097	5d		 pop	 rbp
  00098	c3		 ret	 0
??_E?$ComPtr@UIUnknown@@@WRL@Microsoft@@QEAAPEAXI@Z ENDP ; Microsoft::WRL::ComPtr<IUnknown>::`vector deleting destructor'
_TEXT	ENDS
; Function compile flags: /Odtp /ZI
; File C:\Program Files (x86)\Windows Kits\10\Include\10.0.22621.0\winrt\wrl\client.h
;	COMDAT ??1?$ComPtr@UIUnknown@@@WRL@Microsoft@@QEAA@XZ
_TEXT	SEGMENT
this$ = 80
??1?$ComPtr@UIUnknown@@@WRL@Microsoft@@QEAA@XZ PROC	; Microsoft::WRL::ComPtr<IUnknown>::~ComPtr<IUnknown>, COMDAT

; 289  :     {

$LN3:
  00000	48 89 4c 24 08	 mov	 QWORD PTR [rsp+8], rcx
  00005	55		 push	 rbp
  00006	48 83 ec 60	 sub	 rsp, 96			; 00000060H
  0000a	48 8d 6c 24 20	 lea	 rbp, QWORD PTR [rsp+32]
  0000f	48 8d 0d 00 00
	00 00		 lea	 rcx, OFFSET FLAT:__F7423081_client@h
  00016	e8 00 00 00 00	 call	 __CheckForDebuggerJustMyCode

; 290  :         InternalRelease();

  0001b	48 8b 4d 50	 mov	 rcx, QWORD PTR this$[rbp]
  0001f	e8 00 00 00 00	 call	 ?InternalRelease@?$ComPtr@UIUnknown@@@WRL@Microsoft@@IEAAKXZ ; Microsoft::WRL::ComPtr<IUnknown>::InternalRelease

; 291  :     }

  00024	48 8d 65 40	 lea	 rsp, QWORD PTR [rbp+64]
  00028	5d		 pop	 rbp
  00029	c3		 ret	 0
??1?$ComPtr@UIUnknown@@@WRL@Microsoft@@QEAA@XZ ENDP	; Microsoft::WRL::ComPtr<IUnknown>::~ComPtr<IUnknown>
_TEXT	ENDS
; Function compile flags: /Odtp /ZI
; File C:\Program Files (x86)\Windows Kits\10\Include\10.0.22621.0\winrt\wrl\client.h
;	COMDAT ?InternalRelease@?$ComPtr@UIUnknown@@@WRL@Microsoft@@IEAAKXZ
_TEXT	SEGMENT
ref$ = 0
temp$ = 8
this$ = 96
?InternalRelease@?$ComPtr@UIUnknown@@@WRL@Microsoft@@IEAAKXZ PROC ; Microsoft::WRL::ComPtr<IUnknown>::InternalRelease, COMDAT

; 228  :     {

$LN4:
  00000	48 89 4c 24 08	 mov	 QWORD PTR [rsp+8], rcx
  00005	55		 push	 rbp
  00006	48 83 ec 70	 sub	 rsp, 112		; 00000070H
  0000a	48 8d 6c 24 20	 lea	 rbp, QWORD PTR [rsp+32]
  0000f	48 8d 0d 00 00
	00 00		 lea	 rcx, OFFSET FLAT:__F7423081_client@h
  00016	e8 00 00 00 00	 call	 __CheckForDebuggerJustMyCode

; 229  :         unsigned long ref = 0;

  0001b	c7 45 00 00 00
	00 00		 mov	 DWORD PTR ref$[rbp], 0

; 230  :         T* temp = ptr_;

  00022	48 8b 45 60	 mov	 rax, QWORD PTR this$[rbp]
  00026	48 8b 00	 mov	 rax, QWORD PTR [rax]
  00029	48 89 45 08	 mov	 QWORD PTR temp$[rbp], rax

; 231  : 
; 232  :         if (temp != nullptr)

  0002d	48 83 7d 08 00	 cmp	 QWORD PTR temp$[rbp], 0
  00032	74 1c		 je	 SHORT $LN2@InternalRe

; 233  :         {
; 234  :             ptr_ = nullptr;

  00034	48 8b 45 60	 mov	 rax, QWORD PTR this$[rbp]
  00038	48 c7 00 00 00
	00 00		 mov	 QWORD PTR [rax], 0

; 235  :             ref = temp->Release();

  0003f	48 8b 45 08	 mov	 rax, QWORD PTR temp$[rbp]
  00043	48 8b 00	 mov	 rax, QWORD PTR [rax]
  00046	48 8b 4d 08	 mov	 rcx, QWORD PTR temp$[rbp]
  0004a	ff 50 10	 call	 QWORD PTR [rax+16]
  0004d	89 45 00	 mov	 DWORD PTR ref$[rbp], eax
$LN2@InternalRe:

; 236  :         }
; 237  : 
; 238  :         return ref;

  00050	8b 45 00	 mov	 eax, DWORD PTR ref$[rbp]

; 239  :     }

  00053	48 8d 65 50	 lea	 rsp, QWORD PTR [rbp+80]
  00057	5d		 pop	 rbp
  00058	c3		 ret	 0
?InternalRelease@?$ComPtr@UIUnknown@@@WRL@Microsoft@@IEAAKXZ ENDP ; Microsoft::WRL::ComPtr<IUnknown>::InternalRelease
_TEXT	ENDS
; Function compile flags: /Odtp /ZI
;	COMDAT ??1?$_Compressed_pair@V?$allocator@D@std@@V?$_String_val@U?$_Simple_types@D@std@@@2@$00@std@@QEAA@XZ
_TEXT	SEGMENT
this$ = 80
??1?$_Compressed_pair@V?$allocator@D@std@@V?$_String_val@U?$_Simple_types@D@std@@@2@$00@std@@QEAA@XZ PROC ; std::_Compressed_pair<std::allocator<char>,std::_String_val<std::_Simple_types<char> >,1>::~_Compressed_pair<std::allocator<char>,std::_String_val<std::_Simple_types<char> >,1>, COMDAT
$LN3:
  00000	48 89 4c 24 08	 mov	 QWORD PTR [rsp+8], rcx
  00005	55		 push	 rbp
  00006	48 83 ec 60	 sub	 rsp, 96			; 00000060H
  0000a	48 8d 6c 24 20	 lea	 rbp, QWORD PTR [rsp+32]
  0000f	48 8b 45 50	 mov	 rax, QWORD PTR this$[rbp]
  00013	48 8b c8	 mov	 rcx, rax
  00016	e8 00 00 00 00	 call	 ??1?$_String_val@U?$_Simple_types@D@std@@@std@@QEAA@XZ
  0001b	48 8d 65 40	 lea	 rsp, QWORD PTR [rbp+64]
  0001f	5d		 pop	 rbp
  00020	c3		 ret	 0
??1?$_Compressed_pair@V?$allocator@D@std@@V?$_String_val@U?$_Simple_types@D@std@@@2@$00@std@@QEAA@XZ ENDP ; std::_Compressed_pair<std::allocator<char>,std::_String_val<std::_Simple_types<char> >,1>::~_Compressed_pair<std::allocator<char>,std::_String_val<std::_Simple_types<char> >,1>
_TEXT	ENDS
; Function compile flags: /Odtp /ZI
; File C:\Program Files\Microsoft Visual Studio\2022\Preview\VC\Tools\MSVC\14.38.33030\include\xmemory
;	COMDAT ?_Get_first@?$_Compressed_pair@V?$allocator@D@std@@V?$_String_val@U?$_Simple_types@D@std@@@2@$00@std@@QEBAAEBV?$allocator@D@2@XZ
_TEXT	SEGMENT
this$ = 80
?_Get_first@?$_Compressed_pair@V?$allocator@D@std@@V?$_String_val@U?$_Simple_types@D@std@@@2@$00@std@@QEBAAEBV?$allocator@D@2@XZ PROC ; std::_Compressed_pair<std::allocator<char>,std::_String_val<std::_Simple_types<char> >,1>::_Get_first, COMDAT

; 1530 :     constexpr const _Ty1& _Get_first() const noexcept {

$LN3:
  00000	48 89 4c 24 08	 mov	 QWORD PTR [rsp+8], rcx
  00005	55		 push	 rbp
  00006	48 83 ec 60	 sub	 rsp, 96			; 00000060H
  0000a	48 8d 6c 24 20	 lea	 rbp, QWORD PTR [rsp+32]
  0000f	48 8d 0d 00 00
	00 00		 lea	 rcx, OFFSET FLAT:__67F55BEA_xmemory
  00016	e8 00 00 00 00	 call	 __CheckForDebuggerJustMyCode

; 1531 :         return *this;

  0001b	48 8b 45 50	 mov	 rax, QWORD PTR this$[rbp]

; 1532 :     }

  0001f	48 8d 65 40	 lea	 rsp, QWORD PTR [rbp+64]
  00023	5d		 pop	 rbp
  00024	c3		 ret	 0
?_Get_first@?$_Compressed_pair@V?$allocator@D@std@@V?$_String_val@U?$_Simple_types@D@std@@@2@$00@std@@QEBAAEBV?$allocator@D@2@XZ ENDP ; std::_Compressed_pair<std::allocator<char>,std::_String_val<std::_Simple_types<char> >,1>::_Get_first
_TEXT	ENDS
; Function compile flags: /Odtp /ZI
; File C:\Program Files\Microsoft Visual Studio\2022\Preview\VC\Tools\MSVC\14.38.33030\include\xmemory
;	COMDAT ?_Get_first@?$_Compressed_pair@V?$allocator@D@std@@V?$_String_val@U?$_Simple_types@D@std@@@2@$00@std@@QEAAAEAV?$allocator@D@2@XZ
_TEXT	SEGMENT
this$ = 80
?_Get_first@?$_Compressed_pair@V?$allocator@D@std@@V?$_String_val@U?$_Simple_types@D@std@@@2@$00@std@@QEAAAEAV?$allocator@D@2@XZ PROC ; std::_Compressed_pair<std::allocator<char>,std::_String_val<std::_Simple_types<char> >,1>::_Get_first, COMDAT

; 1526 :     constexpr _Ty1& _Get_first() noexcept {

$LN3:
  00000	48 89 4c 24 08	 mov	 QWORD PTR [rsp+8], rcx
  00005	55		 push	 rbp
  00006	48 83 ec 60	 sub	 rsp, 96			; 00000060H
  0000a	48 8d 6c 24 20	 lea	 rbp, QWORD PTR [rsp+32]
  0000f	48 8d 0d 00 00
	00 00		 lea	 rcx, OFFSET FLAT:__67F55BEA_xmemory
  00016	e8 00 00 00 00	 call	 __CheckForDebuggerJustMyCode

; 1527 :         return *this;

  0001b	48 8b 45 50	 mov	 rax, QWORD PTR this$[rbp]

; 1528 :     }

  0001f	48 8d 65 40	 lea	 rsp, QWORD PTR [rbp+64]
  00023	5d		 pop	 rbp
  00024	c3		 ret	 0
?_Get_first@?$_Compressed_pair@V?$allocator@D@std@@V?$_String_val@U?$_Simple_types@D@std@@@2@$00@std@@QEAAAEAV?$allocator@D@2@XZ ENDP ; std::_Compressed_pair<std::allocator<char>,std::_String_val<std::_Simple_types<char> >,1>::_Get_first
_TEXT	ENDS
; Function compile flags: /Odtp /ZI
; File C:\Program Files\Microsoft Visual Studio\2022\Preview\VC\Tools\MSVC\14.38.33030\include\xstring
;	COMDAT ?_Getal@?$basic_string@DU?$char_traits@D@std@@V?$allocator@D@2@@std@@AEBAAEBV?$allocator@D@2@XZ
_TEXT	SEGMENT
this$ = 80
?_Getal@?$basic_string@DU?$char_traits@D@std@@V?$allocator@D@2@@std@@AEBAAEBV?$allocator@D@2@XZ PROC ; std::basic_string<char,std::char_traits<char>,std::allocator<char> >::_Getal, COMDAT

; 4878 :     _CONSTEXPR20 const _Alty& _Getal() const noexcept {

$LN3:
  00000	48 89 4c 24 08	 mov	 QWORD PTR [rsp+8], rcx
  00005	55		 push	 rbp
  00006	48 83 ec 60	 sub	 rsp, 96			; 00000060H
  0000a	48 8d 6c 24 20	 lea	 rbp, QWORD PTR [rsp+32]
  0000f	48 8d 0d 00 00
	00 00		 lea	 rcx, OFFSET FLAT:__1326DD76_xstring
  00016	e8 00 00 00 00	 call	 __CheckForDebuggerJustMyCode

; 4879 :         return _Mypair._Get_first();

  0001b	48 8b 45 50	 mov	 rax, QWORD PTR this$[rbp]
  0001f	48 8b c8	 mov	 rcx, rax
  00022	e8 00 00 00 00	 call	 ?_Get_first@?$_Compressed_pair@V?$allocator@D@std@@V?$_String_val@U?$_Simple_types@D@std@@@2@$00@std@@QEBAAEBV?$allocator@D@2@XZ ; std::_Compressed_pair<std::allocator<char>,std::_String_val<std::_Simple_types<char> >,1>::_Get_first

; 4880 :     }

  00027	48 8d 65 40	 lea	 rsp, QWORD PTR [rbp+64]
  0002b	5d		 pop	 rbp
  0002c	c3		 ret	 0
?_Getal@?$basic_string@DU?$char_traits@D@std@@V?$allocator@D@2@@std@@AEBAAEBV?$allocator@D@2@XZ ENDP ; std::basic_string<char,std::char_traits<char>,std::allocator<char> >::_Getal
_TEXT	ENDS
; Function compile flags: /Odtp /ZI
; File C:\Program Files\Microsoft Visual Studio\2022\Preview\VC\Tools\MSVC\14.38.33030\include\xstring
;	COMDAT ?_Getal@?$basic_string@DU?$char_traits@D@std@@V?$allocator@D@2@@std@@AEAAAEAV?$allocator@D@2@XZ
_TEXT	SEGMENT
this$ = 80
?_Getal@?$basic_string@DU?$char_traits@D@std@@V?$allocator@D@2@@std@@AEAAAEAV?$allocator@D@2@XZ PROC ; std::basic_string<char,std::char_traits<char>,std::allocator<char> >::_Getal, COMDAT

; 4874 :     _CONSTEXPR20 _Alty& _Getal() noexcept {

$LN3:
  00000	48 89 4c 24 08	 mov	 QWORD PTR [rsp+8], rcx
  00005	55		 push	 rbp
  00006	48 83 ec 60	 sub	 rsp, 96			; 00000060H
  0000a	48 8d 6c 24 20	 lea	 rbp, QWORD PTR [rsp+32]
  0000f	48 8d 0d 00 00
	00 00		 lea	 rcx, OFFSET FLAT:__1326DD76_xstring
  00016	e8 00 00 00 00	 call	 __CheckForDebuggerJustMyCode

; 4875 :         return _Mypair._Get_first();

  0001b	48 8b 45 50	 mov	 rax, QWORD PTR this$[rbp]
  0001f	48 8b c8	 mov	 rcx, rax
  00022	e8 00 00 00 00	 call	 ?_Get_first@?$_Compressed_pair@V?$allocator@D@std@@V?$_String_val@U?$_Simple_types@D@std@@@2@$00@std@@QEAAAEAV?$allocator@D@2@XZ ; std::_Compressed_pair<std::allocator<char>,std::_String_val<std::_Simple_types<char> >,1>::_Get_first

; 4876 :     }

  00027	48 8d 65 40	 lea	 rsp, QWORD PTR [rbp+64]
  0002b	5d		 pop	 rbp
  0002c	c3		 ret	 0
?_Getal@?$basic_string@DU?$char_traits@D@std@@V?$allocator@D@2@@std@@AEAAAEAV?$allocator@D@2@XZ ENDP ; std::basic_string<char,std::char_traits<char>,std::allocator<char> >::_Getal
_TEXT	ENDS
; Function compile flags: /Odtp /ZI
; File C:\Program Files\Microsoft Visual Studio\2022\Preview\VC\Tools\MSVC\14.38.33030\include\xstring
;	COMDAT ?_Tidy_deallocate@?$basic_string@DU?$char_traits@D@std@@V?$allocator@D@2@@std@@AEAAXXZ
_TEXT	SEGMENT
_My_data$ = 0
_Ptr$1 = 8
_Al$2 = 16
$T3 = 88
this$ = 112
?_Tidy_deallocate@?$basic_string@DU?$char_traits@D@std@@V?$allocator@D@2@@std@@AEAAXXZ PROC ; std::basic_string<char,std::char_traits<char>,std::allocator<char> >::_Tidy_deallocate, COMDAT

; 4846 :     _CONSTEXPR20 void _Tidy_deallocate() noexcept { // initialize buffer, deallocating any storage

$LN4:
  00000	48 89 4c 24 08	 mov	 QWORD PTR [rsp+8], rcx
  00005	55		 push	 rbp
  00006	48 81 ec 80 00
	00 00		 sub	 rsp, 128		; 00000080H
  0000d	48 8d 6c 24 20	 lea	 rbp, QWORD PTR [rsp+32]
  00012	48 8d 0d 00 00
	00 00		 lea	 rcx, OFFSET FLAT:__1326DD76_xstring
  00019	e8 00 00 00 00	 call	 __CheckForDebuggerJustMyCode

; 4847 :         auto& _My_data = _Mypair._Myval2;

  0001e	48 8b 45 70	 mov	 rax, QWORD PTR this$[rbp]
  00022	48 89 45 00	 mov	 QWORD PTR _My_data$[rbp], rax

; 4848 :         _My_data._Orphan_all();

  00026	48 8b 4d 00	 mov	 rcx, QWORD PTR _My_data$[rbp]
  0002a	e8 00 00 00 00	 call	 ?_Orphan_all@_Container_base12@std@@QEAAXXZ ; std::_Container_base12::_Orphan_all

; 4849 :         if (_My_data._Large_string_engaged()) {

  0002f	48 8b 4d 00	 mov	 rcx, QWORD PTR _My_data$[rbp]
  00033	e8 00 00 00 00	 call	 ?_Large_string_engaged@?$_String_val@U?$_Simple_types@D@std@@@std@@QEBA_NXZ ; std::_String_val<std::_Simple_types<char> >::_Large_string_engaged
  00038	0f b6 c0	 movzx	 eax, al
  0003b	85 c0		 test	 eax, eax
  0003d	74 4d		 je	 SHORT $LN2@Tidy_deall

; 4850 :             _ASAN_STRING_REMOVE(*this);
; 4851 :             const pointer _Ptr = _My_data._Bx._Ptr;

  0003f	48 8b 45 00	 mov	 rax, QWORD PTR _My_data$[rbp]
  00043	48 8b 40 08	 mov	 rax, QWORD PTR [rax+8]
  00047	48 89 45 08	 mov	 QWORD PTR _Ptr$1[rbp], rax

; 4852 :             auto& _Al          = _Getal();

  0004b	48 8b 4d 70	 mov	 rcx, QWORD PTR this$[rbp]
  0004f	e8 00 00 00 00	 call	 ?_Getal@?$basic_string@DU?$char_traits@D@std@@V?$allocator@D@2@@std@@AEAAAEAV?$allocator@D@2@XZ ; std::basic_string<char,std::char_traits<char>,std::allocator<char> >::_Getal
  00054	48 89 45 10	 mov	 QWORD PTR _Al$2[rbp], rax

; 4853 :             _Destroy_in_place(_My_data._Bx._Ptr);

  00058	48 8b 45 00	 mov	 rax, QWORD PTR _My_data$[rbp]
  0005c	48 83 c0 08	 add	 rax, 8
  00060	48 8b c8	 mov	 rcx, rax
  00063	e8 00 00 00 00	 call	 ??$_Destroy_in_place@PEAD@std@@YAXAEAPEAD@Z ; std::_Destroy_in_place<char *>

; 4854 :             _My_data._Activate_SSO_buffer();

  00068	48 8b 4d 00	 mov	 rcx, QWORD PTR _My_data$[rbp]
  0006c	e8 00 00 00 00	 call	 ?_Activate_SSO_buffer@?$_String_val@U?$_Simple_types@D@std@@@std@@QEAAXXZ ; std::_String_val<std::_Simple_types<char> >::_Activate_SSO_buffer

; 4855 :             _Al.deallocate(_Ptr, _My_data._Myres + 1);

  00071	48 8b 45 00	 mov	 rax, QWORD PTR _My_data$[rbp]
  00075	48 8b 40 20	 mov	 rax, QWORD PTR [rax+32]
  00079	48 ff c0	 inc	 rax
  0007c	4c 8b c0	 mov	 r8, rax
  0007f	48 8b 55 08	 mov	 rdx, QWORD PTR _Ptr$1[rbp]
  00083	48 8b 4d 10	 mov	 rcx, QWORD PTR _Al$2[rbp]
  00087	e8 00 00 00 00	 call	 ?deallocate@?$allocator@D@std@@QEAAXQEAD_K@Z ; std::allocator<char>::deallocate
$LN2@Tidy_deall:

; 4856 :         }
; 4857 : 
; 4858 :         _My_data._Mysize = 0;

  0008c	48 8b 45 00	 mov	 rax, QWORD PTR _My_data$[rbp]
  00090	48 c7 40 18 00
	00 00 00	 mov	 QWORD PTR [rax+24], 0

; 4859 :         _My_data._Myres  = _BUF_SIZE - 1;

  00098	48 8b 45 00	 mov	 rax, QWORD PTR _My_data$[rbp]
  0009c	48 c7 40 20 0f
	00 00 00	 mov	 QWORD PTR [rax+32], 15

; 4860 :         // the _Traits::assign is last so the codegen doesn't think the char write can alias this
; 4861 :         _Traits::assign(_My_data._Bx._Buf[0], _Elem());

  000a4	c6 45 58 00	 mov	 BYTE PTR $T3[rbp], 0
  000a8	b8 01 00 00 00	 mov	 eax, 1
  000ad	48 6b c0 00	 imul	 rax, rax, 0
  000b1	48 8b 4d 00	 mov	 rcx, QWORD PTR _My_data$[rbp]
  000b5	48 8d 44 01 08	 lea	 rax, QWORD PTR [rcx+rax+8]
  000ba	48 8d 55 58	 lea	 rdx, QWORD PTR $T3[rbp]
  000be	48 8b c8	 mov	 rcx, rax
  000c1	e8 00 00 00 00	 call	 ?assign@?$_Narrow_char_traits@DH@std@@SAXAEADAEBD@Z ; std::_Narrow_char_traits<char,int>::assign
  000c6	90		 npad	 1

; 4862 :     }

  000c7	48 8d 65 60	 lea	 rsp, QWORD PTR [rbp+96]
  000cb	5d		 pop	 rbp
  000cc	c3		 ret	 0
?_Tidy_deallocate@?$basic_string@DU?$char_traits@D@std@@V?$allocator@D@2@@std@@AEAAXXZ ENDP ; std::basic_string<char,std::char_traits<char>,std::allocator<char> >::_Tidy_deallocate
_TEXT	ENDS
; Function compile flags: /Odtp /ZI
; File C:\Program Files\Microsoft Visual Studio\2022\Preview\VC\Tools\MSVC\14.38.33030\include\xstring
;	COMDAT ?_Tidy_init@?$basic_string@DU?$char_traits@D@std@@V?$allocator@D@2@@std@@AEAAXXZ
_TEXT	SEGMENT
_My_data$ = 0
$T1 = 72
this$ = 96
?_Tidy_init@?$basic_string@DU?$char_traits@D@std@@V?$allocator@D@2@@std@@AEAAXXZ PROC ; std::basic_string<char,std::char_traits<char>,std::allocator<char> >::_Tidy_init, COMDAT

; 4835 :     _CONSTEXPR20 void _Tidy_init() noexcept {

$LN3:
  00000	48 89 4c 24 08	 mov	 QWORD PTR [rsp+8], rcx
  00005	55		 push	 rbp
  00006	48 83 ec 70	 sub	 rsp, 112		; 00000070H
  0000a	48 8d 6c 24 20	 lea	 rbp, QWORD PTR [rsp+32]
  0000f	48 8d 0d 00 00
	00 00		 lea	 rcx, OFFSET FLAT:__1326DD76_xstring
  00016	e8 00 00 00 00	 call	 __CheckForDebuggerJustMyCode

; 4836 :         // initialize basic_string data members
; 4837 :         auto& _My_data   = _Mypair._Myval2;

  0001b	48 8b 45 60	 mov	 rax, QWORD PTR this$[rbp]
  0001f	48 89 45 00	 mov	 QWORD PTR _My_data$[rbp], rax

; 4838 :         _My_data._Mysize = 0;

  00023	48 8b 45 00	 mov	 rax, QWORD PTR _My_data$[rbp]
  00027	48 c7 40 18 00
	00 00 00	 mov	 QWORD PTR [rax+24], 0

; 4839 :         _My_data._Myres  = _BUF_SIZE - 1;

  0002f	48 8b 45 00	 mov	 rax, QWORD PTR _My_data$[rbp]
  00033	48 c7 40 20 0f
	00 00 00	 mov	 QWORD PTR [rax+32], 15

; 4840 :         _My_data._Activate_SSO_buffer();

  0003b	48 8b 4d 00	 mov	 rcx, QWORD PTR _My_data$[rbp]
  0003f	e8 00 00 00 00	 call	 ?_Activate_SSO_buffer@?$_String_val@U?$_Simple_types@D@std@@@std@@QEAAXXZ ; std::_String_val<std::_Simple_types<char> >::_Activate_SSO_buffer

; 4841 : 
; 4842 :         // the _Traits::assign is last so the codegen doesn't think the char write can alias this
; 4843 :         _Traits::assign(_My_data._Bx._Buf[0], _Elem());

  00044	c6 45 48 00	 mov	 BYTE PTR $T1[rbp], 0
  00048	b8 01 00 00 00	 mov	 eax, 1
  0004d	48 6b c0 00	 imul	 rax, rax, 0
  00051	48 8b 4d 00	 mov	 rcx, QWORD PTR _My_data$[rbp]
  00055	48 8d 44 01 08	 lea	 rax, QWORD PTR [rcx+rax+8]
  0005a	48 8d 55 48	 lea	 rdx, QWORD PTR $T1[rbp]
  0005e	48 8b c8	 mov	 rcx, rax
  00061	e8 00 00 00 00	 call	 ?assign@?$_Narrow_char_traits@DH@std@@SAXAEADAEBD@Z ; std::_Narrow_char_traits<char,int>::assign

; 4844 :     }

  00066	48 8d 65 50	 lea	 rsp, QWORD PTR [rbp+80]
  0006a	5d		 pop	 rbp
  0006b	c3		 ret	 0
?_Tidy_init@?$basic_string@DU?$char_traits@D@std@@V?$allocator@D@2@@std@@AEAAXXZ ENDP ; std::basic_string<char,std::char_traits<char>,std::allocator<char> >::_Tidy_init
_TEXT	ENDS
; Function compile flags: /Odtp /ZI
; File C:\Program Files\Microsoft Visual Studio\2022\Preview\VC\Tools\MSVC\14.38.33030\include\xstring
;	COMDAT ?_Calculate_growth@?$basic_string@DU?$char_traits@D@std@@V?$allocator@D@2@@std@@AEBA_K_K@Z
_TEXT	SEGMENT
tv76 = 64
tv74 = 72
this$ = 96
_Requested$ = 104
?_Calculate_growth@?$basic_string@DU?$char_traits@D@std@@V?$allocator@D@2@@std@@AEBA_K_K@Z PROC ; std::basic_string<char,std::char_traits<char>,std::allocator<char> >::_Calculate_growth, COMDAT

; 4739 :     _NODISCARD _CONSTEXPR20 size_type _Calculate_growth(const size_type _Requested) const noexcept {

$LN3:
  00000	48 89 54 24 10	 mov	 QWORD PTR [rsp+16], rdx
  00005	48 89 4c 24 08	 mov	 QWORD PTR [rsp+8], rcx
  0000a	55		 push	 rbp
  0000b	48 83 ec 70	 sub	 rsp, 112		; 00000070H
  0000f	48 8d 6c 24 20	 lea	 rbp, QWORD PTR [rsp+32]
  00014	48 8d 0d 00 00
	00 00		 lea	 rcx, OFFSET FLAT:__1326DD76_xstring
  0001b	e8 00 00 00 00	 call	 __CheckForDebuggerJustMyCode

; 4740 :         return _Calculate_growth(_Requested, _Mypair._Myval2._Myres, max_size());

  00020	48 8b 4d 60	 mov	 rcx, QWORD PTR this$[rbp]
  00024	e8 00 00 00 00	 call	 ?max_size@?$basic_string@DU?$char_traits@D@std@@V?$allocator@D@2@@std@@QEBA_KXZ ; std::basic_string<char,std::char_traits<char>,std::allocator<char> >::max_size
  00029	48 89 45 40	 mov	 QWORD PTR tv76[rbp], rax
  0002d	48 8b 45 60	 mov	 rax, QWORD PTR this$[rbp]
  00031	48 8b 40 20	 mov	 rax, QWORD PTR [rax+32]
  00035	48 89 45 48	 mov	 QWORD PTR tv74[rbp], rax
  00039	4c 8b 45 40	 mov	 r8, QWORD PTR tv76[rbp]
  0003d	48 8b 55 48	 mov	 rdx, QWORD PTR tv74[rbp]
  00041	48 8b 4d 68	 mov	 rcx, QWORD PTR _Requested$[rbp]
  00045	e8 00 00 00 00	 call	 ?_Calculate_growth@?$basic_string@DU?$char_traits@D@std@@V?$allocator@D@2@@std@@CA_K_K00@Z ; std::basic_string<char,std::char_traits<char>,std::allocator<char> >::_Calculate_growth

; 4741 :     }

  0004a	48 8d 65 50	 lea	 rsp, QWORD PTR [rbp+80]
  0004e	5d		 pop	 rbp
  0004f	c3		 ret	 0
?_Calculate_growth@?$basic_string@DU?$char_traits@D@std@@V?$allocator@D@2@@std@@AEBA_K_K@Z ENDP ; std::basic_string<char,std::char_traits<char>,std::allocator<char> >::_Calculate_growth
_TEXT	ENDS
; Function compile flags: /Odtp /ZI
; File C:\Program Files\Microsoft Visual Studio\2022\Preview\VC\Tools\MSVC\14.38.33030\include\xstring
;	COMDAT ?_Calculate_growth@?$basic_string@DU?$char_traits@D@std@@V?$allocator@D@2@@std@@CA_K_K00@Z
_TEXT	SEGMENT
_Masked$ = 0
$T1 = 72
_Requested$ = 96
_Old$ = 104
_Max$ = 112
?_Calculate_growth@?$basic_string@DU?$char_traits@D@std@@V?$allocator@D@2@@std@@CA_K_K00@Z PROC ; std::basic_string<char,std::char_traits<char>,std::allocator<char> >::_Calculate_growth, COMDAT

; 4726 :         const size_type _Requested, const size_type _Old, const size_type _Max) noexcept {

$LN5:
  00000	4c 89 44 24 18	 mov	 QWORD PTR [rsp+24], r8
  00005	48 89 54 24 10	 mov	 QWORD PTR [rsp+16], rdx
  0000a	48 89 4c 24 08	 mov	 QWORD PTR [rsp+8], rcx
  0000f	55		 push	 rbp
  00010	48 83 ec 70	 sub	 rsp, 112		; 00000070H
  00014	48 8d 6c 24 20	 lea	 rbp, QWORD PTR [rsp+32]
  00019	48 8d 0d 00 00
	00 00		 lea	 rcx, OFFSET FLAT:__1326DD76_xstring
  00020	e8 00 00 00 00	 call	 __CheckForDebuggerJustMyCode

; 4727 :         const size_type _Masked = _Requested | _ALLOC_MASK;

  00025	48 8b 45 60	 mov	 rax, QWORD PTR _Requested$[rbp]
  00029	48 83 c8 0f	 or	 rax, 15
  0002d	48 89 45 00	 mov	 QWORD PTR _Masked$[rbp], rax

; 4728 :         if (_Masked > _Max) { // the mask overflows, settle for max_size()

  00031	48 8b 45 70	 mov	 rax, QWORD PTR _Max$[rbp]
  00035	48 39 45 00	 cmp	 QWORD PTR _Masked$[rbp], rax
  00039	76 06		 jbe	 SHORT $LN2@Calculate_

; 4729 :             return _Max;

  0003b	48 8b 45 70	 mov	 rax, QWORD PTR _Max$[rbp]
  0003f	eb 50		 jmp	 SHORT $LN1@Calculate_
$LN2@Calculate_:

; 4730 :         }
; 4731 : 
; 4732 :         if (_Old > _Max - _Old / 2) { // similarly, geometric overflows

  00041	33 d2		 xor	 edx, edx
  00043	48 8b 45 68	 mov	 rax, QWORD PTR _Old$[rbp]
  00047	b9 02 00 00 00	 mov	 ecx, 2
  0004c	48 f7 f1	 div	 rcx
  0004f	48 8b 4d 70	 mov	 rcx, QWORD PTR _Max$[rbp]
  00053	48 2b c8	 sub	 rcx, rax
  00056	48 8b c1	 mov	 rax, rcx
  00059	48 39 45 68	 cmp	 QWORD PTR _Old$[rbp], rax
  0005d	76 06		 jbe	 SHORT $LN3@Calculate_

; 4733 :             return _Max;

  0005f	48 8b 45 70	 mov	 rax, QWORD PTR _Max$[rbp]
  00063	eb 2c		 jmp	 SHORT $LN1@Calculate_
$LN3@Calculate_:

; 4734 :         }
; 4735 : 
; 4736 :         return (_STD max)(_Masked, _Old + _Old / 2);

  00065	33 d2		 xor	 edx, edx
  00067	48 8b 45 68	 mov	 rax, QWORD PTR _Old$[rbp]
  0006b	b9 02 00 00 00	 mov	 ecx, 2
  00070	48 f7 f1	 div	 rcx
  00073	48 8b 4d 68	 mov	 rcx, QWORD PTR _Old$[rbp]
  00077	48 03 c8	 add	 rcx, rax
  0007a	48 8b c1	 mov	 rax, rcx
  0007d	48 89 45 48	 mov	 QWORD PTR $T1[rbp], rax
  00081	48 8d 55 48	 lea	 rdx, QWORD PTR $T1[rbp]
  00085	48 8d 4d 00	 lea	 rcx, QWORD PTR _Masked$[rbp]
  00089	e8 00 00 00 00	 call	 ??$max@_K@std@@YAAEB_KAEB_K0@Z ; std::max<unsigned __int64>
  0008e	48 8b 00	 mov	 rax, QWORD PTR [rax]
$LN1@Calculate_:

; 4737 :     }

  00091	48 8d 65 50	 lea	 rsp, QWORD PTR [rbp+80]
  00095	5d		 pop	 rbp
  00096	c3		 ret	 0
?_Calculate_growth@?$basic_string@DU?$char_traits@D@std@@V?$allocator@D@2@@std@@CA_K_K00@Z ENDP ; std::basic_string<char,std::char_traits<char>,std::allocator<char> >::_Calculate_growth
_TEXT	ENDS
; Function compile flags: /Odtp /ZI
; File C:\Program Files\Microsoft Visual Studio\2022\Preview\VC\Tools\MSVC\14.38.33030\include\xstring
;	COMDAT ?max_size@?$basic_string@DU?$char_traits@D@std@@V?$allocator@D@2@@std@@QEBA_KXZ
_TEXT	SEGMENT
_Alloc_max$ = 0
_Storage_max$ = 8
$T1 = 80
$T2 = 88
$T3 = 96
this$ = 128
?max_size@?$basic_string@DU?$char_traits@D@std@@V?$allocator@D@2@@std@@QEBA_KXZ PROC ; std::basic_string<char,std::char_traits<char>,std::allocator<char> >::max_size, COMDAT

; 4141 :     _NODISCARD _CONSTEXPR20 size_type max_size() const noexcept {

$LN3:
  00000	48 89 4c 24 08	 mov	 QWORD PTR [rsp+8], rcx
  00005	55		 push	 rbp
  00006	48 81 ec 90 00
	00 00		 sub	 rsp, 144		; 00000090H
  0000d	48 8d 6c 24 20	 lea	 rbp, QWORD PTR [rsp+32]
  00012	48 8d 0d 00 00
	00 00		 lea	 rcx, OFFSET FLAT:__1326DD76_xstring
  00019	e8 00 00 00 00	 call	 __CheckForDebuggerJustMyCode

; 4142 :         const size_type _Alloc_max   = _Alty_traits::max_size(_Getal());

  0001e	48 8b 8d 80 00
	00 00		 mov	 rcx, QWORD PTR this$[rbp]
  00025	e8 00 00 00 00	 call	 ?_Getal@?$basic_string@DU?$char_traits@D@std@@V?$allocator@D@2@@std@@AEBAAEBV?$allocator@D@2@XZ ; std::basic_string<char,std::char_traits<char>,std::allocator<char> >::_Getal
  0002a	48 8b c8	 mov	 rcx, rax
  0002d	e8 00 00 00 00	 call	 ?max_size@?$_Default_allocator_traits@V?$allocator@D@std@@@std@@SA_KAEBV?$allocator@D@2@@Z ; std::_Default_allocator_traits<std::allocator<char> >::max_size
  00032	48 89 45 00	 mov	 QWORD PTR _Alloc_max$[rbp], rax

; 4143 :         const size_type _Storage_max = // can always store small string

  00036	48 c7 45 50 10
	00 00 00	 mov	 QWORD PTR $T1[rbp], 16
  0003e	48 8d 55 50	 lea	 rdx, QWORD PTR $T1[rbp]
  00042	48 8d 4d 00	 lea	 rcx, QWORD PTR _Alloc_max$[rbp]
  00046	e8 00 00 00 00	 call	 ??$max@_K@std@@YAAEB_KAEB_K0@Z ; std::max<unsigned __int64>
  0004b	48 8b 00	 mov	 rax, QWORD PTR [rax]
  0004e	48 89 45 08	 mov	 QWORD PTR _Storage_max$[rbp], rax

; 4144 :             (_STD max)(_Alloc_max, static_cast<size_type>(_BUF_SIZE));
; 4145 :         return (_STD min)(static_cast<size_type>((numeric_limits<difference_type>::max)()),

  00052	48 8b 45 08	 mov	 rax, QWORD PTR _Storage_max$[rbp]
  00056	48 ff c8	 dec	 rax
  00059	48 89 45 58	 mov	 QWORD PTR $T2[rbp], rax
  0005d	e8 00 00 00 00	 call	 ?max@?$numeric_limits@_J@std@@SA_JXZ ; std::numeric_limits<__int64>::max
  00062	48 89 45 60	 mov	 QWORD PTR $T3[rbp], rax
  00066	48 8d 55 58	 lea	 rdx, QWORD PTR $T2[rbp]
  0006a	48 8d 4d 60	 lea	 rcx, QWORD PTR $T3[rbp]
  0006e	e8 00 00 00 00	 call	 ??$min@_K@std@@YAAEB_KAEB_K0@Z ; std::min<unsigned __int64>
  00073	48 8b 00	 mov	 rax, QWORD PTR [rax]

; 4146 :             _Storage_max - 1 // -1 is for null terminator and/or npos
; 4147 :         );
; 4148 :     }

  00076	48 8d 65 70	 lea	 rsp, QWORD PTR [rbp+112]
  0007a	5d		 pop	 rbp
  0007b	c3		 ret	 0
?max_size@?$basic_string@DU?$char_traits@D@std@@V?$allocator@D@2@@std@@QEBA_KXZ ENDP ; std::basic_string<char,std::char_traits<char>,std::allocator<char> >::max_size
_TEXT	ENDS
; Function compile flags: /Odtp /ZI
; File C:\Program Files\Microsoft Visual Studio\2022\Preview\VC\Tools\MSVC\14.38.33030\include\xstring
;	COMDAT ??1?$basic_string@DU?$char_traits@D@std@@V?$allocator@D@2@@std@@QEAA@XZ
_TEXT	SEGMENT
_Alproxy$ = 0
$S9$ = 8
_To_delete$ = 16
this$ = 112
??1?$basic_string@DU?$char_traits@D@std@@V?$allocator@D@2@@std@@QEAA@XZ PROC ; std::basic_string<char,std::char_traits<char>,std::allocator<char> >::~basic_string<char,std::char_traits<char>,std::allocator<char> >, COMDAT

; 3128 :     _CONSTEXPR20 ~basic_string() noexcept {

$LN3:
  00000	48 89 4c 24 08	 mov	 QWORD PTR [rsp+8], rcx
  00005	55		 push	 rbp
  00006	48 81 ec 80 00
	00 00		 sub	 rsp, 128		; 00000080H
  0000d	48 8d 6c 24 20	 lea	 rbp, QWORD PTR [rsp+32]
  00012	48 8d 0d 00 00
	00 00		 lea	 rcx, OFFSET FLAT:__1326DD76_xstring
  00019	e8 00 00 00 00	 call	 __CheckForDebuggerJustMyCode

; 3129 :         _Tidy_deallocate();

  0001e	48 8b 4d 70	 mov	 rcx, QWORD PTR this$[rbp]
  00022	e8 00 00 00 00	 call	 ?_Tidy_deallocate@?$basic_string@DU?$char_traits@D@std@@V?$allocator@D@2@@std@@AEAAXXZ ; std::basic_string<char,std::char_traits<char>,std::allocator<char> >::_Tidy_deallocate

; 3130 : #if _ITERATOR_DEBUG_LEVEL != 0
; 3131 :         auto&& _Alproxy          = _GET_PROXY_ALLOCATOR(_Alty, _Getal());

  00027	48 8b 4d 70	 mov	 rcx, QWORD PTR this$[rbp]
  0002b	e8 00 00 00 00	 call	 ?_Getal@?$basic_string@DU?$char_traits@D@std@@V?$allocator@D@2@@std@@AEAAAEAV?$allocator@D@2@XZ ; std::basic_string<char,std::char_traits<char>,std::allocator<char> >::_Getal
  00030	48 8b d0	 mov	 rdx, rax
  00033	48 8d 4d 08	 lea	 rcx, QWORD PTR $S9$[rbp]
  00037	e8 00 00 00 00	 call	 ??$?0D@?$allocator@U_Container_proxy@std@@@std@@QEAA@AEBV?$allocator@D@1@@Z ; std::allocator<std::_Container_proxy>::allocator<std::_Container_proxy><char>
  0003c	48 8d 45 08	 lea	 rax, QWORD PTR $S9$[rbp]
  00040	48 89 45 00	 mov	 QWORD PTR _Alproxy$[rbp], rax

; 3132 :         const auto _To_delete    = _Mypair._Myval2._Myproxy;

  00044	48 8b 45 70	 mov	 rax, QWORD PTR this$[rbp]
  00048	48 8b 00	 mov	 rax, QWORD PTR [rax]
  0004b	48 89 45 10	 mov	 QWORD PTR _To_delete$[rbp], rax

; 3133 :         _Mypair._Myval2._Myproxy = nullptr;

  0004f	48 8b 45 70	 mov	 rax, QWORD PTR this$[rbp]
  00053	48 c7 00 00 00
	00 00		 mov	 QWORD PTR [rax], 0

; 3134 :         _Delete_plain_internal(_Alproxy, _To_delete);

  0005a	48 8b 55 10	 mov	 rdx, QWORD PTR _To_delete$[rbp]
  0005e	48 8b 4d 00	 mov	 rcx, QWORD PTR _Alproxy$[rbp]
  00062	e8 00 00 00 00	 call	 ??$_Delete_plain_internal@V?$allocator@U_Container_proxy@std@@@std@@@std@@YAXAEAV?$allocator@U_Container_proxy@std@@@0@QEAU_Container_proxy@0@@Z ; std::_Delete_plain_internal<std::allocator<std::_Container_proxy> >

; 3135 : #endif // _ITERATOR_DEBUG_LEVEL != 0
; 3136 :     }

  00067	48 8b 45 70	 mov	 rax, QWORD PTR this$[rbp]
  0006b	48 8b c8	 mov	 rcx, rax
  0006e	e8 00 00 00 00	 call	 ??1?$_Compressed_pair@V?$allocator@D@std@@V?$_String_val@U?$_Simple_types@D@std@@@2@$00@std@@QEAA@XZ
  00073	48 8d 65 60	 lea	 rsp, QWORD PTR [rbp+96]
  00077	5d		 pop	 rbp
  00078	c3		 ret	 0
??1?$basic_string@DU?$char_traits@D@std@@V?$allocator@D@2@@std@@QEAA@XZ ENDP ; std::basic_string<char,std::char_traits<char>,std::allocator<char> >::~basic_string<char,std::char_traits<char>,std::allocator<char> >
_TEXT	ENDS
; Function compile flags: /Odtp /ZI
; File C:\Program Files\Microsoft Visual Studio\2022\Preview\VC\Tools\MSVC\14.38.33030\include\xstring
;	COMDAT ?_Start_element_lifetimes@?$basic_string@DU?$char_traits@D@std@@V?$allocator@D@2@@std@@CAXQEAD_K@Z
_TEXT	SEGMENT
_Idx$1 = 0
_Ptr$ = 96
_Size$ = 104
?_Start_element_lifetimes@?$basic_string@DU?$char_traits@D@std@@V?$allocator@D@2@@std@@CAXQEAD_K@Z PROC ; std::basic_string<char,std::char_traits<char>,std::allocator<char> >::_Start_element_lifetimes, COMDAT

; 2591 :     static constexpr void _Start_element_lifetimes(_Elem* const _Ptr, const size_type _Size) {

$LN7:
  00000	48 89 54 24 10	 mov	 QWORD PTR [rsp+16], rdx
  00005	48 89 4c 24 08	 mov	 QWORD PTR [rsp+8], rcx
  0000a	55		 push	 rbp
  0000b	48 83 ec 70	 sub	 rsp, 112		; 00000070H
  0000f	48 8d 6c 24 20	 lea	 rbp, QWORD PTR [rsp+32]
  00014	48 8d 0d 00 00
	00 00		 lea	 rcx, OFFSET FLAT:__1326DD76_xstring
  0001b	e8 00 00 00 00	 call	 __CheckForDebuggerJustMyCode

; 2592 :         // Start element lifetimes to avoid UB. This is a more general mechanism than _String_val::_Activate_SSO_buffer,
; 2593 :         // but likely more impactful to throughput.
; 2594 : #if _HAS_CXX20
; 2595 :         if (_STD is_constant_evaluated()) {

  00020	e8 00 00 00 00	 call	 ?is_constant_evaluated@std@@YA_NXZ ; std::is_constant_evaluated
  00025	0f b6 c0	 movzx	 eax, al
  00028	85 c0		 test	 eax, eax
  0002a	74 37		 je	 SHORT $LN5@Start_elem

; 2596 :             for (size_type _Idx = 0; _Idx < _Size; ++_Idx) {

  0002c	48 c7 45 00 00
	00 00 00	 mov	 QWORD PTR _Idx$1[rbp], 0
  00034	eb 0b		 jmp	 SHORT $LN4@Start_elem
$LN2@Start_elem:
  00036	48 8b 45 00	 mov	 rax, QWORD PTR _Idx$1[rbp]
  0003a	48 ff c0	 inc	 rax
  0003d	48 89 45 00	 mov	 QWORD PTR _Idx$1[rbp], rax
$LN4@Start_elem:
  00041	48 8b 45 68	 mov	 rax, QWORD PTR _Size$[rbp]
  00045	48 39 45 00	 cmp	 QWORD PTR _Idx$1[rbp], rax
  00049	73 18		 jae	 SHORT $LN3@Start_elem

; 2597 :                 _STD construct_at(_Ptr + _Idx);

  0004b	48 8b 45 00	 mov	 rax, QWORD PTR _Idx$1[rbp]
  0004f	48 8b 4d 60	 mov	 rcx, QWORD PTR _Ptr$[rbp]
  00053	48 03 c8	 add	 rcx, rax
  00056	48 8b c1	 mov	 rax, rcx
  00059	48 8b c8	 mov	 rcx, rax
  0005c	e8 00 00 00 00	 call	 ??$construct_at@D$$V$0A@@std@@YAPEADQEAD@Z ; std::construct_at<char,0>

; 2598 :             }

  00061	eb d3		 jmp	 SHORT $LN2@Start_elem
$LN3@Start_elem:
$LN5@Start_elem:

; 2599 :         }
; 2600 : #else // ^^^ C++20-or-later / pre-C++20 vvv
; 2601 :         (void) _Ptr;
; 2602 :         (void) _Size;
; 2603 : #endif // _HAS_CXX20
; 2604 :     }

  00063	48 8d 65 50	 lea	 rsp, QWORD PTR [rbp+80]
  00067	5d		 pop	 rbp
  00068	c3		 ret	 0
?_Start_element_lifetimes@?$basic_string@DU?$char_traits@D@std@@V?$allocator@D@2@@std@@CAXQEAD_K@Z ENDP ; std::basic_string<char,std::char_traits<char>,std::allocator<char> >::_Start_element_lifetimes
_TEXT	ENDS
; Function compile flags: /Odtp /ZI
; File C:\Program Files\Microsoft Visual Studio\2022\Preview\VC\Tools\MSVC\14.38.33030\include\xstring
;	COMDAT ??0?$basic_string@DU?$char_traits@D@std@@V?$allocator@D@2@@std@@QEAA@QEBD@Z
_TEXT	SEGMENT
$T1 = 64
tv69 = 72
this$ = 96
_Ptr$ = 104
??0?$basic_string@DU?$char_traits@D@std@@V?$allocator@D@2@@std@@QEAA@QEBD@Z PROC ; std::basic_string<char,std::char_traits<char>,std::allocator<char> >::basic_string<char,std::char_traits<char>,std::allocator<char> >, COMDAT

; 2538 :     _CONSTEXPR20 basic_string(_In_z_ const _Elem* const _Ptr) : _Mypair(_Zero_then_variadic_args_t{}) {

$LN4:
  00000	48 89 54 24 10	 mov	 QWORD PTR [rsp+16], rdx
  00005	48 89 4c 24 08	 mov	 QWORD PTR [rsp+8], rcx
  0000a	55		 push	 rbp
  0000b	48 83 ec 70	 sub	 rsp, 112		; 00000070H
  0000f	48 8d 6c 24 20	 lea	 rbp, QWORD PTR [rsp+32]
  00014	48 8d 0d 00 00
	00 00		 lea	 rcx, OFFSET FLAT:__1326DD76_xstring
  0001b	e8 00 00 00 00	 call	 __CheckForDebuggerJustMyCode
  00020	48 8b 45 60	 mov	 rax, QWORD PTR this$[rbp]
  00024	48 89 45 48	 mov	 QWORD PTR tv69[rbp], rax
  00028	0f b6 55 40	 movzx	 edx, BYTE PTR $T1[rbp]
  0002c	48 8b 4d 48	 mov	 rcx, QWORD PTR tv69[rbp]
  00030	e8 00 00 00 00	 call	 ??$?0$$V@?$_Compressed_pair@V?$allocator@D@std@@V?$_String_val@U?$_Simple_types@D@std@@@2@$00@std@@QEAA@U_Zero_then_variadic_args_t@1@@Z ; std::_Compressed_pair<std::allocator<char>,std::_String_val<std::_Simple_types<char> >,1>::_Compressed_pair<std::allocator<char>,std::_String_val<std::_Simple_types<char> >,1><>
  00035	90		 npad	 1

; 2539 :         _Construct<_Construct_strategy::_From_ptr>(_Ptr, _Convert_size<size_type>(_Traits::length(_Ptr)));

  00036	48 8b 4d 68	 mov	 rcx, QWORD PTR _Ptr$[rbp]
  0003a	e8 00 00 00 00	 call	 ?length@?$_Narrow_char_traits@DH@std@@SA_KQEBD@Z ; std::_Narrow_char_traits<char,int>::length
  0003f	48 8b c8	 mov	 rcx, rax
  00042	e8 00 00 00 00	 call	 ??$_Convert_size@_K_K@std@@YA_K_K@Z ; std::_Convert_size<unsigned __int64,unsigned __int64>
  00047	4c 8b c0	 mov	 r8, rax
  0004a	48 8b 55 68	 mov	 rdx, QWORD PTR _Ptr$[rbp]
  0004e	48 8b 4d 60	 mov	 rcx, QWORD PTR this$[rbp]
  00052	e8 00 00 00 00	 call	 ??$_Construct@$00PEBD@?$basic_string@DU?$char_traits@D@std@@V?$allocator@D@2@@std@@AEAAXQEBD_K@Z ; std::basic_string<char,std::char_traits<char>,std::allocator<char> >::_Construct<1,char const *>
  00057	90		 npad	 1

; 2540 :     }

  00058	48 8b 45 60	 mov	 rax, QWORD PTR this$[rbp]
  0005c	48 8d 65 50	 lea	 rsp, QWORD PTR [rbp+80]
  00060	5d		 pop	 rbp
  00061	c3		 ret	 0
??0?$basic_string@DU?$char_traits@D@std@@V?$allocator@D@2@@std@@QEAA@QEBD@Z ENDP ; std::basic_string<char,std::char_traits<char>,std::allocator<char> >::basic_string<char,std::char_traits<char>,std::allocator<char> >
_TEXT	ENDS
; Function compile flags: /Odtp /ZI
;	COMDAT text$x
text$x	SEGMENT
$T1 = 64
tv69 = 72
this$ = 96
_Ptr$ = 104
?dtor$0@?0???0?$basic_string@DU?$char_traits@D@std@@V?$allocator@D@2@@std@@QEAA@QEBD@Z@4HA PROC ; `std::basic_string<char,std::char_traits<char>,std::allocator<char> >::basic_string<char,std::char_traits<char>,std::allocator<char> >'::`1'::dtor$0
  00000	40 55		 push	 rbp
  00002	48 83 ec 20	 sub	 rsp, 32			; 00000020H
  00006	48 8d 6a 20	 lea	 rbp, QWORD PTR [rdx+32]
  0000a	48 8b 4d 60	 mov	 rcx, QWORD PTR this$[rbp]
  0000e	e8 00 00 00 00	 call	 ??1?$_Compressed_pair@V?$allocator@D@std@@V?$_String_val@U?$_Simple_types@D@std@@@2@$00@std@@QEAA@XZ
  00013	48 83 c4 20	 add	 rsp, 32			; 00000020H
  00017	5d		 pop	 rbp
  00018	c3		 ret	 0
?dtor$0@?0???0?$basic_string@DU?$char_traits@D@std@@V?$allocator@D@2@@std@@QEAA@QEBD@Z@4HA ENDP ; `std::basic_string<char,std::char_traits<char>,std::allocator<char> >::basic_string<char,std::char_traits<char>,std::allocator<char> >'::`1'::dtor$0
text$x	ENDS
; Function compile flags: /Odtp /ZI
; File C:\Program Files\Microsoft Visual Studio\2022\Preview\VC\Tools\MSVC\14.38.33030\include\xstring
;	COMDAT ??0?$basic_string@DU?$char_traits@D@std@@V?$allocator@D@2@@std@@QEAA@XZ
_TEXT	SEGMENT
$T1 = 64
$T2 = 65
tv86 = 72
tv69 = 72
this$ = 96
??0?$basic_string@DU?$char_traits@D@std@@V?$allocator@D@2@@std@@QEAA@XZ PROC ; std::basic_string<char,std::char_traits<char>,std::allocator<char> >::basic_string<char,std::char_traits<char>,std::allocator<char> >, COMDAT

; 2479 :     basic_string() noexcept(is_nothrow_default_constructible_v<_Alty>) : _Mypair(_Zero_then_variadic_args_t{}) {

$LN3:
  00000	48 89 4c 24 08	 mov	 QWORD PTR [rsp+8], rcx
  00005	55		 push	 rbp
  00006	48 83 ec 70	 sub	 rsp, 112		; 00000070H
  0000a	48 8d 6c 24 20	 lea	 rbp, QWORD PTR [rsp+32]
  0000f	48 8d 0d 00 00
	00 00		 lea	 rcx, OFFSET FLAT:__1326DD76_xstring
  00016	e8 00 00 00 00	 call	 __CheckForDebuggerJustMyCode
  0001b	48 8b 45 60	 mov	 rax, QWORD PTR this$[rbp]
  0001f	48 89 45 48	 mov	 QWORD PTR tv69[rbp], rax
  00023	0f b6 55 40	 movzx	 edx, BYTE PTR $T1[rbp]
  00027	48 8b 4d 48	 mov	 rcx, QWORD PTR tv69[rbp]
  0002b	e8 00 00 00 00	 call	 ??$?0$$V@?$_Compressed_pair@V?$allocator@D@std@@V?$_String_val@U?$_Simple_types@D@std@@@2@$00@std@@QEAA@U_Zero_then_variadic_args_t@1@@Z ; std::_Compressed_pair<std::allocator<char>,std::_String_val<std::_Simple_types<char> >,1>::_Compressed_pair<std::allocator<char>,std::_String_val<std::_Simple_types<char> >,1><>

; 2480 :         _Mypair._Myval2._Alloc_proxy(_GET_PROXY_ALLOCATOR(_Alty, _Getal()));

  00030	48 8b 45 60	 mov	 rax, QWORD PTR this$[rbp]
  00034	48 89 45 48	 mov	 QWORD PTR tv86[rbp], rax
  00038	48 8b 4d 60	 mov	 rcx, QWORD PTR this$[rbp]
  0003c	e8 00 00 00 00	 call	 ?_Getal@?$basic_string@DU?$char_traits@D@std@@V?$allocator@D@2@@std@@AEAAAEAV?$allocator@D@2@XZ ; std::basic_string<char,std::char_traits<char>,std::allocator<char> >::_Getal
  00041	48 8b d0	 mov	 rdx, rax
  00044	48 8d 4d 41	 lea	 rcx, QWORD PTR $T2[rbp]
  00048	e8 00 00 00 00	 call	 ??$?0D@?$allocator@U_Container_proxy@std@@@std@@QEAA@AEBV?$allocator@D@1@@Z ; std::allocator<std::_Container_proxy>::allocator<std::_Container_proxy><char>
  0004d	48 8b d0	 mov	 rdx, rax
  00050	48 8b 4d 48	 mov	 rcx, QWORD PTR tv86[rbp]
  00054	e8 00 00 00 00	 call	 ??$_Alloc_proxy@V?$allocator@U_Container_proxy@std@@@std@@@_Container_base12@std@@QEAAX$$QEAV?$allocator@U_Container_proxy@std@@@1@@Z ; std::_Container_base12::_Alloc_proxy<std::allocator<std::_Container_proxy> >

; 2481 :         _Tidy_init();

  00059	48 8b 4d 60	 mov	 rcx, QWORD PTR this$[rbp]
  0005d	e8 00 00 00 00	 call	 ?_Tidy_init@?$basic_string@DU?$char_traits@D@std@@V?$allocator@D@2@@std@@AEAAXXZ ; std::basic_string<char,std::char_traits<char>,std::allocator<char> >::_Tidy_init

; 2482 :     }

  00062	48 8b 45 60	 mov	 rax, QWORD PTR this$[rbp]
  00066	48 8d 65 50	 lea	 rsp, QWORD PTR [rbp+80]
  0006a	5d		 pop	 rbp
  0006b	c3		 ret	 0
??0?$basic_string@DU?$char_traits@D@std@@V?$allocator@D@2@@std@@QEAA@XZ ENDP ; std::basic_string<char,std::char_traits<char>,std::allocator<char> >::basic_string<char,std::char_traits<char>,std::allocator<char> >
_TEXT	ENDS
; Function compile flags: /Odtp /ZI
;	COMDAT ??1?$_String_val@U?$_Simple_types@D@std@@@std@@QEAA@XZ
_TEXT	SEGMENT
this$ = 80
??1?$_String_val@U?$_Simple_types@D@std@@@std@@QEAA@XZ PROC ; std::_String_val<std::_Simple_types<char> >::~_String_val<std::_Simple_types<char> >, COMDAT
$LN3:
  00000	48 89 4c 24 08	 mov	 QWORD PTR [rsp+8], rcx
  00005	55		 push	 rbp
  00006	48 83 ec 60	 sub	 rsp, 96			; 00000060H
  0000a	48 8d 6c 24 20	 lea	 rbp, QWORD PTR [rsp+32]
  0000f	48 8b 45 50	 mov	 rax, QWORD PTR this$[rbp]
  00013	48 83 c0 08	 add	 rax, 8
  00017	48 8b c8	 mov	 rcx, rax
  0001a	e8 00 00 00 00	 call	 ??1_Bxty@?$_String_val@U?$_Simple_types@D@std@@@std@@QEAA@XZ ; std::_String_val<std::_Simple_types<char> >::_Bxty::~_Bxty
  0001f	48 8d 65 40	 lea	 rsp, QWORD PTR [rbp+64]
  00023	5d		 pop	 rbp
  00024	c3		 ret	 0
??1?$_String_val@U?$_Simple_types@D@std@@@std@@QEAA@XZ ENDP ; std::_String_val<std::_Simple_types<char> >::~_String_val<std::_Simple_types<char> >
_TEXT	ENDS
; Function compile flags: /Odtp /ZI
; File C:\Program Files\Microsoft Visual Studio\2022\Preview\VC\Tools\MSVC\14.38.33030\include\xstring
;	COMDAT ??1_Bxty@?$_String_val@U?$_Simple_types@D@std@@@std@@QEAA@XZ
_TEXT	SEGMENT
this$ = 80
??1_Bxty@?$_String_val@U?$_Simple_types@D@std@@@std@@QEAA@XZ PROC ; std::_String_val<std::_Simple_types<char> >::_Bxty::~_Bxty, COMDAT

; 2284 :         _CONSTEXPR20 ~_Bxty() noexcept {} // user-provided, for fancy pointers

$LN3:
  00000	48 89 4c 24 08	 mov	 QWORD PTR [rsp+8], rcx
  00005	55		 push	 rbp
  00006	48 83 ec 60	 sub	 rsp, 96			; 00000060H
  0000a	48 8d 6c 24 20	 lea	 rbp, QWORD PTR [rsp+32]
  0000f	48 8d 0d 00 00
	00 00		 lea	 rcx, OFFSET FLAT:__1326DD76_xstring
  00016	e8 00 00 00 00	 call	 __CheckForDebuggerJustMyCode
  0001b	48 8d 65 40	 lea	 rsp, QWORD PTR [rbp+64]
  0001f	5d		 pop	 rbp
  00020	c3		 ret	 0
??1_Bxty@?$_String_val@U?$_Simple_types@D@std@@@std@@QEAA@XZ ENDP ; std::_String_val<std::_Simple_types<char> >::_Bxty::~_Bxty
_TEXT	ENDS
; Function compile flags: /Odtp /ZI
; File C:\Program Files\Microsoft Visual Studio\2022\Preview\VC\Tools\MSVC\14.38.33030\include\xstring
;	COMDAT ??0_Bxty@?$_String_val@U?$_Simple_types@D@std@@@std@@QEAA@XZ
_TEXT	SEGMENT
this$ = 96
??0_Bxty@?$_String_val@U?$_Simple_types@D@std@@@std@@QEAA@XZ PROC ; std::_String_val<std::_Simple_types<char> >::_Bxty::_Bxty, COMDAT

; 2283 :         _CONSTEXPR20 _Bxty() noexcept : _Buf() {} // user-provided, for fancy pointers

$LN3:
  00000	48 89 4c 24 08	 mov	 QWORD PTR [rsp+8], rcx
  00005	55		 push	 rbp
  00006	57		 push	 rdi
  00007	48 83 ec 68	 sub	 rsp, 104		; 00000068H
  0000b	48 8d 6c 24 20	 lea	 rbp, QWORD PTR [rsp+32]
  00010	48 8d 0d 00 00
	00 00		 lea	 rcx, OFFSET FLAT:__1326DD76_xstring
  00017	e8 00 00 00 00	 call	 __CheckForDebuggerJustMyCode
  0001c	48 8b 45 60	 mov	 rax, QWORD PTR this$[rbp]
  00020	48 8b 7d 60	 mov	 rdi, QWORD PTR this$[rbp]
  00024	33 c0		 xor	 eax, eax
  00026	b9 10 00 00 00	 mov	 ecx, 16
  0002b	f3 aa		 rep stosb
  0002d	48 8b 45 60	 mov	 rax, QWORD PTR this$[rbp]
  00031	48 8d 65 48	 lea	 rsp, QWORD PTR [rbp+72]
  00035	5f		 pop	 rdi
  00036	5d		 pop	 rbp
  00037	c3		 ret	 0
??0_Bxty@?$_String_val@U?$_Simple_types@D@std@@@std@@QEAA@XZ ENDP ; std::_String_val<std::_Simple_types<char> >::_Bxty::_Bxty
_TEXT	ENDS
; Function compile flags: /Odtp /ZI
; File C:\Program Files\Microsoft Visual Studio\2022\Preview\VC\Tools\MSVC\14.38.33030\include\xstring
;	COMDAT ?_Activate_SSO_buffer@?$_String_val@U?$_Simple_types@D@std@@@std@@QEAAXXZ
_TEXT	SEGMENT
_Idx$1 = 0
this$ = 96
?_Activate_SSO_buffer@?$_String_val@U?$_Simple_types@D@std@@@std@@QEAAXXZ PROC ; std::_String_val<std::_Simple_types<char> >::_Activate_SSO_buffer, COMDAT

; 2246 :     constexpr void _Activate_SSO_buffer() noexcept {

$LN7:
  00000	48 89 4c 24 08	 mov	 QWORD PTR [rsp+8], rcx
  00005	55		 push	 rbp
  00006	48 83 ec 70	 sub	 rsp, 112		; 00000070H
  0000a	48 8d 6c 24 20	 lea	 rbp, QWORD PTR [rsp+32]
  0000f	48 8d 0d 00 00
	00 00		 lea	 rcx, OFFSET FLAT:__1326DD76_xstring
  00016	e8 00 00 00 00	 call	 __CheckForDebuggerJustMyCode

; 2247 :         // start the lifetime of the array elements
; 2248 : #if _HAS_CXX20
; 2249 :         if (_STD is_constant_evaluated()) {

  0001b	e8 00 00 00 00	 call	 ?is_constant_evaluated@std@@YA_NXZ ; std::is_constant_evaluated
  00020	0f b6 c0	 movzx	 eax, al
  00023	85 c0		 test	 eax, eax
  00025	74 30		 je	 SHORT $LN5@Activate_S

; 2250 :             for (size_type _Idx = 0; _Idx < _BUF_SIZE; ++_Idx) {

  00027	48 c7 45 00 00
	00 00 00	 mov	 QWORD PTR _Idx$1[rbp], 0
  0002f	eb 0b		 jmp	 SHORT $LN4@Activate_S
$LN2@Activate_S:
  00031	48 8b 45 00	 mov	 rax, QWORD PTR _Idx$1[rbp]
  00035	48 ff c0	 inc	 rax
  00038	48 89 45 00	 mov	 QWORD PTR _Idx$1[rbp], rax
$LN4@Activate_S:
  0003c	48 83 7d 00 10	 cmp	 QWORD PTR _Idx$1[rbp], 16
  00041	73 14		 jae	 SHORT $LN5@Activate_S

; 2251 :                 _Bx._Buf[_Idx] = value_type();

  00043	48 8b 45 00	 mov	 rax, QWORD PTR _Idx$1[rbp]
  00047	48 8b 4d 60	 mov	 rcx, QWORD PTR this$[rbp]
  0004b	48 03 c8	 add	 rcx, rax
  0004e	48 8b c1	 mov	 rax, rcx
  00051	c6 40 08 00	 mov	 BYTE PTR [rax+8], 0

; 2252 :             }

  00055	eb da		 jmp	 SHORT $LN2@Activate_S
$LN5@Activate_S:

; 2253 :         }
; 2254 : #endif // _HAS_CXX20
; 2255 :     }

  00057	48 8d 65 50	 lea	 rsp, QWORD PTR [rbp+80]
  0005b	5d		 pop	 rbp
  0005c	c3		 ret	 0
?_Activate_SSO_buffer@?$_String_val@U?$_Simple_types@D@std@@@std@@QEAAXXZ ENDP ; std::_String_val<std::_Simple_types<char> >::_Activate_SSO_buffer
_TEXT	ENDS
; Function compile flags: /Odtp /ZI
; File C:\Program Files\Microsoft Visual Studio\2022\Preview\VC\Tools\MSVC\14.38.33030\include\xstring
;	COMDAT ?_Large_string_engaged@?$_String_val@U?$_Simple_types@D@std@@@std@@QEBA_NXZ
_TEXT	SEGMENT
tv66 = 64
this$ = 96
?_Large_string_engaged@?$_String_val@U?$_Simple_types@D@std@@@std@@QEBA_NXZ PROC ; std::_String_val<std::_Simple_types<char> >::_Large_string_engaged, COMDAT

; 2242 :     _CONSTEXPR20 bool _Large_string_engaged() const noexcept {

$LN5:
  00000	48 89 4c 24 08	 mov	 QWORD PTR [rsp+8], rcx
  00005	55		 push	 rbp
  00006	48 83 ec 70	 sub	 rsp, 112		; 00000070H
  0000a	48 8d 6c 24 20	 lea	 rbp, QWORD PTR [rsp+32]
  0000f	48 8d 0d 00 00
	00 00		 lea	 rcx, OFFSET FLAT:__1326DD76_xstring
  00016	e8 00 00 00 00	 call	 __CheckForDebuggerJustMyCode

; 2243 :         return _BUF_SIZE <= _Myres;

  0001b	48 8b 45 60	 mov	 rax, QWORD PTR this$[rbp]
  0001f	48 83 78 20 10	 cmp	 QWORD PTR [rax+32], 16
  00024	72 09		 jb	 SHORT $LN3@Large_stri
  00026	c7 45 40 01 00
	00 00		 mov	 DWORD PTR tv66[rbp], 1
  0002d	eb 07		 jmp	 SHORT $LN4@Large_stri
$LN3@Large_stri:
  0002f	c7 45 40 00 00
	00 00		 mov	 DWORD PTR tv66[rbp], 0
$LN4@Large_stri:
  00036	0f b6 45 40	 movzx	 eax, BYTE PTR tv66[rbp]

; 2244 :     }

  0003a	48 8d 65 50	 lea	 rsp, QWORD PTR [rbp+80]
  0003e	5d		 pop	 rbp
  0003f	c3		 ret	 0
?_Large_string_engaged@?$_String_val@U?$_Simple_types@D@std@@@std@@QEBA_NXZ ENDP ; std::_String_val<std::_Simple_types<char> >::_Large_string_engaged
_TEXT	ENDS
; Function compile flags: /Odtp /ZI
; File C:\Program Files\Microsoft Visual Studio\2022\Preview\VC\Tools\MSVC\14.38.33030\include\xstring
;	COMDAT ??0?$_String_val@U?$_Simple_types@D@std@@@std@@QEAA@XZ
_TEXT	SEGMENT
this$ = 80
??0?$_String_val@U?$_Simple_types@D@std@@@std@@QEAA@XZ PROC ; std::_String_val<std::_Simple_types<char> >::_String_val<std::_Simple_types<char> >, COMDAT

; 2213 :     _CONSTEXPR20 _String_val() noexcept : _Bx() {}

$LN3:
  00000	48 89 4c 24 08	 mov	 QWORD PTR [rsp+8], rcx
  00005	55		 push	 rbp
  00006	48 83 ec 60	 sub	 rsp, 96			; 00000060H
  0000a	48 8d 6c 24 20	 lea	 rbp, QWORD PTR [rsp+32]
  0000f	48 8d 0d 00 00
	00 00		 lea	 rcx, OFFSET FLAT:__1326DD76_xstring
  00016	e8 00 00 00 00	 call	 __CheckForDebuggerJustMyCode
  0001b	48 8b 4d 50	 mov	 rcx, QWORD PTR this$[rbp]
  0001f	e8 00 00 00 00	 call	 ??0_Container_base12@std@@QEAA@XZ ; std::_Container_base12::_Container_base12
  00024	48 8b 45 50	 mov	 rax, QWORD PTR this$[rbp]
  00028	48 83 c0 08	 add	 rax, 8
  0002c	48 8b c8	 mov	 rcx, rax
  0002f	e8 00 00 00 00	 call	 ??0_Bxty@?$_String_val@U?$_Simple_types@D@std@@@std@@QEAA@XZ ; std::_String_val<std::_Simple_types<char> >::_Bxty::_Bxty

; 2214 : 
; 2215 :     // length of internal buffer, [1, 16]:
; 2216 :     static constexpr size_type _BUF_SIZE = 16 / sizeof(value_type) < 1 ? 1 : 16 / sizeof(value_type);
; 2217 :     // roundup mask for allocated buffers, [0, 15]:
; 2218 :     static constexpr size_type _ALLOC_MASK = sizeof(value_type) <= 1 ? 15
; 2219 :                                            : sizeof(value_type) <= 2 ? 7
; 2220 :                                            : sizeof(value_type) <= 4 ? 3
; 2221 :                                            : sizeof(value_type) <= 8 ? 1
; 2222 :                                                                      : 0;
; 2223 : 
; 2224 :     _CONSTEXPR20 value_type* _Myptr() noexcept {
; 2225 :         value_type* _Result = _Bx._Buf;
; 2226 :         if (_Large_string_engaged()) {
; 2227 :             _Result = _Unfancy(_Bx._Ptr);
; 2228 :         }
; 2229 : 
; 2230 :         return _Result;
; 2231 :     }
; 2232 : 
; 2233 :     _CONSTEXPR20 const value_type* _Myptr() const noexcept {
; 2234 :         const value_type* _Result = _Bx._Buf;
; 2235 :         if (_Large_string_engaged()) {
; 2236 :             _Result = _Unfancy(_Bx._Ptr);
; 2237 :         }
; 2238 : 
; 2239 :         return _Result;
; 2240 :     }
; 2241 : 
; 2242 :     _CONSTEXPR20 bool _Large_string_engaged() const noexcept {
; 2243 :         return _BUF_SIZE <= _Myres;
; 2244 :     }
; 2245 : 
; 2246 :     constexpr void _Activate_SSO_buffer() noexcept {
; 2247 :         // start the lifetime of the array elements
; 2248 : #if _HAS_CXX20
; 2249 :         if (_STD is_constant_evaluated()) {
; 2250 :             for (size_type _Idx = 0; _Idx < _BUF_SIZE; ++_Idx) {
; 2251 :                 _Bx._Buf[_Idx] = value_type();
; 2252 :             }
; 2253 :         }
; 2254 : #endif // _HAS_CXX20
; 2255 :     }
; 2256 : 
; 2257 :     _CONSTEXPR20 void _Check_offset(const size_type _Off) const {
; 2258 :         // checks whether _Off is in the bounds of [0, size()]
; 2259 :         if (_Mysize < _Off) {
; 2260 :             _Xran();
; 2261 :         }
; 2262 :     }
; 2263 : 
; 2264 :     _CONSTEXPR20 void _Check_offset_exclusive(const size_type _Off) const {
; 2265 :         // checks whether _Off is in the bounds of [0, size())
; 2266 :         if (_Mysize <= _Off) {
; 2267 :             _Xran();
; 2268 :         }
; 2269 :     }
; 2270 : 
; 2271 :     [[noreturn]] static void _Xran() {
; 2272 :         _Xout_of_range("invalid string position");
; 2273 :     }
; 2274 : 
; 2275 :     _CONSTEXPR20 size_type _Clamp_suffix_size(const size_type _Off, const size_type _Size) const noexcept {
; 2276 :         // trims _Size to the longest it can be assuming a string at/after _Off
; 2277 :         return (_STD min)(_Size, _Mysize - _Off);
; 2278 :     }
; 2279 : 
; 2280 :     union _Bxty { // storage for small buffer or pointer to larger one
; 2281 :         // This constructor previously initialized _Ptr. Don't rely on the new behavior without
; 2282 :         // renaming `_String_val` (and fixing the visualizer).
; 2283 :         _CONSTEXPR20 _Bxty() noexcept : _Buf() {} // user-provided, for fancy pointers
; 2284 :         _CONSTEXPR20 ~_Bxty() noexcept {} // user-provided, for fancy pointers
; 2285 : 
; 2286 :         value_type _Buf[_BUF_SIZE];
; 2287 :         pointer _Ptr;
; 2288 :         char _Alias[_BUF_SIZE]; // TRANSITION, ABI: _Alias is preserved for binary compatibility (especially /clr)
; 2289 :     };
; 2290 :     _Bxty _Bx;
; 2291 : 
; 2292 :     size_type _Mysize = 0; // current length of string

  00034	48 8b 45 50	 mov	 rax, QWORD PTR this$[rbp]
  00038	48 c7 40 18 00
	00 00 00	 mov	 QWORD PTR [rax+24], 0

; 2293 :     size_type _Myres  = 0; // current storage reserved for string

  00040	48 8b 45 50	 mov	 rax, QWORD PTR this$[rbp]
  00044	48 c7 40 20 00
	00 00 00	 mov	 QWORD PTR [rax+32], 0

; 2213 :     _CONSTEXPR20 _String_val() noexcept : _Bx() {}

  0004c	48 8b 45 50	 mov	 rax, QWORD PTR this$[rbp]
  00050	48 8d 65 40	 lea	 rsp, QWORD PTR [rbp+64]
  00054	5d		 pop	 rbp
  00055	c3		 ret	 0
??0?$_String_val@U?$_Simple_types@D@std@@@std@@QEAA@XZ ENDP ; std::_String_val<std::_Simple_types<char> >::_String_val<std::_Simple_types<char> >
_TEXT	ENDS
; Function compile flags: /Odtp /ZI
; File C:\Program Files\Microsoft Visual Studio\2022\Preview\VC\Tools\MSVC\14.38.33030\include\xmemory
;	COMDAT ?max_size@?$_Default_allocator_traits@V?$allocator@D@std@@@std@@SA_KAEBV?$allocator@D@2@@Z
_TEXT	SEGMENT
__formal$ = 80
?max_size@?$_Default_allocator_traits@V?$allocator@D@std@@@std@@SA_KAEBV?$allocator@D@2@@Z PROC ; std::_Default_allocator_traits<std::allocator<char> >::max_size, COMDAT

; 736  :     _NODISCARD static _CONSTEXPR20 size_type max_size(const _Alloc&) noexcept {

$LN3:
  00000	48 89 4c 24 08	 mov	 QWORD PTR [rsp+8], rcx
  00005	55		 push	 rbp
  00006	48 83 ec 60	 sub	 rsp, 96			; 00000060H
  0000a	48 8d 6c 24 20	 lea	 rbp, QWORD PTR [rsp+32]
  0000f	48 8d 0d 00 00
	00 00		 lea	 rcx, OFFSET FLAT:__67F55BEA_xmemory
  00016	e8 00 00 00 00	 call	 __CheckForDebuggerJustMyCode

; 737  :         return static_cast<size_t>(-1) / sizeof(value_type);

  0001b	48 c7 c0 ff ff
	ff ff		 mov	 rax, -1

; 738  :     }

  00022	48 8d 65 40	 lea	 rsp, QWORD PTR [rbp+64]
  00026	5d		 pop	 rbp
  00027	c3		 ret	 0
?max_size@?$_Default_allocator_traits@V?$allocator@D@std@@@std@@SA_KAEBV?$allocator@D@2@@Z ENDP ; std::_Default_allocator_traits<std::allocator<char> >::max_size
_TEXT	ENDS
; Function compile flags: /Odtp /ZI
; File C:\Program Files\Microsoft Visual Studio\2022\Preview\VC\Tools\MSVC\14.38.33030\include\xmemory
;	COMDAT ?allocate@?$allocator@D@std@@QEAAPEAD_K@Z
_TEXT	SEGMENT
this$ = 80
_Count$ = 88
?allocate@?$allocator@D@std@@QEAAPEAD_K@Z PROC		; std::allocator<char>::allocate, COMDAT

; 976  :     _NODISCARD_RAW_PTR_ALLOC _CONSTEXPR20 __declspec(allocator) _Ty* allocate(_CRT_GUARDOVERFLOW const size_t _Count) {

$LN3:
  00000	48 89 54 24 10	 mov	 QWORD PTR [rsp+16], rdx
  00005	48 89 4c 24 08	 mov	 QWORD PTR [rsp+8], rcx
  0000a	55		 push	 rbp
  0000b	48 83 ec 60	 sub	 rsp, 96			; 00000060H
  0000f	48 8d 6c 24 20	 lea	 rbp, QWORD PTR [rsp+32]
  00014	48 8d 0d 00 00
	00 00		 lea	 rcx, OFFSET FLAT:__67F55BEA_xmemory
  0001b	e8 00 00 00 00	 call	 __CheckForDebuggerJustMyCode

; 977  :         static_assert(sizeof(value_type) > 0, "value_type must be complete before calling allocate.");
; 978  :         return static_cast<_Ty*>(_Allocate<_New_alignof<_Ty>>(_Get_size_of_n<sizeof(_Ty)>(_Count)));

  00020	48 8b 4d 58	 mov	 rcx, QWORD PTR _Count$[rbp]
  00024	e8 00 00 00 00	 call	 ??$_Get_size_of_n@$00@std@@YA_K_K@Z ; std::_Get_size_of_n<1>
  00029	48 8b c8	 mov	 rcx, rax
  0002c	e8 00 00 00 00	 call	 ??$_Allocate@$0BA@U_Default_allocate_traits@std@@$0A@@std@@YAPEAX_K@Z ; std::_Allocate<16,std::_Default_allocate_traits,0>

; 979  :     }

  00031	48 8d 65 40	 lea	 rsp, QWORD PTR [rbp+64]
  00035	5d		 pop	 rbp
  00036	c3		 ret	 0
?allocate@?$allocator@D@std@@QEAAPEAD_K@Z ENDP		; std::allocator<char>::allocate
_TEXT	ENDS
; Function compile flags: /Odtp /ZI
; File C:\Program Files\Microsoft Visual Studio\2022\Preview\VC\Tools\MSVC\14.38.33030\include\xmemory
;	COMDAT ?deallocate@?$allocator@D@std@@QEAAXQEAD_K@Z
_TEXT	SEGMENT
this$ = 80
_Ptr$ = 88
_Count$ = 96
?deallocate@?$allocator@D@std@@QEAAXQEAD_K@Z PROC	; std::allocator<char>::deallocate, COMDAT

; 970  :     _CONSTEXPR20 void deallocate(_Ty* const _Ptr, const size_t _Count) {

$LN13:
  00000	4c 89 44 24 18	 mov	 QWORD PTR [rsp+24], r8
  00005	48 89 54 24 10	 mov	 QWORD PTR [rsp+16], rdx
  0000a	48 89 4c 24 08	 mov	 QWORD PTR [rsp+8], rcx
  0000f	55		 push	 rbp
  00010	48 83 ec 70	 sub	 rsp, 112		; 00000070H
  00014	48 8d 6c 24 30	 lea	 rbp, QWORD PTR [rsp+48]
  00019	48 8d 0d 00 00
	00 00		 lea	 rcx, OFFSET FLAT:__67F55BEA_xmemory
  00020	e8 00 00 00 00	 call	 __CheckForDebuggerJustMyCode
$LN4@deallocate:

; 971  :         _STL_ASSERT(_Ptr != nullptr || _Count == 0, "null pointer cannot point to a block of non-zero size");

  00025	48 83 7d 58 00	 cmp	 QWORD PTR _Ptr$[rbp], 0
  0002a	75 07		 jne	 SHORT $LN10@deallocate
  0002c	48 83 7d 60 00	 cmp	 QWORD PTR _Count$[rbp], 0
  00031	75 02		 jne	 SHORT $LN8@deallocate
$LN10@deallocate:
  00033	eb 6b		 jmp	 SHORT $LN9@deallocate
$LN8@deallocate:
$LN7@deallocate:
  00035	48 8d 05 00 00
	00 00		 lea	 rax, OFFSET FLAT:??_C@_0DG@KGHKKGBC@null?5pointer?5cannot?5point?5to?5a?5@
  0003c	48 89 44 24 28	 mov	 QWORD PTR [rsp+40], rax
  00041	48 8d 05 00 00
	00 00		 lea	 rax, OFFSET FLAT:??_C@_02DKCKIIND@?$CFs@
  00048	48 89 44 24 20	 mov	 QWORD PTR [rsp+32], rax
  0004d	45 33 c9	 xor	 r9d, r9d
  00050	41 b8 cb 03 00
	00		 mov	 r8d, 971		; 000003cbH
  00056	48 8d 15 00 00
	00 00		 lea	 rdx, OFFSET FLAT:??_C@_0GA@FLDGEGM@C?3?2Program?5Files?2Microsoft?5Visu@
  0005d	b9 02 00 00 00	 mov	 ecx, 2
  00062	ff 15 00 00 00
	00		 call	 QWORD PTR __imp__CrtDbgReport
  00068	83 f8 01	 cmp	 eax, 1
  0006b	75 03		 jne	 SHORT $LN12@deallocate
  0006d	cc		 int	 3
  0006e	33 c0		 xor	 eax, eax
$LN12@deallocate:
  00070	48 c7 44 24 20
	00 00 00 00	 mov	 QWORD PTR [rsp+32], 0
  00079	41 b9 cb 03 00
	00		 mov	 r9d, 971		; 000003cbH
  0007f	4c 8d 05 00 00
	00 00		 lea	 r8, OFFSET FLAT:??_C@_1MA@IKJDCOIC@?$AAC?$AA?3?$AA?2?$AAP?$AAr?$AAo?$AAg?$AAr?$AAa?$AAm?$AA?5?$AAF?$AAi?$AAl?$AAe@
  00086	48 8d 15 00 00
	00 00		 lea	 rdx, OFFSET FLAT:??_C@_11LOCGONAA@@
  0008d	48 8d 0d 00 00
	00 00		 lea	 rcx, OFFSET FLAT:??_C@_1HA@FACCKGGH@?$AA?$CC?$AAn?$AAu?$AAl?$AAl?$AA?5?$AAp?$AAo?$AAi?$AAn?$AAt?$AAe?$AAr?$AA?5?$AAc@
  00094	ff 15 00 00 00
	00		 call	 QWORD PTR __imp__invalid_parameter
  0009a	33 c0		 xor	 eax, eax
  0009c	85 c0		 test	 eax, eax
  0009e	75 95		 jne	 SHORT $LN7@deallocate
$LN9@deallocate:
  000a0	33 c0		 xor	 eax, eax
  000a2	85 c0		 test	 eax, eax
  000a4	0f 85 7b ff ff
	ff		 jne	 $LN4@deallocate

; 972  :         // no overflow check on the following multiply; we assume _Allocate did that check
; 973  :         _Deallocate<_New_alignof<_Ty>>(_Ptr, sizeof(_Ty) * _Count);

  000aa	48 8b 55 60	 mov	 rdx, QWORD PTR _Count$[rbp]
  000ae	48 8b 4d 58	 mov	 rcx, QWORD PTR _Ptr$[rbp]
  000b2	e8 00 00 00 00	 call	 ??$_Deallocate@$0BA@$0A@@std@@YAXPEAX_K@Z ; std::_Deallocate<16,0>

; 974  :     }

  000b7	48 8d 65 40	 lea	 rsp, QWORD PTR [rbp+64]
  000bb	5d		 pop	 rbp
  000bc	c3		 ret	 0
?deallocate@?$allocator@D@std@@QEAAXQEAD_K@Z ENDP	; std::allocator<char>::deallocate
_TEXT	ENDS
; Function compile flags: /Odtp /ZI
; File C:\Program Files\Microsoft Visual Studio\2022\Preview\VC\Tools\MSVC\14.38.33030\include\xmemory
;	COMDAT ??0?$allocator@D@std@@QEAA@XZ
_TEXT	SEGMENT
this$ = 80
??0?$allocator@D@std@@QEAA@XZ PROC			; std::allocator<char>::allocator<char>, COMDAT

; 962  :     constexpr allocator() noexcept {}

$LN3:
  00000	48 89 4c 24 08	 mov	 QWORD PTR [rsp+8], rcx
  00005	55		 push	 rbp
  00006	48 83 ec 60	 sub	 rsp, 96			; 00000060H
  0000a	48 8d 6c 24 20	 lea	 rbp, QWORD PTR [rsp+32]
  0000f	48 8d 0d 00 00
	00 00		 lea	 rcx, OFFSET FLAT:__67F55BEA_xmemory
  00016	e8 00 00 00 00	 call	 __CheckForDebuggerJustMyCode
  0001b	48 8b 45 50	 mov	 rax, QWORD PTR this$[rbp]
  0001f	48 8d 65 40	 lea	 rsp, QWORD PTR [rbp+64]
  00023	5d		 pop	 rbp
  00024	c3		 ret	 0
??0?$allocator@D@std@@QEAA@XZ ENDP			; std::allocator<char>::allocator<char>
_TEXT	ENDS
; Function compile flags: /Odtp /ZI
; File C:\Program Files\Microsoft Visual Studio\2022\Preview\VC\Tools\MSVC\14.38.33030\include\xstring
;	COMDAT ?_Xlen_string@std@@YAXXZ
_TEXT	SEGMENT
?_Xlen_string@std@@YAXXZ PROC				; std::_Xlen_string, COMDAT

; 2310 : [[noreturn]] inline void _Xlen_string() {

$LN3:
  00000	40 55		 push	 rbp
  00002	48 83 ec 60	 sub	 rsp, 96			; 00000060H
  00006	48 8d 6c 24 20	 lea	 rbp, QWORD PTR [rsp+32]
  0000b	48 8d 0d 00 00
	00 00		 lea	 rcx, OFFSET FLAT:__1326DD76_xstring
  00012	e8 00 00 00 00	 call	 __CheckForDebuggerJustMyCode

; 2311 :     _Xlength_error("string too long");

  00017	48 8d 0d 00 00
	00 00		 lea	 rcx, OFFSET FLAT:??_C@_0BA@JFNIOLAK@string?5too?5long@
  0001e	e8 00 00 00 00	 call	 ?_Xlength_error@std@@YAXPEBD@Z ; std::_Xlength_error
$LN2@Xlen_strin:

; 2312 : }

  00023	48 8d 65 40	 lea	 rsp, QWORD PTR [rbp+64]
  00027	5d		 pop	 rbp
  00028	c3		 ret	 0
?_Xlen_string@std@@YAXXZ ENDP				; std::_Xlen_string
_TEXT	ENDS
; Function compile flags: /Odtp /ZI
; File C:\Program Files\Microsoft Visual Studio\2022\Preview\VC\Tools\MSVC\14.38.33030\include\xstring
;	COMDAT ?assign@?$_Narrow_char_traits@DH@std@@SAXAEADAEBD@Z
_TEXT	SEGMENT
_Left$ = 80
_Right$ = 88
?assign@?$_Narrow_char_traits@DH@std@@SAXAEADAEBD@Z PROC ; std::_Narrow_char_traits<char,int>::assign, COMDAT

; 439  :     static _CONSTEXPR17 void assign(_Elem& _Left, const _Elem& _Right) noexcept {

$LN4:
  00000	48 89 54 24 10	 mov	 QWORD PTR [rsp+16], rdx
  00005	48 89 4c 24 08	 mov	 QWORD PTR [rsp+8], rcx
  0000a	55		 push	 rbp
  0000b	48 83 ec 60	 sub	 rsp, 96			; 00000060H
  0000f	48 8d 6c 24 20	 lea	 rbp, QWORD PTR [rsp+32]
  00014	48 8d 0d 00 00
	00 00		 lea	 rcx, OFFSET FLAT:__1326DD76_xstring
  0001b	e8 00 00 00 00	 call	 __CheckForDebuggerJustMyCode

; 440  : #if _HAS_CXX20
; 441  :         if (_STD is_constant_evaluated()) {

  00020	e8 00 00 00 00	 call	 ?is_constant_evaluated@std@@YA_NXZ ; std::is_constant_evaluated
  00025	0f b6 c0	 movzx	 eax, al
  00028	85 c0		 test	 eax, eax
  0002a	74 0f		 je	 SHORT $LN2@assign

; 442  :             return _Primary_char_traits::assign(_Left, _Right);

  0002c	48 8b 55 58	 mov	 rdx, QWORD PTR _Right$[rbp]
  00030	48 8b 4d 50	 mov	 rcx, QWORD PTR _Left$[rbp]
  00034	e8 00 00 00 00	 call	 ?assign@?$_Char_traits@DH@std@@SAXAEADAEBD@Z ; std::_Char_traits<char,int>::assign
  00039	eb 0d		 jmp	 SHORT $LN1@assign
$LN2@assign:

; 443  :         }
; 444  : #endif // _HAS_CXX20
; 445  :         _Left = _Right;

  0003b	48 8b 45 50	 mov	 rax, QWORD PTR _Left$[rbp]
  0003f	48 8b 4d 58	 mov	 rcx, QWORD PTR _Right$[rbp]
  00043	0f b6 09	 movzx	 ecx, BYTE PTR [rcx]
  00046	88 08		 mov	 BYTE PTR [rax], cl
$LN1@assign:

; 446  :     }

  00048	48 8d 65 40	 lea	 rsp, QWORD PTR [rbp+64]
  0004c	5d		 pop	 rbp
  0004d	c3		 ret	 0
?assign@?$_Narrow_char_traits@DH@std@@SAXAEADAEBD@Z ENDP ; std::_Narrow_char_traits<char,int>::assign
_TEXT	ENDS
; Function compile flags: /Odtp /ZI
; File C:\Program Files\Microsoft Visual Studio\2022\Preview\VC\Tools\MSVC\14.38.33030\include\xstring
;	COMDAT ?length@?$_Narrow_char_traits@DH@std@@SA_KQEBD@Z
_TEXT	SEGMENT
tv68 = 64
tv69 = 72
_First$ = 96
?length@?$_Narrow_char_traits@DH@std@@SA_KQEBD@Z PROC	; std::_Narrow_char_traits<char,int>::length, COMDAT

; 386  :     _NODISCARD static _CONSTEXPR17 size_t length(_In_z_ const _Elem* const _First) noexcept /* strengthened */ {

$LN4:
  00000	48 89 4c 24 08	 mov	 QWORD PTR [rsp+8], rcx
  00005	55		 push	 rbp
  00006	48 83 ec 70	 sub	 rsp, 112		; 00000070H
  0000a	48 8d 6c 24 20	 lea	 rbp, QWORD PTR [rsp+32]
  0000f	48 8d 0d 00 00
	00 00		 lea	 rcx, OFFSET FLAT:__1326DD76_xstring
  00016	e8 00 00 00 00	 call	 __CheckForDebuggerJustMyCode

; 387  :         // find length of null-terminated string
; 388  : #if _HAS_CXX17
; 389  : #ifdef __cpp_char8_t
; 390  :         if constexpr (is_same_v<_Elem, char8_t>) {
; 391  : #if _HAS_U8_INTRINSICS
; 392  :             return __builtin_u8strlen(_First);
; 393  : #else // ^^^ use u8 intrinsics / no u8 intrinsics vvv
; 394  :             return _Primary_char_traits::length(_First);
; 395  : #endif // _HAS_U8_INTRINSICS
; 396  :         } else
; 397  : #endif // __cpp_char8_t
; 398  :         {
; 399  :             return __builtin_strlen(_First);

  0001b	48 8b 45 60	 mov	 rax, QWORD PTR _First$[rbp]
  0001f	48 89 45 40	 mov	 QWORD PTR tv68[rbp], rax
  00023	48 c7 45 48 ff
	ff ff ff	 mov	 QWORD PTR tv69[rbp], -1
$LL3@length:
  0002b	48 ff 45 48	 inc	 QWORD PTR tv69[rbp]
  0002f	48 8b 45 40	 mov	 rax, QWORD PTR tv68[rbp]
  00033	48 8b 4d 48	 mov	 rcx, QWORD PTR tv69[rbp]
  00037	80 3c 08 00	 cmp	 BYTE PTR [rax+rcx], 0
  0003b	75 ee		 jne	 SHORT $LL3@length
  0003d	48 8b 45 48	 mov	 rax, QWORD PTR tv69[rbp]

; 400  :         }
; 401  : #else // _HAS_CXX17
; 402  :         return _CSTD strlen(reinterpret_cast<const char*>(_First));
; 403  : #endif // _HAS_CXX17
; 404  :     }

  00041	48 8d 65 50	 lea	 rsp, QWORD PTR [rbp+80]
  00045	5d		 pop	 rbp
  00046	c3		 ret	 0
?length@?$_Narrow_char_traits@DH@std@@SA_KQEBD@Z ENDP	; std::_Narrow_char_traits<char,int>::length
_TEXT	ENDS
; Function compile flags: /Odtp /ZI
; File C:\Program Files\Microsoft Visual Studio\2022\Preview\VC\Tools\MSVC\14.38.33030\include\xstring
;	COMDAT ?assign@?$_Char_traits@DH@std@@SAXAEADAEBD@Z
_TEXT	SEGMENT
_Left$ = 80
_Right$ = 88
?assign@?$_Char_traits@DH@std@@SAXAEADAEBD@Z PROC	; std::_Char_traits<char,int>::assign, COMDAT

; 181  :     static _CONSTEXPR17 void assign(_Elem& _Left, const _Elem& _Right) noexcept {

$LN5:
  00000	48 89 54 24 10	 mov	 QWORD PTR [rsp+16], rdx
  00005	48 89 4c 24 08	 mov	 QWORD PTR [rsp+8], rcx
  0000a	55		 push	 rbp
  0000b	48 83 ec 60	 sub	 rsp, 96			; 00000060H
  0000f	48 8d 6c 24 20	 lea	 rbp, QWORD PTR [rsp+32]
  00014	48 8d 0d 00 00
	00 00		 lea	 rcx, OFFSET FLAT:__1326DD76_xstring
  0001b	e8 00 00 00 00	 call	 __CheckForDebuggerJustMyCode

; 182  : #if _HAS_CXX20
; 183  :         if (_STD is_constant_evaluated()) {

  00020	e8 00 00 00 00	 call	 ?is_constant_evaluated@std@@YA_NXZ ; std::is_constant_evaluated
  00025	0f b6 c0	 movzx	 eax, al
  00028	85 c0		 test	 eax, eax
  0002a	74 17		 je	 SHORT $LN2@assign

; 184  :             _STD construct_at(_STD addressof(_Left), _Right);

  0002c	48 8b 4d 50	 mov	 rcx, QWORD PTR _Left$[rbp]
  00030	e8 00 00 00 00	 call	 ??$addressof@D@std@@YAPEADAEAD@Z ; std::addressof<char>
  00035	48 8b 55 58	 mov	 rdx, QWORD PTR _Right$[rbp]
  00039	48 8b c8	 mov	 rcx, rax
  0003c	e8 00 00 00 00	 call	 ??$construct_at@DAEBD$0A@@std@@YAPEADQEADAEBD@Z ; std::construct_at<char,char const &,0>

; 185  :         } else

  00041	eb 0d		 jmp	 SHORT $LN3@assign
$LN2@assign:

; 186  : #endif // _HAS_CXX20
; 187  :         {
; 188  :             _Left = _Right;

  00043	48 8b 45 50	 mov	 rax, QWORD PTR _Left$[rbp]
  00047	48 8b 4d 58	 mov	 rcx, QWORD PTR _Right$[rbp]
  0004b	0f b6 09	 movzx	 ecx, BYTE PTR [rcx]
  0004e	88 08		 mov	 BYTE PTR [rax], cl
$LN3@assign:

; 189  :         }
; 190  :     }

  00050	48 8d 65 40	 lea	 rsp, QWORD PTR [rbp+64]
  00054	5d		 pop	 rbp
  00055	c3		 ret	 0
?assign@?$_Char_traits@DH@std@@SAXAEADAEBD@Z ENDP	; std::_Char_traits<char,int>::assign
_TEXT	ENDS
; Function compile flags: /Odtp /ZI
; File C:\Program Files\Microsoft Visual Studio\2022\Preview\VC\Tools\MSVC\14.38.33030\include\xstring
;	COMDAT ?copy@?$_Char_traits@DH@std@@SAPEADQEADQEBD_K@Z
_TEXT	SEGMENT
_Idx$1 = 0
_First1$ = 96
_First2$ = 104
_Count$ = 112
?copy@?$_Char_traits@DH@std@@SAPEADQEADQEBD_K@Z PROC	; std::_Char_traits<char,int>::copy, COMDAT

; 49   :         _In_reads_(_Count) const _Elem* const _First2, const size_t _Count) noexcept /* strengthened */ {

$LN7:
  00000	4c 89 44 24 18	 mov	 QWORD PTR [rsp+24], r8
  00005	48 89 54 24 10	 mov	 QWORD PTR [rsp+16], rdx
  0000a	48 89 4c 24 08	 mov	 QWORD PTR [rsp+8], rcx
  0000f	55		 push	 rbp
  00010	48 83 ec 70	 sub	 rsp, 112		; 00000070H
  00014	48 8d 6c 24 20	 lea	 rbp, QWORD PTR [rsp+32]
  00019	48 8d 0d 00 00
	00 00		 lea	 rcx, OFFSET FLAT:__1326DD76_xstring
  00020	e8 00 00 00 00	 call	 __CheckForDebuggerJustMyCode

; 50   :         // copy [_First2, _First2 + _Count) to [_First1, ...)
; 51   : #if _HAS_MEMCPY_MEMMOVE_INTRINSICS
; 52   :         __builtin_memcpy(_First1, _First2, _Count * sizeof(_Elem));
; 53   : #else // ^^^ _HAS_MEMCPY_MEMMOVE_INTRINSICS / !_HAS_MEMCPY_MEMMOVE_INTRINSICS vvv
; 54   : #if _HAS_CXX20
; 55   :         if (_STD is_constant_evaluated()) {

  00025	e8 00 00 00 00	 call	 ?is_constant_evaluated@std@@YA_NXZ ; std::is_constant_evaluated
  0002a	0f b6 c0	 movzx	 eax, al
  0002d	85 c0		 test	 eax, eax
  0002f	74 48		 je	 SHORT $LN5@copy

; 56   :             // pre: [_First1, _First1 + _Count) and [_First2, _First2 + _Count) do not overlap
; 57   :             for (size_t _Idx = 0; _Idx != _Count; ++_Idx) {

  00031	48 c7 45 00 00
	00 00 00	 mov	 QWORD PTR _Idx$1[rbp], 0
  00039	eb 0b		 jmp	 SHORT $LN4@copy
$LN2@copy:
  0003b	48 8b 45 00	 mov	 rax, QWORD PTR _Idx$1[rbp]
  0003f	48 ff c0	 inc	 rax
  00042	48 89 45 00	 mov	 QWORD PTR _Idx$1[rbp], rax
$LN4@copy:
  00046	48 8b 45 70	 mov	 rax, QWORD PTR _Count$[rbp]
  0004a	48 39 45 00	 cmp	 QWORD PTR _Idx$1[rbp], rax
  0004e	74 23		 je	 SHORT $LN3@copy

; 58   :                 _First1[_Idx] = _First2[_Idx];

  00050	48 8b 45 00	 mov	 rax, QWORD PTR _Idx$1[rbp]
  00054	48 8b 4d 60	 mov	 rcx, QWORD PTR _First1$[rbp]
  00058	48 03 c8	 add	 rcx, rax
  0005b	48 8b c1	 mov	 rax, rcx
  0005e	48 8b 4d 00	 mov	 rcx, QWORD PTR _Idx$1[rbp]
  00062	48 8b 55 68	 mov	 rdx, QWORD PTR _First2$[rbp]
  00066	48 03 d1	 add	 rdx, rcx
  00069	48 8b ca	 mov	 rcx, rdx
  0006c	0f b6 09	 movzx	 ecx, BYTE PTR [rcx]
  0006f	88 08		 mov	 BYTE PTR [rax], cl

; 59   :             }

  00071	eb c8		 jmp	 SHORT $LN2@copy
$LN3@copy:

; 60   : 
; 61   :             return _First1;

  00073	48 8b 45 60	 mov	 rax, QWORD PTR _First1$[rbp]
  00077	eb 15		 jmp	 SHORT $LN1@copy
$LN5@copy:

; 62   :         }
; 63   : #endif // _HAS_CXX20
; 64   : 
; 65   :         _CSTD memcpy(_First1, _First2, _Count * sizeof(_Elem));

  00079	4c 8b 45 70	 mov	 r8, QWORD PTR _Count$[rbp]
  0007d	48 8b 55 68	 mov	 rdx, QWORD PTR _First2$[rbp]
  00081	48 8b 4d 60	 mov	 rcx, QWORD PTR _First1$[rbp]
  00085	e8 00 00 00 00	 call	 memcpy

; 66   : #endif // ^^^ !_HAS_MEMCPY_MEMMOVE_INTRINSICS ^^^
; 67   : 
; 68   :         return _First1;

  0008a	48 8b 45 60	 mov	 rax, QWORD PTR _First1$[rbp]
$LN1@copy:

; 69   :     }

  0008e	48 8d 65 50	 lea	 rsp, QWORD PTR [rbp+80]
  00092	5d		 pop	 rbp
  00093	c3		 ret	 0
?copy@?$_Char_traits@DH@std@@SAPEADQEADQEBD_K@Z ENDP	; std::_Char_traits<char,int>::copy
_TEXT	ENDS
; Function compile flags: /Odtp /ZI
; File C:\Program Files\Microsoft Visual Studio\2022\Preview\VC\Tools\MSVC\14.38.33030\include\xutility
;	COMDAT ??$_Construct_in_place@U_Container_proxy@std@@PEAU_Container_base12@2@@std@@YAXAEAU_Container_proxy@0@$$QEAPEAU_Container_base12@0@@Z
_TEXT	SEGMENT
$T1 = 64
_Obj$ = 96
<_Args_0>$ = 104
??$_Construct_in_place@U_Container_proxy@std@@PEAU_Container_base12@2@@std@@YAXAEAU_Container_proxy@0@$$QEAPEAU_Container_base12@0@@Z PROC ; std::_Construct_in_place<std::_Container_proxy,std::_Container_base12 *>, COMDAT

; 248  :     is_nothrow_constructible_v<_Ty, _Types...>) {

$LN5:
  00000	48 89 54 24 10	 mov	 QWORD PTR [rsp+16], rdx
  00005	48 89 4c 24 08	 mov	 QWORD PTR [rsp+8], rcx
  0000a	55		 push	 rbp
  0000b	48 83 ec 70	 sub	 rsp, 112		; 00000070H
  0000f	48 8d 6c 24 20	 lea	 rbp, QWORD PTR [rsp+32]
  00014	48 8d 0d 00 00
	00 00		 lea	 rcx, OFFSET FLAT:__B7320FC0_xutility
  0001b	e8 00 00 00 00	 call	 __CheckForDebuggerJustMyCode

; 249  : #if _HAS_CXX20
; 250  :     if (_STD is_constant_evaluated()) {

  00020	e8 00 00 00 00	 call	 ?is_constant_evaluated@std@@YA_NXZ ; std::is_constant_evaluated
  00025	0f b6 c0	 movzx	 eax, al
  00028	85 c0		 test	 eax, eax
  0002a	74 17		 je	 SHORT $LN2@Construct_

; 251  :         _STD construct_at(_STD addressof(_Obj), _STD forward<_Types>(_Args)...);

  0002c	48 8b 4d 60	 mov	 rcx, QWORD PTR _Obj$[rbp]
  00030	e8 00 00 00 00	 call	 ??$addressof@U_Container_proxy@std@@@std@@YAPEAU_Container_proxy@0@AEAU10@@Z ; std::addressof<std::_Container_proxy>
  00035	48 8b 55 68	 mov	 rdx, QWORD PTR <_Args_0>$[rbp]
  00039	48 8b c8	 mov	 rcx, rax
  0003c	e8 00 00 00 00	 call	 ??$construct_at@U_Container_proxy@std@@PEAU_Container_base12@2@$0A@@std@@YAPEAU_Container_proxy@0@QEAU10@$$QEAPEAU_Container_base12@0@@Z ; std::construct_at<std::_Container_proxy,std::_Container_base12 *,0>

; 252  :     } else

  00041	eb 2a		 jmp	 SHORT $LN3@Construct_
$LN2@Construct_:

; 253  : #endif // _HAS_CXX20
; 254  :     {
; 255  :         ::new (static_cast<void*>(_STD addressof(_Obj))) _Ty(_STD forward<_Types>(_Args)...);

  00043	48 8b 4d 60	 mov	 rcx, QWORD PTR _Obj$[rbp]
  00047	e8 00 00 00 00	 call	 ??$addressof@U_Container_proxy@std@@@std@@YAPEAU_Container_proxy@0@AEAU10@@Z ; std::addressof<std::_Container_proxy>
  0004c	48 8b d0	 mov	 rdx, rax
  0004f	b9 10 00 00 00	 mov	 ecx, 16
  00054	e8 00 00 00 00	 call	 ??2@YAPEAX_KPEAX@Z	; operator new
  00059	48 89 45 40	 mov	 QWORD PTR $T1[rbp], rax
  0005d	48 8b 45 68	 mov	 rax, QWORD PTR <_Args_0>$[rbp]
  00061	48 8b 10	 mov	 rdx, QWORD PTR [rax]
  00064	48 8b 4d 40	 mov	 rcx, QWORD PTR $T1[rbp]
  00068	e8 00 00 00 00	 call	 ??0_Container_proxy@std@@QEAA@PEAU_Container_base12@1@@Z ; std::_Container_proxy::_Container_proxy
$LN3@Construct_:

; 256  :     }
; 257  : }

  0006d	48 8d 65 50	 lea	 rsp, QWORD PTR [rbp+80]
  00071	5d		 pop	 rbp
  00072	c3		 ret	 0
??$_Construct_in_place@U_Container_proxy@std@@PEAU_Container_base12@2@@std@@YAXAEAU_Container_proxy@0@$$QEAPEAU_Container_base12@0@@Z ENDP ; std::_Construct_in_place<std::_Container_proxy,std::_Container_base12 *>
_TEXT	ENDS
; Function compile flags: /Odtp /ZI
; File C:\Program Files\Microsoft Visual Studio\2022\Preview\VC\Tools\MSVC\14.38.33030\include\type_traits
;	COMDAT ??$addressof@U_Container_base12@std@@@std@@YAPEAU_Container_base12@0@AEAU10@@Z
_TEXT	SEGMENT
_Val$ = 80
??$addressof@U_Container_base12@std@@@std@@YAPEAU_Container_base12@0@AEAU10@@Z PROC ; std::addressof<std::_Container_base12>, COMDAT

; 1589 : _NODISCARD constexpr _Ty* addressof(_Ty& _Val) noexcept {

$LN3:
  00000	48 89 4c 24 08	 mov	 QWORD PTR [rsp+8], rcx
  00005	55		 push	 rbp
  00006	48 83 ec 60	 sub	 rsp, 96			; 00000060H
  0000a	48 8d 6c 24 20	 lea	 rbp, QWORD PTR [rsp+32]
  0000f	48 8d 0d 00 00
	00 00		 lea	 rcx, OFFSET FLAT:__3DF2A533_type_traits
  00016	e8 00 00 00 00	 call	 __CheckForDebuggerJustMyCode

; 1590 :     return __builtin_addressof(_Val);

  0001b	48 8b 45 50	 mov	 rax, QWORD PTR _Val$[rbp]

; 1591 : }

  0001f	48 8d 65 40	 lea	 rsp, QWORD PTR [rbp+64]
  00023	5d		 pop	 rbp
  00024	c3		 ret	 0
??$addressof@U_Container_base12@std@@@std@@YAPEAU_Container_base12@0@AEAU10@@Z ENDP ; std::addressof<std::_Container_base12>
_TEXT	ENDS
; Function compile flags: /Odtp /ZI
; File C:\Program Files\Microsoft Visual Studio\2022\Preview\VC\Tools\MSVC\14.38.33030\include\xmemory
;	COMDAT ??0_Basic_container_proxy_ptr12@std@@IEAA@XZ
_TEXT	SEGMENT
this$ = 80
??0_Basic_container_proxy_ptr12@std@@IEAA@XZ PROC	; std::_Basic_container_proxy_ptr12::_Basic_container_proxy_ptr12, COMDAT

; 1453 :     _CONSTEXPR20 _Basic_container_proxy_ptr12()                       = default;

$LN3:
  00000	48 89 4c 24 08	 mov	 QWORD PTR [rsp+8], rcx
  00005	55		 push	 rbp
  00006	48 83 ec 60	 sub	 rsp, 96			; 00000060H
  0000a	48 8d 6c 24 20	 lea	 rbp, QWORD PTR [rsp+32]
  0000f	48 8d 0d 00 00
	00 00		 lea	 rcx, OFFSET FLAT:__67F55BEA_xmemory
  00016	e8 00 00 00 00	 call	 __CheckForDebuggerJustMyCode

; 1446 :     _Container_proxy* _Ptr = nullptr;

  0001b	48 8b 45 50	 mov	 rax, QWORD PTR this$[rbp]
  0001f	48 c7 00 00 00
	00 00		 mov	 QWORD PTR [rax], 0

; 1453 :     _CONSTEXPR20 _Basic_container_proxy_ptr12()                       = default;

  00026	48 8b 45 50	 mov	 rax, QWORD PTR this$[rbp]
  0002a	48 8d 65 40	 lea	 rsp, QWORD PTR [rbp+64]
  0002e	5d		 pop	 rbp
  0002f	c3		 ret	 0
??0_Basic_container_proxy_ptr12@std@@IEAA@XZ ENDP	; std::_Basic_container_proxy_ptr12::_Basic_container_proxy_ptr12
_TEXT	ENDS
; Function compile flags: /Odtp /ZI
; File C:\Program Files\Microsoft Visual Studio\2022\Preview\VC\Tools\MSVC\14.38.33030\include\xmemory
;	COMDAT ?_Release@_Basic_container_proxy_ptr12@std@@QEAAXXZ
_TEXT	SEGMENT
this$ = 80
?_Release@_Basic_container_proxy_ptr12@std@@QEAAXXZ PROC ; std::_Basic_container_proxy_ptr12::_Release, COMDAT

; 1448 :     constexpr void _Release() noexcept { // disengage this _Basic_container_proxy_ptr12

$LN3:
  00000	48 89 4c 24 08	 mov	 QWORD PTR [rsp+8], rcx
  00005	55		 push	 rbp
  00006	48 83 ec 60	 sub	 rsp, 96			; 00000060H
  0000a	48 8d 6c 24 20	 lea	 rbp, QWORD PTR [rsp+32]
  0000f	48 8d 0d 00 00
	00 00		 lea	 rcx, OFFSET FLAT:__67F55BEA_xmemory
  00016	e8 00 00 00 00	 call	 __CheckForDebuggerJustMyCode

; 1449 :         _Ptr = nullptr;

  0001b	48 8b 45 50	 mov	 rax, QWORD PTR this$[rbp]
  0001f	48 c7 00 00 00
	00 00		 mov	 QWORD PTR [rax], 0

; 1450 :     }

  00026	48 8d 65 40	 lea	 rsp, QWORD PTR [rbp+64]
  0002a	5d		 pop	 rbp
  0002b	c3		 ret	 0
?_Release@_Basic_container_proxy_ptr12@std@@QEAAXXZ ENDP ; std::_Basic_container_proxy_ptr12::_Release
_TEXT	ENDS
; Function compile flags: /Odtp /ZI
; File C:\Program Files\Microsoft Visual Studio\2022\Preview\VC\Tools\MSVC\14.38.33030\include\utility
;	COMDAT ??$exchange@PEAU_Iterator_base12@std@@$$T@std@@YAPEAU_Iterator_base12@0@AEAPEAU10@$$QEA$$T@Z
_TEXT	SEGMENT
_Old_val$ = 0
_Val$ = 96
_New_val$ = 104
??$exchange@PEAU_Iterator_base12@std@@$$T@std@@YAPEAU_Iterator_base12@0@AEAPEAU10@$$QEA$$T@Z PROC ; std::exchange<std::_Iterator_base12 *,std::nullptr_t>, COMDAT

; 760  :     conjunction_v<is_nothrow_move_constructible<_Ty>, is_nothrow_assignable<_Ty&, _Other>>) {

$LN3:
  00000	48 89 54 24 10	 mov	 QWORD PTR [rsp+16], rdx
  00005	48 89 4c 24 08	 mov	 QWORD PTR [rsp+8], rcx
  0000a	55		 push	 rbp
  0000b	48 83 ec 70	 sub	 rsp, 112		; 00000070H
  0000f	48 8d 6c 24 20	 lea	 rbp, QWORD PTR [rsp+32]
  00014	48 8d 0d 00 00
	00 00		 lea	 rcx, OFFSET FLAT:__0D603829_utility
  0001b	e8 00 00 00 00	 call	 __CheckForDebuggerJustMyCode

; 761  :     // assign _New_val to _Val, return previous _Val
; 762  :     _Ty _Old_val = static_cast<_Ty&&>(_Val);

  00020	48 8b 45 60	 mov	 rax, QWORD PTR _Val$[rbp]
  00024	48 8b 00	 mov	 rax, QWORD PTR [rax]
  00027	48 89 45 00	 mov	 QWORD PTR _Old_val$[rbp], rax

; 763  :     _Val         = static_cast<_Other&&>(_New_val);

  0002b	48 8b 45 60	 mov	 rax, QWORD PTR _Val$[rbp]
  0002f	48 8b 4d 68	 mov	 rcx, QWORD PTR _New_val$[rbp]
  00033	48 8b 09	 mov	 rcx, QWORD PTR [rcx]
  00036	48 89 08	 mov	 QWORD PTR [rax], rcx

; 764  :     return _Old_val;

  00039	48 8b 45 00	 mov	 rax, QWORD PTR _Old_val$[rbp]

; 765  : }

  0003d	48 8d 65 50	 lea	 rsp, QWORD PTR [rbp+80]
  00041	5d		 pop	 rbp
  00042	c3		 ret	 0
??$exchange@PEAU_Iterator_base12@std@@$$T@std@@YAPEAU_Iterator_base12@0@AEAPEAU10@$$QEA$$T@Z ENDP ; std::exchange<std::_Iterator_base12 *,std::nullptr_t>
_TEXT	ENDS
; Function compile flags: /Odtp /ZI
; File C:\Program Files\Microsoft Visual Studio\2022\Preview\VC\Tools\MSVC\14.38.33030\include\xmemory
;	COMDAT ?_Orphan_all_locked_v3@_Container_base12@std@@AEAAXXZ
_TEXT	SEGMENT
_Lock$ = 0
this$ = 96
?_Orphan_all_locked_v3@_Container_base12@std@@AEAAXXZ PROC ; std::_Container_base12::_Orphan_all_locked_v3, COMDAT

; 1229 :     void _Orphan_all_locked_v3() noexcept {

$LN3:
  00000	48 89 4c 24 08	 mov	 QWORD PTR [rsp+8], rcx
  00005	55		 push	 rbp
  00006	48 83 ec 70	 sub	 rsp, 112		; 00000070H
  0000a	48 8d 6c 24 20	 lea	 rbp, QWORD PTR [rsp+32]
  0000f	48 8d 0d 00 00
	00 00		 lea	 rcx, OFFSET FLAT:__67F55BEA_xmemory
  00016	e8 00 00 00 00	 call	 __CheckForDebuggerJustMyCode

; 1230 :         _Lockit _Lock(_LOCK_DEBUG);

  0001b	ba 03 00 00 00	 mov	 edx, 3
  00020	48 8d 4d 00	 lea	 rcx, QWORD PTR _Lock$[rbp]
  00024	ff 15 00 00 00
	00		 call	 QWORD PTR __imp_??0_Lockit@std@@QEAA@H@Z

; 1231 :         _Orphan_all_unlocked_v3();

  0002a	48 8b 4d 60	 mov	 rcx, QWORD PTR this$[rbp]
  0002e	e8 00 00 00 00	 call	 ?_Orphan_all_unlocked_v3@_Container_base12@std@@AEAAXXZ ; std::_Container_base12::_Orphan_all_unlocked_v3

; 1232 :     }

  00033	48 8d 4d 00	 lea	 rcx, QWORD PTR _Lock$[rbp]
  00037	ff 15 00 00 00
	00		 call	 QWORD PTR __imp_??1_Lockit@std@@QEAA@XZ
  0003d	48 8d 65 50	 lea	 rsp, QWORD PTR [rbp+80]
  00041	5d		 pop	 rbp
  00042	c3		 ret	 0
?_Orphan_all_locked_v3@_Container_base12@std@@AEAAXXZ ENDP ; std::_Container_base12::_Orphan_all_locked_v3
_TEXT	ENDS
; Function compile flags: /Odtp /ZI
; File C:\Program Files\Microsoft Visual Studio\2022\Preview\VC\Tools\MSVC\14.38.33030\include\xmemory
;	COMDAT ?_Orphan_all_unlocked_v3@_Container_base12@std@@AEAAXXZ
_TEXT	SEGMENT
_Pnext$1 = 0
$T2 = 72
this$ = 96
?_Orphan_all_unlocked_v3@_Container_base12@std@@AEAAXXZ PROC ; std::_Container_base12::_Orphan_all_unlocked_v3, COMDAT

; 1369 : _CONSTEXPR20 void _Container_base12::_Orphan_all_unlocked_v3() noexcept {

$LN7:
  00000	48 89 4c 24 08	 mov	 QWORD PTR [rsp+8], rcx
  00005	55		 push	 rbp
  00006	48 83 ec 70	 sub	 rsp, 112		; 00000070H
  0000a	48 8d 6c 24 20	 lea	 rbp, QWORD PTR [rsp+32]
  0000f	48 8d 0d 00 00
	00 00		 lea	 rcx, OFFSET FLAT:__67F55BEA_xmemory
  00016	e8 00 00 00 00	 call	 __CheckForDebuggerJustMyCode

; 1370 :     if (!_Myproxy) { // no proxy, already done

  0001b	48 8b 45 60	 mov	 rax, QWORD PTR this$[rbp]
  0001f	48 83 38 00	 cmp	 QWORD PTR [rax], 0
  00023	75 02		 jne	 SHORT $LN5@Orphan_all

; 1371 :         return;

  00025	eb 45		 jmp	 SHORT $LN1@Orphan_all
$LN5@Orphan_all:

; 1372 :     }
; 1373 : 
; 1374 :     // proxy allocated, drain it
; 1375 :     for (auto _Pnext = _STD exchange(_Myproxy->_Myfirstiter, nullptr); _Pnext; _Pnext = _Pnext->_Mynextiter) {

  00027	48 c7 45 48 00
	00 00 00	 mov	 QWORD PTR $T2[rbp], 0
  0002f	48 8b 45 60	 mov	 rax, QWORD PTR this$[rbp]
  00033	48 8b 00	 mov	 rax, QWORD PTR [rax]
  00036	48 83 c0 08	 add	 rax, 8
  0003a	48 8d 55 48	 lea	 rdx, QWORD PTR $T2[rbp]
  0003e	48 8b c8	 mov	 rcx, rax
  00041	e8 00 00 00 00	 call	 ??$exchange@PEAU_Iterator_base12@std@@$$T@std@@YAPEAU_Iterator_base12@0@AEAPEAU10@$$QEA$$T@Z ; std::exchange<std::_Iterator_base12 *,std::nullptr_t>
  00046	48 89 45 00	 mov	 QWORD PTR _Pnext$1[rbp], rax
  0004a	eb 0c		 jmp	 SHORT $LN4@Orphan_all
$LN2@Orphan_all:
  0004c	48 8b 45 00	 mov	 rax, QWORD PTR _Pnext$1[rbp]
  00050	48 8b 40 08	 mov	 rax, QWORD PTR [rax+8]
  00054	48 89 45 00	 mov	 QWORD PTR _Pnext$1[rbp], rax
$LN4@Orphan_all:
  00058	48 83 7d 00 00	 cmp	 QWORD PTR _Pnext$1[rbp], 0
  0005d	74 0d		 je	 SHORT $LN1@Orphan_all

; 1376 :         _Pnext->_Myproxy = nullptr;

  0005f	48 8b 45 00	 mov	 rax, QWORD PTR _Pnext$1[rbp]
  00063	48 c7 00 00 00
	00 00		 mov	 QWORD PTR [rax], 0

; 1377 :     }

  0006a	eb e0		 jmp	 SHORT $LN2@Orphan_all
$LN1@Orphan_all:

; 1378 : }

  0006c	48 8d 65 50	 lea	 rsp, QWORD PTR [rbp+80]
  00070	5d		 pop	 rbp
  00071	c3		 ret	 0
?_Orphan_all_unlocked_v3@_Container_base12@std@@AEAAXXZ ENDP ; std::_Container_base12::_Orphan_all_unlocked_v3
_TEXT	ENDS
; Function compile flags: /Odtp /ZI
; File C:\Program Files\Microsoft Visual Studio\2022\Preview\VC\Tools\MSVC\14.38.33030\include\xmemory
;	COMDAT ?_Orphan_all@_Container_base12@std@@QEAAXXZ
_TEXT	SEGMENT
this$ = 80
?_Orphan_all@_Container_base12@std@@QEAAXXZ PROC	; std::_Container_base12::_Orphan_all, COMDAT

; 1380 : _CONSTEXPR20 void _Container_base12::_Orphan_all() noexcept {

$LN5:
  00000	48 89 4c 24 08	 mov	 QWORD PTR [rsp+8], rcx
  00005	55		 push	 rbp
  00006	48 83 ec 60	 sub	 rsp, 96			; 00000060H
  0000a	48 8d 6c 24 20	 lea	 rbp, QWORD PTR [rsp+32]
  0000f	48 8d 0d 00 00
	00 00		 lea	 rcx, OFFSET FLAT:__67F55BEA_xmemory
  00016	e8 00 00 00 00	 call	 __CheckForDebuggerJustMyCode

; 1381 : #if _ITERATOR_DEBUG_LEVEL == 2
; 1382 : #if _HAS_CXX20
; 1383 :     if (_STD is_constant_evaluated()) {

  0001b	e8 00 00 00 00	 call	 ?is_constant_evaluated@std@@YA_NXZ ; std::is_constant_evaluated
  00020	0f b6 c0	 movzx	 eax, al
  00023	85 c0		 test	 eax, eax
  00025	74 0b		 je	 SHORT $LN2@Orphan_all

; 1384 :         _Orphan_all_unlocked_v3();

  00027	48 8b 4d 50	 mov	 rcx, QWORD PTR this$[rbp]
  0002b	e8 00 00 00 00	 call	 ?_Orphan_all_unlocked_v3@_Container_base12@std@@AEAAXXZ ; std::_Container_base12::_Orphan_all_unlocked_v3

; 1385 :     } else

  00030	eb 09		 jmp	 SHORT $LN3@Orphan_all
$LN2@Orphan_all:

; 1386 : #endif // _HAS_CXX20
; 1387 :     {
; 1388 :         _Orphan_all_locked_v3();

  00032	48 8b 4d 50	 mov	 rcx, QWORD PTR this$[rbp]
  00036	e8 00 00 00 00	 call	 ?_Orphan_all_locked_v3@_Container_base12@std@@AEAAXXZ ; std::_Container_base12::_Orphan_all_locked_v3
$LN3@Orphan_all:

; 1389 :     }
; 1390 : #endif // _ITERATOR_DEBUG_LEVEL == 2
; 1391 : }

  0003b	48 8d 65 40	 lea	 rsp, QWORD PTR [rbp+64]
  0003f	5d		 pop	 rbp
  00040	c3		 ret	 0
?_Orphan_all@_Container_base12@std@@QEAAXXZ ENDP	; std::_Container_base12::_Orphan_all
_TEXT	ENDS
; Function compile flags: /Odtp /ZI
; File C:\Program Files\Microsoft Visual Studio\2022\Preview\VC\Tools\MSVC\14.38.33030\include\xmemory
;	COMDAT ??0_Container_base12@std@@QEAA@XZ
_TEXT	SEGMENT
this$ = 80
??0_Container_base12@std@@QEAA@XZ PROC			; std::_Container_base12::_Container_base12, COMDAT

; 1198 :     _CONSTEXPR20 _Container_base12() noexcept = default;

$LN3:
  00000	48 89 4c 24 08	 mov	 QWORD PTR [rsp+8], rcx
  00005	55		 push	 rbp
  00006	48 83 ec 60	 sub	 rsp, 96			; 00000060H
  0000a	48 8d 6c 24 20	 lea	 rbp, QWORD PTR [rsp+32]
  0000f	48 8d 0d 00 00
	00 00		 lea	 rcx, OFFSET FLAT:__67F55BEA_xmemory
  00016	e8 00 00 00 00	 call	 __CheckForDebuggerJustMyCode

; 1199 : 
; 1200 :     _Container_base12(const _Container_base12&)            = delete;
; 1201 :     _Container_base12& operator=(const _Container_base12&) = delete;
; 1202 : 
; 1203 :     _CONSTEXPR20 void _Orphan_all() noexcept;
; 1204 :     _CONSTEXPR20 void _Swap_proxy_and_iterators(_Container_base12&) noexcept;
; 1205 : 
; 1206 :     template <class _Alloc>
; 1207 :     _CONSTEXPR20 void _Alloc_proxy(_Alloc&& _Al) {
; 1208 :         _Container_proxy* const _New_proxy = _Unfancy(_Al.allocate(1));
; 1209 :         _Construct_in_place(*_New_proxy, this);
; 1210 :         _Myproxy            = _New_proxy;
; 1211 :         _New_proxy->_Mycont = this;
; 1212 :     }
; 1213 : 
; 1214 :     template <class _Alloc>
; 1215 :     _CONSTEXPR20 void _Reload_proxy(_Alloc&& _Old_alloc, _Alloc&& _New_alloc) {
; 1216 :         // pre: no iterators refer to the existing proxy
; 1217 :         _Container_proxy* const _New_proxy = _Unfancy(_New_alloc.allocate(1));
; 1218 :         _Construct_in_place(*_New_proxy, this);
; 1219 :         _New_proxy->_Mycont = this;
; 1220 :         _Delete_plain_internal(_Old_alloc, _STD exchange(_Myproxy, _New_proxy));
; 1221 :     }
; 1222 : 
; 1223 :     _Container_proxy* _Myproxy = nullptr;

  0001b	48 8b 45 50	 mov	 rax, QWORD PTR this$[rbp]
  0001f	48 c7 00 00 00
	00 00		 mov	 QWORD PTR [rax], 0

; 1198 :     _CONSTEXPR20 _Container_base12() noexcept = default;

  00026	48 8b 45 50	 mov	 rax, QWORD PTR this$[rbp]
  0002a	48 8d 65 40	 lea	 rsp, QWORD PTR [rbp+64]
  0002e	5d		 pop	 rbp
  0002f	c3		 ret	 0
??0_Container_base12@std@@QEAA@XZ ENDP			; std::_Container_base12::_Container_base12
_TEXT	ENDS
; Function compile flags: /Odtp /ZI
; File C:\Program Files\Microsoft Visual Studio\2022\Preview\VC\Tools\MSVC\14.38.33030\include\xmemory
;	COMDAT ??0_Container_proxy@std@@QEAA@PEAU_Container_base12@1@@Z
_TEXT	SEGMENT
this$ = 80
_Mycont_$ = 88
??0_Container_proxy@std@@QEAA@PEAU_Container_base12@1@@Z PROC ; std::_Container_proxy::_Container_proxy, COMDAT

; 1190 :     _CONSTEXPR20 _Container_proxy(_Container_base12* _Mycont_) noexcept : _Mycont(_Mycont_) {}

$LN3:
  00000	48 89 54 24 10	 mov	 QWORD PTR [rsp+16], rdx
  00005	48 89 4c 24 08	 mov	 QWORD PTR [rsp+8], rcx
  0000a	55		 push	 rbp
  0000b	48 83 ec 60	 sub	 rsp, 96			; 00000060H
  0000f	48 8d 6c 24 20	 lea	 rbp, QWORD PTR [rsp+32]
  00014	48 8d 0d 00 00
	00 00		 lea	 rcx, OFFSET FLAT:__67F55BEA_xmemory
  0001b	e8 00 00 00 00	 call	 __CheckForDebuggerJustMyCode
  00020	48 8b 45 50	 mov	 rax, QWORD PTR this$[rbp]
  00024	48 8b 4d 58	 mov	 rcx, QWORD PTR _Mycont_$[rbp]
  00028	48 89 08	 mov	 QWORD PTR [rax], rcx

; 1191 : 
; 1192 :     const _Container_base12* _Mycont       = nullptr;
; 1193 :     mutable _Iterator_base12* _Myfirstiter = nullptr;

  0002b	48 8b 45 50	 mov	 rax, QWORD PTR this$[rbp]
  0002f	48 c7 40 08 00
	00 00 00	 mov	 QWORD PTR [rax+8], 0

; 1190 :     _CONSTEXPR20 _Container_proxy(_Container_base12* _Mycont_) noexcept : _Mycont(_Mycont_) {}

  00037	48 8b 45 50	 mov	 rax, QWORD PTR this$[rbp]
  0003b	48 8d 65 40	 lea	 rsp, QWORD PTR [rbp+64]
  0003f	5d		 pop	 rbp
  00040	c3		 ret	 0
??0_Container_proxy@std@@QEAA@PEAU_Container_base12@1@@Z ENDP ; std::_Container_proxy::_Container_proxy
_TEXT	ENDS
; Function compile flags: /Odtp /ZI
; File C:\Program Files\Microsoft Visual Studio\2022\Preview\VC\Tools\MSVC\14.38.33030\include\xmemory
;	COMDAT ?_Adjust_manually_vector_aligned@std@@YAXAEAPEAXAEA_K@Z
_TEXT	SEGMENT
_Ptr_user$ = 0
_Ptr_container$ = 8
_Min_back_shift$ = 16
_Back_shift$ = 24
_Ptr$ = 112
_Bytes$ = 120
?_Adjust_manually_vector_aligned@std@@YAXAEAPEAXAEA_K@Z PROC ; std::_Adjust_manually_vector_aligned, COMDAT

; 154  : inline void _Adjust_manually_vector_aligned(void*& _Ptr, size_t& _Bytes) {

$LN21:
  00000	48 89 54 24 10	 mov	 QWORD PTR [rsp+16], rdx
  00005	48 89 4c 24 08	 mov	 QWORD PTR [rsp+8], rcx
  0000a	55		 push	 rbp
  0000b	48 81 ec 90 00
	00 00		 sub	 rsp, 144		; 00000090H
  00012	48 8d 6c 24 30	 lea	 rbp, QWORD PTR [rsp+48]
  00017	48 8d 0d 00 00
	00 00		 lea	 rcx, OFFSET FLAT:__67F55BEA_xmemory
  0001e	e8 00 00 00 00	 call	 __CheckForDebuggerJustMyCode

; 155  :     // adjust parameters from _Allocate_manually_vector_aligned to pass to operator delete
; 156  :     _Bytes += _Non_user_size;

  00023	48 8b 45 78	 mov	 rax, QWORD PTR _Bytes$[rbp]
  00027	48 8b 00	 mov	 rax, QWORD PTR [rax]
  0002a	48 83 c0 2f	 add	 rax, 47			; 0000002fH
  0002e	48 8b 4d 78	 mov	 rcx, QWORD PTR _Bytes$[rbp]
  00032	48 89 01	 mov	 QWORD PTR [rcx], rax

; 157  : 
; 158  :     const uintptr_t* const _Ptr_user = static_cast<uintptr_t*>(_Ptr);

  00035	48 8b 45 70	 mov	 rax, QWORD PTR _Ptr$[rbp]
  00039	48 8b 00	 mov	 rax, QWORD PTR [rax]
  0003c	48 89 45 00	 mov	 QWORD PTR _Ptr_user$[rbp], rax

; 159  :     const uintptr_t _Ptr_container   = _Ptr_user[-1];

  00040	b8 08 00 00 00	 mov	 eax, 8
  00045	48 6b c0 ff	 imul	 rax, rax, -1
  00049	48 8b 4d 00	 mov	 rcx, QWORD PTR _Ptr_user$[rbp]
  0004d	48 8b 04 01	 mov	 rax, QWORD PTR [rcx+rax]
  00051	48 89 45 08	 mov	 QWORD PTR _Ptr_container$[rbp], rax
$LN4@Adjust_man:

; 160  : 
; 161  :     // If the following asserts, it likely means that we are performing
; 162  :     // an aligned delete on memory coming from an unaligned allocation.
; 163  :     _STL_ASSERT(_Ptr_user[-2] == _Big_allocation_sentinel, "invalid argument");

  00055	b8 08 00 00 00	 mov	 eax, 8
  0005a	48 6b c0 fe	 imul	 rax, rax, -2
  0005e	48 8b 4d 00	 mov	 rcx, QWORD PTR _Ptr_user$[rbp]
  00062	48 ba fa fa fa
	fa fa fa fa fa	 mov	 rdx, -361700864190383366 ; fafafafafafafafaH
  0006c	48 39 14 01	 cmp	 QWORD PTR [rcx+rax], rdx
  00070	75 02		 jne	 SHORT $LN14@Adjust_man
  00072	eb 77		 jmp	 SHORT $LN15@Adjust_man
$LN14@Adjust_man:
$LN7@Adjust_man:
  00074	8b 05 00 00 00
	00		 mov	 eax, DWORD PTR ?__LINE__Var@?0??_Adjust_manually_vector_aligned@std@@YAXAEAPEAXAEA_K@Z@4JA
  0007a	83 c0 09	 add	 eax, 9
  0007d	48 8d 0d 00 00
	00 00		 lea	 rcx, OFFSET FLAT:??_C@_0BB@FCMFBGOM@invalid?5argument@
  00084	48 89 4c 24 28	 mov	 QWORD PTR [rsp+40], rcx
  00089	48 8d 0d 00 00
	00 00		 lea	 rcx, OFFSET FLAT:??_C@_02DKCKIIND@?$CFs@
  00090	48 89 4c 24 20	 mov	 QWORD PTR [rsp+32], rcx
  00095	45 33 c9	 xor	 r9d, r9d
  00098	44 8b c0	 mov	 r8d, eax
  0009b	48 8d 15 00 00
	00 00		 lea	 rdx, OFFSET FLAT:??_C@_0GA@FLDGEGM@C?3?2Program?5Files?2Microsoft?5Visu@
  000a2	b9 02 00 00 00	 mov	 ecx, 2
  000a7	ff 15 00 00 00
	00		 call	 QWORD PTR __imp__CrtDbgReport
  000ad	83 f8 01	 cmp	 eax, 1
  000b0	75 03		 jne	 SHORT $LN19@Adjust_man
  000b2	cc		 int	 3
  000b3	33 c0		 xor	 eax, eax
$LN19@Adjust_man:
  000b5	8b 05 00 00 00
	00		 mov	 eax, DWORD PTR ?__LINE__Var@?0??_Adjust_manually_vector_aligned@std@@YAXAEAPEAXAEA_K@Z@4JA
  000bb	83 c0 09	 add	 eax, 9
  000be	48 c7 44 24 20
	00 00 00 00	 mov	 QWORD PTR [rsp+32], 0
  000c7	44 8b c8	 mov	 r9d, eax
  000ca	4c 8d 05 00 00
	00 00		 lea	 r8, OFFSET FLAT:??_C@_1MA@IKJDCOIC@?$AAC?$AA?3?$AA?2?$AAP?$AAr?$AAo?$AAg?$AAr?$AAa?$AAm?$AA?5?$AAF?$AAi?$AAl?$AAe@
  000d1	48 8d 15 00 00
	00 00		 lea	 rdx, OFFSET FLAT:??_C@_11LOCGONAA@@
  000d8	48 8d 0d 00 00
	00 00		 lea	 rcx, OFFSET FLAT:??_C@_1CG@JNLFBNGN@?$AA?$CC?$AAi?$AAn?$AAv?$AAa?$AAl?$AAi?$AAd?$AA?5?$AAa?$AAr?$AAg?$AAu?$AAm?$AAe@
  000df	ff 15 00 00 00
	00		 call	 QWORD PTR __imp__invalid_parameter
  000e5	33 c0		 xor	 eax, eax
  000e7	85 c0		 test	 eax, eax
  000e9	75 89		 jne	 SHORT $LN7@Adjust_man
$LN15@Adjust_man:
  000eb	33 c0		 xor	 eax, eax
  000ed	85 c0		 test	 eax, eax
  000ef	0f 85 60 ff ff
	ff		 jne	 $LN4@Adjust_man

; 164  : 
; 165  :     // Extra paranoia on aligned allocation/deallocation; ensure _Ptr_container is
; 166  :     // in range [_Min_back_shift, _Non_user_size]
; 167  : #ifdef _DEBUG
; 168  :     constexpr uintptr_t _Min_back_shift = 2 * sizeof(void*);

  000f5	48 c7 45 10 10
	00 00 00	 mov	 QWORD PTR _Min_back_shift$[rbp], 16

; 169  : #else // ^^^ _DEBUG / !_DEBUG vvv
; 170  :     constexpr uintptr_t _Min_back_shift = sizeof(void*);
; 171  : #endif // _DEBUG
; 172  :     const uintptr_t _Back_shift = reinterpret_cast<uintptr_t>(_Ptr) - _Ptr_container;

  000fd	48 8b 45 70	 mov	 rax, QWORD PTR _Ptr$[rbp]
  00101	48 8b 4d 08	 mov	 rcx, QWORD PTR _Ptr_container$[rbp]
  00105	48 8b 00	 mov	 rax, QWORD PTR [rax]
  00108	48 2b c1	 sub	 rax, rcx
  0010b	48 89 45 18	 mov	 QWORD PTR _Back_shift$[rbp], rax
$LN10@Adjust_man:

; 173  :     _STL_VERIFY(_Back_shift >= _Min_back_shift && _Back_shift <= _Non_user_size, "invalid argument");

  0010f	48 83 7d 18 10	 cmp	 QWORD PTR _Back_shift$[rbp], 16
  00114	72 09		 jb	 SHORT $LN16@Adjust_man
  00116	48 83 7d 18 2f	 cmp	 QWORD PTR _Back_shift$[rbp], 47 ; 0000002fH
  0011b	77 02		 ja	 SHORT $LN16@Adjust_man
  0011d	eb 77		 jmp	 SHORT $LN17@Adjust_man
$LN16@Adjust_man:
$LN13@Adjust_man:
  0011f	8b 05 00 00 00
	00		 mov	 eax, DWORD PTR ?__LINE__Var@?0??_Adjust_manually_vector_aligned@std@@YAXAEAPEAXAEA_K@Z@4JA
  00125	83 c0 13	 add	 eax, 19
  00128	48 8d 0d 00 00
	00 00		 lea	 rcx, OFFSET FLAT:??_C@_0BB@FCMFBGOM@invalid?5argument@
  0012f	48 89 4c 24 28	 mov	 QWORD PTR [rsp+40], rcx
  00134	48 8d 0d 00 00
	00 00		 lea	 rcx, OFFSET FLAT:??_C@_02DKCKIIND@?$CFs@
  0013b	48 89 4c 24 20	 mov	 QWORD PTR [rsp+32], rcx
  00140	45 33 c9	 xor	 r9d, r9d
  00143	44 8b c0	 mov	 r8d, eax
  00146	48 8d 15 00 00
	00 00		 lea	 rdx, OFFSET FLAT:??_C@_0GA@FLDGEGM@C?3?2Program?5Files?2Microsoft?5Visu@
  0014d	b9 02 00 00 00	 mov	 ecx, 2
  00152	ff 15 00 00 00
	00		 call	 QWORD PTR __imp__CrtDbgReport
  00158	83 f8 01	 cmp	 eax, 1
  0015b	75 03		 jne	 SHORT $LN20@Adjust_man
  0015d	cc		 int	 3
  0015e	33 c0		 xor	 eax, eax
$LN20@Adjust_man:
  00160	8b 05 00 00 00
	00		 mov	 eax, DWORD PTR ?__LINE__Var@?0??_Adjust_manually_vector_aligned@std@@YAXAEAPEAXAEA_K@Z@4JA
  00166	83 c0 13	 add	 eax, 19
  00169	48 c7 44 24 20
	00 00 00 00	 mov	 QWORD PTR [rsp+32], 0
  00172	44 8b c8	 mov	 r9d, eax
  00175	4c 8d 05 00 00
	00 00		 lea	 r8, OFFSET FLAT:??_C@_1MA@IKJDCOIC@?$AAC?$AA?3?$AA?2?$AAP?$AAr?$AAo?$AAg?$AAr?$AAa?$AAm?$AA?5?$AAF?$AAi?$AAl?$AAe@
  0017c	48 8d 15 00 00
	00 00		 lea	 rdx, OFFSET FLAT:??_C@_11LOCGONAA@@
  00183	48 8d 0d 00 00
	00 00		 lea	 rcx, OFFSET FLAT:??_C@_1CG@JNLFBNGN@?$AA?$CC?$AAi?$AAn?$AAv?$AAa?$AAl?$AAi?$AAd?$AA?5?$AAa?$AAr?$AAg?$AAu?$AAm?$AAe@
  0018a	ff 15 00 00 00
	00		 call	 QWORD PTR __imp__invalid_parameter
  00190	33 c0		 xor	 eax, eax
  00192	85 c0		 test	 eax, eax
  00194	75 89		 jne	 SHORT $LN13@Adjust_man
$LN17@Adjust_man:
  00196	33 c0		 xor	 eax, eax
  00198	85 c0		 test	 eax, eax
  0019a	0f 85 6f ff ff
	ff		 jne	 $LN10@Adjust_man

; 174  :     _Ptr = reinterpret_cast<void*>(_Ptr_container);

  001a0	48 8b 45 70	 mov	 rax, QWORD PTR _Ptr$[rbp]
  001a4	48 8b 4d 08	 mov	 rcx, QWORD PTR _Ptr_container$[rbp]
  001a8	48 89 08	 mov	 QWORD PTR [rax], rcx

; 175  : }

  001ab	48 8d 65 60	 lea	 rsp, QWORD PTR [rbp+96]
  001af	5d		 pop	 rbp
  001b0	c3		 ret	 0
?_Adjust_manually_vector_aligned@std@@YAXAEAPEAXAEA_K@Z ENDP ; std::_Adjust_manually_vector_aligned
_TEXT	ENDS
; Function compile flags: /Odtp /ZI
; File C:\Program Files\Microsoft Visual Studio\2022\Preview\VC\Tools\MSVC\14.38.33030\include\xmemory
;	COMDAT ?_Allocate@_Default_allocate_traits@std@@SAPEAX_K@Z
_TEXT	SEGMENT
_Bytes$ = 80
?_Allocate@_Default_allocate_traits@std@@SAPEAX_K@Z PROC ; std::_Default_allocate_traits::_Allocate, COMDAT

; 85   :         void* _Allocate(const size_t _Bytes) {

$LN3:
  00000	48 89 4c 24 08	 mov	 QWORD PTR [rsp+8], rcx
  00005	55		 push	 rbp
  00006	48 83 ec 60	 sub	 rsp, 96			; 00000060H
  0000a	48 8d 6c 24 20	 lea	 rbp, QWORD PTR [rsp+32]
  0000f	48 8d 0d 00 00
	00 00		 lea	 rcx, OFFSET FLAT:__67F55BEA_xmemory
  00016	e8 00 00 00 00	 call	 __CheckForDebuggerJustMyCode

; 86   :         return ::operator new(_Bytes);

  0001b	48 8b 4d 50	 mov	 rcx, QWORD PTR _Bytes$[rbp]
  0001f	e8 00 00 00 00	 call	 ??2@YAPEAX_K@Z		; operator new

; 87   :     }

  00024	48 8d 65 40	 lea	 rsp, QWORD PTR [rbp+64]
  00028	5d		 pop	 rbp
  00029	c3		 ret	 0
?_Allocate@_Default_allocate_traits@std@@SAPEAX_K@Z ENDP ; std::_Default_allocate_traits::_Allocate
_TEXT	ENDS
; Function compile flags: /Odtp /ZI
; File C:\Program Files\Microsoft Visual Studio\2022\Preview\VC\Tools\MSVC\14.38.33030\include\exception
;	COMDAT ?_Throw_bad_array_new_length@std@@YAXXZ
_TEXT	SEGMENT
$T1 = 64
?_Throw_bad_array_new_length@std@@YAXXZ PROC		; std::_Throw_bad_array_new_length, COMDAT

; 330  : [[noreturn]] inline void _Throw_bad_array_new_length() {

$LN3:
  00000	40 55		 push	 rbp
  00002	48 81 ec 80 00
	00 00		 sub	 rsp, 128		; 00000080H
  00009	48 8d 6c 24 20	 lea	 rbp, QWORD PTR [rsp+32]
  0000e	48 8d 0d 00 00
	00 00		 lea	 rcx, OFFSET FLAT:__2DED1E19_exception
  00015	e8 00 00 00 00	 call	 __CheckForDebuggerJustMyCode

; 331  :     _THROW(bad_array_new_length{});

  0001a	48 8d 4d 40	 lea	 rcx, QWORD PTR $T1[rbp]
  0001e	e8 00 00 00 00	 call	 ??0bad_array_new_length@std@@QEAA@XZ ; std::bad_array_new_length::bad_array_new_length
  00023	48 8d 15 00 00
	00 00		 lea	 rdx, OFFSET FLAT:_TI3?AVbad_array_new_length@std@@
  0002a	48 8d 4d 40	 lea	 rcx, QWORD PTR $T1[rbp]
  0002e	e8 00 00 00 00	 call	 _CxxThrowException
$LN2@Throw_bad_:

; 332  : }

  00033	48 8d 65 60	 lea	 rsp, QWORD PTR [rbp+96]
  00037	5d		 pop	 rbp
  00038	c3		 ret	 0
?_Throw_bad_array_new_length@std@@YAXXZ ENDP		; std::_Throw_bad_array_new_length
_TEXT	ENDS
; Function compile flags: /Odtp /ZI
;	COMDAT ??_Gbad_array_new_length@std@@UEAAPEAXI@Z
_TEXT	SEGMENT
this$ = 80
__flags$ = 88
??_Gbad_array_new_length@std@@UEAAPEAXI@Z PROC		; std::bad_array_new_length::`scalar deleting destructor', COMDAT
$LN4:
  00000	89 54 24 10	 mov	 DWORD PTR [rsp+16], edx
  00004	48 89 4c 24 08	 mov	 QWORD PTR [rsp+8], rcx
  00009	55		 push	 rbp
  0000a	48 83 ec 60	 sub	 rsp, 96			; 00000060H
  0000e	48 8d 6c 24 20	 lea	 rbp, QWORD PTR [rsp+32]
  00013	48 8b 4d 50	 mov	 rcx, QWORD PTR this$[rbp]
  00017	e8 00 00 00 00	 call	 ??1bad_array_new_length@std@@UEAA@XZ
  0001c	8b 45 58	 mov	 eax, DWORD PTR __flags$[rbp]
  0001f	83 e0 01	 and	 eax, 1
  00022	85 c0		 test	 eax, eax
  00024	74 0e		 je	 SHORT $LN2@scalar
  00026	ba 18 00 00 00	 mov	 edx, 24
  0002b	48 8b 4d 50	 mov	 rcx, QWORD PTR this$[rbp]
  0002f	e8 00 00 00 00	 call	 ??3@YAXPEAX_K@Z		; operator delete
$LN2@scalar:
  00034	48 8b 45 50	 mov	 rax, QWORD PTR this$[rbp]
  00038	48 8d 65 40	 lea	 rsp, QWORD PTR [rbp+64]
  0003c	5d		 pop	 rbp
  0003d	c3		 ret	 0
??_Gbad_array_new_length@std@@UEAAPEAXI@Z ENDP		; std::bad_array_new_length::`scalar deleting destructor'
_TEXT	ENDS
; Function compile flags: /Odtp /ZI
;	COMDAT ??0bad_array_new_length@std@@QEAA@AEBV01@@Z
_TEXT	SEGMENT
this$ = 80
__that$ = 88
??0bad_array_new_length@std@@QEAA@AEBV01@@Z PROC	; std::bad_array_new_length::bad_array_new_length, COMDAT
$LN3:
  00000	48 89 54 24 10	 mov	 QWORD PTR [rsp+16], rdx
  00005	48 89 4c 24 08	 mov	 QWORD PTR [rsp+8], rcx
  0000a	55		 push	 rbp
  0000b	48 83 ec 60	 sub	 rsp, 96			; 00000060H
  0000f	48 8d 6c 24 20	 lea	 rbp, QWORD PTR [rsp+32]
  00014	48 8b 55 58	 mov	 rdx, QWORD PTR __that$[rbp]
  00018	48 8b 4d 50	 mov	 rcx, QWORD PTR this$[rbp]
  0001c	e8 00 00 00 00	 call	 ??0bad_alloc@std@@QEAA@AEBV01@@Z
  00021	48 8b 45 50	 mov	 rax, QWORD PTR this$[rbp]
  00025	48 8d 0d 00 00
	00 00		 lea	 rcx, OFFSET FLAT:??_7bad_array_new_length@std@@6B@
  0002c	48 89 08	 mov	 QWORD PTR [rax], rcx
  0002f	48 8b 45 50	 mov	 rax, QWORD PTR this$[rbp]
  00033	48 8d 65 40	 lea	 rsp, QWORD PTR [rbp+64]
  00037	5d		 pop	 rbp
  00038	c3		 ret	 0
??0bad_array_new_length@std@@QEAA@AEBV01@@Z ENDP	; std::bad_array_new_length::bad_array_new_length
_TEXT	ENDS
; Function compile flags: /Odtp /ZI
;	COMDAT ??1bad_array_new_length@std@@UEAA@XZ
_TEXT	SEGMENT
this$ = 80
??1bad_array_new_length@std@@UEAA@XZ PROC		; std::bad_array_new_length::~bad_array_new_length, COMDAT
$LN3:
  00000	48 89 4c 24 08	 mov	 QWORD PTR [rsp+8], rcx
  00005	55		 push	 rbp
  00006	48 83 ec 60	 sub	 rsp, 96			; 00000060H
  0000a	48 8d 6c 24 20	 lea	 rbp, QWORD PTR [rsp+32]
  0000f	48 8b 4d 50	 mov	 rcx, QWORD PTR this$[rbp]
  00013	e8 00 00 00 00	 call	 ??1bad_alloc@std@@UEAA@XZ
  00018	48 8d 65 40	 lea	 rsp, QWORD PTR [rbp+64]
  0001c	5d		 pop	 rbp
  0001d	c3		 ret	 0
??1bad_array_new_length@std@@UEAA@XZ ENDP		; std::bad_array_new_length::~bad_array_new_length
_TEXT	ENDS
; Function compile flags: /Odtp /ZI
; File C:\Program Files\Microsoft Visual Studio\2022\Preview\VC\Tools\MSVC\14.38.33030\include\vcruntime_exception.h
;	COMDAT ??0bad_array_new_length@std@@QEAA@XZ
_TEXT	SEGMENT
this$ = 80
??0bad_array_new_length@std@@QEAA@XZ PROC		; std::bad_array_new_length::bad_array_new_length, COMDAT

; 141  :     {

$LN3:
  00000	48 89 4c 24 08	 mov	 QWORD PTR [rsp+8], rcx
  00005	55		 push	 rbp
  00006	48 83 ec 60	 sub	 rsp, 96			; 00000060H
  0000a	48 8d 6c 24 20	 lea	 rbp, QWORD PTR [rsp+32]
  0000f	48 8d 0d 00 00
	00 00		 lea	 rcx, OFFSET FLAT:__7280C444_vcruntime_exception@h
  00016	e8 00 00 00 00	 call	 __CheckForDebuggerJustMyCode

; 140  :         : bad_alloc("bad array new length")

  0001b	48 8d 15 00 00
	00 00		 lea	 rdx, OFFSET FLAT:??_C@_0BF@KINCDENJ@bad?5array?5new?5length@
  00022	48 8b 4d 50	 mov	 rcx, QWORD PTR this$[rbp]
  00026	e8 00 00 00 00	 call	 ??0bad_alloc@std@@AEAA@QEBD@Z ; std::bad_alloc::bad_alloc

; 141  :     {

  0002b	48 8b 45 50	 mov	 rax, QWORD PTR this$[rbp]
  0002f	48 8d 0d 00 00
	00 00		 lea	 rcx, OFFSET FLAT:??_7bad_array_new_length@std@@6B@
  00036	48 89 08	 mov	 QWORD PTR [rax], rcx

; 142  :     }

  00039	48 8b 45 50	 mov	 rax, QWORD PTR this$[rbp]
  0003d	48 8d 65 40	 lea	 rsp, QWORD PTR [rbp+64]
  00041	5d		 pop	 rbp
  00042	c3		 ret	 0
??0bad_array_new_length@std@@QEAA@XZ ENDP		; std::bad_array_new_length::bad_array_new_length
_TEXT	ENDS
; Function compile flags: /Odtp /ZI
;	COMDAT ??_Gbad_alloc@std@@UEAAPEAXI@Z
_TEXT	SEGMENT
this$ = 80
__flags$ = 88
??_Gbad_alloc@std@@UEAAPEAXI@Z PROC			; std::bad_alloc::`scalar deleting destructor', COMDAT
$LN4:
  00000	89 54 24 10	 mov	 DWORD PTR [rsp+16], edx
  00004	48 89 4c 24 08	 mov	 QWORD PTR [rsp+8], rcx
  00009	55		 push	 rbp
  0000a	48 83 ec 60	 sub	 rsp, 96			; 00000060H
  0000e	48 8d 6c 24 20	 lea	 rbp, QWORD PTR [rsp+32]
  00013	48 8b 4d 50	 mov	 rcx, QWORD PTR this$[rbp]
  00017	e8 00 00 00 00	 call	 ??1bad_alloc@std@@UEAA@XZ
  0001c	8b 45 58	 mov	 eax, DWORD PTR __flags$[rbp]
  0001f	83 e0 01	 and	 eax, 1
  00022	85 c0		 test	 eax, eax
  00024	74 0e		 je	 SHORT $LN2@scalar
  00026	ba 18 00 00 00	 mov	 edx, 24
  0002b	48 8b 4d 50	 mov	 rcx, QWORD PTR this$[rbp]
  0002f	e8 00 00 00 00	 call	 ??3@YAXPEAX_K@Z		; operator delete
$LN2@scalar:
  00034	48 8b 45 50	 mov	 rax, QWORD PTR this$[rbp]
  00038	48 8d 65 40	 lea	 rsp, QWORD PTR [rbp+64]
  0003c	5d		 pop	 rbp
  0003d	c3		 ret	 0
??_Gbad_alloc@std@@UEAAPEAXI@Z ENDP			; std::bad_alloc::`scalar deleting destructor'
_TEXT	ENDS
; Function compile flags: /Odtp /ZI
;	COMDAT ??0bad_alloc@std@@QEAA@AEBV01@@Z
_TEXT	SEGMENT
this$ = 80
__that$ = 88
??0bad_alloc@std@@QEAA@AEBV01@@Z PROC			; std::bad_alloc::bad_alloc, COMDAT
$LN3:
  00000	48 89 54 24 10	 mov	 QWORD PTR [rsp+16], rdx
  00005	48 89 4c 24 08	 mov	 QWORD PTR [rsp+8], rcx
  0000a	55		 push	 rbp
  0000b	48 83 ec 60	 sub	 rsp, 96			; 00000060H
  0000f	48 8d 6c 24 20	 lea	 rbp, QWORD PTR [rsp+32]
  00014	48 8b 55 58	 mov	 rdx, QWORD PTR __that$[rbp]
  00018	48 8b 4d 50	 mov	 rcx, QWORD PTR this$[rbp]
  0001c	e8 00 00 00 00	 call	 ??0exception@std@@QEAA@AEBV01@@Z ; std::exception::exception
  00021	48 8b 45 50	 mov	 rax, QWORD PTR this$[rbp]
  00025	48 8d 0d 00 00
	00 00		 lea	 rcx, OFFSET FLAT:??_7bad_alloc@std@@6B@
  0002c	48 89 08	 mov	 QWORD PTR [rax], rcx
  0002f	48 8b 45 50	 mov	 rax, QWORD PTR this$[rbp]
  00033	48 8d 65 40	 lea	 rsp, QWORD PTR [rbp+64]
  00037	5d		 pop	 rbp
  00038	c3		 ret	 0
??0bad_alloc@std@@QEAA@AEBV01@@Z ENDP			; std::bad_alloc::bad_alloc
_TEXT	ENDS
; Function compile flags: /Odtp /ZI
;	COMDAT ??1bad_alloc@std@@UEAA@XZ
_TEXT	SEGMENT
this$ = 80
??1bad_alloc@std@@UEAA@XZ PROC				; std::bad_alloc::~bad_alloc, COMDAT
$LN3:
  00000	48 89 4c 24 08	 mov	 QWORD PTR [rsp+8], rcx
  00005	55		 push	 rbp
  00006	48 83 ec 60	 sub	 rsp, 96			; 00000060H
  0000a	48 8d 6c 24 20	 lea	 rbp, QWORD PTR [rsp+32]
  0000f	48 8b 4d 50	 mov	 rcx, QWORD PTR this$[rbp]
  00013	e8 00 00 00 00	 call	 ??1exception@std@@UEAA@XZ ; std::exception::~exception
  00018	48 8d 65 40	 lea	 rsp, QWORD PTR [rbp+64]
  0001c	5d		 pop	 rbp
  0001d	c3		 ret	 0
??1bad_alloc@std@@UEAA@XZ ENDP				; std::bad_alloc::~bad_alloc
_TEXT	ENDS
; Function compile flags: /Odtp /ZI
; File C:\Program Files\Microsoft Visual Studio\2022\Preview\VC\Tools\MSVC\14.38.33030\include\vcruntime_exception.h
;	COMDAT ??0bad_alloc@std@@AEAA@QEBD@Z
_TEXT	SEGMENT
this$ = 80
_Message$ = 88
??0bad_alloc@std@@AEAA@QEBD@Z PROC			; std::bad_alloc::bad_alloc, COMDAT

; 130  :     {

$LN3:
  00000	48 89 54 24 10	 mov	 QWORD PTR [rsp+16], rdx
  00005	48 89 4c 24 08	 mov	 QWORD PTR [rsp+8], rcx
  0000a	55		 push	 rbp
  0000b	48 83 ec 60	 sub	 rsp, 96			; 00000060H
  0000f	48 8d 6c 24 20	 lea	 rbp, QWORD PTR [rsp+32]
  00014	48 8d 0d 00 00
	00 00		 lea	 rcx, OFFSET FLAT:__7280C444_vcruntime_exception@h
  0001b	e8 00 00 00 00	 call	 __CheckForDebuggerJustMyCode

; 129  :         : exception(_Message, 1)

  00020	41 b8 01 00 00
	00		 mov	 r8d, 1
  00026	48 8b 55 58	 mov	 rdx, QWORD PTR _Message$[rbp]
  0002a	48 8b 4d 50	 mov	 rcx, QWORD PTR this$[rbp]
  0002e	e8 00 00 00 00	 call	 ??0exception@std@@QEAA@QEBDH@Z ; std::exception::exception

; 130  :     {

  00033	48 8b 45 50	 mov	 rax, QWORD PTR this$[rbp]
  00037	48 8d 0d 00 00
	00 00		 lea	 rcx, OFFSET FLAT:??_7bad_alloc@std@@6B@
  0003e	48 89 08	 mov	 QWORD PTR [rax], rcx

; 131  :     }

  00041	48 8b 45 50	 mov	 rax, QWORD PTR this$[rbp]
  00045	48 8d 65 40	 lea	 rsp, QWORD PTR [rbp+64]
  00049	5d		 pop	 rbp
  0004a	c3		 ret	 0
??0bad_alloc@std@@AEAA@QEBD@Z ENDP			; std::bad_alloc::bad_alloc
_TEXT	ENDS
; Function compile flags: /Odtp /ZI
;	COMDAT ??_Gexception@std@@UEAAPEAXI@Z
_TEXT	SEGMENT
this$ = 80
__flags$ = 88
??_Gexception@std@@UEAAPEAXI@Z PROC			; std::exception::`scalar deleting destructor', COMDAT
$LN4:
  00000	89 54 24 10	 mov	 DWORD PTR [rsp+16], edx
  00004	48 89 4c 24 08	 mov	 QWORD PTR [rsp+8], rcx
  00009	55		 push	 rbp
  0000a	48 83 ec 60	 sub	 rsp, 96			; 00000060H
  0000e	48 8d 6c 24 20	 lea	 rbp, QWORD PTR [rsp+32]
  00013	48 8b 4d 50	 mov	 rcx, QWORD PTR this$[rbp]
  00017	e8 00 00 00 00	 call	 ??1exception@std@@UEAA@XZ ; std::exception::~exception
  0001c	8b 45 58	 mov	 eax, DWORD PTR __flags$[rbp]
  0001f	83 e0 01	 and	 eax, 1
  00022	85 c0		 test	 eax, eax
  00024	74 0e		 je	 SHORT $LN2@scalar
  00026	ba 18 00 00 00	 mov	 edx, 24
  0002b	48 8b 4d 50	 mov	 rcx, QWORD PTR this$[rbp]
  0002f	e8 00 00 00 00	 call	 ??3@YAXPEAX_K@Z		; operator delete
$LN2@scalar:
  00034	48 8b 45 50	 mov	 rax, QWORD PTR this$[rbp]
  00038	48 8d 65 40	 lea	 rsp, QWORD PTR [rbp+64]
  0003c	5d		 pop	 rbp
  0003d	c3		 ret	 0
??_Gexception@std@@UEAAPEAXI@Z ENDP			; std::exception::`scalar deleting destructor'
_TEXT	ENDS
; Function compile flags: /Odtp /ZI
; File C:\Program Files\Microsoft Visual Studio\2022\Preview\VC\Tools\MSVC\14.38.33030\include\vcruntime_exception.h
;	COMDAT ?what@exception@std@@UEBAPEBDXZ
_TEXT	SEGMENT
tv69 = 64
this$ = 96
?what@exception@std@@UEBAPEBDXZ PROC			; std::exception::what, COMDAT

; 94   :     {

$LN5:
  00000	48 89 4c 24 08	 mov	 QWORD PTR [rsp+8], rcx
  00005	55		 push	 rbp
  00006	48 83 ec 70	 sub	 rsp, 112		; 00000070H
  0000a	48 8d 6c 24 20	 lea	 rbp, QWORD PTR [rsp+32]
  0000f	48 8d 0d 00 00
	00 00		 lea	 rcx, OFFSET FLAT:__7280C444_vcruntime_exception@h
  00016	e8 00 00 00 00	 call	 __CheckForDebuggerJustMyCode

; 95   :         return _Data._What ? _Data._What : "Unknown exception";

  0001b	48 8b 45 60	 mov	 rax, QWORD PTR this$[rbp]
  0001f	48 83 78 08 00	 cmp	 QWORD PTR [rax+8], 0
  00024	74 0e		 je	 SHORT $LN3@what
  00026	48 8b 45 60	 mov	 rax, QWORD PTR this$[rbp]
  0002a	48 8b 40 08	 mov	 rax, QWORD PTR [rax+8]
  0002e	48 89 45 40	 mov	 QWORD PTR tv69[rbp], rax
  00032	eb 0b		 jmp	 SHORT $LN4@what
$LN3@what:
  00034	48 8d 05 00 00
	00 00		 lea	 rax, OFFSET FLAT:??_C@_0BC@EOODALEL@Unknown?5exception@
  0003b	48 89 45 40	 mov	 QWORD PTR tv69[rbp], rax
$LN4@what:
  0003f	48 8b 45 40	 mov	 rax, QWORD PTR tv69[rbp]

; 96   :     }

  00043	48 8d 65 50	 lea	 rsp, QWORD PTR [rbp+80]
  00047	5d		 pop	 rbp
  00048	c3		 ret	 0
?what@exception@std@@UEBAPEBDXZ ENDP			; std::exception::what
_TEXT	ENDS
; Function compile flags: /Odtp /ZI
; File C:\Program Files\Microsoft Visual Studio\2022\Preview\VC\Tools\MSVC\14.38.33030\include\vcruntime_exception.h
;	COMDAT ??1exception@std@@UEAA@XZ
_TEXT	SEGMENT
this$ = 80
??1exception@std@@UEAA@XZ PROC				; std::exception::~exception, COMDAT

; 89   :     {

$LN3:
  00000	48 89 4c 24 08	 mov	 QWORD PTR [rsp+8], rcx
  00005	55		 push	 rbp
  00006	48 83 ec 60	 sub	 rsp, 96			; 00000060H
  0000a	48 8d 6c 24 20	 lea	 rbp, QWORD PTR [rsp+32]
  0000f	48 8d 0d 00 00
	00 00		 lea	 rcx, OFFSET FLAT:__7280C444_vcruntime_exception@h
  00016	e8 00 00 00 00	 call	 __CheckForDebuggerJustMyCode
  0001b	48 8b 45 50	 mov	 rax, QWORD PTR this$[rbp]
  0001f	48 8d 0d 00 00
	00 00		 lea	 rcx, OFFSET FLAT:??_7exception@std@@6B@
  00026	48 89 08	 mov	 QWORD PTR [rax], rcx

; 90   :         __std_exception_destroy(&_Data);

  00029	48 8b 45 50	 mov	 rax, QWORD PTR this$[rbp]
  0002d	48 83 c0 08	 add	 rax, 8
  00031	48 8b c8	 mov	 rcx, rax
  00034	e8 00 00 00 00	 call	 __std_exception_destroy

; 91   :     }

  00039	48 8d 65 40	 lea	 rsp, QWORD PTR [rbp+64]
  0003d	5d		 pop	 rbp
  0003e	c3		 ret	 0
??1exception@std@@UEAA@XZ ENDP				; std::exception::~exception
_TEXT	ENDS
; Function compile flags: /Odtp /ZI
; File C:\Program Files\Microsoft Visual Studio\2022\Preview\VC\Tools\MSVC\14.38.33030\include\vcruntime_exception.h
;	COMDAT ??0exception@std@@QEAA@AEBV01@@Z
_TEXT	SEGMENT
this$ = 96
_Other$ = 104
??0exception@std@@QEAA@AEBV01@@Z PROC			; std::exception::exception, COMDAT

; 72   :     {

$LN3:
  00000	48 89 54 24 10	 mov	 QWORD PTR [rsp+16], rdx
  00005	48 89 4c 24 08	 mov	 QWORD PTR [rsp+8], rcx
  0000a	55		 push	 rbp
  0000b	57		 push	 rdi
  0000c	48 83 ec 68	 sub	 rsp, 104		; 00000068H
  00010	48 8d 6c 24 20	 lea	 rbp, QWORD PTR [rsp+32]
  00015	48 8d 0d 00 00
	00 00		 lea	 rcx, OFFSET FLAT:__7280C444_vcruntime_exception@h
  0001c	e8 00 00 00 00	 call	 __CheckForDebuggerJustMyCode
  00021	48 8b 45 60	 mov	 rax, QWORD PTR this$[rbp]
  00025	48 8d 0d 00 00
	00 00		 lea	 rcx, OFFSET FLAT:??_7exception@std@@6B@
  0002c	48 89 08	 mov	 QWORD PTR [rax], rcx

; 71   :         : _Data()

  0002f	48 8b 45 60	 mov	 rax, QWORD PTR this$[rbp]
  00033	48 83 c0 08	 add	 rax, 8
  00037	48 8b f8	 mov	 rdi, rax
  0003a	33 c0		 xor	 eax, eax
  0003c	b9 10 00 00 00	 mov	 ecx, 16
  00041	f3 aa		 rep stosb

; 73   :         __std_exception_copy(&_Other._Data, &_Data);

  00043	48 8b 45 60	 mov	 rax, QWORD PTR this$[rbp]
  00047	48 83 c0 08	 add	 rax, 8
  0004b	48 8b 4d 68	 mov	 rcx, QWORD PTR _Other$[rbp]
  0004f	48 83 c1 08	 add	 rcx, 8
  00053	48 8b d0	 mov	 rdx, rax
  00056	e8 00 00 00 00	 call	 __std_exception_copy

; 74   :     }

  0005b	48 8b 45 60	 mov	 rax, QWORD PTR this$[rbp]
  0005f	48 8d 65 48	 lea	 rsp, QWORD PTR [rbp+72]
  00063	5f		 pop	 rdi
  00064	5d		 pop	 rbp
  00065	c3		 ret	 0
??0exception@std@@QEAA@AEBV01@@Z ENDP			; std::exception::exception
_TEXT	ENDS
; Function compile flags: /Odtp /ZI
; File C:\Program Files\Microsoft Visual Studio\2022\Preview\VC\Tools\MSVC\14.38.33030\include\vcruntime_exception.h
;	COMDAT ??0exception@std@@QEAA@QEBDH@Z
_TEXT	SEGMENT
this$ = 96
_Message$ = 104
__formal$ = 112
??0exception@std@@QEAA@QEBDH@Z PROC			; std::exception::exception, COMDAT

; 66   :     {

$LN3:
  00000	44 89 44 24 18	 mov	 DWORD PTR [rsp+24], r8d
  00005	48 89 54 24 10	 mov	 QWORD PTR [rsp+16], rdx
  0000a	48 89 4c 24 08	 mov	 QWORD PTR [rsp+8], rcx
  0000f	55		 push	 rbp
  00010	57		 push	 rdi
  00011	48 83 ec 68	 sub	 rsp, 104		; 00000068H
  00015	48 8d 6c 24 20	 lea	 rbp, QWORD PTR [rsp+32]
  0001a	48 8d 0d 00 00
	00 00		 lea	 rcx, OFFSET FLAT:__7280C444_vcruntime_exception@h
  00021	e8 00 00 00 00	 call	 __CheckForDebuggerJustMyCode
  00026	48 8b 45 60	 mov	 rax, QWORD PTR this$[rbp]
  0002a	48 8d 0d 00 00
	00 00		 lea	 rcx, OFFSET FLAT:??_7exception@std@@6B@
  00031	48 89 08	 mov	 QWORD PTR [rax], rcx

; 65   :         : _Data()

  00034	48 8b 45 60	 mov	 rax, QWORD PTR this$[rbp]
  00038	48 83 c0 08	 add	 rax, 8
  0003c	48 8b f8	 mov	 rdi, rax
  0003f	33 c0		 xor	 eax, eax
  00041	b9 10 00 00 00	 mov	 ecx, 16
  00046	f3 aa		 rep stosb

; 67   :         _Data._What = _Message;

  00048	48 8b 45 60	 mov	 rax, QWORD PTR this$[rbp]
  0004c	48 8b 4d 68	 mov	 rcx, QWORD PTR _Message$[rbp]
  00050	48 89 48 08	 mov	 QWORD PTR [rax+8], rcx

; 68   :     }

  00054	48 8b 45 60	 mov	 rax, QWORD PTR this$[rbp]
  00058	48 8d 65 48	 lea	 rsp, QWORD PTR [rbp+72]
  0005c	5f		 pop	 rdi
  0005d	5d		 pop	 rbp
  0005e	c3		 ret	 0
??0exception@std@@QEAA@QEBDH@Z ENDP			; std::exception::exception
_TEXT	ENDS
; Function compile flags: /Odtp /ZI
; File C:\Program Files\Microsoft Visual Studio\2022\Preview\VC\Tools\MSVC\14.38.33030\include\vcruntime_exception.h
;	COMDAT ??0exception@std@@QEAA@QEBD@Z
_TEXT	SEGMENT
_InitData$ = 0
this$ = 112
_Message$ = 120
??0exception@std@@QEAA@QEBD@Z PROC			; std::exception::exception, COMDAT

; 59   :     {

$LN3:
  00000	48 89 54 24 10	 mov	 QWORD PTR [rsp+16], rdx
  00005	48 89 4c 24 08	 mov	 QWORD PTR [rsp+8], rcx
  0000a	55		 push	 rbp
  0000b	57		 push	 rdi
  0000c	48 83 ec 78	 sub	 rsp, 120		; 00000078H
  00010	48 8d 6c 24 20	 lea	 rbp, QWORD PTR [rsp+32]
  00015	48 8d 0d 00 00
	00 00		 lea	 rcx, OFFSET FLAT:__7280C444_vcruntime_exception@h
  0001c	e8 00 00 00 00	 call	 __CheckForDebuggerJustMyCode
  00021	48 8b 45 70	 mov	 rax, QWORD PTR this$[rbp]
  00025	48 8d 0d 00 00
	00 00		 lea	 rcx, OFFSET FLAT:??_7exception@std@@6B@
  0002c	48 89 08	 mov	 QWORD PTR [rax], rcx

; 58   :         : _Data()

  0002f	48 8b 45 70	 mov	 rax, QWORD PTR this$[rbp]
  00033	48 83 c0 08	 add	 rax, 8
  00037	48 8b f8	 mov	 rdi, rax
  0003a	33 c0		 xor	 eax, eax
  0003c	b9 10 00 00 00	 mov	 ecx, 16
  00041	f3 aa		 rep stosb

; 60   :         __std_exception_data _InitData = { _Message, true };

  00043	48 8b 45 78	 mov	 rax, QWORD PTR _Message$[rbp]
  00047	48 89 45 00	 mov	 QWORD PTR _InitData$[rbp], rax
  0004b	c6 45 08 01	 mov	 BYTE PTR _InitData$[rbp+8], 1

; 61   :         __std_exception_copy(&_InitData, &_Data);

  0004f	48 8b 45 70	 mov	 rax, QWORD PTR this$[rbp]
  00053	48 83 c0 08	 add	 rax, 8
  00057	48 8b d0	 mov	 rdx, rax
  0005a	48 8d 4d 00	 lea	 rcx, QWORD PTR _InitData$[rbp]
  0005e	e8 00 00 00 00	 call	 __std_exception_copy

; 62   :     }

  00063	48 8b 45 70	 mov	 rax, QWORD PTR this$[rbp]
  00067	48 8d 65 58	 lea	 rsp, QWORD PTR [rbp+88]
  0006b	5f		 pop	 rdi
  0006c	5d		 pop	 rbp
  0006d	c3		 ret	 0
??0exception@std@@QEAA@QEBD@Z ENDP			; std::exception::exception
_TEXT	ENDS
; Function compile flags: /Odtp /ZI
; File C:\Program Files\Microsoft Visual Studio\2022\Preview\VC\Tools\MSVC\14.38.33030\include\vcruntime_new.h
;	COMDAT ??2@YAPEAX_KPEAX@Z
_TEXT	SEGMENT
_Size$ = 80
_Where$ = 88
??2@YAPEAX_KPEAX@Z PROC					; operator new, COMDAT

; 168  :     {

$LN3:
  00000	48 89 54 24 10	 mov	 QWORD PTR [rsp+16], rdx
  00005	48 89 4c 24 08	 mov	 QWORD PTR [rsp+8], rcx
  0000a	55		 push	 rbp
  0000b	48 83 ec 60	 sub	 rsp, 96			; 00000060H
  0000f	48 8d 6c 24 20	 lea	 rbp, QWORD PTR [rsp+32]
  00014	48 8d 0d 00 00
	00 00		 lea	 rcx, OFFSET FLAT:__84C50014_vcruntime_new@h
  0001b	e8 00 00 00 00	 call	 __CheckForDebuggerJustMyCode

; 169  :         (void)_Size;
; 170  :         return _Where;

  00020	48 8b 45 58	 mov	 rax, QWORD PTR _Where$[rbp]

; 171  :     }

  00024	48 8d 65 40	 lea	 rsp, QWORD PTR [rbp+64]
  00028	5d		 pop	 rbp
  00029	c3		 ret	 0
??2@YAPEAX_KPEAX@Z ENDP					; operator new
_TEXT	ENDS
; Function compile flags: /Odtp /ZI
; File C:\Program Files\Microsoft Visual Studio\2022\Preview\VC\Tools\MSVC\14.38.33030\include\limits
;	COMDAT ?max@?$numeric_limits@_J@std@@SA_JXZ
_TEXT	SEGMENT
?max@?$numeric_limits@_J@std@@SA_JXZ PROC		; std::numeric_limits<__int64>::max, COMDAT

; 635  :     _NODISCARD static constexpr long long(max)() noexcept {

$LN3:
  00000	40 55		 push	 rbp
  00002	48 83 ec 60	 sub	 rsp, 96			; 00000060H
  00006	48 8d 6c 24 20	 lea	 rbp, QWORD PTR [rsp+32]
  0000b	48 8d 0d 00 00
	00 00		 lea	 rcx, OFFSET FLAT:__595ABB90_limits
  00012	e8 00 00 00 00	 call	 __CheckForDebuggerJustMyCode

; 636  :         return LLONG_MAX;

  00017	48 b8 ff ff ff
	ff ff ff ff 7f	 mov	 rax, 9223372036854775807 ; 7fffffffffffffffH

; 637  :     }

  00021	48 8d 65 40	 lea	 rsp, QWORD PTR [rbp+64]
  00025	5d		 pop	 rbp
  00026	c3		 ret	 0
?max@?$numeric_limits@_J@std@@SA_JXZ ENDP		; std::numeric_limits<__int64>::max
_TEXT	ENDS
; Function compile flags: /Odtp /ZI
; File C:\Program Files\Microsoft Visual Studio\2022\Preview\VC\Tools\MSVC\14.38.33030\include\xtr1common
;	COMDAT ?is_constant_evaluated@std@@YA_NXZ
_TEXT	SEGMENT
?is_constant_evaluated@std@@YA_NXZ PROC			; std::is_constant_evaluated, COMDAT

; 178  : _EXPORT_STD _NODISCARD constexpr bool is_constant_evaluated() noexcept {

$LN3:
  00000	40 55		 push	 rbp
  00002	48 83 ec 60	 sub	 rsp, 96			; 00000060H
  00006	48 8d 6c 24 20	 lea	 rbp, QWORD PTR [rsp+32]
  0000b	48 8d 0d 00 00
	00 00		 lea	 rcx, OFFSET FLAT:__9A2CA802_xtr1common
  00012	e8 00 00 00 00	 call	 __CheckForDebuggerJustMyCode

; 179  :     return __builtin_is_constant_evaluated();

  00017	32 c0		 xor	 al, al

; 180  : }

  00019	48 8d 65 40	 lea	 rsp, QWORD PTR [rbp+64]
  0001d	5d		 pop	 rbp
  0001e	c3		 ret	 0
?is_constant_evaluated@std@@YA_NXZ ENDP			; std::is_constant_evaluated
_TEXT	ENDS
END
