; Listing generated by Microsoft (R) Optimizing Compiler Version 19.38.33030.0 

include listing.inc

INCLUDELIB MSVCRTD
INCLUDELIB OLDNAMES

PUBLIC	?g_XMSinCoefficients0@DirectX@@3UXMVECTORF32@1@B ; DirectX::g_XMSinCoefficients0
PUBLIC	?g_XMSinCoefficients1@DirectX@@3UXMVECTORF32@1@B ; DirectX::g_XMSinCoefficients1
PUBLIC	?g_XMCosCoefficients0@DirectX@@3UXMVECTORF32@1@B ; DirectX::g_XMCosCoefficients0
PUBLIC	?g_XMCosCoefficients1@DirectX@@3UXMVECTORF32@1@B ; DirectX::g_XMCosCoefficients1
PUBLIC	?g_XMTanCoefficients0@DirectX@@3UXMVECTORF32@1@B ; DirectX::g_XMTanCoefficients0
PUBLIC	?g_XMTanCoefficients1@DirectX@@3UXMVECTORF32@1@B ; DirectX::g_XMTanCoefficients1
PUBLIC	?g_XMTanCoefficients2@DirectX@@3UXMVECTORF32@1@B ; DirectX::g_XMTanCoefficients2
PUBLIC	?g_XMArcCoefficients0@DirectX@@3UXMVECTORF32@1@B ; DirectX::g_XMArcCoefficients0
PUBLIC	?g_XMArcCoefficients1@DirectX@@3UXMVECTORF32@1@B ; DirectX::g_XMArcCoefficients1
PUBLIC	?g_XMATanCoefficients0@DirectX@@3UXMVECTORF32@1@B ; DirectX::g_XMATanCoefficients0
PUBLIC	?g_XMATanCoefficients1@DirectX@@3UXMVECTORF32@1@B ; DirectX::g_XMATanCoefficients1
PUBLIC	?g_XMATanEstCoefficients0@DirectX@@3UXMVECTORF32@1@B ; DirectX::g_XMATanEstCoefficients0
PUBLIC	?g_XMATanEstCoefficients1@DirectX@@3UXMVECTORF32@1@B ; DirectX::g_XMATanEstCoefficients1
PUBLIC	?g_XMTanEstCoefficients@DirectX@@3UXMVECTORF32@1@B ; DirectX::g_XMTanEstCoefficients
PUBLIC	?g_XMArcEstCoefficients@DirectX@@3UXMVECTORF32@1@B ; DirectX::g_XMArcEstCoefficients
PUBLIC	?g_XMPiConstants0@DirectX@@3UXMVECTORF32@1@B	; DirectX::g_XMPiConstants0
PUBLIC	?g_XMIdentityR0@DirectX@@3UXMVECTORF32@1@B	; DirectX::g_XMIdentityR0
PUBLIC	?g_XMIdentityR1@DirectX@@3UXMVECTORF32@1@B	; DirectX::g_XMIdentityR1
PUBLIC	?g_XMIdentityR2@DirectX@@3UXMVECTORF32@1@B	; DirectX::g_XMIdentityR2
PUBLIC	?g_XMIdentityR3@DirectX@@3UXMVECTORF32@1@B	; DirectX::g_XMIdentityR3
PUBLIC	?g_XMNegIdentityR0@DirectX@@3UXMVECTORF32@1@B	; DirectX::g_XMNegIdentityR0
PUBLIC	?g_XMNegIdentityR1@DirectX@@3UXMVECTORF32@1@B	; DirectX::g_XMNegIdentityR1
PUBLIC	?g_XMNegIdentityR2@DirectX@@3UXMVECTORF32@1@B	; DirectX::g_XMNegIdentityR2
PUBLIC	?g_XMNegIdentityR3@DirectX@@3UXMVECTORF32@1@B	; DirectX::g_XMNegIdentityR3
PUBLIC	?g_XMNegativeZero@DirectX@@3UXMVECTORU32@1@B	; DirectX::g_XMNegativeZero
PUBLIC	?g_XMNegate3@DirectX@@3UXMVECTORU32@1@B		; DirectX::g_XMNegate3
PUBLIC	?g_XMMaskXY@DirectX@@3UXMVECTORU32@1@B		; DirectX::g_XMMaskXY
PUBLIC	?g_XMMask3@DirectX@@3UXMVECTORU32@1@B		; DirectX::g_XMMask3
PUBLIC	?g_XMMaskX@DirectX@@3UXMVECTORU32@1@B		; DirectX::g_XMMaskX
PUBLIC	?g_XMMaskY@DirectX@@3UXMVECTORU32@1@B		; DirectX::g_XMMaskY
PUBLIC	?g_XMMaskZ@DirectX@@3UXMVECTORU32@1@B		; DirectX::g_XMMaskZ
PUBLIC	?g_XMMaskW@DirectX@@3UXMVECTORU32@1@B		; DirectX::g_XMMaskW
PUBLIC	?g_XMOne@DirectX@@3UXMVECTORF32@1@B		; DirectX::g_XMOne
PUBLIC	?g_XMOne3@DirectX@@3UXMVECTORF32@1@B		; DirectX::g_XMOne3
PUBLIC	?g_XMZero@DirectX@@3UXMVECTORF32@1@B		; DirectX::g_XMZero
PUBLIC	?g_XMTwo@DirectX@@3UXMVECTORF32@1@B		; DirectX::g_XMTwo
PUBLIC	?g_XMFour@DirectX@@3UXMVECTORF32@1@B		; DirectX::g_XMFour
PUBLIC	?g_XMSix@DirectX@@3UXMVECTORF32@1@B		; DirectX::g_XMSix
PUBLIC	?g_XMNegativeOne@DirectX@@3UXMVECTORF32@1@B	; DirectX::g_XMNegativeOne
PUBLIC	?g_XMOneHalf@DirectX@@3UXMVECTORF32@1@B		; DirectX::g_XMOneHalf
PUBLIC	?g_XMNegativeOneHalf@DirectX@@3UXMVECTORF32@1@B	; DirectX::g_XMNegativeOneHalf
PUBLIC	?g_XMNegativeTwoPi@DirectX@@3UXMVECTORF32@1@B	; DirectX::g_XMNegativeTwoPi
PUBLIC	?g_XMNegativePi@DirectX@@3UXMVECTORF32@1@B	; DirectX::g_XMNegativePi
PUBLIC	?g_XMHalfPi@DirectX@@3UXMVECTORF32@1@B		; DirectX::g_XMHalfPi
PUBLIC	?g_XMPi@DirectX@@3UXMVECTORF32@1@B		; DirectX::g_XMPi
PUBLIC	?g_XMReciprocalPi@DirectX@@3UXMVECTORF32@1@B	; DirectX::g_XMReciprocalPi
PUBLIC	?g_XMTwoPi@DirectX@@3UXMVECTORF32@1@B		; DirectX::g_XMTwoPi
PUBLIC	?g_XMReciprocalTwoPi@DirectX@@3UXMVECTORF32@1@B	; DirectX::g_XMReciprocalTwoPi
PUBLIC	?g_XMEpsilon@DirectX@@3UXMVECTORF32@1@B		; DirectX::g_XMEpsilon
PUBLIC	?g_XMInfinity@DirectX@@3UXMVECTORI32@1@B	; DirectX::g_XMInfinity
PUBLIC	?g_XMQNaN@DirectX@@3UXMVECTORI32@1@B		; DirectX::g_XMQNaN
PUBLIC	?g_XMQNaNTest@DirectX@@3UXMVECTORI32@1@B	; DirectX::g_XMQNaNTest
PUBLIC	?g_XMAbsMask@DirectX@@3UXMVECTORI32@1@B		; DirectX::g_XMAbsMask
PUBLIC	?g_XMFltMin@DirectX@@3UXMVECTORI32@1@B		; DirectX::g_XMFltMin
PUBLIC	?g_XMFltMax@DirectX@@3UXMVECTORI32@1@B		; DirectX::g_XMFltMax
PUBLIC	?g_XMNegOneMask@DirectX@@3UXMVECTORU32@1@B	; DirectX::g_XMNegOneMask
PUBLIC	?g_XMMaskA8R8G8B8@DirectX@@3UXMVECTORU32@1@B	; DirectX::g_XMMaskA8R8G8B8
PUBLIC	?g_XMFlipA8R8G8B8@DirectX@@3UXMVECTORU32@1@B	; DirectX::g_XMFlipA8R8G8B8
PUBLIC	?g_XMFixAA8R8G8B8@DirectX@@3UXMVECTORF32@1@B	; DirectX::g_XMFixAA8R8G8B8
PUBLIC	?g_XMNormalizeA8R8G8B8@DirectX@@3UXMVECTORF32@1@B ; DirectX::g_XMNormalizeA8R8G8B8
PUBLIC	?g_XMMaskA2B10G10R10@DirectX@@3UXMVECTORU32@1@B	; DirectX::g_XMMaskA2B10G10R10
PUBLIC	?g_XMFlipA2B10G10R10@DirectX@@3UXMVECTORU32@1@B	; DirectX::g_XMFlipA2B10G10R10
PUBLIC	?g_XMFixAA2B10G10R10@DirectX@@3UXMVECTORF32@1@B	; DirectX::g_XMFixAA2B10G10R10
PUBLIC	?g_XMNormalizeA2B10G10R10@DirectX@@3UXMVECTORF32@1@B ; DirectX::g_XMNormalizeA2B10G10R10
PUBLIC	?g_XMMaskX16Y16@DirectX@@3UXMVECTORU32@1@B	; DirectX::g_XMMaskX16Y16
PUBLIC	?g_XMFlipX16Y16@DirectX@@3UXMVECTORI32@1@B	; DirectX::g_XMFlipX16Y16
PUBLIC	?g_XMFixX16Y16@DirectX@@3UXMVECTORF32@1@B	; DirectX::g_XMFixX16Y16
PUBLIC	?g_XMNormalizeX16Y16@DirectX@@3UXMVECTORF32@1@B	; DirectX::g_XMNormalizeX16Y16
PUBLIC	?g_XMMaskX16Y16Z16W16@DirectX@@3UXMVECTORU32@1@B ; DirectX::g_XMMaskX16Y16Z16W16
PUBLIC	?g_XMFlipX16Y16Z16W16@DirectX@@3UXMVECTORI32@1@B ; DirectX::g_XMFlipX16Y16Z16W16
PUBLIC	?g_XMFixX16Y16Z16W16@DirectX@@3UXMVECTORF32@1@B	; DirectX::g_XMFixX16Y16Z16W16
PUBLIC	?g_XMNormalizeX16Y16Z16W16@DirectX@@3UXMVECTORF32@1@B ; DirectX::g_XMNormalizeX16Y16Z16W16
PUBLIC	?g_XMNoFraction@DirectX@@3UXMVECTORF32@1@B	; DirectX::g_XMNoFraction
PUBLIC	?g_XMMaskByte@DirectX@@3UXMVECTORI32@1@B	; DirectX::g_XMMaskByte
PUBLIC	?g_XMNegateX@DirectX@@3UXMVECTORF32@1@B		; DirectX::g_XMNegateX
PUBLIC	?g_XMNegateY@DirectX@@3UXMVECTORF32@1@B		; DirectX::g_XMNegateY
PUBLIC	?g_XMNegateZ@DirectX@@3UXMVECTORF32@1@B		; DirectX::g_XMNegateZ
PUBLIC	?g_XMNegateW@DirectX@@3UXMVECTORF32@1@B		; DirectX::g_XMNegateW
PUBLIC	?g_XMSelect0101@DirectX@@3UXMVECTORU32@1@B	; DirectX::g_XMSelect0101
PUBLIC	?g_XMSelect1010@DirectX@@3UXMVECTORU32@1@B	; DirectX::g_XMSelect1010
PUBLIC	?g_XMOneHalfMinusEpsilon@DirectX@@3UXMVECTORI32@1@B ; DirectX::g_XMOneHalfMinusEpsilon
PUBLIC	?g_XMSelect1000@DirectX@@3UXMVECTORU32@1@B	; DirectX::g_XMSelect1000
PUBLIC	?g_XMSelect1100@DirectX@@3UXMVECTORU32@1@B	; DirectX::g_XMSelect1100
PUBLIC	?g_XMSelect1110@DirectX@@3UXMVECTORU32@1@B	; DirectX::g_XMSelect1110
PUBLIC	?g_XMSelect1011@DirectX@@3UXMVECTORU32@1@B	; DirectX::g_XMSelect1011
PUBLIC	?g_XMFixupY16@DirectX@@3UXMVECTORF32@1@B	; DirectX::g_XMFixupY16
PUBLIC	?g_XMFixupY16W16@DirectX@@3UXMVECTORF32@1@B	; DirectX::g_XMFixupY16W16
PUBLIC	?g_XMFlipY@DirectX@@3UXMVECTORU32@1@B		; DirectX::g_XMFlipY
PUBLIC	?g_XMFlipZ@DirectX@@3UXMVECTORU32@1@B		; DirectX::g_XMFlipZ
PUBLIC	?g_XMFlipW@DirectX@@3UXMVECTORU32@1@B		; DirectX::g_XMFlipW
PUBLIC	?g_XMFlipYZ@DirectX@@3UXMVECTORU32@1@B		; DirectX::g_XMFlipYZ
PUBLIC	?g_XMFlipZW@DirectX@@3UXMVECTORU32@1@B		; DirectX::g_XMFlipZW
PUBLIC	?g_XMFlipYW@DirectX@@3UXMVECTORU32@1@B		; DirectX::g_XMFlipYW
PUBLIC	?g_XMMaskDec4@DirectX@@3UXMVECTORI32@1@B	; DirectX::g_XMMaskDec4
PUBLIC	?g_XMXorDec4@DirectX@@3UXMVECTORI32@1@B		; DirectX::g_XMXorDec4
PUBLIC	?g_XMAddUDec4@DirectX@@3UXMVECTORF32@1@B	; DirectX::g_XMAddUDec4
PUBLIC	?g_XMAddDec4@DirectX@@3UXMVECTORF32@1@B		; DirectX::g_XMAddDec4
PUBLIC	?g_XMMulDec4@DirectX@@3UXMVECTORF32@1@B		; DirectX::g_XMMulDec4
PUBLIC	?g_XMMaskByte4@DirectX@@3UXMVECTORU32@1@B	; DirectX::g_XMMaskByte4
PUBLIC	?g_XMXorByte4@DirectX@@3UXMVECTORI32@1@B	; DirectX::g_XMXorByte4
PUBLIC	?g_XMAddByte4@DirectX@@3UXMVECTORF32@1@B	; DirectX::g_XMAddByte4
PUBLIC	?g_XMFixUnsigned@DirectX@@3UXMVECTORF32@1@B	; DirectX::g_XMFixUnsigned
PUBLIC	?g_XMMaxInt@DirectX@@3UXMVECTORF32@1@B		; DirectX::g_XMMaxInt
PUBLIC	?g_XMMaxUInt@DirectX@@3UXMVECTORF32@1@B		; DirectX::g_XMMaxUInt
PUBLIC	?g_XMUnsignedFix@DirectX@@3UXMVECTORF32@1@B	; DirectX::g_XMUnsignedFix
PUBLIC	?g_XMsrgbScale@DirectX@@3UXMVECTORF32@1@B	; DirectX::g_XMsrgbScale
PUBLIC	?g_XMsrgbA@DirectX@@3UXMVECTORF32@1@B		; DirectX::g_XMsrgbA
PUBLIC	?g_XMsrgbA1@DirectX@@3UXMVECTORF32@1@B		; DirectX::g_XMsrgbA1
PUBLIC	?g_XMExponentBias@DirectX@@3UXMVECTORI32@1@B	; DirectX::g_XMExponentBias
PUBLIC	?g_XMSubnormalExponent@DirectX@@3UXMVECTORI32@1@B ; DirectX::g_XMSubnormalExponent
PUBLIC	?g_XMNumTrailing@DirectX@@3UXMVECTORI32@1@B	; DirectX::g_XMNumTrailing
PUBLIC	?g_XMMinNormal@DirectX@@3UXMVECTORI32@1@B	; DirectX::g_XMMinNormal
PUBLIC	?g_XMNegInfinity@DirectX@@3UXMVECTORU32@1@B	; DirectX::g_XMNegInfinity
PUBLIC	?g_XMNegQNaN@DirectX@@3UXMVECTORU32@1@B		; DirectX::g_XMNegQNaN
PUBLIC	?g_XMBin128@DirectX@@3UXMVECTORI32@1@B		; DirectX::g_XMBin128
PUBLIC	?g_XMBinNeg150@DirectX@@3UXMVECTORU32@1@B	; DirectX::g_XMBinNeg150
PUBLIC	?g_XM253@DirectX@@3UXMVECTORI32@1@B		; DirectX::g_XM253
PUBLIC	?g_XMExpEst1@DirectX@@3UXMVECTORF32@1@B		; DirectX::g_XMExpEst1
PUBLIC	?g_XMExpEst2@DirectX@@3UXMVECTORF32@1@B		; DirectX::g_XMExpEst2
PUBLIC	?g_XMExpEst3@DirectX@@3UXMVECTORF32@1@B		; DirectX::g_XMExpEst3
PUBLIC	?g_XMExpEst4@DirectX@@3UXMVECTORF32@1@B		; DirectX::g_XMExpEst4
PUBLIC	?g_XMExpEst5@DirectX@@3UXMVECTORF32@1@B		; DirectX::g_XMExpEst5
PUBLIC	?g_XMExpEst6@DirectX@@3UXMVECTORF32@1@B		; DirectX::g_XMExpEst6
PUBLIC	?g_XMExpEst7@DirectX@@3UXMVECTORF32@1@B		; DirectX::g_XMExpEst7
PUBLIC	?g_XMLogEst0@DirectX@@3UXMVECTORF32@1@B		; DirectX::g_XMLogEst0
PUBLIC	?g_XMLogEst1@DirectX@@3UXMVECTORF32@1@B		; DirectX::g_XMLogEst1
PUBLIC	?g_XMLogEst2@DirectX@@3UXMVECTORF32@1@B		; DirectX::g_XMLogEst2
PUBLIC	?g_XMLogEst3@DirectX@@3UXMVECTORF32@1@B		; DirectX::g_XMLogEst3
PUBLIC	?g_XMLogEst4@DirectX@@3UXMVECTORF32@1@B		; DirectX::g_XMLogEst4
PUBLIC	?g_XMLogEst5@DirectX@@3UXMVECTORF32@1@B		; DirectX::g_XMLogEst5
PUBLIC	?g_XMLogEst6@DirectX@@3UXMVECTORF32@1@B		; DirectX::g_XMLogEst6
PUBLIC	?g_XMLogEst7@DirectX@@3UXMVECTORF32@1@B		; DirectX::g_XMLogEst7
PUBLIC	?g_XMLgE@DirectX@@3UXMVECTORF32@1@B		; DirectX::g_XMLgE
PUBLIC	?g_XMInvLgE@DirectX@@3UXMVECTORF32@1@B		; DirectX::g_XMInvLgE
PUBLIC	?g_XMLg10@DirectX@@3UXMVECTORF32@1@B		; DirectX::g_XMLg10
PUBLIC	?g_XMInvLg10@DirectX@@3UXMVECTORF32@1@B		; DirectX::g_XMInvLg10
PUBLIC	?g_UByteMax@DirectX@@3UXMVECTORF32@1@B		; DirectX::g_UByteMax
PUBLIC	?g_ByteMin@DirectX@@3UXMVECTORF32@1@B		; DirectX::g_ByteMin
PUBLIC	?g_ByteMax@DirectX@@3UXMVECTORF32@1@B		; DirectX::g_ByteMax
PUBLIC	?g_ShortMin@DirectX@@3UXMVECTORF32@1@B		; DirectX::g_ShortMin
PUBLIC	?g_ShortMax@DirectX@@3UXMVECTORF32@1@B		; DirectX::g_ShortMax
PUBLIC	?g_UShortMax@DirectX@@3UXMVECTORF32@1@B		; DirectX::g_UShortMax
PUBLIC	__pobjectentryfirst
PUBLIC	__pobjectentrymid
PUBLIC	__pobjectentrylast
PUBLIC	?DefaultDelegateCheckMode@WRL@Microsoft@@3W4DelegateCheckMode@12@B ; Microsoft::WRL::DefaultDelegateCheckMode
PUBLIC	IID_IXAudio2Extension
PUBLIC	IID_IXAudio2
msvcjmc	SEGMENT
__0ED14FEE_winpackagefamily@h DB 01H
__F92EF742_winapifamily@h DB 01H
__22E515EB_sdkddkver@h DB 01H
__4A250794_concurrencysal@h DB 01H
__64794009_sal@h DB 01H
__A3E7195B_vadefs@h DB 01H
__978626E5_vcruntime@h DB 01H
__73193115_excpt@h DB 01H
__EF35C9F2_stdarg@h DB 01H
__29F49F40_specstrings_undef@h DB 01H
__D0F42932_specstrings_strict@h DB 01H
__F00405FD_sdv_driverspecs@h DB 01H
__173E09CA_driverspecs@h DB 01H
__9A452361_specstrings@h DB 01H
__1B0272D9_corecrt@h DB 01H
__74484FB3_corecrt_wctype@h DB 01H
__1EC467ED_ctype@h DB 01H
__98517906_kernelspecs@h DB 01H
__D3497022_basetsd@h DB 01H
__61CC25A1_errno@h DB 01H
__4CB5F942_vcruntime_string@h DB 01H
__E4C945B4_corecrt_memcpy_s@h DB 01H
__8EAFF484_corecrt_memory@h DB 01H
__6490AEC5_corecrt_wstring@h DB 01H
__E8295E1E_string@h DB 01H
__7FCB5136_guiddef@h DB 01H
__FF8A9E11_pshpack4@h DB 01H
__D5438902_poppack@h DB 01H
__FB07E2A3_pshpack2@h DB 01H
__F6906775_pshpack8@h DB 01H
__F9415CFA_pshpack1@h DB 01H
__E58C6F1C_apiset@h DB 01H
__A5C52262_ktmtypes@h DB 01H
__FBBA8F9D_winnt@h DB 01H
__A32D3D2C_minwindef@h DB 01H
__7D798299_windef@h DB 01H
__9AE108E9_apisetcconv@h DB 01H
__9CE53D2C_minwinbase@h DB 01H
__5D0AA210_apiquery2@h DB 01H
__4DD4E726_processenv@h DB 01H
__3575CC96_fileapi@h DB 01H
__8EA220E6_fileapifromapp@h DB 01H
__BF9B31FE_debugapi@h DB 01H
__C3AFE134_utilapiset@h DB 01H
__76F69E51_handleapi@h DB 01H
__7E63D784_errhandlingapi@h DB 01H
__FFA7003C_fibersapi@h DB 01H
__8971CECF_namedpipeapi@h DB 01H
__46C9D8A6_profileapi@h DB 01H
__98D4F0A3_heapapi@h DB 01H
__50EF2A88_ioapiset@h DB 01H
__92EA1464_synchapi@h DB 01H
__A53D8AED_interlockedapi@h DB 01H
__B506CAAF_processthreadsapi@h DB 01H
__FF735694_sysinfoapi@h DB 01H
__29589789_memoryapi@h DB 01H
__E9C7A663_enclaveapi@h DB 01H
__D035F9F7_threadpoollegacyapiset@h DB 01H
__C899130C_threadpoolapiset@h DB 01H
__E0441EE7_jobapi@h DB 01H
__CEF86838_jobapi2@h DB 01H
__35AC6B9A_wow64apiset@h DB 01H
__C8AE41A5_libloaderapi@h DB 01H
__CC9E232D_securitybaseapi@h DB 01H
__C9D0C9B8_namespaceapi@h DB 01H
__30FF9CAD_systemtopologyapi@h DB 01H
__4D358795_processtopologyapi@h DB 01H
__40446D10_securityappcontainer@h DB 01H
__3A952EDF_realtimeapiset@h DB 01H
__F4865F4B_winerror@h DB 01H
__53C1BD93_timezoneapi@h DB 01H
__1FFBEDBF_winbase@h DB 01H
__43D3FA34_wingdi@h DB 01H
__D24A7391_tvout@h DB 01H
__7713A6C8_winuser@h DB 01H
__0B345F71_datetimeapi@h DB 01H
__9AC6960C_winnls@h DB 01H
__973A40A8_stringapiset@h DB 01H
__CC46FEE2_wincontypes@h DB 01H
__97D70BE1_consoleapi@h DB 01H
__27EC5E18_consoleapi2@h DB 01H
__262E342F_consoleapi3@h DB 01H
__641DCD70_wincon@h DB 01H
__5A96C7A7_verrsrc@h DB 01H
__B69C6FF2_winver@h DB 01H
__7AEB8C37_reason@h DB 01H
__59F1A8A9_winreg@h DB 01H
__EE0E2B7F_wnnc@h DB 01H
__DCDB7054_winnetwk@h DB 01H
__EDC72EEB_cderr@h DB 01H
__95F9199D_dde@h DB 01H
__66427627_ddeml@h DB 01H
__957C29A0_dlgs@h DB 01H
__12EA15AF_lzexpand@h DB 01H
__62131F15_mmsyscom@h DB 01H
__47E68D49_mciapi@h DB 01H
__5D7DD356_mmiscapi@h DB 01H
__7223D2EF_mmiscapi2@h DB 01H
__A330DBB3_playsoundapi@h DB 01H
__601B366F_mmeapi@h DB 01H
__1134ADD5_timeapi@h DB 01H
__93F2265A_joystickapi@h DB 01H
__DF6EB4E3_mmsystem@h DB 01H
__BD641FCB_nb30@h DB 01H
__DF8704F0_rpcdcep@h DB 01H
__5C6CA7BB_rpcdce@h DB 01H
__853533C4_rpcnsi@h DB 01H
__2D2406C3_rpcnterr@h DB 01H
__64521D71_rpcasync@h DB 01H
__AADCBA08_rpc@h DB 01H
__19E26CFF_shellapi@h DB 01H
__1E9F31D3_winperf@h DB 01H
__832A4112_inaddr@h DB 01H
__32C6F875_winsock@h DB 01H
__7953A3F8_bcrypt@h DB 01H
__E4169492_ncrypt@h DB 01H
__AF3DDDC3_dpapi@h DB 01H
__D1E23BF2_wincrypt@h DB 01H
__82AB4779_winefs@h DB 01H
__1FE431C9_rpcnsip@h DB 01H
__2B741F2D_rpcsal@h DB 01H
__92623256_rpcndr@h DB 01H
__9C18532E_wtypesbase@h DB 01H
__EA2E1D6D_wtypes@h DB 01H
__7DDD9F45_winioctl@h DB 01H
__E550A843_winsmcrd@h DB 01H
__9809C1BA_winscard@h DB 01H
__EA174FA4_prsht@h DB 01H
__0E1BD114_winspool@h DB 01H
__45DED006_corecrt_malloc@h DB 01H
__13F5961F_stddef@h DB 01H
__FD6DBD68_corecrt_search@h DB 01H
__E2E33A61_corecrt_wstdlib@h DB 01H
__659C5902_limits@h DB 01H
__6E5ACABA_stdlib@h DB 01H
__30B1AFDA_unknwnbase@h DB 01H
__328C1996_objidlbase@h DB 01H
__C4E06B6A_cguid@h DB 01H
__434718C5_combaseapi@h DB 01H
__DE6FDEF1_unknwn@h DB 01H
__CCE0BACC_objidl@h DB 01H
__8C7011E5_oaidl@h DB 01H
__2E0B7863_propidlbase@h DB 01H
__BF4CF2EC_coml2api@h DB 01H
__6D897344_oleidl@h DB 01H
__1129FC2C_servprov@h DB 01H
__757952E4_msxml@h DB 01H
__B1191D53_urlmon@h DB 01H
__404D1A47_propidl@h DB 01H
__A1C63593_objbase@h DB 01H
__C1B0A9CB_oleauto@h DB 01H
__24EAF61F_ole2@h DB 01H
__2B1843DA_commdlg@h DB 01H
__81DDEDE3_stralign@h DB 01H
__2134D1B4_winsvc@h DB 01H
__11C07376_mcx@h DB 01H
__577CE3E7_ime_cmodes@h DB 01H
__1E72C31E_imm@h DB 01H
__E15BF856_windows@h DB 01H
__C868A340_OCIdl@h DB 01H
__90AD1CBB_dxgicommon@h DB 01H
__DBA3F304_dxgiformat@h DB 01H
__4B98FDD9_d3dcommon@h DB 01H
__30CE95B1_d3d12sdklayers@h DB 01H
__AD50D478_d3d12@h DB 01H
__EBD162FD_dxgitype@h DB 01H
__F473F334_dxgi@h DB 01H
__3532CEB3_dxgi1_2@h DB 01H
__34F0A484_dxgi1_3@h DB 01H
__31BFB201_dxgi1_4@h DB 01H
__307DD836_dxgi1_5@h DB 01H
__323B666F_dxgi1_6@h DB 01H
__BB16330F_corecrt_math@h DB 01H
__3BF2A406_math@h DB 01H
__B9985323_float@h DB 01H
__51ADDFC3_intrin0@inl@h DB 01H
__4B899F3E_setjmp@h DB 01H
__A40231C8_mmintrin@h DB 01H
__FA77ED4C_malloc@h DB 01H
__17534AB1_xmmintrin@h DB 01H
__7231C37D_emmintrin@h DB 01H
__AD90ABF4_pmmintrin@h DB 01H
__1D49D876_tmmintrin@h DB 01H
__3472CDF5_smmintrin@h DB 01H
__51104439_nmmintrin@h DB 01H
__84ABBE77_wmmintrin@h DB 01H
__4F3FF370_zmmintrin@h DB 01H
__782B51BA_immintrin@h DB 01H
__C2E8B0FF_ammintrin@h DB 01H
__6DBF2349_intrin@h DB 01H
__19139D6C_assert@h DB 01H
__DBEA773D_stdint@h DB 01H
__85ADA900_DirectXMathConvert@inl DB 01H
__411BBCFA_DirectXMathVector@inl DB 01H
__4AFE615D_DirectXMathMatrix@inl DB 01H
__98B66FFE_DirectXMathMisc@inl DB 01H
__E6E853B5_DirectXMath@h DB 01H
__CAFE1B4D_d3d11shader@h DB 01H
__F3732788_d3d12shader@h DB 01H
__2CACEFC0_d3dcompiler@h DB 01H
__F2FF8333_hstring@h DB 01H
__4BAE0D45_inspectable@h DB 01H
__2E21A007_weakreference@h DB 01H
__ADF9C41F_activation@h DB 01H
__847F1726_roapi@h DB 01H
__0AE89165_def@h DB 01H
__84C50014_vcruntime_new@h DB 01H
__7A6EC116_vcruntime_new_debug@h DB 01H
__935DC21B_crtdbg@h DB 01H
__087FBF63_internal@h DB 01H
__F7423081_client@h DB 01H
__12FD3F40_WinString@h DB 01H
__E5B2708F_crtdefs@h DB 01H
__6F9C91B0_new@h DB 01H
__247BB969_restrictedErrorInfo@h DB 01H
__05F5D399_roerrorapi@h DB 01H
__73CE9EEE_implements@h DB 01H
__94D81D1E_ftm@h DB 01H
__5611F633_intsafe@h DB 01H
__5DD10A16_corewrappers@h DB 01H
__B8B3BDBE_module@h DB 01H
__D6FCE5BE_eventtoken@h DB 01H
__3D51D5E6_event@h DB 01H
__0691033D_wrl@h DB 01H
__B629FA8A_d3dx12@h DB 01H
__DC39B1D9_D3D12@h DB 01H
__EAA52A7A_D3D12Camera@h DB 01H
__B51A3A23_Core@h DB 01H
__ED560F7A_VertexTypes@h DB 01H
__735B63F8_xkeycheck@h DB 01H
__142C9C9C_yvals_core@h DB 01H
__BE829F50_climits DB 01H
__9A2CA802_xtr1common DB 01H
__FC9FC984_intrin0@h DB 01H
__F3EA4CCC___msvc_bit_utils@hpp DB 01H
__87335CDF_cstdint DB 01H
__3A6DBDA2_cstdlib DB 01H
__3FBCF6F4_cfloat DB 01H
__44420885_corecrt_stdio_config@h DB 01H
__AB601D8D_corecrt_wstdio@h DB 01H
__C1EC35D3_stdio@h DB 01H
__4CF83D73_cstdio DB 01H
__EF1F6BBA_corecrt_wconio@h DB 01H
__3D1D430C_corecrt_wdirect@h DB 01H
__8ECB7138_corecrt_share@h DB 01H
__DB7FEBA6_corecrt_wio@h DB 01H
__9A9F0068_corecrt_wprocess@h DB 01H
__369A9BC3_corecrt_wtime@h DB 01H
__CE789B9D_types@h DB 01H
__9901C817_stat@h DB 01H
__3FCAD62E_wchar@h DB 01H
__D673EB20_cwchar DB 01H
__595ABB90_limits DB 01H
__61229A4B_use_ansi@h DB 01H
__8C2D0B1D_yvals@h DB 01H
__9FA6670F_cstddef DB 01H
__3DF2A533_type_traits DB 01H
__89766DA4_corecrt_terminate@h DB 01H
__35BB339F_eh@h DB 01H
__7280C444_vcruntime_exception@h DB 01H
__2DED1E19_exception DB 01H
__A5D71DBC_new DB 01H
__27E192CF_xatomic@h DB 01H
__50E371A7_initializer_list DB 01H
__339AE60A_concepts DB 01H
__C3788713_compare DB 01H
__0D603829_utility DB 01H
__874288EA___msvc_iter_core@hpp DB 01H
__76FF1542_cstring DB 01H
__B7320FC0_xutility DB 01H
__A0E057FF_tuple DB 01H
__67F55BEA_xmemory DB 01H
__A0A2F5C0_xpolymorphic_allocator@h DB 01H
__C671E263___msvc_sanitizer_annotate_container@hpp DB 01H
__14F7CB70_vector DB 01H
__FBEF5BAE_Array@h DB 01H
__59AEE840_cassert DB 01H
__95B36E16_iosfwd DB 01H
__1326DD76_xstring DB 01H
__A4A32444_stdexcept DB 01H
__EEE0DC84_DescriptorHeap@h DB 01H
__93AC6E75_vcruntime_typeinfo@h DB 01H
__C7EDFCD9_typeinfo DB 01H
__4F9CF3B8_xatomic_wait@h DB 01H
__0A9237D2_time@h DB 01H
__C070D2B6_ctime DB 01H
__01F6EC81_xtimec@h DB 01H
__006CADF8_xthreads@h DB 01H
__326FE752_atomic DB 01H
__E5F4B71E_memory DB 01H
__4333DAD4_cctype DB 01H
__91273182_string DB 01H
__9024636E_DarkString@h DB 01H
__92B9F28F_CommandLine@h DB 01H
__FCC6D126_Delegate@h DB 01H
__7671EFE0_WindowsWindow@h DB 01H
__4C7DEF31_D3D12Types@h DB 01H
__06C34EBE_cmath DB 01H
__52656974_list DB 01H
__B566F9C5_xbit_ops@h DB 01H
__1B8E3698_xnode_handle@h DB 01H
__696C8ED8_xhash DB 01H
__3DA11C4D_unordered_map DB 01H
__98E9BF8D_TUniquePtr@h DB 01H
__68B439B4_D3D12Texture@h DB 01H
__466C4D22_D3D12Utils@h DB 01H
__45275B9D_D3D12Resource@h DB 01H
__C6A116CD_D3D12Render@h DB 01H
__B9040E87_Renderer@h DB 01H
__B9FFAD7A_UObject@h DB 01H
__349F89FE_ActorComponent@h DB 01H
__C0395B86_TList@h DB 01H
__1FF1BD98_D3D12Mesh@h DB 01H
__CF36E38C_D3D12Material@h DB 01H
__E9AE02A5_D3D12Model@h DB 01H
__6AE9EDAC_DarkMathUtility@h DB 01H
__7E164BFB_USceneComponent@h DB 01H
__4CA7DCC5_Mouse@h DB 01H
__BF4148EC_Keyboard@h DB 01H
__1B2D56BD_InputCore@h DB 01H
__1A51089F_Actor@h DB 01H
__C9CFF5D2_RotateComponent@h DB 01H
__59F10418_CameraActor@h DB 01H
__4C3DB073_D3D12Scene@h DB 01H
__46118574_World@h DB 01H
__4818932A_unordered_set DB 01H
__014E33A8_TMemory@h DB 01H
__C1566CF7_basetyps@h DB 01H
__9F144151_mmreg@h DB 01H
__25E01902_audiosessiontypes@h DB 01H
__E36B8921_xaudio2@h DB 01H
__F7972D0B_share@h DB 01H
__E9739B8C___msvc_system_error_abi@hpp DB 01H
__D1D94988_cerrno DB 01H
__57B442CC_xcall_once@h DB 01H
__24B81E12_xerrc@h DB 01H
__E8E950EC_system_error DB 01H
__C9B1E011_xfacet DB 01H
__24FAA3FC___msvc_xlocinfo_types@hpp DB 01H
__791C33B7_locale@h DB 01H
__A9C16173_clocale DB 01H
__D8641F11_xlocinfo DB 01H
__CC18A947_xlocale DB 01H
__E1816802_xiosbase DB 01H
__A6039CF8_streambuf DB 01H
__C0945C43___msvc_filebuf@hpp DB 01H
__A69EB880_iterator DB 01H
__529FCF50_xlocnum DB 01H
__5D1A27AA_ios DB 01H
__DF087383_ostream DB 01H
__BCD846B9_istream DB 01H
__4A903650_fstream DB 01H
__6A70D710_ratio DB 01H
__E71D1BFE___msvc_chrono@hpp DB 01H
__F491F32A_vcruntime_startup@h DB 01H
__005E73E1_corecrt_startup@h DB 01H
__8B12B2C4_process@h DB 01H
__57ED3434_stop_token DB 01H
__3EB9CFA8_thread DB 01H
__78DDDD40_mutex DB 01H
__CE362511_Logger@hpp DB 01H
__E48B5707_Audio@h DB 01H
__7FDD34FA_DEditor@h DB 01H
__0F108736_xfilesystem_abi@h DB 01H
__3E632381___msvc_tzdb@hpp DB 01H
__D30FB2B2_forward_list DB 01H
__4722581B_xsmf_control@h DB 01H
__DEE6A3C1_optional DB 01H
__7F768539_sstream DB 01H
__7C79B603_xloctime DB 01H
__B5ECD415___msvc_format_ucd_tables@hpp DB 01H
__8C7168E8___msvc_print@hpp DB 01H
__9971FA6E_bit DB 01H
__39D77923_xcharconv@h DB 01H
__486BF2EB_xcharconv_ryu_tables@h DB 01H
__9E967C73_xcharconv_ryu@h DB 01H
__8E5CDAAA_xcharconv_tables@h DB 01H
__A8BD61A6_charconv DB 01H
__CC57EFBC_xlocbuf DB 01H
__E0145E3B_xlocmes DB 01H
__79FDDA68_xlocmon DB 01H
__4E1945B3_locale DB 01H
__D123F1F4_format DB 01H
__401A80EB_iomanip DB 01H
__3DB7BD1A_chrono DB 01H
__D22613FB_DEngine@h DB 01H
__7D045524_D3D12Camera@cpp DB 01H
__7BF4187B_predefined C++ types (compiler internal) DB 01H
msvcjmc	ENDS
;	COMDAT IID_IXAudio2
CONST	SEGMENT
IID_IXAudio2 DD	02b02e3cfH
	DW	02e0bH
	DW	04ec3H
	DB	0beH
	DB	045H
	DB	01bH
	DB	02aH
	DB	03fH
	DB	0e7H
	DB	021H
	DB	0dH
CONST	ENDS
;	COMDAT IID_IXAudio2Extension
CONST	SEGMENT
IID_IXAudio2Extension DD 084ac29bbH
	DW	0d619H
	DW	044d2H
	DB	0b1H
	DB	097H
	DB	0e4H
	DB	0acH
	DB	0f7H
	DB	0dfH
	DB	03eH
	DB	0d6H
CONST	ENDS
;	COMDAT ?DefaultDelegateCheckMode@WRL@Microsoft@@3W4DelegateCheckMode@12@B
CONST	SEGMENT
?DefaultDelegateCheckMode@WRL@Microsoft@@3W4DelegateCheckMode@12@B DD 01H ; Microsoft::WRL::DefaultDelegateCheckMode
CONST	ENDS
;	COMDAT __pobjectentrylast
minATL$__z	SEGMENT
__pobjectentrylast DQ 0000000000000000H
minATL$__z	ENDS
;	COMDAT __pobjectentrymid
minATL$__m	SEGMENT
__pobjectentrymid DQ 0000000000000000H
minATL$__m	ENDS
;	COMDAT __pobjectentryfirst
minATL$__a	SEGMENT
__pobjectentryfirst DQ 0000000000000000H
minATL$__a	ENDS
;	COMDAT ?g_UShortMax@DirectX@@3UXMVECTORF32@1@B
CONST	SEGMENT
?g_UShortMax@DirectX@@3UXMVECTORF32@1@B DD 0477fff00r ; 65535 ; DirectX::g_UShortMax
	DD	0477fff00r			; 65535
	DD	0477fff00r			; 65535
	DD	0477fff00r			; 65535
CONST	ENDS
;	COMDAT ?g_ShortMax@DirectX@@3UXMVECTORF32@1@B
CONST	SEGMENT
?g_ShortMax@DirectX@@3UXMVECTORF32@1@B DD 046fffe00r ; 32767 ; DirectX::g_ShortMax
	DD	046fffe00r			; 32767
	DD	046fffe00r			; 32767
	DD	046fffe00r			; 32767
CONST	ENDS
;	COMDAT ?g_ShortMin@DirectX@@3UXMVECTORF32@1@B
CONST	SEGMENT
?g_ShortMin@DirectX@@3UXMVECTORF32@1@B DD 0c6fffe00r ; -32767 ; DirectX::g_ShortMin
	DD	0c6fffe00r			; -32767
	DD	0c6fffe00r			; -32767
	DD	0c6fffe00r			; -32767
CONST	ENDS
;	COMDAT ?g_ByteMax@DirectX@@3UXMVECTORF32@1@B
CONST	SEGMENT
?g_ByteMax@DirectX@@3UXMVECTORF32@1@B DD 042fe0000r ; 127 ; DirectX::g_ByteMax
	DD	042fe0000r			; 127
	DD	042fe0000r			; 127
	DD	042fe0000r			; 127
CONST	ENDS
;	COMDAT ?g_ByteMin@DirectX@@3UXMVECTORF32@1@B
CONST	SEGMENT
?g_ByteMin@DirectX@@3UXMVECTORF32@1@B DD 0c2fe0000r ; -127 ; DirectX::g_ByteMin
	DD	0c2fe0000r			; -127
	DD	0c2fe0000r			; -127
	DD	0c2fe0000r			; -127
CONST	ENDS
;	COMDAT ?g_UByteMax@DirectX@@3UXMVECTORF32@1@B
CONST	SEGMENT
?g_UByteMax@DirectX@@3UXMVECTORF32@1@B DD 0437f0000r ; 255 ; DirectX::g_UByteMax
	DD	0437f0000r			; 255
	DD	0437f0000r			; 255
	DD	0437f0000r			; 255
CONST	ENDS
;	COMDAT ?g_XMInvLg10@DirectX@@3UXMVECTORF32@1@B
CONST	SEGMENT
?g_XMInvLg10@DirectX@@3UXMVECTORF32@1@B DD 03e9a209br ; 0.30103 ; DirectX::g_XMInvLg10
	DD	03e9a209br			; 0.30103
	DD	03e9a209br			; 0.30103
	DD	03e9a209br			; 0.30103
CONST	ENDS
;	COMDAT ?g_XMLg10@DirectX@@3UXMVECTORF32@1@B
CONST	SEGMENT
?g_XMLg10@DirectX@@3UXMVECTORF32@1@B DD 040549a78r ; 3.32193 ; DirectX::g_XMLg10
	DD	040549a78r			; 3.32193
	DD	040549a78r			; 3.32193
	DD	040549a78r			; 3.32193
CONST	ENDS
;	COMDAT ?g_XMInvLgE@DirectX@@3UXMVECTORF32@1@B
CONST	SEGMENT
?g_XMInvLgE@DirectX@@3UXMVECTORF32@1@B DD 03f317218r ; 0.693147 ; DirectX::g_XMInvLgE
	DD	03f317218r			; 0.693147
	DD	03f317218r			; 0.693147
	DD	03f317218r			; 0.693147
CONST	ENDS
;	COMDAT ?g_XMLgE@DirectX@@3UXMVECTORF32@1@B
CONST	SEGMENT
?g_XMLgE@DirectX@@3UXMVECTORF32@1@B DD 03fb8aa3br ; 1.4427 ; DirectX::g_XMLgE
	DD	03fb8aa3br			; 1.4427
	DD	03fb8aa3br			; 1.4427
	DD	03fb8aa3br			; 1.4427
CONST	ENDS
;	COMDAT ?g_XMLogEst7@DirectX@@3UXMVECTORF32@1@B
CONST	SEGMENT
?g_XMLogEst7@DirectX@@3UXMVECTORF32@1@B DD 0bc2d4f59r ; -0.010578 ; DirectX::g_XMLogEst7
	DD	0bc2d4f59r			; -0.010578
	DD	0bc2d4f59r			; -0.010578
	DD	0bc2d4f59r			; -0.010578
CONST	ENDS
;	COMDAT ?g_XMLogEst6@DirectX@@3UXMVECTORF32@1@B
CONST	SEGMENT
?g_XMLogEst6@DirectX@@3UXMVECTORF32@1@B DD 03d6a1405r ; 0.057148 ; DirectX::g_XMLogEst6
	DD	03d6a1405r			; 0.057148
	DD	03d6a1405r			; 0.057148
	DD	03d6a1405r			; 0.057148
CONST	ENDS
;	COMDAT ?g_XMLogEst5@DirectX@@3UXMVECTORF32@1@B
CONST	SEGMENT
?g_XMLogEst5@DirectX@@3UXMVECTORF32@1@B DD 0be153261r ; -0.1457 ; DirectX::g_XMLogEst5
	DD	0be153261r			; -0.1457
	DD	0be153261r			; -0.1457
	DD	0be153261r			; -0.1457
CONST	ENDS
;	COMDAT ?g_XMLogEst4@DirectX@@3UXMVECTORF32@1@B
CONST	SEGMENT
?g_XMLogEst4@DirectX@@3UXMVECTORF32@1@B DD 03e7e8e61r ; 0.24859 ; DirectX::g_XMLogEst4
	DD	03e7e8e61r			; 0.24859
	DD	03e7e8e61r			; 0.24859
	DD	03e7e8e61r			; 0.24859
CONST	ENDS
;	COMDAT ?g_XMLogEst3@DirectX@@3UXMVECTORF32@1@B
CONST	SEGMENT
?g_XMLogEst3@DirectX@@3UXMVECTORF32@1@B DD 0beb359der ; -0.350295 ; DirectX::g_XMLogEst3
	DD	0beb359der			; -0.350295
	DD	0beb359der			; -0.350295
	DD	0beb359der			; -0.350295
CONST	ENDS
;	COMDAT ?g_XMLogEst2@DirectX@@3UXMVECTORF32@1@B
CONST	SEGMENT
?g_XMLogEst2@DirectX@@3UXMVECTORF32@1@B DD 03ef571d2r ; 0.479384 ; DirectX::g_XMLogEst2
	DD	03ef571d2r			; 0.479384
	DD	03ef571d2r			; 0.479384
	DD	03ef571d2r			; 0.479384
CONST	ENDS
;	COMDAT ?g_XMLogEst1@DirectX@@3UXMVECTORF32@1@B
CONST	SEGMENT
?g_XMLogEst1@DirectX@@3UXMVECTORF32@1@B DD 0bf38a351r ; -0.721242 ; DirectX::g_XMLogEst1
	DD	0bf38a351r			; -0.721242
	DD	0bf38a351r			; -0.721242
	DD	0bf38a351r			; -0.721242
CONST	ENDS
;	COMDAT ?g_XMLogEst0@DirectX@@3UXMVECTORF32@1@B
CONST	SEGMENT
?g_XMLogEst0@DirectX@@3UXMVECTORF32@1@B DD 03fb8aa2ar ; 1.44269 ; DirectX::g_XMLogEst0
	DD	03fb8aa2ar			; 1.44269
	DD	03fb8aa2ar			; 1.44269
	DD	03fb8aa2ar			; 1.44269
CONST	ENDS
;	COMDAT ?g_XMExpEst7@DirectX@@3UXMVECTORF32@1@B
CONST	SEGMENT
?g_XMExpEst7@DirectX@@3UXMVECTORF32@1@B DD 0b7364261r ; -1.08635e-05 ; DirectX::g_XMExpEst7
	DD	0b7364261r			; -1.08635e-05
	DD	0b7364261r			; -1.08635e-05
	DD	0b7364261r			; -1.08635e-05
CONST	ENDS
;	COMDAT ?g_XMExpEst6@DirectX@@3UXMVECTORF32@1@B
CONST	SEGMENT
?g_XMExpEst6@DirectX@@3UXMVECTORF32@1@B DD 0391aa7d7r ; 0.000147491 ; DirectX::g_XMExpEst6
	DD	0391aa7d7r			; 0.000147491
	DD	0391aa7d7r			; 0.000147491
	DD	0391aa7d7r			; 0.000147491
CONST	ENDS
;	COMDAT ?g_XMExpEst5@DirectX@@3UXMVECTORF32@1@B
CONST	SEGMENT
?g_XMExpEst5@DirectX@@3UXMVECTORF32@1@B DD 0baae1854r ; -0.00132824 ; DirectX::g_XMExpEst5
	DD	0baae1854r			; -0.00132824
	DD	0baae1854r			; -0.00132824
	DD	0baae1854r			; -0.00132824
CONST	ENDS
;	COMDAT ?g_XMExpEst4@DirectX@@3UXMVECTORF32@1@B
CONST	SEGMENT
?g_XMExpEst4@DirectX@@3UXMVECTORF32@1@B DD 03c1d8c54r ; 0.00961598 ; DirectX::g_XMExpEst4
	DD	03c1d8c54r			; 0.00961598
	DD	03c1d8c54r			; 0.00961598
	DD	03c1d8c54r			; 0.00961598
CONST	ENDS
;	COMDAT ?g_XMExpEst3@DirectX@@3UXMVECTORF32@1@B
CONST	SEGMENT
?g_XMExpEst3@DirectX@@3UXMVECTORF32@1@B DD 0bd6357car ; -0.0555036 ; DirectX::g_XMExpEst3
	DD	0bd6357car			; -0.0555036
	DD	0bd6357car			; -0.0555036
	DD	0bd6357car			; -0.0555036
CONST	ENDS
;	COMDAT ?g_XMExpEst2@DirectX@@3UXMVECTORF32@1@B
CONST	SEGMENT
?g_XMExpEst2@DirectX@@3UXMVECTORF32@1@B DD 03e75fdedr ; 0.240226 ; DirectX::g_XMExpEst2
	DD	03e75fdedr			; 0.240226
	DD	03e75fdedr			; 0.240226
	DD	03e75fdedr			; 0.240226
CONST	ENDS
;	COMDAT ?g_XMExpEst1@DirectX@@3UXMVECTORF32@1@B
CONST	SEGMENT
?g_XMExpEst1@DirectX@@3UXMVECTORF32@1@B DD 0bf317218r ; -0.693147 ; DirectX::g_XMExpEst1
	DD	0bf317218r			; -0.693147
	DD	0bf317218r			; -0.693147
	DD	0bf317218r			; -0.693147
CONST	ENDS
;	COMDAT ?g_XM253@DirectX@@3UXMVECTORI32@1@B
CONST	SEGMENT
?g_XM253@DirectX@@3UXMVECTORI32@1@B DD 0fdH		; DirectX::g_XM253
	DD	0fdH
	DD	0fdH
	DD	0fdH
CONST	ENDS
;	COMDAT ?g_XMBinNeg150@DirectX@@3UXMVECTORU32@1@B
CONST	SEGMENT
?g_XMBinNeg150@DirectX@@3UXMVECTORU32@1@B DD 0c3160000H	; DirectX::g_XMBinNeg150
	DD	0c3160000H
	DD	0c3160000H
	DD	0c3160000H
CONST	ENDS
;	COMDAT ?g_XMBin128@DirectX@@3UXMVECTORI32@1@B
CONST	SEGMENT
?g_XMBin128@DirectX@@3UXMVECTORI32@1@B DD 043000000H	; DirectX::g_XMBin128
	DD	043000000H
	DD	043000000H
	DD	043000000H
CONST	ENDS
;	COMDAT ?g_XMNegQNaN@DirectX@@3UXMVECTORU32@1@B
CONST	SEGMENT
?g_XMNegQNaN@DirectX@@3UXMVECTORU32@1@B DD 0ffc00000H	; DirectX::g_XMNegQNaN
	DD	0ffc00000H
	DD	0ffc00000H
	DD	0ffc00000H
CONST	ENDS
;	COMDAT ?g_XMNegInfinity@DirectX@@3UXMVECTORU32@1@B
CONST	SEGMENT
?g_XMNegInfinity@DirectX@@3UXMVECTORU32@1@B DD 0ff800000H ; DirectX::g_XMNegInfinity
	DD	0ff800000H
	DD	0ff800000H
	DD	0ff800000H
CONST	ENDS
;	COMDAT ?g_XMMinNormal@DirectX@@3UXMVECTORI32@1@B
CONST	SEGMENT
?g_XMMinNormal@DirectX@@3UXMVECTORI32@1@B DD 0800000H	; DirectX::g_XMMinNormal
	DD	0800000H
	DD	0800000H
	DD	0800000H
CONST	ENDS
;	COMDAT ?g_XMNumTrailing@DirectX@@3UXMVECTORI32@1@B
CONST	SEGMENT
?g_XMNumTrailing@DirectX@@3UXMVECTORI32@1@B DD 017H	; DirectX::g_XMNumTrailing
	DD	017H
	DD	017H
	DD	017H
CONST	ENDS
;	COMDAT ?g_XMSubnormalExponent@DirectX@@3UXMVECTORI32@1@B
CONST	SEGMENT
?g_XMSubnormalExponent@DirectX@@3UXMVECTORI32@1@B DD 0ffffff82H ; DirectX::g_XMSubnormalExponent
	DD	0ffffff82H
	DD	0ffffff82H
	DD	0ffffff82H
CONST	ENDS
;	COMDAT ?g_XMExponentBias@DirectX@@3UXMVECTORI32@1@B
CONST	SEGMENT
?g_XMExponentBias@DirectX@@3UXMVECTORI32@1@B DD 07fH	; DirectX::g_XMExponentBias
	DD	07fH
	DD	07fH
	DD	07fH
CONST	ENDS
;	COMDAT ?g_XMsrgbA1@DirectX@@3UXMVECTORF32@1@B
CONST	SEGMENT
?g_XMsrgbA1@DirectX@@3UXMVECTORF32@1@B DD 03f870a3dr ; 1.055 ; DirectX::g_XMsrgbA1
	DD	03f870a3dr			; 1.055
	DD	03f870a3dr			; 1.055
	DD	03f800000r			; 1
CONST	ENDS
;	COMDAT ?g_XMsrgbA@DirectX@@3UXMVECTORF32@1@B
CONST	SEGMENT
?g_XMsrgbA@DirectX@@3UXMVECTORF32@1@B DD 03d6147aer ; 0.055 ; DirectX::g_XMsrgbA
	DD	03d6147aer			; 0.055
	DD	03d6147aer			; 0.055
	DD	000000000r			; 0
CONST	ENDS
;	COMDAT ?g_XMsrgbScale@DirectX@@3UXMVECTORF32@1@B
CONST	SEGMENT
?g_XMsrgbScale@DirectX@@3UXMVECTORF32@1@B DD 0414eb852r ; 12.92 ; DirectX::g_XMsrgbScale
	DD	0414eb852r			; 12.92
	DD	0414eb852r			; 12.92
	DD	03f800000r			; 1
CONST	ENDS
;	COMDAT ?g_XMUnsignedFix@DirectX@@3UXMVECTORF32@1@B
CONST	SEGMENT
?g_XMUnsignedFix@DirectX@@3UXMVECTORF32@1@B DD 04f000000r ; 2.14748e+09 ; DirectX::g_XMUnsignedFix
	DD	04f000000r			; 2.14748e+09
	DD	04f000000r			; 2.14748e+09
	DD	04f000000r			; 2.14748e+09
CONST	ENDS
;	COMDAT ?g_XMMaxUInt@DirectX@@3UXMVECTORF32@1@B
CONST	SEGMENT
?g_XMMaxUInt@DirectX@@3UXMVECTORF32@1@B DD 04f7fffffr ; 4.29497e+09 ; DirectX::g_XMMaxUInt
	DD	04f7fffffr			; 4.29497e+09
	DD	04f7fffffr			; 4.29497e+09
	DD	04f7fffffr			; 4.29497e+09
CONST	ENDS
;	COMDAT ?g_XMMaxInt@DirectX@@3UXMVECTORF32@1@B
CONST	SEGMENT
?g_XMMaxInt@DirectX@@3UXMVECTORF32@1@B DD 04effffffr ; 2.14748e+09 ; DirectX::g_XMMaxInt
	DD	04effffffr			; 2.14748e+09
	DD	04effffffr			; 2.14748e+09
	DD	04effffffr			; 2.14748e+09
CONST	ENDS
;	COMDAT ?g_XMFixUnsigned@DirectX@@3UXMVECTORF32@1@B
CONST	SEGMENT
?g_XMFixUnsigned@DirectX@@3UXMVECTORF32@1@B DD 04f000000r ; 2.14748e+09 ; DirectX::g_XMFixUnsigned
	DD	04f000000r			; 2.14748e+09
	DD	04f000000r			; 2.14748e+09
	DD	04f000000r			; 2.14748e+09
CONST	ENDS
;	COMDAT ?g_XMAddByte4@DirectX@@3UXMVECTORF32@1@B
CONST	SEGMENT
?g_XMAddByte4@DirectX@@3UXMVECTORF32@1@B DD 0c3000000r ; -128 ; DirectX::g_XMAddByte4
	DD	0c7000000r			; -32768
	DD	0cb000000r			; -8.38861e+06
	DD	000000000r			; 0
CONST	ENDS
;	COMDAT ?g_XMXorByte4@DirectX@@3UXMVECTORI32@1@B
CONST	SEGMENT
?g_XMXorByte4@DirectX@@3UXMVECTORI32@1@B DD 080H	; DirectX::g_XMXorByte4
	DD	08000H
	DD	0800000H
	DD	00H
CONST	ENDS
;	COMDAT ?g_XMMaskByte4@DirectX@@3UXMVECTORU32@1@B
CONST	SEGMENT
?g_XMMaskByte4@DirectX@@3UXMVECTORU32@1@B DD 0ffH	; DirectX::g_XMMaskByte4
	DD	0ff00H
	DD	0ff0000H
	DD	0ff000000H
CONST	ENDS
;	COMDAT ?g_XMMulDec4@DirectX@@3UXMVECTORF32@1@B
CONST	SEGMENT
?g_XMMulDec4@DirectX@@3UXMVECTORF32@1@B DD 03f800000r ; 1 ; DirectX::g_XMMulDec4
	DD	03a800000r			; 0.000976562
	DD	035800000r			; 9.53674e-07
	DD	030800000r			; 9.31323e-10
CONST	ENDS
;	COMDAT ?g_XMAddDec4@DirectX@@3UXMVECTORF32@1@B
CONST	SEGMENT
?g_XMAddDec4@DirectX@@3UXMVECTORF32@1@B DD 0c4000000r ; -512 ; DirectX::g_XMAddDec4
	DD	0c9000000r			; -524288
	DD	0ce000000r			; -5.36871e+08
	DD	000000000r			; 0
CONST	ENDS
;	COMDAT ?g_XMAddUDec4@DirectX@@3UXMVECTORF32@1@B
CONST	SEGMENT
?g_XMAddUDec4@DirectX@@3UXMVECTORF32@1@B DD 000000000r ; 0 ; DirectX::g_XMAddUDec4
	DD	000000000r			; 0
	DD	000000000r			; 0
	DD	04f000000r			; 2.14748e+09
CONST	ENDS
;	COMDAT ?g_XMXorDec4@DirectX@@3UXMVECTORI32@1@B
CONST	SEGMENT
?g_XMXorDec4@DirectX@@3UXMVECTORI32@1@B DD 0200H	; DirectX::g_XMXorDec4
	DD	080000H
	DD	020000000H
	DD	00H
CONST	ENDS
;	COMDAT ?g_XMMaskDec4@DirectX@@3UXMVECTORI32@1@B
CONST	SEGMENT
?g_XMMaskDec4@DirectX@@3UXMVECTORI32@1@B DD 03ffH	; DirectX::g_XMMaskDec4
	DD	0ffc00H
	DD	03ff00000H
	DD	0c0000000H
CONST	ENDS
;	COMDAT ?g_XMFlipYW@DirectX@@3UXMVECTORU32@1@B
CONST	SEGMENT
?g_XMFlipYW@DirectX@@3UXMVECTORU32@1@B DD 00H		; DirectX::g_XMFlipYW
	DD	080000000H
	DD	00H
	DD	080000000H
CONST	ENDS
;	COMDAT ?g_XMFlipZW@DirectX@@3UXMVECTORU32@1@B
CONST	SEGMENT
?g_XMFlipZW@DirectX@@3UXMVECTORU32@1@B DD 00H		; DirectX::g_XMFlipZW
	DD	00H
	DD	080000000H
	DD	080000000H
CONST	ENDS
;	COMDAT ?g_XMFlipYZ@DirectX@@3UXMVECTORU32@1@B
CONST	SEGMENT
?g_XMFlipYZ@DirectX@@3UXMVECTORU32@1@B DD 00H		; DirectX::g_XMFlipYZ
	DD	080000000H
	DD	080000000H
	DD	00H
CONST	ENDS
;	COMDAT ?g_XMFlipW@DirectX@@3UXMVECTORU32@1@B
CONST	SEGMENT
?g_XMFlipW@DirectX@@3UXMVECTORU32@1@B DD 00H		; DirectX::g_XMFlipW
	DD	00H
	DD	00H
	DD	080000000H
CONST	ENDS
;	COMDAT ?g_XMFlipZ@DirectX@@3UXMVECTORU32@1@B
CONST	SEGMENT
?g_XMFlipZ@DirectX@@3UXMVECTORU32@1@B DD 00H		; DirectX::g_XMFlipZ
	DD	00H
	DD	080000000H
	DD	00H
CONST	ENDS
;	COMDAT ?g_XMFlipY@DirectX@@3UXMVECTORU32@1@B
CONST	SEGMENT
?g_XMFlipY@DirectX@@3UXMVECTORU32@1@B DD 00H		; DirectX::g_XMFlipY
	DD	080000000H
	DD	00H
	DD	00H
CONST	ENDS
;	COMDAT ?g_XMFixupY16W16@DirectX@@3UXMVECTORF32@1@B
CONST	SEGMENT
?g_XMFixupY16W16@DirectX@@3UXMVECTORF32@1@B DD 03f800000r ; 1 ; DirectX::g_XMFixupY16W16
	DD	03f800000r			; 1
	DD	037800000r			; 1.52588e-05
	DD	037800000r			; 1.52588e-05
CONST	ENDS
;	COMDAT ?g_XMFixupY16@DirectX@@3UXMVECTORF32@1@B
CONST	SEGMENT
?g_XMFixupY16@DirectX@@3UXMVECTORF32@1@B DD 03f800000r ; 1 ; DirectX::g_XMFixupY16
	DD	037800000r			; 1.52588e-05
	DD	000000000r			; 0
	DD	000000000r			; 0
CONST	ENDS
;	COMDAT ?g_XMSelect1011@DirectX@@3UXMVECTORU32@1@B
CONST	SEGMENT
?g_XMSelect1011@DirectX@@3UXMVECTORU32@1@B DD 0ffffffffH ; DirectX::g_XMSelect1011
	DD	00H
	DD	0ffffffffH
	DD	0ffffffffH
CONST	ENDS
;	COMDAT ?g_XMSelect1110@DirectX@@3UXMVECTORU32@1@B
CONST	SEGMENT
?g_XMSelect1110@DirectX@@3UXMVECTORU32@1@B DD 0ffffffffH ; DirectX::g_XMSelect1110
	DD	0ffffffffH
	DD	0ffffffffH
	DD	00H
CONST	ENDS
;	COMDAT ?g_XMSelect1100@DirectX@@3UXMVECTORU32@1@B
CONST	SEGMENT
?g_XMSelect1100@DirectX@@3UXMVECTORU32@1@B DD 0ffffffffH ; DirectX::g_XMSelect1100
	DD	0ffffffffH
	DD	00H
	DD	00H
CONST	ENDS
;	COMDAT ?g_XMSelect1000@DirectX@@3UXMVECTORU32@1@B
CONST	SEGMENT
?g_XMSelect1000@DirectX@@3UXMVECTORU32@1@B DD 0ffffffffH ; DirectX::g_XMSelect1000
	DD	00H
	DD	00H
	DD	00H
CONST	ENDS
;	COMDAT ?g_XMOneHalfMinusEpsilon@DirectX@@3UXMVECTORI32@1@B
CONST	SEGMENT
?g_XMOneHalfMinusEpsilon@DirectX@@3UXMVECTORI32@1@B DD 03efffffdH ; DirectX::g_XMOneHalfMinusEpsilon
	DD	03efffffdH
	DD	03efffffdH
	DD	03efffffdH
CONST	ENDS
;	COMDAT ?g_XMSelect1010@DirectX@@3UXMVECTORU32@1@B
CONST	SEGMENT
?g_XMSelect1010@DirectX@@3UXMVECTORU32@1@B DD 0ffffffffH ; DirectX::g_XMSelect1010
	DD	00H
	DD	0ffffffffH
	DD	00H
CONST	ENDS
;	COMDAT ?g_XMSelect0101@DirectX@@3UXMVECTORU32@1@B
CONST	SEGMENT
?g_XMSelect0101@DirectX@@3UXMVECTORU32@1@B DD 00H	; DirectX::g_XMSelect0101
	DD	0ffffffffH
	DD	00H
	DD	0ffffffffH
CONST	ENDS
;	COMDAT ?g_XMNegateW@DirectX@@3UXMVECTORF32@1@B
CONST	SEGMENT
?g_XMNegateW@DirectX@@3UXMVECTORF32@1@B DD 03f800000r ; 1 ; DirectX::g_XMNegateW
	DD	03f800000r			; 1
	DD	03f800000r			; 1
	DD	0bf800000r			; -1
CONST	ENDS
;	COMDAT ?g_XMNegateZ@DirectX@@3UXMVECTORF32@1@B
CONST	SEGMENT
?g_XMNegateZ@DirectX@@3UXMVECTORF32@1@B DD 03f800000r ; 1 ; DirectX::g_XMNegateZ
	DD	03f800000r			; 1
	DD	0bf800000r			; -1
	DD	03f800000r			; 1
CONST	ENDS
;	COMDAT ?g_XMNegateY@DirectX@@3UXMVECTORF32@1@B
CONST	SEGMENT
?g_XMNegateY@DirectX@@3UXMVECTORF32@1@B DD 03f800000r ; 1 ; DirectX::g_XMNegateY
	DD	0bf800000r			; -1
	DD	03f800000r			; 1
	DD	03f800000r			; 1
CONST	ENDS
;	COMDAT ?g_XMNegateX@DirectX@@3UXMVECTORF32@1@B
CONST	SEGMENT
?g_XMNegateX@DirectX@@3UXMVECTORF32@1@B DD 0bf800000r ; -1 ; DirectX::g_XMNegateX
	DD	03f800000r			; 1
	DD	03f800000r			; 1
	DD	03f800000r			; 1
CONST	ENDS
;	COMDAT ?g_XMMaskByte@DirectX@@3UXMVECTORI32@1@B
CONST	SEGMENT
?g_XMMaskByte@DirectX@@3UXMVECTORI32@1@B DD 0ffH	; DirectX::g_XMMaskByte
	DD	0ffH
	DD	0ffH
	DD	0ffH
CONST	ENDS
;	COMDAT ?g_XMNoFraction@DirectX@@3UXMVECTORF32@1@B
CONST	SEGMENT
?g_XMNoFraction@DirectX@@3UXMVECTORF32@1@B DD 04b000000r ; 8.38861e+06 ; DirectX::g_XMNoFraction
	DD	04b000000r			; 8.38861e+06
	DD	04b000000r			; 8.38861e+06
	DD	04b000000r			; 8.38861e+06
CONST	ENDS
;	COMDAT ?g_XMNormalizeX16Y16Z16W16@DirectX@@3UXMVECTORF32@1@B
CONST	SEGMENT
?g_XMNormalizeX16Y16Z16W16@DirectX@@3UXMVECTORF32@1@B DD 038000100r ; 3.05185e-05 ; DirectX::g_XMNormalizeX16Y16Z16W16
	DD	038000100r			; 3.05185e-05
	DD	030000100r			; 4.65675e-10
	DD	030000100r			; 4.65675e-10
CONST	ENDS
;	COMDAT ?g_XMFixX16Y16Z16W16@DirectX@@3UXMVECTORF32@1@B
CONST	SEGMENT
?g_XMFixX16Y16Z16W16@DirectX@@3UXMVECTORF32@1@B DD 0c7000000r ; -32768 ; DirectX::g_XMFixX16Y16Z16W16
	DD	0c7000000r			; -32768
	DD	000000000r			; 0
	DD	000000000r			; 0
CONST	ENDS
;	COMDAT ?g_XMFlipX16Y16Z16W16@DirectX@@3UXMVECTORI32@1@B
CONST	SEGMENT
?g_XMFlipX16Y16Z16W16@DirectX@@3UXMVECTORI32@1@B DD 08000H ; DirectX::g_XMFlipX16Y16Z16W16
	DD	08000H
	DD	00H
	DD	00H
CONST	ENDS
;	COMDAT ?g_XMMaskX16Y16Z16W16@DirectX@@3UXMVECTORU32@1@B
CONST	SEGMENT
?g_XMMaskX16Y16Z16W16@DirectX@@3UXMVECTORU32@1@B DD 0ffffH ; DirectX::g_XMMaskX16Y16Z16W16
	DD	0ffffH
	DD	0ffff0000H
	DD	0ffff0000H
CONST	ENDS
;	COMDAT ?g_XMNormalizeX16Y16@DirectX@@3UXMVECTORF32@1@B
CONST	SEGMENT
?g_XMNormalizeX16Y16@DirectX@@3UXMVECTORF32@1@B DD 038000100r ; 3.05185e-05 ; DirectX::g_XMNormalizeX16Y16
	DD	030000100r			; 4.65675e-10
	DD	000000000r			; 0
	DD	000000000r			; 0
CONST	ENDS
;	COMDAT ?g_XMFixX16Y16@DirectX@@3UXMVECTORF32@1@B
CONST	SEGMENT
?g_XMFixX16Y16@DirectX@@3UXMVECTORF32@1@B DD 0c7000000r ; -32768 ; DirectX::g_XMFixX16Y16
	DD	000000000r			; 0
	DD	000000000r			; 0
	DD	000000000r			; 0
CONST	ENDS
;	COMDAT ?g_XMFlipX16Y16@DirectX@@3UXMVECTORI32@1@B
CONST	SEGMENT
?g_XMFlipX16Y16@DirectX@@3UXMVECTORI32@1@B DD 08000H	; DirectX::g_XMFlipX16Y16
	DD	00H
	DD	00H
	DD	00H
CONST	ENDS
;	COMDAT ?g_XMMaskX16Y16@DirectX@@3UXMVECTORU32@1@B
CONST	SEGMENT
?g_XMMaskX16Y16@DirectX@@3UXMVECTORU32@1@B DD 0ffffH	; DirectX::g_XMMaskX16Y16
	DD	0ffff0000H
	DD	00H
	DD	00H
CONST	ENDS
;	COMDAT ?g_XMNormalizeA2B10G10R10@DirectX@@3UXMVECTORF32@1@B
CONST	SEGMENT
?g_XMNormalizeA2B10G10R10@DirectX@@3UXMVECTORF32@1@B DD 03b004020r ; 0.00195695 ; DirectX::g_XMNormalizeA2B10G10R10
	DD	036004020r			; 1.91108e-06
	DD	031004020r			; 1.86629e-09
	DD	02faaaaabr			; 3.10441e-10
CONST	ENDS
;	COMDAT ?g_XMFixAA2B10G10R10@DirectX@@3UXMVECTORF32@1@B
CONST	SEGMENT
?g_XMFixAA2B10G10R10@DirectX@@3UXMVECTORF32@1@B DD 0c4000000r ; -512 ; DirectX::g_XMFixAA2B10G10R10
	DD	0c9000000r			; -524288
	DD	0ce000000r			; -5.36871e+08
	DD	04f000000r			; 2.14748e+09
CONST	ENDS
;	COMDAT ?g_XMFlipA2B10G10R10@DirectX@@3UXMVECTORU32@1@B
CONST	SEGMENT
?g_XMFlipA2B10G10R10@DirectX@@3UXMVECTORU32@1@B DD 0200H ; DirectX::g_XMFlipA2B10G10R10
	DD	080000H
	DD	020000000H
	DD	080000000H
CONST	ENDS
;	COMDAT ?g_XMMaskA2B10G10R10@DirectX@@3UXMVECTORU32@1@B
CONST	SEGMENT
?g_XMMaskA2B10G10R10@DirectX@@3UXMVECTORU32@1@B DD 03ffH ; DirectX::g_XMMaskA2B10G10R10
	DD	0ffc00H
	DD	03ff00000H
	DD	0c0000000H
CONST	ENDS
;	COMDAT ?g_XMNormalizeA8R8G8B8@DirectX@@3UXMVECTORF32@1@B
CONST	SEGMENT
?g_XMNormalizeA8R8G8B8@DirectX@@3UXMVECTORF32@1@B DD 033808081r ; 5.98384e-08 ; DirectX::g_XMNormalizeA8R8G8B8
	DD	037808081r			; 1.53186e-05
	DD	03b808081r			; 0.00392157
	DD	02f808081r			; 2.33744e-10
CONST	ENDS
;	COMDAT ?g_XMFixAA8R8G8B8@DirectX@@3UXMVECTORF32@1@B
CONST	SEGMENT
?g_XMFixAA8R8G8B8@DirectX@@3UXMVECTORF32@1@B DD 000000000r ; 0 ; DirectX::g_XMFixAA8R8G8B8
	DD	000000000r			; 0
	DD	000000000r			; 0
	DD	04f000000r			; 2.14748e+09
CONST	ENDS
;	COMDAT ?g_XMFlipA8R8G8B8@DirectX@@3UXMVECTORU32@1@B
CONST	SEGMENT
?g_XMFlipA8R8G8B8@DirectX@@3UXMVECTORU32@1@B DD 00H	; DirectX::g_XMFlipA8R8G8B8
	DD	00H
	DD	00H
	DD	080000000H
CONST	ENDS
;	COMDAT ?g_XMMaskA8R8G8B8@DirectX@@3UXMVECTORU32@1@B
CONST	SEGMENT
?g_XMMaskA8R8G8B8@DirectX@@3UXMVECTORU32@1@B DD 0ff0000H ; DirectX::g_XMMaskA8R8G8B8
	DD	0ff00H
	DD	0ffH
	DD	0ff000000H
CONST	ENDS
;	COMDAT ?g_XMNegOneMask@DirectX@@3UXMVECTORU32@1@B
CONST	SEGMENT
?g_XMNegOneMask@DirectX@@3UXMVECTORU32@1@B DD 0ffffffffH ; DirectX::g_XMNegOneMask
	DD	0ffffffffH
	DD	0ffffffffH
	DD	0ffffffffH
CONST	ENDS
;	COMDAT ?g_XMFltMax@DirectX@@3UXMVECTORI32@1@B
CONST	SEGMENT
?g_XMFltMax@DirectX@@3UXMVECTORI32@1@B DD 07f7fffffH	; DirectX::g_XMFltMax
	DD	07f7fffffH
	DD	07f7fffffH
	DD	07f7fffffH
CONST	ENDS
;	COMDAT ?g_XMFltMin@DirectX@@3UXMVECTORI32@1@B
CONST	SEGMENT
?g_XMFltMin@DirectX@@3UXMVECTORI32@1@B DD 0800000H	; DirectX::g_XMFltMin
	DD	0800000H
	DD	0800000H
	DD	0800000H
CONST	ENDS
;	COMDAT ?g_XMAbsMask@DirectX@@3UXMVECTORI32@1@B
CONST	SEGMENT
?g_XMAbsMask@DirectX@@3UXMVECTORI32@1@B DD 07fffffffH	; DirectX::g_XMAbsMask
	DD	07fffffffH
	DD	07fffffffH
	DD	07fffffffH
CONST	ENDS
;	COMDAT ?g_XMQNaNTest@DirectX@@3UXMVECTORI32@1@B
CONST	SEGMENT
?g_XMQNaNTest@DirectX@@3UXMVECTORI32@1@B DD 07fffffH	; DirectX::g_XMQNaNTest
	DD	07fffffH
	DD	07fffffH
	DD	07fffffH
CONST	ENDS
;	COMDAT ?g_XMQNaN@DirectX@@3UXMVECTORI32@1@B
CONST	SEGMENT
?g_XMQNaN@DirectX@@3UXMVECTORI32@1@B DD 07fc00000H	; DirectX::g_XMQNaN
	DD	07fc00000H
	DD	07fc00000H
	DD	07fc00000H
CONST	ENDS
;	COMDAT ?g_XMInfinity@DirectX@@3UXMVECTORI32@1@B
CONST	SEGMENT
?g_XMInfinity@DirectX@@3UXMVECTORI32@1@B DD 07f800000H	; DirectX::g_XMInfinity
	DD	07f800000H
	DD	07f800000H
	DD	07f800000H
CONST	ENDS
;	COMDAT ?g_XMEpsilon@DirectX@@3UXMVECTORF32@1@B
CONST	SEGMENT
?g_XMEpsilon@DirectX@@3UXMVECTORF32@1@B DD 034000000r ; 1.19209e-07 ; DirectX::g_XMEpsilon
	DD	034000000r			; 1.19209e-07
	DD	034000000r			; 1.19209e-07
	DD	034000000r			; 1.19209e-07
CONST	ENDS
;	COMDAT ?g_XMReciprocalTwoPi@DirectX@@3UXMVECTORF32@1@B
CONST	SEGMENT
?g_XMReciprocalTwoPi@DirectX@@3UXMVECTORF32@1@B DD 03e22f983r ; 0.159155 ; DirectX::g_XMReciprocalTwoPi
	DD	03e22f983r			; 0.159155
	DD	03e22f983r			; 0.159155
	DD	03e22f983r			; 0.159155
CONST	ENDS
;	COMDAT ?g_XMTwoPi@DirectX@@3UXMVECTORF32@1@B
CONST	SEGMENT
?g_XMTwoPi@DirectX@@3UXMVECTORF32@1@B DD 040c90fdbr ; 6.28319 ; DirectX::g_XMTwoPi
	DD	040c90fdbr			; 6.28319
	DD	040c90fdbr			; 6.28319
	DD	040c90fdbr			; 6.28319
CONST	ENDS
;	COMDAT ?g_XMReciprocalPi@DirectX@@3UXMVECTORF32@1@B
CONST	SEGMENT
?g_XMReciprocalPi@DirectX@@3UXMVECTORF32@1@B DD 03ea2f983r ; 0.31831 ; DirectX::g_XMReciprocalPi
	DD	03ea2f983r			; 0.31831
	DD	03ea2f983r			; 0.31831
	DD	03ea2f983r			; 0.31831
CONST	ENDS
;	COMDAT ?g_XMPi@DirectX@@3UXMVECTORF32@1@B
CONST	SEGMENT
?g_XMPi@DirectX@@3UXMVECTORF32@1@B DD 040490fdbr ; 3.14159 ; DirectX::g_XMPi
	DD	040490fdbr			; 3.14159
	DD	040490fdbr			; 3.14159
	DD	040490fdbr			; 3.14159
CONST	ENDS
;	COMDAT ?g_XMHalfPi@DirectX@@3UXMVECTORF32@1@B
CONST	SEGMENT
?g_XMHalfPi@DirectX@@3UXMVECTORF32@1@B DD 03fc90fdbr ; 1.5708 ; DirectX::g_XMHalfPi
	DD	03fc90fdbr			; 1.5708
	DD	03fc90fdbr			; 1.5708
	DD	03fc90fdbr			; 1.5708
CONST	ENDS
;	COMDAT ?g_XMNegativePi@DirectX@@3UXMVECTORF32@1@B
CONST	SEGMENT
?g_XMNegativePi@DirectX@@3UXMVECTORF32@1@B DD 0c0490fdbr ; -3.14159 ; DirectX::g_XMNegativePi
	DD	0c0490fdbr			; -3.14159
	DD	0c0490fdbr			; -3.14159
	DD	0c0490fdbr			; -3.14159
CONST	ENDS
;	COMDAT ?g_XMNegativeTwoPi@DirectX@@3UXMVECTORF32@1@B
CONST	SEGMENT
?g_XMNegativeTwoPi@DirectX@@3UXMVECTORF32@1@B DD 0c0c90fdbr ; -6.28319 ; DirectX::g_XMNegativeTwoPi
	DD	0c0c90fdbr			; -6.28319
	DD	0c0c90fdbr			; -6.28319
	DD	0c0c90fdbr			; -6.28319
CONST	ENDS
;	COMDAT ?g_XMNegativeOneHalf@DirectX@@3UXMVECTORF32@1@B
CONST	SEGMENT
?g_XMNegativeOneHalf@DirectX@@3UXMVECTORF32@1@B DD 0bf000000r ; -0.5 ; DirectX::g_XMNegativeOneHalf
	DD	0bf000000r			; -0.5
	DD	0bf000000r			; -0.5
	DD	0bf000000r			; -0.5
CONST	ENDS
;	COMDAT ?g_XMOneHalf@DirectX@@3UXMVECTORF32@1@B
CONST	SEGMENT
?g_XMOneHalf@DirectX@@3UXMVECTORF32@1@B DD 03f000000r ; 0.5 ; DirectX::g_XMOneHalf
	DD	03f000000r			; 0.5
	DD	03f000000r			; 0.5
	DD	03f000000r			; 0.5
CONST	ENDS
;	COMDAT ?g_XMNegativeOne@DirectX@@3UXMVECTORF32@1@B
CONST	SEGMENT
?g_XMNegativeOne@DirectX@@3UXMVECTORF32@1@B DD 0bf800000r ; -1 ; DirectX::g_XMNegativeOne
	DD	0bf800000r			; -1
	DD	0bf800000r			; -1
	DD	0bf800000r			; -1
CONST	ENDS
;	COMDAT ?g_XMSix@DirectX@@3UXMVECTORF32@1@B
CONST	SEGMENT
?g_XMSix@DirectX@@3UXMVECTORF32@1@B DD 040c00000r ; 6	; DirectX::g_XMSix
	DD	040c00000r			; 6
	DD	040c00000r			; 6
	DD	040c00000r			; 6
CONST	ENDS
;	COMDAT ?g_XMFour@DirectX@@3UXMVECTORF32@1@B
CONST	SEGMENT
?g_XMFour@DirectX@@3UXMVECTORF32@1@B DD 040800000r ; 4	; DirectX::g_XMFour
	DD	040800000r			; 4
	DD	040800000r			; 4
	DD	040800000r			; 4
CONST	ENDS
;	COMDAT ?g_XMTwo@DirectX@@3UXMVECTORF32@1@B
CONST	SEGMENT
?g_XMTwo@DirectX@@3UXMVECTORF32@1@B DD 040000000r ; 2	; DirectX::g_XMTwo
	DD	040000000r			; 2
	DD	040000000r			; 2
	DD	040000000r			; 2
CONST	ENDS
;	COMDAT ?g_XMZero@DirectX@@3UXMVECTORF32@1@B
CONST	SEGMENT
?g_XMZero@DirectX@@3UXMVECTORF32@1@B DD 000000000r ; 0	; DirectX::g_XMZero
	DD	000000000r			; 0
	DD	000000000r			; 0
	DD	000000000r			; 0
CONST	ENDS
;	COMDAT ?g_XMOne3@DirectX@@3UXMVECTORF32@1@B
CONST	SEGMENT
?g_XMOne3@DirectX@@3UXMVECTORF32@1@B DD 03f800000r ; 1	; DirectX::g_XMOne3
	DD	03f800000r			; 1
	DD	03f800000r			; 1
	DD	000000000r			; 0
CONST	ENDS
;	COMDAT ?g_XMOne@DirectX@@3UXMVECTORF32@1@B
CONST	SEGMENT
?g_XMOne@DirectX@@3UXMVECTORF32@1@B DD 03f800000r ; 1	; DirectX::g_XMOne
	DD	03f800000r			; 1
	DD	03f800000r			; 1
	DD	03f800000r			; 1
CONST	ENDS
;	COMDAT ?g_XMMaskW@DirectX@@3UXMVECTORU32@1@B
CONST	SEGMENT
?g_XMMaskW@DirectX@@3UXMVECTORU32@1@B DD 00H		; DirectX::g_XMMaskW
	DD	00H
	DD	00H
	DD	0ffffffffH
CONST	ENDS
;	COMDAT ?g_XMMaskZ@DirectX@@3UXMVECTORU32@1@B
CONST	SEGMENT
?g_XMMaskZ@DirectX@@3UXMVECTORU32@1@B DD 00H		; DirectX::g_XMMaskZ
	DD	00H
	DD	0ffffffffH
	DD	00H
CONST	ENDS
;	COMDAT ?g_XMMaskY@DirectX@@3UXMVECTORU32@1@B
CONST	SEGMENT
?g_XMMaskY@DirectX@@3UXMVECTORU32@1@B DD 00H		; DirectX::g_XMMaskY
	DD	0ffffffffH
	DD	00H
	DD	00H
CONST	ENDS
;	COMDAT ?g_XMMaskX@DirectX@@3UXMVECTORU32@1@B
CONST	SEGMENT
?g_XMMaskX@DirectX@@3UXMVECTORU32@1@B DD 0ffffffffH	; DirectX::g_XMMaskX
	DD	00H
	DD	00H
	DD	00H
CONST	ENDS
;	COMDAT ?g_XMMask3@DirectX@@3UXMVECTORU32@1@B
CONST	SEGMENT
?g_XMMask3@DirectX@@3UXMVECTORU32@1@B DD 0ffffffffH	; DirectX::g_XMMask3
	DD	0ffffffffH
	DD	0ffffffffH
	DD	00H
CONST	ENDS
;	COMDAT ?g_XMMaskXY@DirectX@@3UXMVECTORU32@1@B
CONST	SEGMENT
?g_XMMaskXY@DirectX@@3UXMVECTORU32@1@B DD 0ffffffffH	; DirectX::g_XMMaskXY
	DD	0ffffffffH
	DD	00H
	DD	00H
CONST	ENDS
;	COMDAT ?g_XMNegate3@DirectX@@3UXMVECTORU32@1@B
CONST	SEGMENT
?g_XMNegate3@DirectX@@3UXMVECTORU32@1@B DD 080000000H	; DirectX::g_XMNegate3
	DD	080000000H
	DD	080000000H
	DD	00H
CONST	ENDS
;	COMDAT ?g_XMNegativeZero@DirectX@@3UXMVECTORU32@1@B
CONST	SEGMENT
?g_XMNegativeZero@DirectX@@3UXMVECTORU32@1@B DD 080000000H ; DirectX::g_XMNegativeZero
	DD	080000000H
	DD	080000000H
	DD	080000000H
CONST	ENDS
;	COMDAT ?g_XMNegIdentityR3@DirectX@@3UXMVECTORF32@1@B
CONST	SEGMENT
?g_XMNegIdentityR3@DirectX@@3UXMVECTORF32@1@B DD 000000000r ; 0 ; DirectX::g_XMNegIdentityR3
	DD	000000000r			; 0
	DD	000000000r			; 0
	DD	0bf800000r			; -1
CONST	ENDS
;	COMDAT ?g_XMNegIdentityR2@DirectX@@3UXMVECTORF32@1@B
CONST	SEGMENT
?g_XMNegIdentityR2@DirectX@@3UXMVECTORF32@1@B DD 000000000r ; 0 ; DirectX::g_XMNegIdentityR2
	DD	000000000r			; 0
	DD	0bf800000r			; -1
	DD	000000000r			; 0
CONST	ENDS
;	COMDAT ?g_XMNegIdentityR1@DirectX@@3UXMVECTORF32@1@B
CONST	SEGMENT
?g_XMNegIdentityR1@DirectX@@3UXMVECTORF32@1@B DD 000000000r ; 0 ; DirectX::g_XMNegIdentityR1
	DD	0bf800000r			; -1
	DD	000000000r			; 0
	DD	000000000r			; 0
CONST	ENDS
;	COMDAT ?g_XMNegIdentityR0@DirectX@@3UXMVECTORF32@1@B
CONST	SEGMENT
?g_XMNegIdentityR0@DirectX@@3UXMVECTORF32@1@B DD 0bf800000r ; -1 ; DirectX::g_XMNegIdentityR0
	DD	000000000r			; 0
	DD	000000000r			; 0
	DD	000000000r			; 0
CONST	ENDS
;	COMDAT ?g_XMIdentityR3@DirectX@@3UXMVECTORF32@1@B
CONST	SEGMENT
?g_XMIdentityR3@DirectX@@3UXMVECTORF32@1@B DD 000000000r ; 0 ; DirectX::g_XMIdentityR3
	DD	000000000r			; 0
	DD	000000000r			; 0
	DD	03f800000r			; 1
CONST	ENDS
;	COMDAT ?g_XMIdentityR2@DirectX@@3UXMVECTORF32@1@B
CONST	SEGMENT
?g_XMIdentityR2@DirectX@@3UXMVECTORF32@1@B DD 000000000r ; 0 ; DirectX::g_XMIdentityR2
	DD	000000000r			; 0
	DD	03f800000r			; 1
	DD	000000000r			; 0
CONST	ENDS
;	COMDAT ?g_XMIdentityR1@DirectX@@3UXMVECTORF32@1@B
CONST	SEGMENT
?g_XMIdentityR1@DirectX@@3UXMVECTORF32@1@B DD 000000000r ; 0 ; DirectX::g_XMIdentityR1
	DD	03f800000r			; 1
	DD	000000000r			; 0
	DD	000000000r			; 0
CONST	ENDS
;	COMDAT ?g_XMIdentityR0@DirectX@@3UXMVECTORF32@1@B
CONST	SEGMENT
?g_XMIdentityR0@DirectX@@3UXMVECTORF32@1@B DD 03f800000r ; 1 ; DirectX::g_XMIdentityR0
	DD	000000000r			; 0
	DD	000000000r			; 0
	DD	000000000r			; 0
CONST	ENDS
;	COMDAT ?g_XMPiConstants0@DirectX@@3UXMVECTORF32@1@B
CONST	SEGMENT
?g_XMPiConstants0@DirectX@@3UXMVECTORF32@1@B DD 040490fdbr ; 3.14159 ; DirectX::g_XMPiConstants0
	DD	040c90fdbr			; 6.28319
	DD	03ea2f983r			; 0.31831
	DD	03e22f983r			; 0.159155
CONST	ENDS
;	COMDAT ?g_XMArcEstCoefficients@DirectX@@3UXMVECTORF32@1@B
CONST	SEGMENT
?g_XMArcEstCoefficients@DirectX@@3UXMVECTORF32@1@B DD 03fc90da4r ; 1.57073 ; DirectX::g_XMArcEstCoefficients
	DD	0be593484r			; -0.212114
	DD	03d981627r			; 0.074261
	DD	0bc996e30r			; -0.0187293
CONST	ENDS
;	COMDAT ?g_XMTanEstCoefficients@DirectX@@3UXMVECTORF32@1@B
CONST	SEGMENT
?g_XMTanEstCoefficients@DirectX@@3UXMVECTORF32@1@B DD 0401ef9dbr ; 2.484 ; DirectX::g_XMTanEstCoefficients
	DD	0be482f23r			; -0.195492
	DD	0401de9e6r			; 2.4674
	DD	03ea2f983r			; 0.31831
CONST	ENDS
;	COMDAT ?g_XMATanEstCoefficients1@DirectX@@3UXMVECTORF32@1@B
CONST	SEGMENT
?g_XMATanEstCoefficients1@DirectX@@3UXMVECTORF32@1@B DD 0bea91d04r ; -0.330299 ; DirectX::g_XMATanEstCoefficients1
	DD	03e3876e2r			; 0.180141
	DD	0bdae5a36r			; -0.085133
	DD	03caaae5fr			; 0.0208351
CONST	ENDS
;	COMDAT ?g_XMATanEstCoefficients0@DirectX@@3UXMVECTORF32@1@B
CONST	SEGMENT
?g_XMATanEstCoefficients0@DirectX@@3UXMVECTORF32@1@B DD 03f7ff738r ; 0.999866 ; DirectX::g_XMATanEstCoefficients0
	DD	03f7ff738r			; 0.999866
	DD	03f7ff738r			; 0.999866
	DD	03f7ff738r			; 0.999866
CONST	ENDS
;	COMDAT ?g_XMATanCoefficients1@DirectX@@3UXMVECTORF32@1@B
CONST	SEGMENT
?g_XMATanCoefficients1@DirectX@@3UXMVECTORF32@1@B DD 0bd9a3174r ; -0.0752896 ; DirectX::g_XMATanCoefficients1
	DD	03d2fc1fer			; 0.0429096
	DD	0bc846e02r			; -0.0161657
	DD	03b3bd74ar			; 0.00286623
CONST	ENDS
;	COMDAT ?g_XMATanCoefficients0@DirectX@@3UXMVECTORF32@1@B
CONST	SEGMENT
?g_XMATanCoefficients0@DirectX@@3UXMVECTORF32@1@B DD 0beaaaa6cr ; -0.333331 ; DirectX::g_XMATanCoefficients0
	DD	03e4cbbe5r			; 0.199936
	DD	0be117fc7r			; -0.142089
	DD	03dda3d83r			; 0.106563
CONST	ENDS
;	COMDAT ?g_XMArcCoefficients1@DirectX@@3UXMVECTORF32@1@B
CONST	SEGMENT
?g_XMArcCoefficients1@DirectX@@3UXMVECTORF32@1@B DD 03cfd10f8r ; 0.0308919 ; DirectX::g_XMArcCoefficients1
	DD	0bc8bfc66r			; -0.0170881
	DD	03bda90c5r			; 0.00667009
	DD	0baa57a2cr			; -0.00126249
CONST	ENDS
;	COMDAT ?g_XMArcCoefficients0@DirectX@@3UXMVECTORF32@1@B
CONST	SEGMENT
?g_XMArcCoefficients0@DirectX@@3UXMVECTORF32@1@B DD 03fc90fdar ; 1.5708 ; DirectX::g_XMArcCoefficients0
	DD	0be5bbfcar			; -0.214599
	DD	03db63a9er			; 0.088979
	DD	0bd4d8392r			; -0.0501743
CONST	ENDS
;	COMDAT ?g_XMTanCoefficients2@DirectX@@3UXMVECTORF32@1@B
CONST	SEGMENT
?g_XMTanCoefficients2@DirectX@@3UXMVECTORF32@1@B DD 03a1aac12r ; 0.000590027 ; DirectX::g_XMTanCoefficients2
	DD	0397abeb9r			; 0.000239129
	DD	038cb3f0cr			; 9.69154e-05
	DD	03824bec9r			; 3.92783e-05
CONST	ENDS
;	COMDAT ?g_XMTanCoefficients1@DirectX@@3UXMVECTORF32@1@B
CONST	SEGMENT
?g_XMTanCoefficients1@DirectX@@3UXMVECTORF32@1@B DD 03cb327a4r ; 0.0218695 ; DirectX::g_XMTanCoefficients1
	DD	03c11371br			; 0.00886324
	DD	03b6b69e9r			; 0.00359213
	DD	03abed1b3r			; 0.00145583
CONST	ENDS
;	COMDAT ?g_XMTanCoefficients0@DirectX@@3UXMVECTORF32@1@B
CONST	SEGMENT
?g_XMTanCoefficients0@DirectX@@3UXMVECTORF32@1@B DD 03f800000r ; 1 ; DirectX::g_XMTanCoefficients0
	DD	03eaaaaabr			; 0.333333
	DD	03e088889r			; 0.133333
	DD	03d5d0dd1r			; 0.0539683
CONST	ENDS
;	COMDAT ?g_XMCosCoefficients1@DirectX@@3UXMVECTORF32@1@B
CONST	SEGMENT
?g_XMCosCoefficients1@DirectX@@3UXMVECTORF32@1@B DD 0b48bdd11r ; -2.60516e-07 ; DirectX::g_XMCosCoefficients1
	DD	0befff67er			; -0.499927
	DD	03d29f587r			; 0.0414939
	DD	0baa69fdbr			; -0.00127124
CONST	ENDS
;	COMDAT ?g_XMCosCoefficients0@DirectX@@3UXMVECTORF32@1@B
CONST	SEGMENT
?g_XMCosCoefficients0@DirectX@@3UXMVECTORF32@1@B DD 0bf000000r ; -0.5 ; DirectX::g_XMCosCoefficients0
	DD	03d2aaaa3r			; 0.0416666
	DD	0bab609aar			; -0.00138884
	DD	037cfb4c2r			; 2.47605e-05
CONST	ENDS
;	COMDAT ?g_XMSinCoefficients1@DirectX@@3UXMVECTORF32@1@B
CONST	SEGMENT
?g_XMSinCoefficients1@DirectX@@3UXMVECTORF32@1@B DD 0b2cd365br ; -2.38899e-08 ; DirectX::g_XMSinCoefficients1
	DD	0be2aa888r			; -0.166659
	DD	03c08373cr			; 0.00831395
	DD	0b9423ec8r			; -0.000185247
CONST	ENDS
;	COMDAT ?g_XMSinCoefficients0@DirectX@@3UXMVECTORF32@1@B
CONST	SEGMENT
?g_XMSinCoefficients0@DirectX@@3UXMVECTORF32@1@B DD 0be2aaaabr ; -0.166667 ; DirectX::g_XMSinCoefficients0
	DD	03c088886r			; 0.00833333
	DD	0b9500bf1r			; -0.000198409
	DD	03638b88er			; 2.75256e-06
CONST	ENDS
PUBLIC	?__empty_global_delete@@YAXPEAX@Z		; __empty_global_delete
PUBLIC	?__empty_global_delete@@YAXPEAX_K@Z		; __empty_global_delete
PUBLIC	?__empty_global_delete@@YAXPEAXW4align_val_t@std@@@Z ; __empty_global_delete
PUBLIC	?__empty_global_delete@@YAXPEAX_KW4align_val_t@std@@@Z ; __empty_global_delete
PUBLIC	?InternalRelease@?$ComPtr@UIUnknown@@@WRL@Microsoft@@IEAAKXZ ; Microsoft::WRL::ComPtr<IUnknown>::InternalRelease
PUBLIC	??1?$ComPtr@UIUnknown@@@WRL@Microsoft@@QEAA@XZ	; Microsoft::WRL::ComPtr<IUnknown>::~ComPtr<IUnknown>
PUBLIC	??_E?$ComPtr@UIUnknown@@@WRL@Microsoft@@QEAAPEAXI@Z ; Microsoft::WRL::ComPtr<IUnknown>::`vector deleting destructor'
PUBLIC	??0D3D12Camera@@QEAA@UXMFLOAT3@DirectX@@0@Z	; D3D12Camera::D3D12Camera
PUBLIC	wmemcpy
PUBLIC	?GetWitdh@FWindowsWindow@@QEAAIXZ		; FWindowsWindow::GetWitdh
PUBLIC	?GetHeight@FWindowsWindow@@QEAAIXZ		; FWindowsWindow::GetHeight
PUBLIC	?GetWindow@FWindowsWindowManager@@QEAAPEAVFWindowsWindow@@I@Z ; FWindowsWindowManager::GetWindow
PUBLIC	?size@?$vector@PEAVFWindowsWindow@@V?$allocator@PEAVFWindowsWindow@@@std@@@std@@QEBA_KXZ ; std::vector<FWindowsWindow *,std::allocator<FWindowsWindow *> >::size
PUBLIC	??A?$vector@PEAVFWindowsWindow@@V?$allocator@PEAVFWindowsWindow@@@std@@@std@@QEAAAEAPEAVFWindowsWindow@@_K@Z ; std::vector<FWindowsWindow *,std::allocator<FWindowsWindow *> >::operator[]
PUBLIC	??$_Maklocstr@_W@std@@YAPEA_WPEBDPEA_WAEBU_Cvtvec@@@Z ; std::_Maklocstr<wchar_t>
PUBLIC	?_Maklocwcs@std@@YAPEA_WPEB_W@Z			; std::_Maklocwcs
PUBLIC	??$_Maklocstr@D@std@@YAPEADPEBDPEADAEBU_Cvtvec@@@Z ; std::_Maklocstr<char>
PUBLIC	??$_Getvals@_W@?$time_get@DV?$istreambuf_iterator@DU?$char_traits@D@std@@@std@@@std@@IEAAX_WAEBV_Locinfo@1@@Z ; std::time_get<char,std::istreambuf_iterator<char,std::char_traits<char> > >::_Getvals<wchar_t>
PUBLIC	??$_Getvals@_W@?$time_get@_WV?$istreambuf_iterator@_WU?$char_traits@_W@std@@@std@@@std@@IEAAX_WAEBV_Locinfo@1@@Z ; std::time_get<wchar_t,std::istreambuf_iterator<wchar_t,std::char_traits<wchar_t> > >::_Getvals<wchar_t>
PUBLIC	?GetWindowManager@DEngine@@QEAAPEAVFWindowsWindowManager@@XZ ; DEngine::GetWindowManager
PUBLIC	__JustMyCode_Default
PUBLIC	??_C@_02DKCKIIND@?$CFs@				; `string'
PUBLIC	??_C@_11LOCGONAA@@				; `string'
PUBLIC	??_C@_0GA@KNHPFGML@C?3?2Program?5Files?2Microsoft?5Visu@ ; `string'
PUBLIC	?__LINE__Var@?0??_Maklocwcs@std@@YAPEA_WPEB_W@Z@4JA ; `std::_Maklocwcs'::`1'::__LINE__Var
PUBLIC	??_C@_0GA@CODCFEGK@C?3?2Program?5Files?2Microsoft?5Visu@ ; `string'
PUBLIC	??_C@_0FP@IENHKCNK@C?3?2Program?5Files?2Microsoft?5Visu@ ; `string'
PUBLIC	??_C@_1LO@DMIPLFD@?$AAC?$AA?3?$AA?2?$AAP?$AAr?$AAo?$AAg?$AAr?$AAa?$AAm?$AA?5?$AAF?$AAi?$AAl?$AAe@ ; `string'
PUBLIC	??_C@_0N@LPFKKEBD@?3AM?3am?3PM?3pm@		; `string'
PUBLIC	??_C@_0BO@PFKOHNJC@vector?5subscript?5out?5of?5range@ ; `string'
PUBLIC	??_C@_1EA@LEKOKFNB@?$AA?$CC?$AAv?$AAe?$AAc?$AAt?$AAo?$AAr?$AA?5?$AAs?$AAu?$AAb?$AAs?$AAc?$AAr?$AAi@ ; `string'
PUBLIC	??_C@_1BK@MHIKGOKE@?$AA?3?$AAA?$AAM?$AA?3?$AAa?$AAm?$AA?3?$AAP?$AAM?$AA?3?$AAp?$AAm@ ; `string'
PUBLIC	__real@42b40000
EXTRN	??_M@YAXPEAX_K1P6AX0@Z@Z:PROC			; `eh vector destructor iterator'
EXTRN	??3@YAXPEAX_K@Z:PROC				; operator delete
EXTRN	??_V@YAXPEAX_K@Z:PROC				; operator delete[]
EXTRN	__imp__invalid_parameter:PROC
EXTRN	memcpy:PROC
EXTRN	__imp_wcslen:PROC
EXTRN	strlen:PROC
EXTRN	__imp__calloc_dbg:PROC
EXTRN	__imp__CrtDbgReport:PROC
EXTRN	?_Xbad_alloc@std@@YAXXZ:PROC			; std::_Xbad_alloc
EXTRN	_Mbrtowc:PROC
EXTRN	__imp_?_Getcvt@_Locinfo@std@@QEBA?AU_Cvtvec@@XZ:PROC
EXTRN	__imp_?_Getdays@_Locinfo@std@@QEBAPEBDXZ:PROC
EXTRN	__imp_?_Getmonths@_Locinfo@std@@QEBAPEBDXZ:PROC
EXTRN	__imp_?_W_Getdays@_Locinfo@std@@QEBAPEBGXZ:PROC
EXTRN	__imp_?_W_Getmonths@_Locinfo@std@@QEBAPEBGXZ:PROC
EXTRN	__CheckForDebuggerJustMyCode:PROC
EXTRN	__CxxFrameHandler4:PROC
EXTRN	?GEngine@@3VDEngine@@A:BYTE			; GEngine
EXTRN	_fltused:DWORD
;	COMDAT pdata
pdata	SEGMENT
$pdata$?__empty_global_delete@@YAXPEAX@Z DD imagerel $LN3
	DD	imagerel $LN3+33
	DD	imagerel $unwind$?__empty_global_delete@@YAXPEAX@Z
pdata	ENDS
;	COMDAT pdata
pdata	SEGMENT
$pdata$?__empty_global_delete@@YAXPEAX_K@Z DD imagerel $LN3
	DD	imagerel $LN3+38
	DD	imagerel $unwind$?__empty_global_delete@@YAXPEAX_K@Z
pdata	ENDS
;	COMDAT pdata
pdata	SEGMENT
$pdata$?__empty_global_delete@@YAXPEAXW4align_val_t@std@@@Z DD imagerel $LN3
	DD	imagerel $LN3+38
	DD	imagerel $unwind$?__empty_global_delete@@YAXPEAXW4align_val_t@std@@@Z
pdata	ENDS
;	COMDAT pdata
pdata	SEGMENT
$pdata$?__empty_global_delete@@YAXPEAX_KW4align_val_t@std@@@Z DD imagerel $LN3
	DD	imagerel $LN3+43
	DD	imagerel $unwind$?__empty_global_delete@@YAXPEAX_KW4align_val_t@std@@@Z
pdata	ENDS
;	COMDAT pdata
pdata	SEGMENT
$pdata$?InternalRelease@?$ComPtr@UIUnknown@@@WRL@Microsoft@@IEAAKXZ DD imagerel $LN4
	DD	imagerel $LN4+89
	DD	imagerel $unwind$?InternalRelease@?$ComPtr@UIUnknown@@@WRL@Microsoft@@IEAAKXZ
pdata	ENDS
;	COMDAT pdata
pdata	SEGMENT
$pdata$??1?$ComPtr@UIUnknown@@@WRL@Microsoft@@QEAA@XZ DD imagerel $LN3
	DD	imagerel $LN3+42
	DD	imagerel $unwind$??1?$ComPtr@UIUnknown@@@WRL@Microsoft@@QEAA@XZ
pdata	ENDS
;	COMDAT pdata
pdata	SEGMENT
$pdata$??_E?$ComPtr@UIUnknown@@@WRL@Microsoft@@QEAAPEAXI@Z DD imagerel $LN6
	DD	imagerel $LN6+153
	DD	imagerel $unwind$??_E?$ComPtr@UIUnknown@@@WRL@Microsoft@@QEAAPEAXI@Z
pdata	ENDS
;	COMDAT pdata
pdata	SEGMENT
$pdata$??0D3D12Camera@@QEAA@UXMFLOAT3@DirectX@@0@Z DD imagerel $LN3
	DD	imagerel $LN3+194
	DD	imagerel $unwind$??0D3D12Camera@@QEAA@UXMFLOAT3@DirectX@@0@Z
pdata	ENDS
;	COMDAT pdata
pdata	SEGMENT
$pdata$wmemcpy DD imagerel $LN3
	DD	imagerel $LN3+66
	DD	imagerel $unwind$wmemcpy
pdata	ENDS
;	COMDAT pdata
pdata	SEGMENT
$pdata$?GetWitdh@FWindowsWindow@@QEAAIXZ DD imagerel $LN3
	DD	imagerel $LN3+40
	DD	imagerel $unwind$?GetWitdh@FWindowsWindow@@QEAAIXZ
pdata	ENDS
;	COMDAT pdata
pdata	SEGMENT
$pdata$?GetHeight@FWindowsWindow@@QEAAIXZ DD imagerel $LN3
	DD	imagerel $LN3+40
	DD	imagerel $unwind$?GetHeight@FWindowsWindow@@QEAAIXZ
pdata	ENDS
;	COMDAT pdata
pdata	SEGMENT
$pdata$?GetWindow@FWindowsWindowManager@@QEAAPEAVFWindowsWindow@@I@Z DD imagerel $LN5
	DD	imagerel $LN5+116
	DD	imagerel $unwind$?GetWindow@FWindowsWindowManager@@QEAAPEAVFWindowsWindow@@I@Z
pdata	ENDS
;	COMDAT pdata
pdata	SEGMENT
$pdata$?size@?$vector@PEAVFWindowsWindow@@V?$allocator@PEAVFWindowsWindow@@@std@@@std@@QEBA_KXZ DD imagerel $LN3
	DD	imagerel $LN3+64
	DD	imagerel $unwind$?size@?$vector@PEAVFWindowsWindow@@V?$allocator@PEAVFWindowsWindow@@@std@@@std@@QEBA_KXZ
pdata	ENDS
;	COMDAT pdata
pdata	SEGMENT
$pdata$??A?$vector@PEAVFWindowsWindow@@V?$allocator@PEAVFWindowsWindow@@@std@@@std@@QEAAAEAPEAVFWindowsWindow@@_K@Z DD imagerel $LN12
	DD	imagerel $LN12+213
	DD	imagerel $unwind$??A?$vector@PEAVFWindowsWindow@@V?$allocator@PEAVFWindowsWindow@@@std@@@std@@QEAAAEAPEAVFWindowsWindow@@_K@Z
pdata	ENDS
;	COMDAT pdata
pdata	SEGMENT
$pdata$??$_Maklocstr@_W@std@@YAPEA_WPEBDPEA_WAEBU_Cvtvec@@@Z DD imagerel $LN12
	DD	imagerel $LN12+438
	DD	imagerel $unwind$??$_Maklocstr@_W@std@@YAPEA_WPEBDPEA_WAEBU_Cvtvec@@@Z
pdata	ENDS
;	COMDAT pdata
pdata	SEGMENT
$pdata$?_Maklocwcs@std@@YAPEA_WPEB_W@Z DD imagerel $LN4
	DD	imagerel $LN4+131
	DD	imagerel $unwind$?_Maklocwcs@std@@YAPEA_WPEB_W@Z
pdata	ENDS
;	COMDAT pdata
pdata	SEGMENT
$pdata$??$_Maklocstr@D@std@@YAPEADPEBDPEADAEBU_Cvtvec@@@Z DD imagerel $LN7
	DD	imagerel $LN7+183
	DD	imagerel $unwind$??$_Maklocstr@D@std@@YAPEADPEBDPEADAEBU_Cvtvec@@@Z
pdata	ENDS
;	COMDAT pdata
pdata	SEGMENT
$pdata$??$_Getvals@_W@?$time_get@DV?$istreambuf_iterator@DU?$char_traits@D@std@@@std@@@std@@IEAAX_WAEBV_Locinfo@1@@Z DD imagerel $LN5
	DD	imagerel $LN5+341
	DD	imagerel $unwind$??$_Getvals@_W@?$time_get@DV?$istreambuf_iterator@DU?$char_traits@D@std@@@std@@@std@@IEAAX_WAEBV_Locinfo@1@@Z
pdata	ENDS
;	COMDAT pdata
pdata	SEGMENT
$pdata$??$_Getvals@_W@?$time_get@_WV?$istreambuf_iterator@_WU?$char_traits@_W@std@@@std@@@std@@IEAAX_WAEBV_Locinfo@1@@Z DD imagerel $LN5
	DD	imagerel $LN5+341
	DD	imagerel $unwind$??$_Getvals@_W@?$time_get@_WV?$istreambuf_iterator@_WU?$char_traits@_W@std@@@std@@@std@@IEAAX_WAEBV_Locinfo@1@@Z
pdata	ENDS
;	COMDAT pdata
pdata	SEGMENT
$pdata$?GetWindowManager@DEngine@@QEAAPEAVFWindowsWindowManager@@XZ DD imagerel $LN3
	DD	imagerel $LN3+41
	DD	imagerel $unwind$?GetWindowManager@DEngine@@QEAAPEAVFWindowsWindowManager@@XZ
pdata	ENDS
;	COMDAT __real@42b40000
CONST	SEGMENT
__real@42b40000 DD 042b40000r			; 90
CONST	ENDS
;	COMDAT ??_C@_1BK@MHIKGOKE@?$AA?3?$AAA?$AAM?$AA?3?$AAa?$AAm?$AA?3?$AAP?$AAM?$AA?3?$AAp?$AAm@
CONST	SEGMENT
??_C@_1BK@MHIKGOKE@?$AA?3?$AAA?$AAM?$AA?3?$AAa?$AAm?$AA?3?$AAP?$AAM?$AA?3?$AAp?$AAm@ DB ':'
	DB	00H, 'A', 00H, 'M', 00H, ':', 00H, 'a', 00H, 'm', 00H, ':', 00H
	DB	'P', 00H, 'M', 00H, ':', 00H, 'p', 00H, 'm', 00H, 00H, 00H ; `string'
CONST	ENDS
;	COMDAT ??_C@_1EA@LEKOKFNB@?$AA?$CC?$AAv?$AAe?$AAc?$AAt?$AAo?$AAr?$AA?5?$AAs?$AAu?$AAb?$AAs?$AAc?$AAr?$AAi@
CONST	SEGMENT
??_C@_1EA@LEKOKFNB@?$AA?$CC?$AAv?$AAe?$AAc?$AAt?$AAo?$AAr?$AA?5?$AAs?$AAu?$AAb?$AAs?$AAc?$AAr?$AAi@ DB '"'
	DB	00H, 'v', 00H, 'e', 00H, 'c', 00H, 't', 00H, 'o', 00H, 'r', 00H
	DB	' ', 00H, 's', 00H, 'u', 00H, 'b', 00H, 's', 00H, 'c', 00H, 'r'
	DB	00H, 'i', 00H, 'p', 00H, 't', 00H, ' ', 00H, 'o', 00H, 'u', 00H
	DB	't', 00H, ' ', 00H, 'o', 00H, 'f', 00H, ' ', 00H, 'r', 00H, 'a'
	DB	00H, 'n', 00H, 'g', 00H, 'e', 00H, '"', 00H, 00H, 00H ; `string'
CONST	ENDS
;	COMDAT ??_C@_0BO@PFKOHNJC@vector?5subscript?5out?5of?5range@
CONST	SEGMENT
??_C@_0BO@PFKOHNJC@vector?5subscript?5out?5of?5range@ DB 'vector subscrip'
	DB	't out of range', 00H			; `string'
CONST	ENDS
;	COMDAT ??_C@_0N@LPFKKEBD@?3AM?3am?3PM?3pm@
CONST	SEGMENT
??_C@_0N@LPFKKEBD@?3AM?3am?3PM?3pm@ DB ':AM:am:PM:pm', 00H ; `string'
CONST	ENDS
;	COMDAT ??_C@_1LO@DMIPLFD@?$AAC?$AA?3?$AA?2?$AAP?$AAr?$AAo?$AAg?$AAr?$AAa?$AAm?$AA?5?$AAF?$AAi?$AAl?$AAe@
CONST	SEGMENT
??_C@_1LO@DMIPLFD@?$AAC?$AA?3?$AA?2?$AAP?$AAr?$AAo?$AAg?$AAr?$AAa?$AAm?$AA?5?$AAF?$AAi?$AAl?$AAe@ DB 'C'
	DB	00H, ':', 00H, '\', 00H, 'P', 00H, 'r', 00H, 'o', 00H, 'g', 00H
	DB	'r', 00H, 'a', 00H, 'm', 00H, ' ', 00H, 'F', 00H, 'i', 00H, 'l'
	DB	00H, 'e', 00H, 's', 00H, '\', 00H, 'M', 00H, 'i', 00H, 'c', 00H
	DB	'r', 00H, 'o', 00H, 's', 00H, 'o', 00H, 'f', 00H, 't', 00H, ' '
	DB	00H, 'V', 00H, 'i', 00H, 's', 00H, 'u', 00H, 'a', 00H, 'l', 00H
	DB	' ', 00H, 'S', 00H, 't', 00H, 'u', 00H, 'd', 00H, 'i', 00H, 'o'
	DB	00H, '\', 00H, '2', 00H, '0', 00H, '2', 00H, '2', 00H, '\', 00H
	DB	'P', 00H, 'r', 00H, 'e', 00H, 'v', 00H, 'i', 00H, 'e', 00H, 'w'
	DB	00H, '\', 00H, 'V', 00H, 'C', 00H, '\', 00H, 'T', 00H, 'o', 00H
	DB	'o', 00H, 'l', 00H, 's', 00H, '\', 00H, 'M', 00H, 'S', 00H, 'V'
	DB	00H, 'C', 00H, '\', 00H, '1', 00H, '4', 00H, '.', 00H, '3', 00H
	DB	'8', 00H, '.', 00H, '3', 00H, '3', 00H, '0', 00H, '3', 00H, '0'
	DB	00H, '\', 00H, 'i', 00H, 'n', 00H, 'c', 00H, 'l', 00H, 'u', 00H
	DB	'd', 00H, 'e', 00H, '\', 00H, 'v', 00H, 'e', 00H, 'c', 00H, 't'
	DB	00H, 'o', 00H, 'r', 00H, 00H, 00H		; `string'
CONST	ENDS
;	COMDAT ??_C@_0FP@IENHKCNK@C?3?2Program?5Files?2Microsoft?5Visu@
CONST	SEGMENT
??_C@_0FP@IENHKCNK@C?3?2Program?5Files?2Microsoft?5Visu@ DB 'C:\Program F'
	DB	'iles\Microsoft Visual Studio\2022\Preview\VC\Tools\MSVC\14.38'
	DB	'.33030\include\vector', 00H			; `string'
CONST	ENDS
;	COMDAT ??_C@_0GA@CODCFEGK@C?3?2Program?5Files?2Microsoft?5Visu@
CONST	SEGMENT
??_C@_0GA@CODCFEGK@C?3?2Program?5Files?2Microsoft?5Visu@ DB 'C:\Program F'
	DB	'iles\Microsoft Visual Studio\2022\Preview\VC\Tools\MSVC\14.38'
	DB	'.33030\include\xlocnum', 00H		; `string'
CONST	ENDS
;	COMDAT ?__LINE__Var@?0??_Maklocwcs@std@@YAPEA_WPEB_W@Z@4JA
_DATA	SEGMENT
?__LINE__Var@?0??_Maklocwcs@std@@YAPEA_WPEB_W@Z@4JA DD 047H ; `std::_Maklocwcs'::`1'::__LINE__Var
_DATA	ENDS
;	COMDAT ??_C@_0GA@KNHPFGML@C?3?2Program?5Files?2Microsoft?5Visu@
CONST	SEGMENT
??_C@_0GA@KNHPFGML@C?3?2Program?5Files?2Microsoft?5Visu@ DB 'C:\Program F'
	DB	'iles\Microsoft Visual Studio\2022\Preview\VC\Tools\MSVC\14.38'
	DB	'.33030\include\xlocale', 00H		; `string'
CONST	ENDS
;	COMDAT ??_C@_11LOCGONAA@@
CONST	SEGMENT
??_C@_11LOCGONAA@@ DB 00H, 00H				; `string'
CONST	ENDS
;	COMDAT ??_C@_02DKCKIIND@?$CFs@
CONST	SEGMENT
??_C@_02DKCKIIND@?$CFs@ DB '%s', 00H			; `string'
CONST	ENDS
;	COMDAT xdata
xdata	SEGMENT
$unwind$?GetWindowManager@DEngine@@QEAAPEAVFWindowsWindowManager@@XZ DD 025030f01H
	DD	0b20a230fH
	DD	05006H
xdata	ENDS
;	COMDAT xdata
xdata	SEGMENT
$unwind$??$_Getvals@_W@?$time_get@_WV?$istreambuf_iterator@_WU?$char_traits@_W@std@@@std@@@std@@IEAAX_WAEBV_Locinfo@1@@Z DD 025061e01H
	DD	0119231eH
	DD	070120014H
	DD	050106011H
xdata	ENDS
;	COMDAT xdata
xdata	SEGMENT
$unwind$??$_Getvals@_W@?$time_get@DV?$istreambuf_iterator@DU?$char_traits@D@std@@@std@@@std@@IEAAX_WAEBV_Locinfo@1@@Z DD 025061e01H
	DD	0119231eH
	DD	070120014H
	DD	050106011H
xdata	ENDS
;	COMDAT xdata
xdata	SEGMENT
$unwind$??$_Maklocstr@D@std@@YAPEADPEBDPEADAEBU_Cvtvec@@@Z DD 035041c01H
	DD	0117331cH
	DD	050100012H
xdata	ENDS
;	COMDAT xdata
xdata	SEGMENT
$unwind$?_Maklocwcs@std@@YAPEA_WPEB_W@Z DD 035031201H
	DD	0f20d3312H
	DD	05006H
xdata	ENDS
;	COMDAT xdata
xdata	SEGMENT
$unwind$??$_Maklocstr@_W@std@@YAPEA_WPEBDPEA_WAEBU_Cvtvec@@@Z DD 035051d01H
	DD	0118331dH
	DD	070110019H
	DD	05010H
xdata	ENDS
;	COMDAT xdata
xdata	SEGMENT
$unwind$??A?$vector@PEAVFWindowsWindow@@V?$allocator@PEAVFWindowsWindow@@@std@@@std@@QEAAAEAPEAVFWindowsWindow@@_K@Z DD 035031701H
	DD	0f2123317H
	DD	0500bH
xdata	ENDS
;	COMDAT xdata
xdata	SEGMENT
$unwind$?size@?$vector@PEAVFWindowsWindow@@V?$allocator@PEAVFWindowsWindow@@@std@@@std@@QEBA_KXZ DD 025030f01H
	DD	0d20a230fH
	DD	05006H
xdata	ENDS
;	COMDAT xdata
xdata	SEGMENT
$unwind$?GetWindow@FWindowsWindowManager@@QEAAPEAVFWindowsWindow@@I@Z DD 025031601H
	DD	0f2112316H
	DD	0500aH
xdata	ENDS
;	COMDAT xdata
xdata	SEGMENT
$unwind$?GetHeight@FWindowsWindow@@QEAAIXZ DD 025030f01H
	DD	0b20a230fH
	DD	05006H
xdata	ENDS
;	COMDAT xdata
xdata	SEGMENT
$unwind$?GetWitdh@FWindowsWindow@@QEAAIXZ DD 025030f01H
	DD	0b20a230fH
	DD	05006H
xdata	ENDS
;	COMDAT xdata
xdata	SEGMENT
$unwind$wmemcpy DD 025031901H
	DD	0b2142319H
	DD	05010H
xdata	ENDS
;	COMDAT xdata
xdata	SEGMENT
$unwind$??0D3D12Camera@@QEAA@UXMFLOAT3@DirectX@@0@Z DD 025051b01H
	DD	0d216231bH
	DD	060117012H
	DD	05010H
xdata	ENDS
;	COMDAT xdata
xdata	SEGMENT
$ip2state$??_E?$ComPtr@UIUnknown@@@WRL@Microsoft@@QEAAPEAXI@Z DB 02H
	DB	00H
	DB	00H
xdata	ENDS
;	COMDAT xdata
xdata	SEGMENT
$cppxdata$??_E?$ComPtr@UIUnknown@@@WRL@Microsoft@@QEAAPEAXI@Z DB 060H
	DD	imagerel $ip2state$??_E?$ComPtr@UIUnknown@@@WRL@Microsoft@@QEAAPEAXI@Z
xdata	ENDS
;	COMDAT xdata
xdata	SEGMENT
$unwind$??_E?$ComPtr@UIUnknown@@@WRL@Microsoft@@QEAAPEAXI@Z DD 025031319H
	DD	0b20e2313H
	DD	0500aH
	DD	imagerel __CxxFrameHandler4
	DD	imagerel $cppxdata$??_E?$ComPtr@UIUnknown@@@WRL@Microsoft@@QEAAPEAXI@Z
xdata	ENDS
;	COMDAT xdata
xdata	SEGMENT
$unwind$??1?$ComPtr@UIUnknown@@@WRL@Microsoft@@QEAA@XZ DD 025030f01H
	DD	0b20a230fH
	DD	05006H
xdata	ENDS
;	COMDAT xdata
xdata	SEGMENT
$ip2state$?InternalRelease@?$ComPtr@UIUnknown@@@WRL@Microsoft@@IEAAKXZ DB 02H
	DB	00H
	DB	00H
xdata	ENDS
;	COMDAT xdata
xdata	SEGMENT
$cppxdata$?InternalRelease@?$ComPtr@UIUnknown@@@WRL@Microsoft@@IEAAKXZ DB 060H
	DD	imagerel $ip2state$?InternalRelease@?$ComPtr@UIUnknown@@@WRL@Microsoft@@IEAAKXZ
xdata	ENDS
;	COMDAT xdata
xdata	SEGMENT
$unwind$?InternalRelease@?$ComPtr@UIUnknown@@@WRL@Microsoft@@IEAAKXZ DD 025030f19H
	DD	0d20a230fH
	DD	05006H
	DD	imagerel __CxxFrameHandler4
	DD	imagerel $cppxdata$?InternalRelease@?$ComPtr@UIUnknown@@@WRL@Microsoft@@IEAAKXZ
xdata	ENDS
;	COMDAT xdata
xdata	SEGMENT
$unwind$?__empty_global_delete@@YAXPEAX_KW4align_val_t@std@@@Z DD 025031901H
	DD	0b2142319H
	DD	05010H
xdata	ENDS
;	COMDAT xdata
xdata	SEGMENT
$unwind$?__empty_global_delete@@YAXPEAXW4align_val_t@std@@@Z DD 025031401H
	DD	0b20f2314H
	DD	0500bH
xdata	ENDS
;	COMDAT xdata
xdata	SEGMENT
$unwind$?__empty_global_delete@@YAXPEAX_K@Z DD 025031401H
	DD	0b20f2314H
	DD	0500bH
xdata	ENDS
;	COMDAT xdata
xdata	SEGMENT
$unwind$?__empty_global_delete@@YAXPEAX@Z DD 025030f01H
	DD	0b20a230fH
	DD	05006H
xdata	ENDS
; Function compile flags: /Odt
;	COMDAT __JustMyCode_Default
_TEXT	SEGMENT
__JustMyCode_Default PROC				; COMDAT
  00000	c2 00 00	 ret	 0
__JustMyCode_Default ENDP
_TEXT	ENDS
; Function compile flags: /Odtp /ZI
; File C:\Users\nahmu\source\repos\Dark Engine\Dark Engine\Source\Runtime\Engine\public\DEngine.h
;	COMDAT ?GetWindowManager@DEngine@@QEAAPEAVFWindowsWindowManager@@XZ
_TEXT	SEGMENT
this$ = 80
?GetWindowManager@DEngine@@QEAAPEAVFWindowsWindowManager@@XZ PROC ; DEngine::GetWindowManager, COMDAT

; 62   : 	FWindowsWindowManager* GetWindowManager() { return &m_windowManager; }

$LN3:
  00000	48 89 4c 24 08	 mov	 QWORD PTR [rsp+8], rcx
  00005	55		 push	 rbp
  00006	48 83 ec 60	 sub	 rsp, 96			; 00000060H
  0000a	48 8d 6c 24 20	 lea	 rbp, QWORD PTR [rsp+32]
  0000f	48 8d 0d 00 00
	00 00		 lea	 rcx, OFFSET FLAT:__D22613FB_DEngine@h
  00016	e8 00 00 00 00	 call	 __CheckForDebuggerJustMyCode
  0001b	48 8b 45 50	 mov	 rax, QWORD PTR this$[rbp]
  0001f	48 83 c0 20	 add	 rax, 32			; 00000020H
  00023	48 8d 65 40	 lea	 rsp, QWORD PTR [rbp+64]
  00027	5d		 pop	 rbp
  00028	c3		 ret	 0
?GetWindowManager@DEngine@@QEAAPEAVFWindowsWindowManager@@XZ ENDP ; DEngine::GetWindowManager
_TEXT	ENDS
; Function compile flags: /Odtp /ZI
; File C:\Program Files\Microsoft Visual Studio\2022\Preview\VC\Tools\MSVC\14.38.33030\include\xloctime
;	COMDAT ??$_Getvals@_W@?$time_get@_WV?$istreambuf_iterator@_WU?$char_traits@_W@std@@@std@@@std@@IEAAX_WAEBV_Locinfo@1@@Z
_TEXT	SEGMENT
$T1 = 64
tv93 = 112
tv85 = 112
this$ = 160
__formal$ = 168
_Lobj$ = 176
??$_Getvals@_W@?$time_get@_WV?$istreambuf_iterator@_WU?$char_traits@_W@std@@@std@@@std@@IEAAX_WAEBV_Locinfo@1@@Z PROC ; std::time_get<wchar_t,std::istreambuf_iterator<wchar_t,std::char_traits<wchar_t> > >::_Getvals<wchar_t>, COMDAT

; 238  :     void __CLR_OR_THIS_CALL _Getvals(_Elem2, const _Locinfo& _Lobj) { // get values

$LN5:
  00000	4c 89 44 24 18	 mov	 QWORD PTR [rsp+24], r8
  00005	66 89 54 24 10	 mov	 WORD PTR [rsp+16], dx
  0000a	48 89 4c 24 08	 mov	 QWORD PTR [rsp+8], rcx
  0000f	55		 push	 rbp
  00010	56		 push	 rsi
  00011	57		 push	 rdi
  00012	48 81 ec a0 00
	00 00		 sub	 rsp, 160		; 000000a0H
  00019	48 8d 6c 24 20	 lea	 rbp, QWORD PTR [rsp+32]
  0001e	48 8d 0d 00 00
	00 00		 lea	 rcx, OFFSET FLAT:__7C79B603_xloctime
  00025	e8 00 00 00 00	 call	 __CheckForDebuggerJustMyCode

; 239  :         _Cvt = _Lobj._Getcvt();

  0002a	48 8d 55 40	 lea	 rdx, QWORD PTR $T1[rbp]
  0002e	48 8b 8d b0 00
	00 00		 mov	 rcx, QWORD PTR _Lobj$[rbp]
  00035	ff 15 00 00 00
	00		 call	 QWORD PTR __imp_?_Getcvt@_Locinfo@std@@QEBA?AU_Cvtvec@@XZ
  0003b	48 8b 8d a0 00
	00 00		 mov	 rcx, QWORD PTR this$[rbp]
  00042	48 8d 79 2c	 lea	 rdi, QWORD PTR [rcx+44]
  00046	48 8b f0	 mov	 rsi, rax
  00049	b9 2c 00 00 00	 mov	 ecx, 44			; 0000002cH
  0004e	f3 a4		 rep movsb

; 240  : 
; 241  :         if (is_same_v<_Elem2, wchar_t>) {

  00050	33 c0		 xor	 eax, eax
  00052	83 f8 01	 cmp	 eax, 1
  00055	74 5c		 je	 SHORT $LN2@Getvals

; 242  :             _Days = reinterpret_cast<const _Elem*>(_Maklocwcs(reinterpret_cast<const wchar_t*>(_Lobj._W_Getdays())));

  00057	48 8b 8d b0 00
	00 00		 mov	 rcx, QWORD PTR _Lobj$[rbp]
  0005e	ff 15 00 00 00
	00		 call	 QWORD PTR __imp_?_W_Getdays@_Locinfo@std@@QEBAPEBGXZ
  00064	48 8b c8	 mov	 rcx, rax
  00067	e8 00 00 00 00	 call	 ?_Maklocwcs@std@@YAPEA_WPEB_W@Z ; std::_Maklocwcs
  0006c	48 8b 8d a0 00
	00 00		 mov	 rcx, QWORD PTR this$[rbp]
  00073	48 89 41 10	 mov	 QWORD PTR [rcx+16], rax

; 243  :             _Months =

  00077	48 8b 8d b0 00
	00 00		 mov	 rcx, QWORD PTR _Lobj$[rbp]
  0007e	ff 15 00 00 00
	00		 call	 QWORD PTR __imp_?_W_Getmonths@_Locinfo@std@@QEBAPEBGXZ
  00084	48 8b c8	 mov	 rcx, rax
  00087	e8 00 00 00 00	 call	 ?_Maklocwcs@std@@YAPEA_WPEB_W@Z ; std::_Maklocwcs
  0008c	48 8b 8d a0 00
	00 00		 mov	 rcx, QWORD PTR this$[rbp]
  00093	48 89 41 18	 mov	 QWORD PTR [rcx+24], rax

; 244  :                 reinterpret_cast<const _Elem*>(_Maklocwcs(reinterpret_cast<const wchar_t*>(_Lobj._W_Getmonths())));
; 245  :             _Ampm = reinterpret_cast<const _Elem*>(_Maklocwcs(L":AM:am:PM:pm"));

  00097	48 8d 0d 00 00
	00 00		 lea	 rcx, OFFSET FLAT:??_C@_1BK@MHIKGOKE@?$AA?3?$AAA?$AAM?$AA?3?$AAa?$AAm?$AA?3?$AAP?$AAM?$AA?3?$AAp?$AAm@
  0009e	e8 00 00 00 00	 call	 ?_Maklocwcs@std@@YAPEA_WPEB_W@Z ; std::_Maklocwcs
  000a3	48 8b 8d a0 00
	00 00		 mov	 rcx, QWORD PTR this$[rbp]
  000aa	48 89 41 20	 mov	 QWORD PTR [rcx+32], rax

; 246  :         } else {

  000ae	e9 97 00 00 00	 jmp	 $LN3@Getvals
$LN2@Getvals:

; 247  :             _Days   = _Maklocstr(_Lobj._Getdays(), static_cast<_Elem*>(nullptr), _Cvt);

  000b3	48 8b 85 a0 00
	00 00		 mov	 rax, QWORD PTR this$[rbp]
  000ba	48 83 c0 2c	 add	 rax, 44			; 0000002cH
  000be	48 89 45 70	 mov	 QWORD PTR tv85[rbp], rax
  000c2	48 8b 8d b0 00
	00 00		 mov	 rcx, QWORD PTR _Lobj$[rbp]
  000c9	ff 15 00 00 00
	00		 call	 QWORD PTR __imp_?_Getdays@_Locinfo@std@@QEBAPEBDXZ
  000cf	48 8b 4d 70	 mov	 rcx, QWORD PTR tv85[rbp]
  000d3	4c 8b c1	 mov	 r8, rcx
  000d6	33 d2		 xor	 edx, edx
  000d8	48 8b c8	 mov	 rcx, rax
  000db	e8 00 00 00 00	 call	 ??$_Maklocstr@_W@std@@YAPEA_WPEBDPEA_WAEBU_Cvtvec@@@Z ; std::_Maklocstr<wchar_t>
  000e0	48 8b 8d a0 00
	00 00		 mov	 rcx, QWORD PTR this$[rbp]
  000e7	48 89 41 10	 mov	 QWORD PTR [rcx+16], rax

; 248  :             _Months = _Maklocstr(_Lobj._Getmonths(), static_cast<_Elem*>(nullptr), _Cvt);

  000eb	48 8b 85 a0 00
	00 00		 mov	 rax, QWORD PTR this$[rbp]
  000f2	48 83 c0 2c	 add	 rax, 44			; 0000002cH
  000f6	48 89 45 70	 mov	 QWORD PTR tv93[rbp], rax
  000fa	48 8b 8d b0 00
	00 00		 mov	 rcx, QWORD PTR _Lobj$[rbp]
  00101	ff 15 00 00 00
	00		 call	 QWORD PTR __imp_?_Getmonths@_Locinfo@std@@QEBAPEBDXZ
  00107	48 8b 4d 70	 mov	 rcx, QWORD PTR tv93[rbp]
  0010b	4c 8b c1	 mov	 r8, rcx
  0010e	33 d2		 xor	 edx, edx
  00110	48 8b c8	 mov	 rcx, rax
  00113	e8 00 00 00 00	 call	 ??$_Maklocstr@_W@std@@YAPEA_WPEBDPEA_WAEBU_Cvtvec@@@Z ; std::_Maklocstr<wchar_t>
  00118	48 8b 8d a0 00
	00 00		 mov	 rcx, QWORD PTR this$[rbp]
  0011f	48 89 41 18	 mov	 QWORD PTR [rcx+24], rax

; 249  :             _Ampm   = _Maklocstr(":AM:am:PM:pm", static_cast<_Elem*>(nullptr), _Cvt);

  00123	48 8b 85 a0 00
	00 00		 mov	 rax, QWORD PTR this$[rbp]
  0012a	48 83 c0 2c	 add	 rax, 44			; 0000002cH
  0012e	4c 8b c0	 mov	 r8, rax
  00131	33 d2		 xor	 edx, edx
  00133	48 8d 0d 00 00
	00 00		 lea	 rcx, OFFSET FLAT:??_C@_0N@LPFKKEBD@?3AM?3am?3PM?3pm@
  0013a	e8 00 00 00 00	 call	 ??$_Maklocstr@_W@std@@YAPEA_WPEBDPEA_WAEBU_Cvtvec@@@Z ; std::_Maklocstr<wchar_t>
  0013f	48 8b 8d a0 00
	00 00		 mov	 rcx, QWORD PTR this$[rbp]
  00146	48 89 41 20	 mov	 QWORD PTR [rcx+32], rax
$LN3@Getvals:

; 250  :         }
; 251  :     }

  0014a	48 8d a5 80 00
	00 00		 lea	 rsp, QWORD PTR [rbp+128]
  00151	5f		 pop	 rdi
  00152	5e		 pop	 rsi
  00153	5d		 pop	 rbp
  00154	c3		 ret	 0
??$_Getvals@_W@?$time_get@_WV?$istreambuf_iterator@_WU?$char_traits@_W@std@@@std@@@std@@IEAAX_WAEBV_Locinfo@1@@Z ENDP ; std::time_get<wchar_t,std::istreambuf_iterator<wchar_t,std::char_traits<wchar_t> > >::_Getvals<wchar_t>
_TEXT	ENDS
; Function compile flags: /Odtp /ZI
; File C:\Program Files\Microsoft Visual Studio\2022\Preview\VC\Tools\MSVC\14.38.33030\include\xloctime
;	COMDAT ??$_Getvals@_W@?$time_get@DV?$istreambuf_iterator@DU?$char_traits@D@std@@@std@@@std@@IEAAX_WAEBV_Locinfo@1@@Z
_TEXT	SEGMENT
$T1 = 64
tv93 = 112
tv85 = 112
this$ = 160
__formal$ = 168
_Lobj$ = 176
??$_Getvals@_W@?$time_get@DV?$istreambuf_iterator@DU?$char_traits@D@std@@@std@@@std@@IEAAX_WAEBV_Locinfo@1@@Z PROC ; std::time_get<char,std::istreambuf_iterator<char,std::char_traits<char> > >::_Getvals<wchar_t>, COMDAT

; 238  :     void __CLR_OR_THIS_CALL _Getvals(_Elem2, const _Locinfo& _Lobj) { // get values

$LN5:
  00000	4c 89 44 24 18	 mov	 QWORD PTR [rsp+24], r8
  00005	66 89 54 24 10	 mov	 WORD PTR [rsp+16], dx
  0000a	48 89 4c 24 08	 mov	 QWORD PTR [rsp+8], rcx
  0000f	55		 push	 rbp
  00010	56		 push	 rsi
  00011	57		 push	 rdi
  00012	48 81 ec a0 00
	00 00		 sub	 rsp, 160		; 000000a0H
  00019	48 8d 6c 24 20	 lea	 rbp, QWORD PTR [rsp+32]
  0001e	48 8d 0d 00 00
	00 00		 lea	 rcx, OFFSET FLAT:__7C79B603_xloctime
  00025	e8 00 00 00 00	 call	 __CheckForDebuggerJustMyCode

; 239  :         _Cvt = _Lobj._Getcvt();

  0002a	48 8d 55 40	 lea	 rdx, QWORD PTR $T1[rbp]
  0002e	48 8b 8d b0 00
	00 00		 mov	 rcx, QWORD PTR _Lobj$[rbp]
  00035	ff 15 00 00 00
	00		 call	 QWORD PTR __imp_?_Getcvt@_Locinfo@std@@QEBA?AU_Cvtvec@@XZ
  0003b	48 8b 8d a0 00
	00 00		 mov	 rcx, QWORD PTR this$[rbp]
  00042	48 8d 79 2c	 lea	 rdi, QWORD PTR [rcx+44]
  00046	48 8b f0	 mov	 rsi, rax
  00049	b9 2c 00 00 00	 mov	 ecx, 44			; 0000002cH
  0004e	f3 a4		 rep movsb

; 240  : 
; 241  :         if (is_same_v<_Elem2, wchar_t>) {

  00050	33 c0		 xor	 eax, eax
  00052	83 f8 01	 cmp	 eax, 1
  00055	74 5c		 je	 SHORT $LN2@Getvals

; 242  :             _Days = reinterpret_cast<const _Elem*>(_Maklocwcs(reinterpret_cast<const wchar_t*>(_Lobj._W_Getdays())));

  00057	48 8b 8d b0 00
	00 00		 mov	 rcx, QWORD PTR _Lobj$[rbp]
  0005e	ff 15 00 00 00
	00		 call	 QWORD PTR __imp_?_W_Getdays@_Locinfo@std@@QEBAPEBGXZ
  00064	48 8b c8	 mov	 rcx, rax
  00067	e8 00 00 00 00	 call	 ?_Maklocwcs@std@@YAPEA_WPEB_W@Z ; std::_Maklocwcs
  0006c	48 8b 8d a0 00
	00 00		 mov	 rcx, QWORD PTR this$[rbp]
  00073	48 89 41 10	 mov	 QWORD PTR [rcx+16], rax

; 243  :             _Months =

  00077	48 8b 8d b0 00
	00 00		 mov	 rcx, QWORD PTR _Lobj$[rbp]
  0007e	ff 15 00 00 00
	00		 call	 QWORD PTR __imp_?_W_Getmonths@_Locinfo@std@@QEBAPEBGXZ
  00084	48 8b c8	 mov	 rcx, rax
  00087	e8 00 00 00 00	 call	 ?_Maklocwcs@std@@YAPEA_WPEB_W@Z ; std::_Maklocwcs
  0008c	48 8b 8d a0 00
	00 00		 mov	 rcx, QWORD PTR this$[rbp]
  00093	48 89 41 18	 mov	 QWORD PTR [rcx+24], rax

; 244  :                 reinterpret_cast<const _Elem*>(_Maklocwcs(reinterpret_cast<const wchar_t*>(_Lobj._W_Getmonths())));
; 245  :             _Ampm = reinterpret_cast<const _Elem*>(_Maklocwcs(L":AM:am:PM:pm"));

  00097	48 8d 0d 00 00
	00 00		 lea	 rcx, OFFSET FLAT:??_C@_1BK@MHIKGOKE@?$AA?3?$AAA?$AAM?$AA?3?$AAa?$AAm?$AA?3?$AAP?$AAM?$AA?3?$AAp?$AAm@
  0009e	e8 00 00 00 00	 call	 ?_Maklocwcs@std@@YAPEA_WPEB_W@Z ; std::_Maklocwcs
  000a3	48 8b 8d a0 00
	00 00		 mov	 rcx, QWORD PTR this$[rbp]
  000aa	48 89 41 20	 mov	 QWORD PTR [rcx+32], rax

; 246  :         } else {

  000ae	e9 97 00 00 00	 jmp	 $LN3@Getvals
$LN2@Getvals:

; 247  :             _Days   = _Maklocstr(_Lobj._Getdays(), static_cast<_Elem*>(nullptr), _Cvt);

  000b3	48 8b 85 a0 00
	00 00		 mov	 rax, QWORD PTR this$[rbp]
  000ba	48 83 c0 2c	 add	 rax, 44			; 0000002cH
  000be	48 89 45 70	 mov	 QWORD PTR tv85[rbp], rax
  000c2	48 8b 8d b0 00
	00 00		 mov	 rcx, QWORD PTR _Lobj$[rbp]
  000c9	ff 15 00 00 00
	00		 call	 QWORD PTR __imp_?_Getdays@_Locinfo@std@@QEBAPEBDXZ
  000cf	48 8b 4d 70	 mov	 rcx, QWORD PTR tv85[rbp]
  000d3	4c 8b c1	 mov	 r8, rcx
  000d6	33 d2		 xor	 edx, edx
  000d8	48 8b c8	 mov	 rcx, rax
  000db	e8 00 00 00 00	 call	 ??$_Maklocstr@D@std@@YAPEADPEBDPEADAEBU_Cvtvec@@@Z ; std::_Maklocstr<char>
  000e0	48 8b 8d a0 00
	00 00		 mov	 rcx, QWORD PTR this$[rbp]
  000e7	48 89 41 10	 mov	 QWORD PTR [rcx+16], rax

; 248  :             _Months = _Maklocstr(_Lobj._Getmonths(), static_cast<_Elem*>(nullptr), _Cvt);

  000eb	48 8b 85 a0 00
	00 00		 mov	 rax, QWORD PTR this$[rbp]
  000f2	48 83 c0 2c	 add	 rax, 44			; 0000002cH
  000f6	48 89 45 70	 mov	 QWORD PTR tv93[rbp], rax
  000fa	48 8b 8d b0 00
	00 00		 mov	 rcx, QWORD PTR _Lobj$[rbp]
  00101	ff 15 00 00 00
	00		 call	 QWORD PTR __imp_?_Getmonths@_Locinfo@std@@QEBAPEBDXZ
  00107	48 8b 4d 70	 mov	 rcx, QWORD PTR tv93[rbp]
  0010b	4c 8b c1	 mov	 r8, rcx
  0010e	33 d2		 xor	 edx, edx
  00110	48 8b c8	 mov	 rcx, rax
  00113	e8 00 00 00 00	 call	 ??$_Maklocstr@D@std@@YAPEADPEBDPEADAEBU_Cvtvec@@@Z ; std::_Maklocstr<char>
  00118	48 8b 8d a0 00
	00 00		 mov	 rcx, QWORD PTR this$[rbp]
  0011f	48 89 41 18	 mov	 QWORD PTR [rcx+24], rax

; 249  :             _Ampm   = _Maklocstr(":AM:am:PM:pm", static_cast<_Elem*>(nullptr), _Cvt);

  00123	48 8b 85 a0 00
	00 00		 mov	 rax, QWORD PTR this$[rbp]
  0012a	48 83 c0 2c	 add	 rax, 44			; 0000002cH
  0012e	4c 8b c0	 mov	 r8, rax
  00131	33 d2		 xor	 edx, edx
  00133	48 8d 0d 00 00
	00 00		 lea	 rcx, OFFSET FLAT:??_C@_0N@LPFKKEBD@?3AM?3am?3PM?3pm@
  0013a	e8 00 00 00 00	 call	 ??$_Maklocstr@D@std@@YAPEADPEBDPEADAEBU_Cvtvec@@@Z ; std::_Maklocstr<char>
  0013f	48 8b 8d a0 00
	00 00		 mov	 rcx, QWORD PTR this$[rbp]
  00146	48 89 41 20	 mov	 QWORD PTR [rcx+32], rax
$LN3@Getvals:

; 250  :         }
; 251  :     }

  0014a	48 8d a5 80 00
	00 00		 lea	 rsp, QWORD PTR [rbp+128]
  00151	5f		 pop	 rdi
  00152	5e		 pop	 rsi
  00153	5d		 pop	 rbp
  00154	c3		 ret	 0
??$_Getvals@_W@?$time_get@DV?$istreambuf_iterator@DU?$char_traits@D@std@@@std@@@std@@IEAAX_WAEBV_Locinfo@1@@Z ENDP ; std::time_get<char,std::istreambuf_iterator<char,std::char_traits<char> > >::_Getvals<wchar_t>
_TEXT	ENDS
; Function compile flags: /Odtp /ZI
; File C:\Program Files\Microsoft Visual Studio\2022\Preview\VC\Tools\MSVC\14.38.33030\include\xlocale
;	COMDAT ??$_Maklocstr@D@std@@YAPEADPEBDPEADAEBU_Cvtvec@@@Z
_TEXT	SEGMENT
_Count$ = 0
_Ptrdest$ = 8
_Ptrnext$1 = 16
_Ptr$ = 112
__formal$ = 120
__formal$ = 128
??$_Maklocstr@D@std@@YAPEADPEBDPEADAEBU_Cvtvec@@@Z PROC	; std::_Maklocstr<char>, COMDAT

; 525  : _Elem* __CRTDECL _Maklocstr(const char* _Ptr, _Elem*, const _Locinfo::_Cvtvec&) {

$LN7:
  00000	4c 89 44 24 18	 mov	 QWORD PTR [rsp+24], r8
  00005	48 89 54 24 10	 mov	 QWORD PTR [rsp+16], rdx
  0000a	48 89 4c 24 08	 mov	 QWORD PTR [rsp+8], rcx
  0000f	55		 push	 rbp
  00010	48 81 ec 90 00
	00 00		 sub	 rsp, 144		; 00000090H
  00017	48 8d 6c 24 30	 lea	 rbp, QWORD PTR [rsp+48]
  0001c	48 8d 0d 00 00
	00 00		 lea	 rcx, OFFSET FLAT:__CC18A947_xlocale
  00023	e8 00 00 00 00	 call	 __CheckForDebuggerJustMyCode

; 526  :     // convert C string to _Elem sequence using _Cvtvec
; 527  :     size_t _Count = _CSTD strlen(_Ptr) + 1;

  00028	48 8b 4d 70	 mov	 rcx, QWORD PTR _Ptr$[rbp]
  0002c	e8 00 00 00 00	 call	 strlen
  00031	48 ff c0	 inc	 rax
  00034	48 89 45 00	 mov	 QWORD PTR _Count$[rbp], rax

; 528  : 
; 529  :     _Elem* _Ptrdest = static_cast<_Elem*>(_calloc_dbg(_Count, sizeof(_Elem), _CRT_BLOCK, __FILE__, __LINE__));

  00038	c7 44 24 20 11
	02 00 00	 mov	 DWORD PTR [rsp+32], 529	; 00000211H
  00040	4c 8d 0d 00 00
	00 00		 lea	 r9, OFFSET FLAT:??_C@_0GA@KNHPFGML@C?3?2Program?5Files?2Microsoft?5Visu@
  00047	41 b8 02 00 00
	00		 mov	 r8d, 2
  0004d	ba 01 00 00 00	 mov	 edx, 1
  00052	48 8b 4d 00	 mov	 rcx, QWORD PTR _Count$[rbp]
  00056	ff 15 00 00 00
	00		 call	 QWORD PTR __imp__calloc_dbg
  0005c	48 89 45 08	 mov	 QWORD PTR _Ptrdest$[rbp], rax

; 530  : 
; 531  :     if (!_Ptrdest) {

  00060	48 83 7d 08 00	 cmp	 QWORD PTR _Ptrdest$[rbp], 0
  00065	75 05		 jne	 SHORT $LN5@Maklocstr

; 532  :         _Xbad_alloc();

  00067	e8 00 00 00 00	 call	 ?_Xbad_alloc@std@@YAXXZ	; std::_Xbad_alloc
$LN5@Maklocstr:

; 533  :     }
; 534  : 
; 535  :     for (_Elem* _Ptrnext = _Ptrdest; 0 < _Count; --_Count, ++_Ptrnext, ++_Ptr) {

  0006c	48 8b 45 08	 mov	 rax, QWORD PTR _Ptrdest$[rbp]
  00070	48 89 45 10	 mov	 QWORD PTR _Ptrnext$1[rbp], rax
  00074	eb 21		 jmp	 SHORT $LN4@Maklocstr
$LN2@Maklocstr:
  00076	48 8b 45 00	 mov	 rax, QWORD PTR _Count$[rbp]
  0007a	48 ff c8	 dec	 rax
  0007d	48 89 45 00	 mov	 QWORD PTR _Count$[rbp], rax
  00081	48 8b 45 10	 mov	 rax, QWORD PTR _Ptrnext$1[rbp]
  00085	48 ff c0	 inc	 rax
  00088	48 89 45 10	 mov	 QWORD PTR _Ptrnext$1[rbp], rax
  0008c	48 8b 45 70	 mov	 rax, QWORD PTR _Ptr$[rbp]
  00090	48 ff c0	 inc	 rax
  00093	48 89 45 70	 mov	 QWORD PTR _Ptr$[rbp], rax
$LN4@Maklocstr:
  00097	48 83 7d 00 00	 cmp	 QWORD PTR _Count$[rbp], 0
  0009c	76 0f		 jbe	 SHORT $LN3@Maklocstr

; 536  :         *_Ptrnext = static_cast<_Elem>(static_cast<unsigned char>(*_Ptr));

  0009e	48 8b 45 10	 mov	 rax, QWORD PTR _Ptrnext$1[rbp]
  000a2	48 8b 4d 70	 mov	 rcx, QWORD PTR _Ptr$[rbp]
  000a6	0f b6 09	 movzx	 ecx, BYTE PTR [rcx]
  000a9	88 08		 mov	 BYTE PTR [rax], cl

; 537  :     }

  000ab	eb c9		 jmp	 SHORT $LN2@Maklocstr
$LN3@Maklocstr:

; 538  : 
; 539  :     return _Ptrdest;

  000ad	48 8b 45 08	 mov	 rax, QWORD PTR _Ptrdest$[rbp]
$LN6@Maklocstr:

; 540  : }

  000b1	48 8d 65 60	 lea	 rsp, QWORD PTR [rbp+96]
  000b5	5d		 pop	 rbp
  000b6	c3		 ret	 0
??$_Maklocstr@D@std@@YAPEADPEBDPEADAEBU_Cvtvec@@@Z ENDP	; std::_Maklocstr<char>
_TEXT	ENDS
; Function compile flags: /Odtp /ZI
; File C:\Program Files\Microsoft Visual Studio\2022\Preview\VC\Tools\MSVC\14.38.33030\include\xlocnum
;	COMDAT ?_Maklocwcs@std@@YAPEA_WPEB_W@Z
_TEXT	SEGMENT
_Count$ = 0
_Ptrdest$ = 8
_Ptr$ = 96
?_Maklocwcs@std@@YAPEA_WPEB_W@Z PROC			; std::_Maklocwcs, COMDAT

; 71   : inline wchar_t* _Maklocwcs(const wchar_t* _Ptr) { // copy NTWCS to allocated storage

$LN4:
  00000	48 89 4c 24 08	 mov	 QWORD PTR [rsp+8], rcx
  00005	55		 push	 rbp
  00006	48 81 ec 80 00
	00 00		 sub	 rsp, 128		; 00000080H
  0000d	48 8d 6c 24 30	 lea	 rbp, QWORD PTR [rsp+48]
  00012	48 8d 0d 00 00
	00 00		 lea	 rcx, OFFSET FLAT:__529FCF50_xlocnum
  00019	e8 00 00 00 00	 call	 __CheckForDebuggerJustMyCode

; 72   :     const size_t _Count = _CSTD wcslen(_Ptr) + 1;

  0001e	48 8b 4d 60	 mov	 rcx, QWORD PTR _Ptr$[rbp]
  00022	ff 15 00 00 00
	00		 call	 QWORD PTR __imp_wcslen
  00028	48 ff c0	 inc	 rax
  0002b	48 89 45 00	 mov	 QWORD PTR _Count$[rbp], rax

; 73   : 
; 74   :     wchar_t* _Ptrdest = static_cast<wchar_t*>(_calloc_dbg(_Count, sizeof(wchar_t), _CRT_BLOCK, __FILE__, __LINE__));

  0002f	8b 05 00 00 00
	00		 mov	 eax, DWORD PTR ?__LINE__Var@?0??_Maklocwcs@std@@YAPEA_WPEB_W@Z@4JA
  00035	83 c0 03	 add	 eax, 3
  00038	89 44 24 20	 mov	 DWORD PTR [rsp+32], eax
  0003c	4c 8d 0d 00 00
	00 00		 lea	 r9, OFFSET FLAT:??_C@_0GA@CODCFEGK@C?3?2Program?5Files?2Microsoft?5Visu@
  00043	41 b8 02 00 00
	00		 mov	 r8d, 2
  00049	ba 02 00 00 00	 mov	 edx, 2
  0004e	48 8b 4d 00	 mov	 rcx, QWORD PTR _Count$[rbp]
  00052	ff 15 00 00 00
	00		 call	 QWORD PTR __imp__calloc_dbg
  00058	48 89 45 08	 mov	 QWORD PTR _Ptrdest$[rbp], rax

; 75   : 
; 76   :     if (!_Ptrdest) {

  0005c	48 83 7d 08 00	 cmp	 QWORD PTR _Ptrdest$[rbp], 0
  00061	75 05		 jne	 SHORT $LN2@Maklocwcs

; 77   :         _Xbad_alloc();

  00063	e8 00 00 00 00	 call	 ?_Xbad_alloc@std@@YAXXZ	; std::_Xbad_alloc
$LN2@Maklocwcs:

; 78   :     }
; 79   : 
; 80   :     _CSTD wmemcpy(_Ptrdest, _Ptr, _Count);

  00068	4c 8b 45 00	 mov	 r8, QWORD PTR _Count$[rbp]
  0006c	48 8b 55 60	 mov	 rdx, QWORD PTR _Ptr$[rbp]
  00070	48 8b 4d 08	 mov	 rcx, QWORD PTR _Ptrdest$[rbp]
  00074	e8 00 00 00 00	 call	 wmemcpy

; 81   :     return _Ptrdest;

  00079	48 8b 45 08	 mov	 rax, QWORD PTR _Ptrdest$[rbp]
$LN3@Maklocwcs:

; 82   : }

  0007d	48 8d 65 50	 lea	 rsp, QWORD PTR [rbp+80]
  00081	5d		 pop	 rbp
  00082	c3		 ret	 0
?_Maklocwcs@std@@YAPEA_WPEB_W@Z ENDP			; std::_Maklocwcs
_TEXT	ENDS
; Function compile flags: /Odtp /ZI
; File C:\Program Files\Microsoft Visual Studio\2022\Preview\VC\Tools\MSVC\14.38.33030\include\xlocale
;	COMDAT ??$_Maklocstr@_W@std@@YAPEA_WPEBDPEA_WAEBU_Cvtvec@@@Z
_TEXT	SEGMENT
_Count$ = 0
_Count1$ = 8
_Wchars$ = 16
_Ptr1$ = 24
_Bytes$ = 32
_Wc$ = 36
_Mbst1$ = 40
_Ptrdest$ = 48
_Ptrnext$ = 56
_Mbst2$ = 64
_Ptr$ = 176
__formal$ = 184
_Cvt$ = 192
??$_Maklocstr@_W@std@@YAPEA_WPEBDPEA_WAEBU_Cvtvec@@@Z PROC ; std::_Maklocstr<wchar_t>, COMDAT

; 543  : inline wchar_t* __CRTDECL _Maklocstr(const char* _Ptr, wchar_t*, const _Locinfo::_Cvtvec& _Cvt) {

$LN12:
  00000	4c 89 44 24 18	 mov	 QWORD PTR [rsp+24], r8
  00005	48 89 54 24 10	 mov	 QWORD PTR [rsp+16], rdx
  0000a	48 89 4c 24 08	 mov	 QWORD PTR [rsp+8], rcx
  0000f	55		 push	 rbp
  00010	57		 push	 rdi
  00011	48 81 ec c8 00
	00 00		 sub	 rsp, 200		; 000000c8H
  00018	48 8d 6c 24 30	 lea	 rbp, QWORD PTR [rsp+48]
  0001d	48 8d 0d 00 00
	00 00		 lea	 rcx, OFFSET FLAT:__CC18A947_xlocale
  00024	e8 00 00 00 00	 call	 __CheckForDebuggerJustMyCode

; 544  :     // convert C string to wchar_t sequence using _Cvtvec
; 545  :     size_t _Count;
; 546  :     size_t _Count1;
; 547  :     size_t _Wchars;
; 548  :     const char* _Ptr1;
; 549  :     int _Bytes;
; 550  :     wchar_t _Wc;
; 551  :     mbstate_t _Mbst1 = {};

  00029	48 8d 45 28	 lea	 rax, QWORD PTR _Mbst1$[rbp]
  0002d	48 8b f8	 mov	 rdi, rax
  00030	33 c0		 xor	 eax, eax
  00032	b9 08 00 00 00	 mov	 ecx, 8
  00037	f3 aa		 rep stosb

; 552  : 
; 553  :     _Count1 = _CSTD strlen(_Ptr) + 1;

  00039	48 8b 8d b0 00
	00 00		 mov	 rcx, QWORD PTR _Ptr$[rbp]
  00040	e8 00 00 00 00	 call	 strlen
  00045	48 ff c0	 inc	 rax
  00048	48 89 45 08	 mov	 QWORD PTR _Count1$[rbp], rax

; 554  :     for (_Count = _Count1, _Wchars = 0, _Ptr1 = _Ptr; 0 < _Count; _Count -= _Bytes, _Ptr1 += _Bytes, ++_Wchars) {

  0004c	48 8b 45 08	 mov	 rax, QWORD PTR _Count1$[rbp]
  00050	48 89 45 00	 mov	 QWORD PTR _Count$[rbp], rax
  00054	48 c7 45 10 00
	00 00 00	 mov	 QWORD PTR _Wchars$[rbp], 0
  0005c	48 8b 85 b0 00
	00 00		 mov	 rax, QWORD PTR _Ptr$[rbp]
  00063	48 89 45 18	 mov	 QWORD PTR _Ptr1$[rbp], rax
  00067	eb 2f		 jmp	 SHORT $LN4@Maklocstr
$LN2@Maklocstr:
  00069	48 63 45 20	 movsxd	 rax, DWORD PTR _Bytes$[rbp]
  0006d	48 8b 4d 00	 mov	 rcx, QWORD PTR _Count$[rbp]
  00071	48 2b c8	 sub	 rcx, rax
  00074	48 8b c1	 mov	 rax, rcx
  00077	48 89 45 00	 mov	 QWORD PTR _Count$[rbp], rax
  0007b	48 63 45 20	 movsxd	 rax, DWORD PTR _Bytes$[rbp]
  0007f	48 8b 4d 18	 mov	 rcx, QWORD PTR _Ptr1$[rbp]
  00083	48 03 c8	 add	 rcx, rax
  00086	48 8b c1	 mov	 rax, rcx
  00089	48 89 45 18	 mov	 QWORD PTR _Ptr1$[rbp], rax
  0008d	48 8b 45 10	 mov	 rax, QWORD PTR _Wchars$[rbp]
  00091	48 ff c0	 inc	 rax
  00094	48 89 45 10	 mov	 QWORD PTR _Wchars$[rbp], rax
$LN4@Maklocstr:
  00098	48 83 7d 00 00	 cmp	 QWORD PTR _Count$[rbp], 0
  0009d	76 2e		 jbe	 SHORT $LN3@Maklocstr

; 555  :         if ((_Bytes = _Mbrtowc(&_Wc, _Ptr1, _Count, &_Mbst1, &_Cvt)) <= 0) {

  0009f	48 8b 85 c0 00
	00 00		 mov	 rax, QWORD PTR _Cvt$[rbp]
  000a6	48 89 44 24 20	 mov	 QWORD PTR [rsp+32], rax
  000ab	4c 8d 4d 28	 lea	 r9, QWORD PTR _Mbst1$[rbp]
  000af	4c 8b 45 00	 mov	 r8, QWORD PTR _Count$[rbp]
  000b3	48 8b 55 18	 mov	 rdx, QWORD PTR _Ptr1$[rbp]
  000b7	48 8d 4d 24	 lea	 rcx, QWORD PTR _Wc$[rbp]
  000bb	e8 00 00 00 00	 call	 _Mbrtowc
  000c0	89 45 20	 mov	 DWORD PTR _Bytes$[rbp], eax
  000c3	83 7d 20 00	 cmp	 DWORD PTR _Bytes$[rbp], 0
  000c7	7f 02		 jg	 SHORT $LN8@Maklocstr

; 556  :             break;

  000c9	eb 02		 jmp	 SHORT $LN3@Maklocstr
$LN8@Maklocstr:

; 557  :         }
; 558  :     }

  000cb	eb 9c		 jmp	 SHORT $LN2@Maklocstr
$LN3@Maklocstr:

; 559  : 
; 560  :     ++_Wchars; // count terminating nul

  000cd	48 8b 45 10	 mov	 rax, QWORD PTR _Wchars$[rbp]
  000d1	48 ff c0	 inc	 rax
  000d4	48 89 45 10	 mov	 QWORD PTR _Wchars$[rbp], rax

; 561  : 
; 562  :     wchar_t* _Ptrdest = static_cast<wchar_t*>(_calloc_dbg(_Wchars, sizeof(wchar_t), _CRT_BLOCK, __FILE__, __LINE__));

  000d8	c7 44 24 20 32
	02 00 00	 mov	 DWORD PTR [rsp+32], 562	; 00000232H
  000e0	4c 8d 0d 00 00
	00 00		 lea	 r9, OFFSET FLAT:??_C@_0GA@KNHPFGML@C?3?2Program?5Files?2Microsoft?5Visu@
  000e7	41 b8 02 00 00
	00		 mov	 r8d, 2
  000ed	ba 02 00 00 00	 mov	 edx, 2
  000f2	48 8b 4d 10	 mov	 rcx, QWORD PTR _Wchars$[rbp]
  000f6	ff 15 00 00 00
	00		 call	 QWORD PTR __imp__calloc_dbg
  000fc	48 89 45 30	 mov	 QWORD PTR _Ptrdest$[rbp], rax

; 563  : 
; 564  :     if (!_Ptrdest) {

  00100	48 83 7d 30 00	 cmp	 QWORD PTR _Ptrdest$[rbp], 0
  00105	75 05		 jne	 SHORT $LN9@Maklocstr

; 565  :         _Xbad_alloc();

  00107	e8 00 00 00 00	 call	 ?_Xbad_alloc@std@@YAXXZ	; std::_Xbad_alloc
$LN9@Maklocstr:

; 566  :     }
; 567  : 
; 568  :     wchar_t* _Ptrnext = _Ptrdest;

  0010c	48 8b 45 30	 mov	 rax, QWORD PTR _Ptrdest$[rbp]
  00110	48 89 45 38	 mov	 QWORD PTR _Ptrnext$[rbp], rax

; 569  :     mbstate_t _Mbst2  = {};

  00114	48 8d 45 40	 lea	 rax, QWORD PTR _Mbst2$[rbp]
  00118	48 8b f8	 mov	 rdi, rax
  0011b	33 c0		 xor	 eax, eax
  0011d	b9 08 00 00 00	 mov	 ecx, 8
  00122	f3 aa		 rep stosb

; 570  : 
; 571  :     for (; 0 < _Wchars; _Count -= _Bytes, _Ptr += _Bytes, --_Wchars, ++_Ptrnext) {

  00124	eb 41		 jmp	 SHORT $LN7@Maklocstr
$LN5@Maklocstr:
  00126	48 63 45 20	 movsxd	 rax, DWORD PTR _Bytes$[rbp]
  0012a	48 8b 4d 00	 mov	 rcx, QWORD PTR _Count$[rbp]
  0012e	48 2b c8	 sub	 rcx, rax
  00131	48 8b c1	 mov	 rax, rcx
  00134	48 89 45 00	 mov	 QWORD PTR _Count$[rbp], rax
  00138	48 63 45 20	 movsxd	 rax, DWORD PTR _Bytes$[rbp]
  0013c	48 8b 8d b0 00
	00 00		 mov	 rcx, QWORD PTR _Ptr$[rbp]
  00143	48 03 c8	 add	 rcx, rax
  00146	48 8b c1	 mov	 rax, rcx
  00149	48 89 85 b0 00
	00 00		 mov	 QWORD PTR _Ptr$[rbp], rax
  00150	48 8b 45 10	 mov	 rax, QWORD PTR _Wchars$[rbp]
  00154	48 ff c8	 dec	 rax
  00157	48 89 45 10	 mov	 QWORD PTR _Wchars$[rbp], rax
  0015b	48 8b 45 38	 mov	 rax, QWORD PTR _Ptrnext$[rbp]
  0015f	48 83 c0 02	 add	 rax, 2
  00163	48 89 45 38	 mov	 QWORD PTR _Ptrnext$[rbp], rax
$LN7@Maklocstr:
  00167	48 83 7d 10 00	 cmp	 QWORD PTR _Wchars$[rbp], 0
  0016c	76 31		 jbe	 SHORT $LN6@Maklocstr

; 572  :         if ((_Bytes = _Mbrtowc(_Ptrnext, _Ptr, _Count1, &_Mbst2, &_Cvt)) <= 0) {

  0016e	48 8b 85 c0 00
	00 00		 mov	 rax, QWORD PTR _Cvt$[rbp]
  00175	48 89 44 24 20	 mov	 QWORD PTR [rsp+32], rax
  0017a	4c 8d 4d 40	 lea	 r9, QWORD PTR _Mbst2$[rbp]
  0017e	4c 8b 45 08	 mov	 r8, QWORD PTR _Count1$[rbp]
  00182	48 8b 95 b0 00
	00 00		 mov	 rdx, QWORD PTR _Ptr$[rbp]
  00189	48 8b 4d 38	 mov	 rcx, QWORD PTR _Ptrnext$[rbp]
  0018d	e8 00 00 00 00	 call	 _Mbrtowc
  00192	89 45 20	 mov	 DWORD PTR _Bytes$[rbp], eax
  00195	83 7d 20 00	 cmp	 DWORD PTR _Bytes$[rbp], 0
  00199	7f 02		 jg	 SHORT $LN10@Maklocstr

; 573  :             break;

  0019b	eb 02		 jmp	 SHORT $LN6@Maklocstr
$LN10@Maklocstr:

; 574  :         }
; 575  :     }

  0019d	eb 87		 jmp	 SHORT $LN5@Maklocstr
$LN6@Maklocstr:

; 576  : 
; 577  :     *_Ptrnext = L'\0';

  0019f	33 c0		 xor	 eax, eax
  001a1	48 8b 4d 38	 mov	 rcx, QWORD PTR _Ptrnext$[rbp]
  001a5	66 89 01	 mov	 WORD PTR [rcx], ax

; 578  : 
; 579  :     return _Ptrdest;

  001a8	48 8b 45 30	 mov	 rax, QWORD PTR _Ptrdest$[rbp]
$LN11@Maklocstr:

; 580  : }

  001ac	48 8d a5 98 00
	00 00		 lea	 rsp, QWORD PTR [rbp+152]
  001b3	5f		 pop	 rdi
  001b4	5d		 pop	 rbp
  001b5	c3		 ret	 0
??$_Maklocstr@_W@std@@YAPEA_WPEBDPEA_WAEBU_Cvtvec@@@Z ENDP ; std::_Maklocstr<wchar_t>
_TEXT	ENDS
; Function compile flags: /Odtp /ZI
; File C:\Program Files\Microsoft Visual Studio\2022\Preview\VC\Tools\MSVC\14.38.33030\include\vector
;	COMDAT ??A?$vector@PEAVFWindowsWindow@@V?$allocator@PEAVFWindowsWindow@@@std@@@std@@QEAAAEAPEAVFWindowsWindow@@_K@Z
_TEXT	SEGMENT
_My_data$ = 0
this$ = 96
_Pos$ = 104
??A?$vector@PEAVFWindowsWindow@@V?$allocator@PEAVFWindowsWindow@@@std@@@std@@QEAAAEAPEAVFWindowsWindow@@_K@Z PROC ; std::vector<FWindowsWindow *,std::allocator<FWindowsWindow *> >::operator[], COMDAT

; 1891 :     _NODISCARD _CONSTEXPR20 _Ty& operator[](const size_type _Pos) noexcept /* strengthened */ {

$LN12:
  00000	48 89 54 24 10	 mov	 QWORD PTR [rsp+16], rdx
  00005	48 89 4c 24 08	 mov	 QWORD PTR [rsp+8], rcx
  0000a	55		 push	 rbp
  0000b	48 81 ec 80 00
	00 00		 sub	 rsp, 128		; 00000080H
  00012	48 8d 6c 24 30	 lea	 rbp, QWORD PTR [rsp+48]
  00017	48 8d 0d 00 00
	00 00		 lea	 rcx, OFFSET FLAT:__14F7CB70_vector
  0001e	e8 00 00 00 00	 call	 __CheckForDebuggerJustMyCode

; 1892 :         auto& _My_data = _Mypair._Myval2;

  00023	48 8b 45 60	 mov	 rax, QWORD PTR this$[rbp]
  00027	48 89 45 00	 mov	 QWORD PTR _My_data$[rbp], rax
$LN4@operator:

; 1893 : #if _CONTAINER_DEBUG_LEVEL > 0
; 1894 :         _STL_VERIFY(

  0002b	48 8b 45 00	 mov	 rax, QWORD PTR _My_data$[rbp]
  0002f	48 8b 4d 00	 mov	 rcx, QWORD PTR _My_data$[rbp]
  00033	48 8b 49 08	 mov	 rcx, QWORD PTR [rcx+8]
  00037	48 8b 40 10	 mov	 rax, QWORD PTR [rax+16]
  0003b	48 2b c1	 sub	 rax, rcx
  0003e	48 c1 f8 03	 sar	 rax, 3
  00042	48 39 45 68	 cmp	 QWORD PTR _Pos$[rbp], rax
  00046	73 02		 jae	 SHORT $LN7@operator
  00048	eb 6b		 jmp	 SHORT $LN9@operator
$LN7@operator:
  0004a	48 8d 05 00 00
	00 00		 lea	 rax, OFFSET FLAT:??_C@_0BO@PFKOHNJC@vector?5subscript?5out?5of?5range@
  00051	48 89 44 24 28	 mov	 QWORD PTR [rsp+40], rax
  00056	48 8d 05 00 00
	00 00		 lea	 rax, OFFSET FLAT:??_C@_02DKCKIIND@?$CFs@
  0005d	48 89 44 24 20	 mov	 QWORD PTR [rsp+32], rax
  00062	45 33 c9	 xor	 r9d, r9d
  00065	41 b8 67 07 00
	00		 mov	 r8d, 1895		; 00000767H
  0006b	48 8d 15 00 00
	00 00		 lea	 rdx, OFFSET FLAT:??_C@_0FP@IENHKCNK@C?3?2Program?5Files?2Microsoft?5Visu@
  00072	b9 02 00 00 00	 mov	 ecx, 2
  00077	ff 15 00 00 00
	00		 call	 QWORD PTR __imp__CrtDbgReport
  0007d	83 f8 01	 cmp	 eax, 1
  00080	75 03		 jne	 SHORT $LN11@operator
  00082	cc		 int	 3
  00083	33 c0		 xor	 eax, eax
$LN11@operator:
  00085	48 c7 44 24 20
	00 00 00 00	 mov	 QWORD PTR [rsp+32], 0
  0008e	41 b9 67 07 00
	00		 mov	 r9d, 1895		; 00000767H
  00094	4c 8d 05 00 00
	00 00		 lea	 r8, OFFSET FLAT:??_C@_1LO@DMIPLFD@?$AAC?$AA?3?$AA?2?$AAP?$AAr?$AAo?$AAg?$AAr?$AAa?$AAm?$AA?5?$AAF?$AAi?$AAl?$AAe@
  0009b	48 8d 15 00 00
	00 00		 lea	 rdx, OFFSET FLAT:??_C@_11LOCGONAA@@
  000a2	48 8d 0d 00 00
	00 00		 lea	 rcx, OFFSET FLAT:??_C@_1EA@LEKOKFNB@?$AA?$CC?$AAv?$AAe?$AAc?$AAt?$AAo?$AAr?$AA?5?$AAs?$AAu?$AAb?$AAs?$AAc?$AAr?$AAi@
  000a9	ff 15 00 00 00
	00		 call	 QWORD PTR __imp__invalid_parameter
  000af	33 c0		 xor	 eax, eax
  000b1	85 c0		 test	 eax, eax
  000b3	75 95		 jne	 SHORT $LN7@operator
$LN9@operator:
  000b5	33 c0		 xor	 eax, eax
  000b7	85 c0		 test	 eax, eax
  000b9	0f 85 6c ff ff
	ff		 jne	 $LN4@operator

; 1895 :             _Pos < static_cast<size_type>(_My_data._Mylast - _My_data._Myfirst), "vector subscript out of range");
; 1896 : #endif // _CONTAINER_DEBUG_LEVEL > 0
; 1897 : 
; 1898 :         return _My_data._Myfirst[_Pos];

  000bf	48 8b 45 00	 mov	 rax, QWORD PTR _My_data$[rbp]
  000c3	48 8b 40 08	 mov	 rax, QWORD PTR [rax+8]
  000c7	48 8b 4d 68	 mov	 rcx, QWORD PTR _Pos$[rbp]
  000cb	48 8d 04 c8	 lea	 rax, QWORD PTR [rax+rcx*8]

; 1899 :     }

  000cf	48 8d 65 50	 lea	 rsp, QWORD PTR [rbp+80]
  000d3	5d		 pop	 rbp
  000d4	c3		 ret	 0
??A?$vector@PEAVFWindowsWindow@@V?$allocator@PEAVFWindowsWindow@@@std@@@std@@QEAAAEAPEAVFWindowsWindow@@_K@Z ENDP ; std::vector<FWindowsWindow *,std::allocator<FWindowsWindow *> >::operator[]
_TEXT	ENDS
; Function compile flags: /Odtp /ZI
; File C:\Program Files\Microsoft Visual Studio\2022\Preview\VC\Tools\MSVC\14.38.33030\include\vector
;	COMDAT ?size@?$vector@PEAVFWindowsWindow@@V?$allocator@PEAVFWindowsWindow@@@std@@@std@@QEBA_KXZ
_TEXT	SEGMENT
_My_data$ = 0
this$ = 96
?size@?$vector@PEAVFWindowsWindow@@V?$allocator@PEAVFWindowsWindow@@@std@@@std@@QEBA_KXZ PROC ; std::vector<FWindowsWindow *,std::allocator<FWindowsWindow *> >::size, COMDAT

; 1876 :     _NODISCARD _CONSTEXPR20 size_type size() const noexcept {

$LN3:
  00000	48 89 4c 24 08	 mov	 QWORD PTR [rsp+8], rcx
  00005	55		 push	 rbp
  00006	48 83 ec 70	 sub	 rsp, 112		; 00000070H
  0000a	48 8d 6c 24 20	 lea	 rbp, QWORD PTR [rsp+32]
  0000f	48 8d 0d 00 00
	00 00		 lea	 rcx, OFFSET FLAT:__14F7CB70_vector
  00016	e8 00 00 00 00	 call	 __CheckForDebuggerJustMyCode

; 1877 :         auto& _My_data = _Mypair._Myval2;

  0001b	48 8b 45 60	 mov	 rax, QWORD PTR this$[rbp]
  0001f	48 89 45 00	 mov	 QWORD PTR _My_data$[rbp], rax

; 1878 :         return static_cast<size_type>(_My_data._Mylast - _My_data._Myfirst);

  00023	48 8b 45 00	 mov	 rax, QWORD PTR _My_data$[rbp]
  00027	48 8b 4d 00	 mov	 rcx, QWORD PTR _My_data$[rbp]
  0002b	48 8b 49 08	 mov	 rcx, QWORD PTR [rcx+8]
  0002f	48 8b 40 10	 mov	 rax, QWORD PTR [rax+16]
  00033	48 2b c1	 sub	 rax, rcx
  00036	48 c1 f8 03	 sar	 rax, 3

; 1879 :     }

  0003a	48 8d 65 50	 lea	 rsp, QWORD PTR [rbp+80]
  0003e	5d		 pop	 rbp
  0003f	c3		 ret	 0
?size@?$vector@PEAVFWindowsWindow@@V?$allocator@PEAVFWindowsWindow@@@std@@@std@@QEBA_KXZ ENDP ; std::vector<FWindowsWindow *,std::allocator<FWindowsWindow *> >::size
_TEXT	ENDS
; Function compile flags: /Odtp /ZI
; File C:\Users\nahmu\source\repos\Dark Engine\Dark Engine\Source\Runtime\ApplicationCore\public\Windows\WindowsWindow.h
;	COMDAT ?GetWindow@FWindowsWindowManager@@QEAAPEAVFWindowsWindow@@I@Z
_TEXT	SEGMENT
tv64 = 64
tv76 = 72
tv75 = 80
this$ = 112
index$ = 120
?GetWindow@FWindowsWindowManager@@QEAAPEAVFWindowsWindow@@I@Z PROC ; FWindowsWindowManager::GetWindow, COMDAT

; 116  : 	FWindowsWindow* GetWindow(UINT index) { return index > windows.size() ? nullptr : windows[index]; }

$LN5:
  00000	89 54 24 10	 mov	 DWORD PTR [rsp+16], edx
  00004	48 89 4c 24 08	 mov	 QWORD PTR [rsp+8], rcx
  00009	55		 push	 rbp
  0000a	48 81 ec 80 00
	00 00		 sub	 rsp, 128		; 00000080H
  00011	48 8d 6c 24 20	 lea	 rbp, QWORD PTR [rsp+32]
  00016	48 8d 0d 00 00
	00 00		 lea	 rcx, OFFSET FLAT:__7671EFE0_WindowsWindow@h
  0001d	e8 00 00 00 00	 call	 __CheckForDebuggerJustMyCode
  00022	8b 45 78	 mov	 eax, DWORD PTR index$[rbp]
  00025	48 89 45 40	 mov	 QWORD PTR tv64[rbp], rax
  00029	48 8b 4d 70	 mov	 rcx, QWORD PTR this$[rbp]
  0002d	48 83 c1 28	 add	 rcx, 40			; 00000028H
  00031	e8 00 00 00 00	 call	 ?size@?$vector@PEAVFWindowsWindow@@V?$allocator@PEAVFWindowsWindow@@@std@@@std@@QEBA_KXZ ; std::vector<FWindowsWindow *,std::allocator<FWindowsWindow *> >::size
  00036	48 8b 4d 40	 mov	 rcx, QWORD PTR tv64[rbp]
  0003a	48 3b c8	 cmp	 rcx, rax
  0003d	76 0a		 jbe	 SHORT $LN3@GetWindow
  0003f	48 c7 45 48 00
	00 00 00	 mov	 QWORD PTR tv76[rbp], 0
  00047	eb 21		 jmp	 SHORT $LN4@GetWindow
$LN3@GetWindow:
  00049	48 8b 45 70	 mov	 rax, QWORD PTR this$[rbp]
  0004d	48 83 c0 28	 add	 rax, 40			; 00000028H
  00051	48 89 45 50	 mov	 QWORD PTR tv75[rbp], rax
  00055	8b 45 78	 mov	 eax, DWORD PTR index$[rbp]
  00058	8b d0		 mov	 edx, eax
  0005a	48 8b 4d 50	 mov	 rcx, QWORD PTR tv75[rbp]
  0005e	e8 00 00 00 00	 call	 ??A?$vector@PEAVFWindowsWindow@@V?$allocator@PEAVFWindowsWindow@@@std@@@std@@QEAAAEAPEAVFWindowsWindow@@_K@Z ; std::vector<FWindowsWindow *,std::allocator<FWindowsWindow *> >::operator[]
  00063	48 8b 00	 mov	 rax, QWORD PTR [rax]
  00066	48 89 45 48	 mov	 QWORD PTR tv76[rbp], rax
$LN4@GetWindow:
  0006a	48 8b 45 48	 mov	 rax, QWORD PTR tv76[rbp]
  0006e	48 8d 65 60	 lea	 rsp, QWORD PTR [rbp+96]
  00072	5d		 pop	 rbp
  00073	c3		 ret	 0
?GetWindow@FWindowsWindowManager@@QEAAPEAVFWindowsWindow@@I@Z ENDP ; FWindowsWindowManager::GetWindow
_TEXT	ENDS
; Function compile flags: /Odtp /ZI
; File C:\Users\nahmu\source\repos\Dark Engine\Dark Engine\Source\Runtime\ApplicationCore\public\Windows\WindowsWindow.h
;	COMDAT ?GetHeight@FWindowsWindow@@QEAAIXZ
_TEXT	SEGMENT
this$ = 80
?GetHeight@FWindowsWindow@@QEAAIXZ PROC			; FWindowsWindow::GetHeight, COMDAT

; 50   : 	UINT GetHeight() { return height; }

$LN3:
  00000	48 89 4c 24 08	 mov	 QWORD PTR [rsp+8], rcx
  00005	55		 push	 rbp
  00006	48 83 ec 60	 sub	 rsp, 96			; 00000060H
  0000a	48 8d 6c 24 20	 lea	 rbp, QWORD PTR [rsp+32]
  0000f	48 8d 0d 00 00
	00 00		 lea	 rcx, OFFSET FLAT:__7671EFE0_WindowsWindow@h
  00016	e8 00 00 00 00	 call	 __CheckForDebuggerJustMyCode
  0001b	48 8b 45 50	 mov	 rax, QWORD PTR this$[rbp]
  0001f	8b 40 34	 mov	 eax, DWORD PTR [rax+52]
  00022	48 8d 65 40	 lea	 rsp, QWORD PTR [rbp+64]
  00026	5d		 pop	 rbp
  00027	c3		 ret	 0
?GetHeight@FWindowsWindow@@QEAAIXZ ENDP			; FWindowsWindow::GetHeight
_TEXT	ENDS
; Function compile flags: /Odtp /ZI
; File C:\Users\nahmu\source\repos\Dark Engine\Dark Engine\Source\Runtime\ApplicationCore\public\Windows\WindowsWindow.h
;	COMDAT ?GetWitdh@FWindowsWindow@@QEAAIXZ
_TEXT	SEGMENT
this$ = 80
?GetWitdh@FWindowsWindow@@QEAAIXZ PROC			; FWindowsWindow::GetWitdh, COMDAT

; 49   : 	UINT GetWitdh() { return width; }

$LN3:
  00000	48 89 4c 24 08	 mov	 QWORD PTR [rsp+8], rcx
  00005	55		 push	 rbp
  00006	48 83 ec 60	 sub	 rsp, 96			; 00000060H
  0000a	48 8d 6c 24 20	 lea	 rbp, QWORD PTR [rsp+32]
  0000f	48 8d 0d 00 00
	00 00		 lea	 rcx, OFFSET FLAT:__7671EFE0_WindowsWindow@h
  00016	e8 00 00 00 00	 call	 __CheckForDebuggerJustMyCode
  0001b	48 8b 45 50	 mov	 rax, QWORD PTR this$[rbp]
  0001f	8b 40 30	 mov	 eax, DWORD PTR [rax+48]
  00022	48 8d 65 40	 lea	 rsp, QWORD PTR [rbp+64]
  00026	5d		 pop	 rbp
  00027	c3		 ret	 0
?GetWitdh@FWindowsWindow@@QEAAIXZ ENDP			; FWindowsWindow::GetWitdh
_TEXT	ENDS
; Function compile flags: /Odtp /ZI
; File C:\Program Files (x86)\Windows Kits\10\Include\10.0.22621.0\ucrt\wchar.h
;	COMDAT wmemcpy
_TEXT	SEGMENT
_S1$ = 80
_S2$ = 88
_N$ = 96
wmemcpy	PROC						; COMDAT

; 234  :     {

$LN3:
  00000	4c 89 44 24 18	 mov	 QWORD PTR [rsp+24], r8
  00005	48 89 54 24 10	 mov	 QWORD PTR [rsp+16], rdx
  0000a	48 89 4c 24 08	 mov	 QWORD PTR [rsp+8], rcx
  0000f	55		 push	 rbp
  00010	48 83 ec 60	 sub	 rsp, 96			; 00000060H
  00014	48 8d 6c 24 20	 lea	 rbp, QWORD PTR [rsp+32]
  00019	48 8d 0d 00 00
	00 00		 lea	 rcx, OFFSET FLAT:__3FCAD62E_wchar@h
  00020	e8 00 00 00 00	 call	 __CheckForDebuggerJustMyCode

; 235  :         #pragma warning(suppress: 6386) // Buffer overrun
; 236  :         return (wchar_t*)memcpy(_S1, _S2, _N*sizeof(wchar_t));

  00025	48 8b 45 60	 mov	 rax, QWORD PTR _N$[rbp]
  00029	48 d1 e0	 shl	 rax, 1
  0002c	4c 8b c0	 mov	 r8, rax
  0002f	48 8b 55 58	 mov	 rdx, QWORD PTR _S2$[rbp]
  00033	48 8b 4d 50	 mov	 rcx, QWORD PTR _S1$[rbp]
  00037	e8 00 00 00 00	 call	 memcpy

; 237  :     }

  0003c	48 8d 65 40	 lea	 rsp, QWORD PTR [rbp+64]
  00040	5d		 pop	 rbp
  00041	c3		 ret	 0
wmemcpy	ENDP
_TEXT	ENDS
; Function compile flags: /Odtp /ZI
; File C:\Users\nahmu\source\repos\Dark Engine\Dark Engine\Source\Runtime\Render\D3D12\D3D12Camera.cpp
;	COMDAT ??0D3D12Camera@@QEAA@UXMFLOAT3@DirectX@@0@Z
_TEXT	SEGMENT
window$ = 0
tv79 = 72
tv70 = 72
this$ = 112
position$ = 120
rotation$ = 128
??0D3D12Camera@@QEAA@UXMFLOAT3@DirectX@@0@Z PROC	; D3D12Camera::D3D12Camera, COMDAT

; 6    : {

$LN3:
  00000	4c 89 44 24 18	 mov	 QWORD PTR [rsp+24], r8
  00005	48 89 54 24 10	 mov	 QWORD PTR [rsp+16], rdx
  0000a	48 89 4c 24 08	 mov	 QWORD PTR [rsp+8], rcx
  0000f	55		 push	 rbp
  00010	56		 push	 rsi
  00011	57		 push	 rdi
  00012	48 83 ec 70	 sub	 rsp, 112		; 00000070H
  00016	48 8d 6c 24 20	 lea	 rbp, QWORD PTR [rsp+32]
  0001b	48 8d 0d 00 00
	00 00		 lea	 rcx, OFFSET FLAT:__7D045524_D3D12Camera@cpp
  00022	e8 00 00 00 00	 call	 __CheckForDebuggerJustMyCode

; 7    : 	FWindowsWindow* window = GEngine.GetWindowManager()->GetWindow(0);

  00027	48 8d 0d 00 00
	00 00		 lea	 rcx, OFFSET FLAT:?GEngine@@3VDEngine@@A ; GEngine
  0002e	e8 00 00 00 00	 call	 ?GetWindowManager@DEngine@@QEAAPEAVFWindowsWindowManager@@XZ ; DEngine::GetWindowManager
  00033	48 89 45 48	 mov	 QWORD PTR tv70[rbp], rax
  00037	33 d2		 xor	 edx, edx
  00039	48 8b 4d 48	 mov	 rcx, QWORD PTR tv70[rbp]
  0003d	e8 00 00 00 00	 call	 ?GetWindow@FWindowsWindowManager@@QEAAPEAVFWindowsWindow@@I@Z ; FWindowsWindowManager::GetWindow
  00042	48 89 45 00	 mov	 QWORD PTR window$[rbp], rax

; 8    : 	m_position = position;

  00046	48 8b 7d 70	 mov	 rdi, QWORD PTR this$[rbp]
  0004a	48 8b 75 78	 mov	 rsi, QWORD PTR position$[rbp]
  0004e	b9 0c 00 00 00	 mov	 ecx, 12
  00053	f3 a4		 rep movsb

; 9    : 	m_rotation = rotation;

  00055	48 8b 45 70	 mov	 rax, QWORD PTR this$[rbp]
  00059	48 8d 78 0c	 lea	 rdi, QWORD PTR [rax+12]
  0005d	48 8b b5 80 00
	00 00		 mov	 rsi, QWORD PTR rotation$[rbp]
  00064	b9 0c 00 00 00	 mov	 ecx, 12
  00069	f3 a4		 rep movsb

; 10   : 	m_fov = 90;

  0006b	48 8b 45 70	 mov	 rax, QWORD PTR this$[rbp]
  0006f	f3 0f 10 05 00
	00 00 00	 movss	 xmm0, DWORD PTR __real@42b40000
  00077	f3 0f 11 40 18	 movss	 DWORD PTR [rax+24], xmm0

; 11   : 	m_aspectRatio = static_cast<FLOAT>(window->GetWitdh()) / window->GetHeight();

  0007c	48 8b 4d 00	 mov	 rcx, QWORD PTR window$[rbp]
  00080	e8 00 00 00 00	 call	 ?GetWitdh@FWindowsWindow@@QEAAIXZ ; FWindowsWindow::GetWitdh
  00085	8b c0		 mov	 eax, eax
  00087	f3 48 0f 2a c0	 cvtsi2ss xmm0, rax
  0008c	f3 0f 11 45 48	 movss	 DWORD PTR tv79[rbp], xmm0
  00091	48 8b 4d 00	 mov	 rcx, QWORD PTR window$[rbp]
  00095	e8 00 00 00 00	 call	 ?GetHeight@FWindowsWindow@@QEAAIXZ ; FWindowsWindow::GetHeight
  0009a	8b c0		 mov	 eax, eax
  0009c	f3 48 0f 2a c0	 cvtsi2ss xmm0, rax
  000a1	f3 0f 10 4d 48	 movss	 xmm1, DWORD PTR tv79[rbp]
  000a6	f3 0f 5e c8	 divss	 xmm1, xmm0
  000aa	0f 28 c1	 movaps	 xmm0, xmm1
  000ad	48 8b 45 70	 mov	 rax, QWORD PTR this$[rbp]
  000b1	f3 0f 11 40 1c	 movss	 DWORD PTR [rax+28], xmm0

; 12   : 
; 13   : 
; 14   : 
; 15   : }

  000b6	48 8b 45 70	 mov	 rax, QWORD PTR this$[rbp]
  000ba	48 8d 65 50	 lea	 rsp, QWORD PTR [rbp+80]
  000be	5f		 pop	 rdi
  000bf	5e		 pop	 rsi
  000c0	5d		 pop	 rbp
  000c1	c3		 ret	 0
??0D3D12Camera@@QEAA@UXMFLOAT3@DirectX@@0@Z ENDP	; D3D12Camera::D3D12Camera
_TEXT	ENDS
; Function compile flags: /Odtp /ZI
;	COMDAT ??_E?$ComPtr@UIUnknown@@@WRL@Microsoft@@QEAAPEAXI@Z
_TEXT	SEGMENT
this$ = 80
__flags$ = 88
??_E?$ComPtr@UIUnknown@@@WRL@Microsoft@@QEAAPEAXI@Z PROC ; Microsoft::WRL::ComPtr<IUnknown>::`vector deleting destructor', COMDAT
$LN6:
  00000	89 54 24 10	 mov	 DWORD PTR [rsp+16], edx
  00004	48 89 4c 24 08	 mov	 QWORD PTR [rsp+8], rcx
  00009	55		 push	 rbp
  0000a	48 83 ec 60	 sub	 rsp, 96			; 00000060H
  0000e	48 8d 6c 24 20	 lea	 rbp, QWORD PTR [rsp+32]
  00013	8b 45 58	 mov	 eax, DWORD PTR __flags$[rbp]
  00016	83 e0 02	 and	 eax, 2
  00019	85 c0		 test	 eax, eax
  0001b	74 51		 je	 SHORT $LN2@vector
  0001d	4c 8d 0d 00 00
	00 00		 lea	 r9, OFFSET FLAT:??1?$ComPtr@UIUnknown@@@WRL@Microsoft@@QEAA@XZ ; Microsoft::WRL::ComPtr<IUnknown>::~ComPtr<IUnknown>
  00024	48 8b 45 50	 mov	 rax, QWORD PTR this$[rbp]
  00028	4c 8b 40 f8	 mov	 r8, QWORD PTR [rax-8]
  0002c	ba 08 00 00 00	 mov	 edx, 8
  00031	48 8b 4d 50	 mov	 rcx, QWORD PTR this$[rbp]
  00035	e8 00 00 00 00	 call	 ??_M@YAXPEAX_K1P6AX0@Z@Z
  0003a	8b 45 58	 mov	 eax, DWORD PTR __flags$[rbp]
  0003d	83 e0 01	 and	 eax, 1
  00040	85 c0		 test	 eax, eax
  00042	74 20		 je	 SHORT $LN3@vector
  00044	48 8b 45 50	 mov	 rax, QWORD PTR this$[rbp]
  00048	48 8b 40 f8	 mov	 rax, QWORD PTR [rax-8]
  0004c	48 8d 04 c5 08
	00 00 00	 lea	 rax, QWORD PTR [rax*8+8]
  00054	48 8b 4d 50	 mov	 rcx, QWORD PTR this$[rbp]
  00058	48 83 e9 08	 sub	 rcx, 8
  0005c	48 8b d0	 mov	 rdx, rax
  0005f	e8 00 00 00 00	 call	 ??_V@YAXPEAX_K@Z	; operator delete[]
$LN3@vector:
  00064	48 8b 45 50	 mov	 rax, QWORD PTR this$[rbp]
  00068	48 83 e8 08	 sub	 rax, 8
  0006c	eb 25		 jmp	 SHORT $LN1@vector
$LN2@vector:
  0006e	48 8b 4d 50	 mov	 rcx, QWORD PTR this$[rbp]
  00072	e8 00 00 00 00	 call	 ??1?$ComPtr@UIUnknown@@@WRL@Microsoft@@QEAA@XZ ; Microsoft::WRL::ComPtr<IUnknown>::~ComPtr<IUnknown>
  00077	8b 45 58	 mov	 eax, DWORD PTR __flags$[rbp]
  0007a	83 e0 01	 and	 eax, 1
  0007d	85 c0		 test	 eax, eax
  0007f	74 0e		 je	 SHORT $LN4@vector
  00081	ba 08 00 00 00	 mov	 edx, 8
  00086	48 8b 4d 50	 mov	 rcx, QWORD PTR this$[rbp]
  0008a	e8 00 00 00 00	 call	 ??3@YAXPEAX_K@Z		; operator delete
$LN4@vector:
  0008f	48 8b 45 50	 mov	 rax, QWORD PTR this$[rbp]
$LN1@vector:
  00093	48 8d 65 40	 lea	 rsp, QWORD PTR [rbp+64]
  00097	5d		 pop	 rbp
  00098	c3		 ret	 0
??_E?$ComPtr@UIUnknown@@@WRL@Microsoft@@QEAAPEAXI@Z ENDP ; Microsoft::WRL::ComPtr<IUnknown>::`vector deleting destructor'
_TEXT	ENDS
; Function compile flags: /Odtp /ZI
; File C:\Program Files (x86)\Windows Kits\10\Include\10.0.22621.0\winrt\wrl\client.h
;	COMDAT ??1?$ComPtr@UIUnknown@@@WRL@Microsoft@@QEAA@XZ
_TEXT	SEGMENT
this$ = 80
??1?$ComPtr@UIUnknown@@@WRL@Microsoft@@QEAA@XZ PROC	; Microsoft::WRL::ComPtr<IUnknown>::~ComPtr<IUnknown>, COMDAT

; 289  :     {

$LN3:
  00000	48 89 4c 24 08	 mov	 QWORD PTR [rsp+8], rcx
  00005	55		 push	 rbp
  00006	48 83 ec 60	 sub	 rsp, 96			; 00000060H
  0000a	48 8d 6c 24 20	 lea	 rbp, QWORD PTR [rsp+32]
  0000f	48 8d 0d 00 00
	00 00		 lea	 rcx, OFFSET FLAT:__F7423081_client@h
  00016	e8 00 00 00 00	 call	 __CheckForDebuggerJustMyCode

; 290  :         InternalRelease();

  0001b	48 8b 4d 50	 mov	 rcx, QWORD PTR this$[rbp]
  0001f	e8 00 00 00 00	 call	 ?InternalRelease@?$ComPtr@UIUnknown@@@WRL@Microsoft@@IEAAKXZ ; Microsoft::WRL::ComPtr<IUnknown>::InternalRelease

; 291  :     }

  00024	48 8d 65 40	 lea	 rsp, QWORD PTR [rbp+64]
  00028	5d		 pop	 rbp
  00029	c3		 ret	 0
??1?$ComPtr@UIUnknown@@@WRL@Microsoft@@QEAA@XZ ENDP	; Microsoft::WRL::ComPtr<IUnknown>::~ComPtr<IUnknown>
_TEXT	ENDS
; Function compile flags: /Odtp /ZI
; File C:\Program Files (x86)\Windows Kits\10\Include\10.0.22621.0\winrt\wrl\client.h
;	COMDAT ?InternalRelease@?$ComPtr@UIUnknown@@@WRL@Microsoft@@IEAAKXZ
_TEXT	SEGMENT
ref$ = 0
temp$ = 8
this$ = 96
?InternalRelease@?$ComPtr@UIUnknown@@@WRL@Microsoft@@IEAAKXZ PROC ; Microsoft::WRL::ComPtr<IUnknown>::InternalRelease, COMDAT

; 228  :     {

$LN4:
  00000	48 89 4c 24 08	 mov	 QWORD PTR [rsp+8], rcx
  00005	55		 push	 rbp
  00006	48 83 ec 70	 sub	 rsp, 112		; 00000070H
  0000a	48 8d 6c 24 20	 lea	 rbp, QWORD PTR [rsp+32]
  0000f	48 8d 0d 00 00
	00 00		 lea	 rcx, OFFSET FLAT:__F7423081_client@h
  00016	e8 00 00 00 00	 call	 __CheckForDebuggerJustMyCode

; 229  :         unsigned long ref = 0;

  0001b	c7 45 00 00 00
	00 00		 mov	 DWORD PTR ref$[rbp], 0

; 230  :         T* temp = ptr_;

  00022	48 8b 45 60	 mov	 rax, QWORD PTR this$[rbp]
  00026	48 8b 00	 mov	 rax, QWORD PTR [rax]
  00029	48 89 45 08	 mov	 QWORD PTR temp$[rbp], rax

; 231  : 
; 232  :         if (temp != nullptr)

  0002d	48 83 7d 08 00	 cmp	 QWORD PTR temp$[rbp], 0
  00032	74 1c		 je	 SHORT $LN2@InternalRe

; 233  :         {
; 234  :             ptr_ = nullptr;

  00034	48 8b 45 60	 mov	 rax, QWORD PTR this$[rbp]
  00038	48 c7 00 00 00
	00 00		 mov	 QWORD PTR [rax], 0

; 235  :             ref = temp->Release();

  0003f	48 8b 45 08	 mov	 rax, QWORD PTR temp$[rbp]
  00043	48 8b 00	 mov	 rax, QWORD PTR [rax]
  00046	48 8b 4d 08	 mov	 rcx, QWORD PTR temp$[rbp]
  0004a	ff 50 10	 call	 QWORD PTR [rax+16]
  0004d	89 45 00	 mov	 DWORD PTR ref$[rbp], eax
$LN2@InternalRe:

; 236  :         }
; 237  : 
; 238  :         return ref;

  00050	8b 45 00	 mov	 eax, DWORD PTR ref$[rbp]

; 239  :     }

  00053	48 8d 65 50	 lea	 rsp, QWORD PTR [rbp+80]
  00057	5d		 pop	 rbp
  00058	c3		 ret	 0
?InternalRelease@?$ComPtr@UIUnknown@@@WRL@Microsoft@@IEAAKXZ ENDP ; Microsoft::WRL::ComPtr<IUnknown>::InternalRelease
_TEXT	ENDS
; Function compile flags: /Odtp /ZI
; File C:\Users\nahmu\source\repos\Dark Engine\Dark Engine\Source\Runtime\Render\D3D12\D3D12Camera.cpp
;	COMDAT ?__empty_global_delete@@YAXPEAX_KW4align_val_t@std@@@Z
_TEXT	SEGMENT
__formal$ = 80
__formal$ = 88
__formal$ = 96
?__empty_global_delete@@YAXPEAX_KW4align_val_t@std@@@Z PROC ; __empty_global_delete, COMDAT

$LN3:
  00000	4c 89 44 24 18	 mov	 QWORD PTR [rsp+24], r8
  00005	48 89 54 24 10	 mov	 QWORD PTR [rsp+16], rdx
  0000a	48 89 4c 24 08	 mov	 QWORD PTR [rsp+8], rcx
  0000f	55		 push	 rbp
  00010	48 83 ec 60	 sub	 rsp, 96			; 00000060H
  00014	48 8d 6c 24 20	 lea	 rbp, QWORD PTR [rsp+32]
  00019	48 8d 0d 00 00
	00 00		 lea	 rcx, OFFSET FLAT:__7D045524_D3D12Camera@cpp
  00020	e8 00 00 00 00	 call	 __CheckForDebuggerJustMyCode
  00025	48 8d 65 40	 lea	 rsp, QWORD PTR [rbp+64]
  00029	5d		 pop	 rbp
  0002a	c3		 ret	 0
?__empty_global_delete@@YAXPEAX_KW4align_val_t@std@@@Z ENDP ; __empty_global_delete
_TEXT	ENDS
; Function compile flags: /Odtp /ZI
; File C:\Users\nahmu\source\repos\Dark Engine\Dark Engine\Source\Runtime\Render\D3D12\D3D12Camera.cpp
;	COMDAT ?__empty_global_delete@@YAXPEAXW4align_val_t@std@@@Z
_TEXT	SEGMENT
__formal$ = 80
__formal$ = 88
?__empty_global_delete@@YAXPEAXW4align_val_t@std@@@Z PROC ; __empty_global_delete, COMDAT

$LN3:
  00000	48 89 54 24 10	 mov	 QWORD PTR [rsp+16], rdx
  00005	48 89 4c 24 08	 mov	 QWORD PTR [rsp+8], rcx
  0000a	55		 push	 rbp
  0000b	48 83 ec 60	 sub	 rsp, 96			; 00000060H
  0000f	48 8d 6c 24 20	 lea	 rbp, QWORD PTR [rsp+32]
  00014	48 8d 0d 00 00
	00 00		 lea	 rcx, OFFSET FLAT:__7D045524_D3D12Camera@cpp
  0001b	e8 00 00 00 00	 call	 __CheckForDebuggerJustMyCode
  00020	48 8d 65 40	 lea	 rsp, QWORD PTR [rbp+64]
  00024	5d		 pop	 rbp
  00025	c3		 ret	 0
?__empty_global_delete@@YAXPEAXW4align_val_t@std@@@Z ENDP ; __empty_global_delete
_TEXT	ENDS
; Function compile flags: /Odtp /ZI
; File C:\Users\nahmu\source\repos\Dark Engine\Dark Engine\Source\Runtime\Render\D3D12\D3D12Camera.cpp
;	COMDAT ?__empty_global_delete@@YAXPEAX_K@Z
_TEXT	SEGMENT
__formal$ = 80
__formal$ = 88
?__empty_global_delete@@YAXPEAX_K@Z PROC		; __empty_global_delete, COMDAT

$LN3:
  00000	48 89 54 24 10	 mov	 QWORD PTR [rsp+16], rdx
  00005	48 89 4c 24 08	 mov	 QWORD PTR [rsp+8], rcx
  0000a	55		 push	 rbp
  0000b	48 83 ec 60	 sub	 rsp, 96			; 00000060H
  0000f	48 8d 6c 24 20	 lea	 rbp, QWORD PTR [rsp+32]
  00014	48 8d 0d 00 00
	00 00		 lea	 rcx, OFFSET FLAT:__7D045524_D3D12Camera@cpp
  0001b	e8 00 00 00 00	 call	 __CheckForDebuggerJustMyCode
  00020	48 8d 65 40	 lea	 rsp, QWORD PTR [rbp+64]
  00024	5d		 pop	 rbp
  00025	c3		 ret	 0
?__empty_global_delete@@YAXPEAX_K@Z ENDP		; __empty_global_delete
_TEXT	ENDS
; Function compile flags: /Odtp /ZI
; File C:\Users\nahmu\source\repos\Dark Engine\Dark Engine\Source\Runtime\Render\D3D12\D3D12Camera.cpp
;	COMDAT ?__empty_global_delete@@YAXPEAX@Z
_TEXT	SEGMENT
__formal$ = 80
?__empty_global_delete@@YAXPEAX@Z PROC			; __empty_global_delete, COMDAT

$LN3:
  00000	48 89 4c 24 08	 mov	 QWORD PTR [rsp+8], rcx
  00005	55		 push	 rbp
  00006	48 83 ec 60	 sub	 rsp, 96			; 00000060H
  0000a	48 8d 6c 24 20	 lea	 rbp, QWORD PTR [rsp+32]
  0000f	48 8d 0d 00 00
	00 00		 lea	 rcx, OFFSET FLAT:__7D045524_D3D12Camera@cpp
  00016	e8 00 00 00 00	 call	 __CheckForDebuggerJustMyCode
  0001b	48 8d 65 40	 lea	 rsp, QWORD PTR [rbp+64]
  0001f	5d		 pop	 rbp
  00020	c3		 ret	 0
?__empty_global_delete@@YAXPEAX@Z ENDP			; __empty_global_delete
_TEXT	ENDS
END
