; Listing generated by Microsoft (R) Optimizing Compiler Version 19.38.33030.0 

include listing.inc

INCLUDELIB MSVCRTD
INCLUDELIB OLDNAMES

msvcjmc	SEGMENT
__4A250794_concurrencysal@h DB 01H
__64794009_sal@h DB 01H
__A3E7195B_vadefs@h DB 01H
__978626E5_vcruntime@h DB 01H
__735B63F8_xkeycheck@h DB 01H
__142C9C9C_yvals_core@h DB 01H
__DBEA773D_stdint@h DB 01H
__87335CDF_cstdint DB 01H
__1B0272D9_corecrt@h DB 01H
__BB16330F_corecrt_math@h DB 01H
__3BF2A406_math@h DB 01H
__45DED006_corecrt_malloc@h DB 01H
__13F5961F_stddef@h DB 01H
__FD6DBD68_corecrt_search@h DB 01H
__E2E33A61_corecrt_wstdlib@h DB 01H
__659C5902_limits@h DB 01H
__6E5ACABA_stdlib@h DB 01H
__3A6DBDA2_cstdlib DB 01H
__B9985323_float@h DB 01H
__3FBCF6F4_cfloat DB 01H
__BE829F50_climits DB 01H
__44420885_corecrt_stdio_config@h DB 01H
__AB601D8D_corecrt_wstdio@h DB 01H
__C1EC35D3_stdio@h DB 01H
__4CF83D73_cstdio DB 01H
__61CC25A1_errno@h DB 01H
__4CB5F942_vcruntime_string@h DB 01H
__E4C945B4_corecrt_memcpy_s@h DB 01H
__EF1F6BBA_corecrt_wconio@h DB 01H
__74484FB3_corecrt_wctype@h DB 01H
__3D1D430C_corecrt_wdirect@h DB 01H
__8ECB7138_corecrt_share@h DB 01H
__DB7FEBA6_corecrt_wio@h DB 01H
__9A9F0068_corecrt_wprocess@h DB 01H
__6490AEC5_corecrt_wstring@h DB 01H
__369A9BC3_corecrt_wtime@h DB 01H
__CE789B9D_types@h DB 01H
__9901C817_stat@h DB 01H
__3FCAD62E_wchar@h DB 01H
__D673EB20_cwchar DB 01H
__9A2CA802_xtr1common DB 01H
__51ADDFC3_intrin0@inl@h DB 01H
__FC9FC984_intrin0@h DB 01H
__595ABB90_limits DB 01H
__84C50014_vcruntime_new@h DB 01H
__7A6EC116_vcruntime_new_debug@h DB 01H
__935DC21B_crtdbg@h DB 01H
__E5B2708F_crtdefs@h DB 01H
__61229A4B_use_ansi@h DB 01H
__8C2D0B1D_yvals@h DB 01H
__9FA6670F_cstddef DB 01H
__3DF2A533_type_traits DB 01H
__FA77ED4C_malloc@h DB 01H
__89766DA4_corecrt_terminate@h DB 01H
__35BB339F_eh@h DB 01H
__7280C444_vcruntime_exception@h DB 01H
__2DED1E19_exception DB 01H
__A5D71DBC_new DB 01H
__27E192CF_xatomic@h DB 01H
__50E371A7_initializer_list DB 01H
__339AE60A_concepts DB 01H
__C3788713_compare DB 01H
__0D603829_utility DB 01H
__874288EA___msvc_iter_core@hpp DB 01H
__8EAFF484_corecrt_memory@h DB 01H
__E8295E1E_string@h DB 01H
__76FF1542_cstring DB 01H
__B7320FC0_xutility DB 01H
__A0E057FF_tuple DB 01H
__67F55BEA_xmemory DB 01H
__A0A2F5C0_xpolymorphic_allocator@h DB 01H
__52656974_list DB 01H
__06C34EBE_cmath DB 01H
__F3EA4CCC___msvc_bit_utils@hpp DB 01H
__C671E263___msvc_sanitizer_annotate_container@hpp DB 01H
__14F7CB70_vector DB 01H
__B566F9C5_xbit_ops@h DB 01H
__1B8E3698_xnode_handle@h DB 01H
__696C8ED8_xhash DB 01H
__3DA11C4D_unordered_map DB 01H
__4818932A_unordered_set DB 01H
__014E33A8_TMemory@h DB 01H
__AA61B192_TMemory@cpp DB 01H
msvcjmc	ENDS
PUBLIC	?is_constant_evaluated@std@@YA_NXZ		; std::is_constant_evaluated
PUBLIC	?max@?$numeric_limits@_J@std@@SA_JXZ		; std::numeric_limits<__int64>::max
PUBLIC	??2@YAPEAX_KPEAX@Z				; operator new
PUBLIC	?_Fnv1a_append_bytes@std@@YA_K_KQEBE_K@Z	; std::_Fnv1a_append_bytes
PUBLIC	??0exception@std@@QEAA@QEBDH@Z			; std::exception::exception
PUBLIC	??0exception@std@@QEAA@AEBV01@@Z		; std::exception::exception
PUBLIC	??1exception@std@@UEAA@XZ			; std::exception::~exception
PUBLIC	?what@exception@std@@UEBAPEBDXZ			; std::exception::what
PUBLIC	??_Gexception@std@@UEAAPEAXI@Z			; std::exception::`scalar deleting destructor'
PUBLIC	??0bad_alloc@std@@AEAA@QEBD@Z			; std::bad_alloc::bad_alloc
PUBLIC	??1bad_alloc@std@@UEAA@XZ			; std::bad_alloc::~bad_alloc
PUBLIC	??0bad_alloc@std@@QEAA@AEBV01@@Z		; std::bad_alloc::bad_alloc
PUBLIC	??_Gbad_alloc@std@@UEAAPEAXI@Z			; std::bad_alloc::`scalar deleting destructor'
PUBLIC	??0bad_array_new_length@std@@QEAA@XZ		; std::bad_array_new_length::bad_array_new_length
PUBLIC	??1bad_array_new_length@std@@UEAA@XZ		; std::bad_array_new_length::~bad_array_new_length
PUBLIC	??0bad_array_new_length@std@@QEAA@AEBV01@@Z	; std::bad_array_new_length::bad_array_new_length
PUBLIC	??_Gbad_array_new_length@std@@UEAAPEAXI@Z	; std::bad_array_new_length::`scalar deleting destructor'
PUBLIC	?_Throw_bad_array_new_length@std@@YAXXZ		; std::_Throw_bad_array_new_length
PUBLIC	?_Allocate@_Default_allocate_traits@std@@SAPEAX_K@Z ; std::_Default_allocate_traits::_Allocate
PUBLIC	?_Adjust_manually_vector_aligned@std@@YAXAEAPEAXAEA_K@Z ; std::_Adjust_manually_vector_aligned
PUBLIC	?_Adopt@_Iterator_base0@std@@QEAAXPEBX@Z	; std::_Iterator_base0::_Adopt
PUBLIC	??0_Container_proxy@std@@QEAA@PEAU_Container_base12@1@@Z ; std::_Container_proxy::_Container_proxy
PUBLIC	??0_Container_base12@std@@QEAA@XZ		; std::_Container_base12::_Container_base12
PUBLIC	?_Orphan_all@_Container_base12@std@@QEAAXXZ	; std::_Container_base12::_Orphan_all
PUBLIC	?_Orphan_all_unlocked_v3@_Container_base12@std@@AEAAXXZ ; std::_Container_base12::_Orphan_all_unlocked_v3
PUBLIC	?_Orphan_all_locked_v3@_Container_base12@std@@AEAAXXZ ; std::_Container_base12::_Orphan_all_locked_v3
PUBLIC	??0_Iterator_base12@std@@QEAA@XZ		; std::_Iterator_base12::_Iterator_base12
PUBLIC	??0_Iterator_base12@std@@QEAA@AEBU01@@Z		; std::_Iterator_base12::_Iterator_base12
PUBLIC	??4_Iterator_base12@std@@QEAAAEAU01@AEBU01@@Z	; std::_Iterator_base12::operator=
PUBLIC	??1_Iterator_base12@std@@QEAA@XZ		; std::_Iterator_base12::~_Iterator_base12
PUBLIC	?_Adopt@_Iterator_base12@std@@QEAAXPEBU_Container_base12@2@@Z ; std::_Iterator_base12::_Adopt
PUBLIC	?_Getcont@_Iterator_base12@std@@QEBAPEBU_Container_base12@2@XZ ; std::_Iterator_base12::_Getcont
PUBLIC	?_Assign_unlocked@_Iterator_base12@std@@AEAAXAEBU12@@Z ; std::_Iterator_base12::_Assign_unlocked
PUBLIC	?_Assign_locked@_Iterator_base12@std@@AEAAXAEBU12@@Z ; std::_Iterator_base12::_Assign_locked
PUBLIC	?_Adopt_unlocked@_Iterator_base12@std@@AEAAXPEBU_Container_base12@2@@Z ; std::_Iterator_base12::_Adopt_unlocked
PUBLIC	?_Adopt_locked@_Iterator_base12@std@@AEAAXPEBU_Container_base12@2@@Z ; std::_Iterator_base12::_Adopt_locked
PUBLIC	?_Orphan_me_unlocked_v3@_Iterator_base12@std@@AEAAXXZ ; std::_Iterator_base12::_Orphan_me_unlocked_v3
PUBLIC	?_Orphan_me_locked_v3@_Iterator_base12@std@@AEAAXXZ ; std::_Iterator_base12::_Orphan_me_locked_v3
PUBLIC	??$exchange@PEAU_Iterator_base12@std@@$$T@std@@YAPEAU_Iterator_base12@0@AEAPEAU10@$$QEA$$T@Z ; std::exchange<std::_Iterator_base12 *,std::nullptr_t>
PUBLIC	?_Release@_Basic_container_proxy_ptr12@std@@QEAAXXZ ; std::_Basic_container_proxy_ptr12::_Release
PUBLIC	??0_Basic_container_proxy_ptr12@std@@IEAA@XZ	; std::_Basic_container_proxy_ptr12::_Basic_container_proxy_ptr12
PUBLIC	??$addressof@U_Container_base12@std@@@std@@YAPEAU_Container_base12@0@AEAU10@@Z ; std::addressof<std::_Container_base12>
PUBLIC	??$_Construct_in_place@U_Container_proxy@std@@PEAU_Container_base12@2@@std@@YAXAEAU_Container_proxy@0@$$QEAPEAU_Container_base12@0@@Z ; std::_Construct_in_place<std::_Container_proxy,std::_Container_base12 *>
PUBLIC	?_Floor_of_log_2@std@@YAK_K@Z			; std::_Floor_of_log_2
PUBLIC	?_Ceiling_of_log_2@std@@YAK_K@Z			; std::_Ceiling_of_log_2
PUBLIC	??0Bucket@@QEAA@XZ				; Bucket::Bucket
PUBLIC	??R?$_Conditionally_enabled_hash@_K$00@std@@QEBA_KAEB_K@Z ; std::_Conditionally_enabled_hash<unsigned __int64,1>::operator()
PUBLIC	?_Do_hash@?$hash@_K@std@@SA_KAEB_K@Z		; std::hash<unsigned __int64>::_Do_hash
PUBLIC	??0?$_Uhash_compare@_KU?$hash@_K@std@@U?$equal_to@_K@2@@std@@QEAA@XZ ; std::_Uhash_compare<unsigned __int64,std::hash<unsigned __int64>,std::equal_to<unsigned __int64> >::_Uhash_compare<unsigned __int64,std::hash<unsigned __int64>,std::equal_to<unsigned __int64> >
PUBLIC	?_Get_max_bucket_size@?$_Uhash_compare@_KU?$hash@_K@std@@U?$equal_to@_K@2@@std@@QEAAAEAMXZ ; std::_Uhash_compare<unsigned __int64,std::hash<unsigned __int64>,std::equal_to<unsigned __int64> >::_Get_max_bucket_size
PUBLIC	?_Get_max_bucket_size@?$_Uhash_compare@_KU?$hash@_K@std@@U?$equal_to@_K@2@@std@@QEBAAEBMXZ ; std::_Uhash_compare<unsigned __int64,std::hash<unsigned __int64>,std::equal_to<unsigned __int64> >::_Get_max_bucket_size
PUBLIC	??R?$equal_to@_K@std@@QEBA_NAEB_K0@Z		; std::equal_to<unsigned __int64>::operator()
PUBLIC	?_Get_first@?$_Compressed_pair@U?$equal_to@_K@std@@M$00@std@@QEBAAEBU?$equal_to@_K@2@XZ ; std::_Compressed_pair<std::equal_to<unsigned __int64>,float,1>::_Get_first
PUBLIC	?_Get_first@?$_Compressed_pair@U?$hash@_K@std@@V?$_Compressed_pair@U?$equal_to@_K@std@@M$00@2@$00@std@@QEBAAEBU?$hash@_K@2@XZ ; std::_Compressed_pair<std::hash<unsigned __int64>,std::_Compressed_pair<std::equal_to<unsigned __int64>,float,1>,1>::_Get_first
PUBLIC	??0?$allocator@U?$pair@$$CB_KUBucket@@@std@@@std@@QEAA@XZ ; std::allocator<std::pair<unsigned __int64 const ,Bucket> >::allocator<std::pair<unsigned __int64 const ,Bucket> >
PUBLIC	??0?$_Umap_traits@_KUBucket@@V?$_Uhash_compare@_KU?$hash@_K@std@@U?$equal_to@_K@2@@std@@V?$allocator@U?$pair@$$CB_KUBucket@@@std@@@3@$0A@@std@@QEAA@AEBV?$_Uhash_compare@_KU?$hash@_K@std@@U?$equal_to@_K@2@@1@@Z ; std::_Umap_traits<unsigned __int64,Bucket,std::_Uhash_compare<unsigned __int64,std::hash<unsigned __int64>,std::equal_to<unsigned __int64> >,std::allocator<std::pair<unsigned __int64 const ,Bucket> >,0>::_Umap_traits<unsigned __int64,Bucket,std::_Uhash_compare<unsigned __int64,std::hash<unsigned __int64>,std::equal_to<unsigned __int64> >,std::allocator<std::pair<unsigned __int64 const ,Bucket> >,0>
PUBLIC	?deallocate@?$allocator@U?$_List_node@U?$pair@$$CB_KUBucket@@@std@@PEAX@std@@@std@@QEAAXQEAU?$_List_node@U?$pair@$$CB_KUBucket@@@std@@PEAX@2@_K@Z ; std::allocator<std::_List_node<std::pair<unsigned __int64 const ,Bucket>,void *> >::deallocate
PUBLIC	?allocate@?$allocator@U?$_List_node@U?$pair@$$CB_KUBucket@@@std@@PEAX@std@@@std@@QEAAPEAU?$_List_node@U?$pair@$$CB_KUBucket@@@std@@PEAX@2@_K@Z ; std::allocator<std::_List_node<std::pair<unsigned __int64 const ,Bucket>,void *> >::allocate
PUBLIC	?deallocate@?$_Default_allocator_traits@V?$allocator@U?$_List_node@U?$pair@$$CB_KUBucket@@@std@@PEAX@std@@@std@@@std@@SAXAEAV?$allocator@U?$_List_node@U?$pair@$$CB_KUBucket@@@std@@PEAX@std@@@2@QEAU?$_List_node@U?$pair@$$CB_KUBucket@@@std@@PEAX@2@_K@Z ; std::_Default_allocator_traits<std::allocator<std::_List_node<std::pair<unsigned __int64 const ,Bucket>,void *> > >::deallocate
PUBLIC	?max_size@?$_Default_allocator_traits@V?$allocator@U?$_List_node@U?$pair@$$CB_KUBucket@@@std@@PEAX@std@@@std@@@std@@SA_KAEBV?$allocator@U?$_List_node@U?$pair@$$CB_KUBucket@@@std@@PEAX@std@@@2@@Z ; std::_Default_allocator_traits<std::allocator<std::_List_node<std::pair<unsigned __int64 const ,Bucket>,void *> > >::max_size
PUBLIC	??0?$list@U?$pair@$$CB_KUBucket@@@std@@V?$allocator@U?$pair@$$CB_KUBucket@@@std@@@2@@std@@QEAA@AEBV?$allocator@U?$pair@$$CB_KUBucket@@@std@@@1@@Z ; std::list<std::pair<unsigned __int64 const ,Bucket>,std::allocator<std::pair<unsigned __int64 const ,Bucket> > >::list<std::pair<unsigned __int64 const ,Bucket>,std::allocator<std::pair<unsigned __int64 const ,Bucket> > >
PUBLIC	??1?$list@U?$pair@$$CB_KUBucket@@@std@@V?$allocator@U?$pair@$$CB_KUBucket@@@std@@@2@@std@@QEAA@XZ ; std::list<std::pair<unsigned __int64 const ,Bucket>,std::allocator<std::pair<unsigned __int64 const ,Bucket> > >::~list<std::pair<unsigned __int64 const ,Bucket>,std::allocator<std::pair<unsigned __int64 const ,Bucket> > >
PUBLIC	?_Unchecked_begin@?$list@U?$pair@$$CB_KUBucket@@@std@@V?$allocator@U?$pair@$$CB_KUBucket@@@std@@@2@@std@@QEAA?AV?$_List_unchecked_iterator@V?$_List_val@U?$_List_simple_types@U?$pair@$$CB_KUBucket@@@std@@@std@@@std@@@2@XZ ; std::list<std::pair<unsigned __int64 const ,Bucket>,std::allocator<std::pair<unsigned __int64 const ,Bucket> > >::_Unchecked_begin
PUBLIC	?_Unchecked_end@?$list@U?$pair@$$CB_KUBucket@@@std@@V?$allocator@U?$pair@$$CB_KUBucket@@@std@@@2@@std@@QEAA?AV?$_List_unchecked_iterator@V?$_List_val@U?$_List_simple_types@U?$pair@$$CB_KUBucket@@@std@@@std@@@std@@@2@XZ ; std::list<std::pair<unsigned __int64 const ,Bucket>,std::allocator<std::pair<unsigned __int64 const ,Bucket> > >::_Unchecked_end
PUBLIC	?_Make_iter@?$list@U?$pair@$$CB_KUBucket@@@std@@V?$allocator@U?$pair@$$CB_KUBucket@@@std@@@2@@std@@QEBA?AV?$_List_iterator@V?$_List_val@U?$_List_simple_types@U?$pair@$$CB_KUBucket@@@std@@@std@@@std@@@2@PEAU?$_List_node@U?$pair@$$CB_KUBucket@@@std@@PEAX@2@@Z ; std::list<std::pair<unsigned __int64 const ,Bucket>,std::allocator<std::pair<unsigned __int64 const ,Bucket> > >::_Make_iter
PUBLIC	?max_size@?$list@U?$pair@$$CB_KUBucket@@@std@@V?$allocator@U?$pair@$$CB_KUBucket@@@std@@@2@@std@@QEBA_KXZ ; std::list<std::pair<unsigned __int64 const ,Bucket>,std::allocator<std::pair<unsigned __int64 const ,Bucket> > >::max_size
PUBLIC	?_Unchecked_erase@?$list@U?$pair@$$CB_KUBucket@@@std@@V?$allocator@U?$pair@$$CB_KUBucket@@@std@@@2@@std@@AEAAPEAU?$_List_node@U?$pair@$$CB_KUBucket@@@std@@PEAX@2@PEAU32@QEAU32@@Z ; std::list<std::pair<unsigned __int64 const ,Bucket>,std::allocator<std::pair<unsigned __int64 const ,Bucket> > >::_Unchecked_erase
PUBLIC	?clear@?$list@U?$pair@$$CB_KUBucket@@@std@@V?$allocator@U?$pair@$$CB_KUBucket@@@std@@@2@@std@@QEAAXXZ ; std::list<std::pair<unsigned __int64 const ,Bucket>,std::allocator<std::pair<unsigned __int64 const ,Bucket> > >::clear
PUBLIC	?_Tidy@?$list@U?$pair@$$CB_KUBucket@@@std@@V?$allocator@U?$pair@$$CB_KUBucket@@@std@@@2@@std@@AEAAXXZ ; std::list<std::pair<unsigned __int64 const ,Bucket>,std::allocator<std::pair<unsigned __int64 const ,Bucket> > >::_Tidy
PUBLIC	?_Alloc_sentinel_and_proxy@?$list@U?$pair@$$CB_KUBucket@@@std@@V?$allocator@U?$pair@$$CB_KUBucket@@@std@@@2@@std@@AEAAXXZ ; std::list<std::pair<unsigned __int64 const ,Bucket>,std::allocator<std::pair<unsigned __int64 const ,Bucket> > >::_Alloc_sentinel_and_proxy
PUBLIC	?_Getal@?$list@U?$pair@$$CB_KUBucket@@@std@@V?$allocator@U?$pair@$$CB_KUBucket@@@std@@@2@@std@@AEAAAEAV?$allocator@U?$_List_node@U?$pair@$$CB_KUBucket@@@std@@PEAX@std@@@2@XZ ; std::list<std::pair<unsigned __int64 const ,Bucket>,std::allocator<std::pair<unsigned __int64 const ,Bucket> > >::_Getal
PUBLIC	?_Getal@?$list@U?$pair@$$CB_KUBucket@@@std@@V?$allocator@U?$pair@$$CB_KUBucket@@@std@@@2@@std@@AEBAAEBV?$allocator@U?$_List_node@U?$pair@$$CB_KUBucket@@@std@@PEAX@std@@@2@XZ ; std::list<std::pair<unsigned __int64 const ,Bucket>,std::allocator<std::pair<unsigned __int64 const ,Bucket> > >::_Getal
PUBLIC	??0?$_List_val@U?$_List_simple_types@U?$pair@$$CB_KUBucket@@@std@@@std@@@std@@QEAA@XZ ; std::_List_val<std::_List_simple_types<std::pair<unsigned __int64 const ,Bucket> > >::_List_val<std::_List_simple_types<std::pair<unsigned __int64 const ,Bucket> > >
PUBLIC	?_Orphan_non_end@?$_List_val@U?$_List_simple_types@U?$pair@$$CB_KUBucket@@@std@@@std@@@std@@QEAAXXZ ; std::_List_val<std::_List_simple_types<std::pair<unsigned __int64 const ,Bucket> > >::_Orphan_non_end
PUBLIC	?_Unchecked_splice@?$_List_val@U?$_List_simple_types@U?$pair@$$CB_KUBucket@@@std@@@std@@@std@@SAPEAU?$_List_node@U?$pair@$$CB_KUBucket@@@std@@PEAX@2@QEAU32@00@Z ; std::_List_val<std::_List_simple_types<std::pair<unsigned __int64 const ,Bucket> > >::_Unchecked_splice
PUBLIC	?_Get_first@?$_Compressed_pair@V?$allocator@U?$_List_node@U?$pair@$$CB_KUBucket@@@std@@PEAX@std@@@std@@V?$_List_val@U?$_List_simple_types@U?$pair@$$CB_KUBucket@@@std@@@std@@@2@$00@std@@QEAAAEAV?$allocator@U?$_List_node@U?$pair@$$CB_KUBucket@@@std@@PEAX@std@@@2@XZ ; std::_Compressed_pair<std::allocator<std::_List_node<std::pair<unsigned __int64 const ,Bucket>,void *> >,std::_List_val<std::_List_simple_types<std::pair<unsigned __int64 const ,Bucket> > >,1>::_Get_first
PUBLIC	?_Get_first@?$_Compressed_pair@V?$allocator@U?$_List_node@U?$pair@$$CB_KUBucket@@@std@@PEAX@std@@@std@@V?$_List_val@U?$_List_simple_types@U?$pair@$$CB_KUBucket@@@std@@@std@@@2@$00@std@@QEBAAEBV?$allocator@U?$_List_node@U?$pair@$$CB_KUBucket@@@std@@PEAX@std@@@2@XZ ; std::_Compressed_pair<std::allocator<std::_List_node<std::pair<unsigned __int64 const ,Bucket>,void *> >,std::_List_val<std::_List_simple_types<std::pair<unsigned __int64 const ,Bucket> > >,1>::_Get_first
PUBLIC	??0?$_Hash@V?$_Umap_traits@_KUBucket@@V?$_Uhash_compare@_KU?$hash@_K@std@@U?$equal_to@_K@2@@std@@V?$allocator@U?$pair@$$CB_KUBucket@@@std@@@3@$0A@@std@@@std@@IEAA@AEBV?$_Uhash_compare@_KU?$hash@_K@std@@U?$equal_to@_K@2@@1@AEBV?$allocator@U?$pair@$$CB_KUBucket@@@std@@@1@@Z ; std::_Hash<std::_Umap_traits<unsigned __int64,Bucket,std::_Uhash_compare<unsigned __int64,std::hash<unsigned __int64>,std::equal_to<unsigned __int64> >,std::allocator<std::pair<unsigned __int64 const ,Bucket> >,0> >::_Hash<std::_Umap_traits<unsigned __int64,Bucket,std::_Uhash_compare<unsigned __int64,std::hash<unsigned __int64>,std::equal_to<unsigned __int64> >,std::allocator<std::pair<unsigned __int64 const ,Bucket> >,0> >
PUBLIC	?_Unchecked_begin@?$_Hash@V?$_Umap_traits@_KUBucket@@V?$_Uhash_compare@_KU?$hash@_K@std@@U?$equal_to@_K@2@@std@@V?$allocator@U?$pair@$$CB_KUBucket@@@std@@@3@$0A@@std@@@std@@QEAA?AV?$_List_unchecked_iterator@V?$_List_val@U?$_List_simple_types@U?$pair@$$CB_KUBucket@@@std@@@std@@@std@@@2@XZ ; std::_Hash<std::_Umap_traits<unsigned __int64,Bucket,std::_Uhash_compare<unsigned __int64,std::hash<unsigned __int64>,std::equal_to<unsigned __int64> >,std::allocator<std::pair<unsigned __int64 const ,Bucket> >,0> >::_Unchecked_begin
PUBLIC	?_Unchecked_end@?$_Hash@V?$_Umap_traits@_KUBucket@@V?$_Uhash_compare@_KU?$hash@_K@std@@U?$equal_to@_K@2@@std@@V?$allocator@U?$pair@$$CB_KUBucket@@@std@@@3@$0A@@std@@@std@@QEAA?AV?$_List_unchecked_iterator@V?$_List_val@U?$_List_simple_types@U?$pair@$$CB_KUBucket@@@std@@@std@@@std@@@2@XZ ; std::_Hash<std::_Umap_traits<unsigned __int64,Bucket,std::_Uhash_compare<unsigned __int64,std::hash<unsigned __int64>,std::equal_to<unsigned __int64> >,std::allocator<std::pair<unsigned __int64 const ,Bucket> >,0> >::_Unchecked_end
PUBLIC	?bucket_count@?$_Hash@V?$_Umap_traits@_KUBucket@@V?$_Uhash_compare@_KU?$hash@_K@std@@U?$equal_to@_K@2@@std@@V?$allocator@U?$pair@$$CB_KUBucket@@@std@@@3@$0A@@std@@@std@@QEBA_KXZ ; std::_Hash<std::_Umap_traits<unsigned __int64,Bucket,std::_Uhash_compare<unsigned __int64,std::hash<unsigned __int64>,std::equal_to<unsigned __int64> >,std::allocator<std::pair<unsigned __int64 const ,Bucket> >,0> >::bucket_count
PUBLIC	?bucket@?$_Hash@V?$_Umap_traits@_KUBucket@@V?$_Uhash_compare@_KU?$hash@_K@std@@U?$equal_to@_K@2@@std@@V?$allocator@U?$pair@$$CB_KUBucket@@@std@@@3@$0A@@std@@@std@@QEBA_KAEB_K@Z ; std::_Hash<std::_Umap_traits<unsigned __int64,Bucket,std::_Uhash_compare<unsigned __int64,std::hash<unsigned __int64>,std::equal_to<unsigned __int64> >,std::allocator<std::pair<unsigned __int64 const ,Bucket> >,0> >::bucket
PUBLIC	?max_load_factor@?$_Hash@V?$_Umap_traits@_KUBucket@@V?$_Uhash_compare@_KU?$hash@_K@std@@U?$equal_to@_K@2@@std@@V?$allocator@U?$pair@$$CB_KUBucket@@@std@@@3@$0A@@std@@@std@@QEBAMXZ ; std::_Hash<std::_Umap_traits<unsigned __int64,Bucket,std::_Uhash_compare<unsigned __int64,std::hash<unsigned __int64>,std::equal_to<unsigned __int64> >,std::allocator<std::pair<unsigned __int64 const ,Bucket> >,0> >::max_load_factor
PUBLIC	?_Unchecked_erase@?$_Hash@V?$_Umap_traits@_KUBucket@@V?$_Uhash_compare@_KU?$hash@_K@std@@U?$equal_to@_K@2@@std@@V?$allocator@U?$pair@$$CB_KUBucket@@@std@@@3@$0A@@std@@@std@@AEAAPEAU?$_List_node@U?$pair@$$CB_KUBucket@@@std@@PEAX@2@PEAU32@QEAU32@@Z ; std::_Hash<std::_Umap_traits<unsigned __int64,Bucket,std::_Uhash_compare<unsigned __int64,std::hash<unsigned __int64>,std::equal_to<unsigned __int64> >,std::allocator<std::pair<unsigned __int64 const ,Bucket> >,0> >::_Unchecked_erase
PUBLIC	?clear@?$_Hash@V?$_Umap_traits@_KUBucket@@V?$_Uhash_compare@_KU?$hash@_K@std@@U?$equal_to@_K@2@@std@@V?$allocator@U?$pair@$$CB_KUBucket@@@std@@@3@$0A@@std@@@std@@QEAAXXZ ; std::_Hash<std::_Umap_traits<unsigned __int64,Bucket,std::_Uhash_compare<unsigned __int64,std::hash<unsigned __int64>,std::equal_to<unsigned __int64> >,std::allocator<std::pair<unsigned __int64 const ,Bucket> >,0> >::clear
PUBLIC	?_Insert_new_node_before@?$_Hash@V?$_Umap_traits@_KUBucket@@V?$_Uhash_compare@_KU?$hash@_K@std@@U?$equal_to@_K@2@@std@@V?$allocator@U?$pair@$$CB_KUBucket@@@std@@@3@$0A@@std@@@std@@IEAAPEAU?$_List_node@U?$pair@$$CB_KUBucket@@@std@@PEAX@2@_KQEAU32@1@Z ; std::_Hash<std::_Umap_traits<unsigned __int64,Bucket,std::_Uhash_compare<unsigned __int64,std::hash<unsigned __int64>,std::equal_to<unsigned __int64> >,std::allocator<std::pair<unsigned __int64 const ,Bucket> >,0> >::_Insert_new_node_before
PUBLIC	?_Check_max_size@?$_Hash@V?$_Umap_traits@_KUBucket@@V?$_Uhash_compare@_KU?$hash@_K@std@@U?$equal_to@_K@2@@std@@V?$allocator@U?$pair@$$CB_KUBucket@@@std@@@3@$0A@@std@@@std@@IEBAXXZ ; std::_Hash<std::_Umap_traits<unsigned __int64,Bucket,std::_Uhash_compare<unsigned __int64,std::hash<unsigned __int64>,std::equal_to<unsigned __int64> >,std::allocator<std::pair<unsigned __int64 const ,Bucket> >,0> >::_Check_max_size
PUBLIC	?_Check_rehash_required_1@?$_Hash@V?$_Umap_traits@_KUBucket@@V?$_Uhash_compare@_KU?$hash@_K@std@@U?$equal_to@_K@2@@std@@V?$allocator@U?$pair@$$CB_KUBucket@@@std@@@3@$0A@@std@@@std@@IEBA_NXZ ; std::_Hash<std::_Umap_traits<unsigned __int64,Bucket,std::_Uhash_compare<unsigned __int64,std::hash<unsigned __int64>,std::equal_to<unsigned __int64> >,std::allocator<std::pair<unsigned __int64 const ,Bucket> >,0> >::_Check_rehash_required_1
PUBLIC	?_Rehash_for_1@?$_Hash@V?$_Umap_traits@_KUBucket@@V?$_Uhash_compare@_KU?$hash@_K@std@@U?$equal_to@_K@2@@std@@V?$allocator@U?$pair@$$CB_KUBucket@@@std@@@3@$0A@@std@@@std@@IEAAXXZ ; std::_Hash<std::_Umap_traits<unsigned __int64,Bucket,std::_Uhash_compare<unsigned __int64,std::hash<unsigned __int64>,std::equal_to<unsigned __int64> >,std::allocator<std::pair<unsigned __int64 const ,Bucket> >,0> >::_Rehash_for_1
PUBLIC	?_Min_load_factor_buckets@?$_Hash@V?$_Umap_traits@_KUBucket@@V?$_Uhash_compare@_KU?$hash@_K@std@@U?$equal_to@_K@2@@std@@V?$allocator@U?$pair@$$CB_KUBucket@@@std@@@3@$0A@@std@@@std@@IEBA_K_K@Z ; std::_Hash<std::_Umap_traits<unsigned __int64,Bucket,std::_Uhash_compare<unsigned __int64,std::hash<unsigned __int64>,std::equal_to<unsigned __int64> >,std::allocator<std::pair<unsigned __int64 const ,Bucket> >,0> >::_Min_load_factor_buckets
PUBLIC	?_Desired_grow_bucket_count@?$_Hash@V?$_Umap_traits@_KUBucket@@V?$_Uhash_compare@_KU?$hash@_K@std@@U?$equal_to@_K@2@@std@@V?$allocator@U?$pair@$$CB_KUBucket@@@std@@@3@$0A@@std@@@std@@IEBA_K_K@Z ; std::_Hash<std::_Umap_traits<unsigned __int64,Bucket,std::_Uhash_compare<unsigned __int64,std::hash<unsigned __int64>,std::equal_to<unsigned __int64> >,std::allocator<std::pair<unsigned __int64 const ,Bucket> >,0> >::_Desired_grow_bucket_count
PUBLIC	?_Forced_rehash@?$_Hash@V?$_Umap_traits@_KUBucket@@V?$_Uhash_compare@_KU?$hash@_K@std@@U?$equal_to@_K@2@@std@@V?$allocator@U?$pair@$$CB_KUBucket@@@std@@@3@$0A@@std@@@std@@IEAAX_K@Z ; std::_Hash<std::_Umap_traits<unsigned __int64,Bucket,std::_Uhash_compare<unsigned __int64,std::hash<unsigned __int64>,std::equal_to<unsigned __int64> >,std::allocator<std::pair<unsigned __int64 const ,Bucket> >,0> >::_Forced_rehash
PUBLIC	?_Max_bucket_size@?$_Hash@V?$_Umap_traits@_KUBucket@@V?$_Uhash_compare@_KU?$hash@_K@std@@U?$equal_to@_K@2@@std@@V?$allocator@U?$pair@$$CB_KUBucket@@@std@@@3@$0A@@std@@@std@@IEAAAEAMXZ ; std::_Hash<std::_Umap_traits<unsigned __int64,Bucket,std::_Uhash_compare<unsigned __int64,std::hash<unsigned __int64>,std::equal_to<unsigned __int64> >,std::allocator<std::pair<unsigned __int64 const ,Bucket> >,0> >::_Max_bucket_size
PUBLIC	?_Max_bucket_size@?$_Hash@V?$_Umap_traits@_KUBucket@@V?$_Uhash_compare@_KU?$hash@_K@std@@U?$equal_to@_K@2@@std@@V?$allocator@U?$pair@$$CB_KUBucket@@@std@@@3@$0A@@std@@@std@@IEBAAEBMXZ ; std::_Hash<std::_Umap_traits<unsigned __int64,Bucket,std::_Uhash_compare<unsigned __int64,std::hash<unsigned __int64>,std::equal_to<unsigned __int64> >,std::allocator<std::pair<unsigned __int64 const ,Bucket> >,0> >::_Max_bucket_size
PUBLIC	?deallocate@?$allocator@V?$_List_unchecked_iterator@V?$_List_val@U?$_List_simple_types@U?$pair@$$CB_KUBucket@@@std@@@std@@@std@@@std@@@std@@QEAAXQEAV?$_List_unchecked_iterator@V?$_List_val@U?$_List_simple_types@U?$pair@$$CB_KUBucket@@@std@@@std@@@std@@@2@_K@Z ; std::allocator<std::_List_unchecked_iterator<std::_List_val<std::_List_simple_types<std::pair<unsigned __int64 const ,Bucket> > > > >::deallocate
PUBLIC	?allocate@?$allocator@V?$_List_unchecked_iterator@V?$_List_val@U?$_List_simple_types@U?$pair@$$CB_KUBucket@@@std@@@std@@@std@@@std@@@std@@QEAAPEAV?$_List_unchecked_iterator@V?$_List_val@U?$_List_simple_types@U?$pair@$$CB_KUBucket@@@std@@@std@@@std@@@2@_K@Z ; std::allocator<std::_List_unchecked_iterator<std::_List_val<std::_List_simple_types<std::pair<unsigned __int64 const ,Bucket> > > > >::allocate
PUBLIC	?max_size@?$_Default_allocator_traits@V?$allocator@V?$_List_unchecked_iterator@V?$_List_val@U?$_List_simple_types@U?$pair@$$CB_KUBucket@@@std@@@std@@@std@@@std@@@std@@@std@@SA_KAEBV?$allocator@V?$_List_unchecked_iterator@V?$_List_val@U?$_List_simple_types@U?$pair@$$CB_KUBucket@@@std@@@std@@@std@@@std@@@2@@Z ; std::_Default_allocator_traits<std::allocator<std::_List_unchecked_iterator<std::_List_val<std::_List_simple_types<std::pair<unsigned __int64 const ,Bucket> > > > > >::max_size
PUBLIC	?size@?$_Hash_vec@V?$allocator@V?$_List_unchecked_iterator@V?$_List_val@U?$_List_simple_types@U?$pair@$$CB_KUBucket@@@std@@@std@@@std@@@std@@@std@@@std@@QEBA_KXZ ; std::_Hash_vec<std::allocator<std::_List_unchecked_iterator<std::_List_val<std::_List_simple_types<std::pair<unsigned __int64 const ,Bucket> > > > > >::size
PUBLIC	?max_size@?$_Hash_vec@V?$allocator@V?$_List_unchecked_iterator@V?$_List_val@U?$_List_simple_types@U?$pair@$$CB_KUBucket@@@std@@@std@@@std@@@std@@@std@@@std@@QEBA_KXZ ; std::_Hash_vec<std::allocator<std::_List_unchecked_iterator<std::_List_val<std::_List_simple_types<std::pair<unsigned __int64 const ,Bucket> > > > > >::max_size
PUBLIC	?capacity@?$_Hash_vec@V?$allocator@V?$_List_unchecked_iterator@V?$_List_val@U?$_List_simple_types@U?$pair@$$CB_KUBucket@@@std@@@std@@@std@@@std@@@std@@@std@@QEBA_KXZ ; std::_Hash_vec<std::allocator<std::_List_unchecked_iterator<std::_List_val<std::_List_simple_types<std::pair<unsigned __int64 const ,Bucket> > > > > >::capacity
PUBLIC	?_Assign_grow@?$_Hash_vec@V?$allocator@V?$_List_unchecked_iterator@V?$_List_val@U?$_List_simple_types@U?$pair@$$CB_KUBucket@@@std@@@std@@@std@@@std@@@std@@@std@@QEAAX_KV?$_List_unchecked_iterator@V?$_List_val@U?$_List_simple_types@U?$pair@$$CB_KUBucket@@@std@@@std@@@std@@@2@@Z ; std::_Hash_vec<std::allocator<std::_List_unchecked_iterator<std::_List_val<std::_List_simple_types<std::pair<unsigned __int64 const ,Bucket> > > > > >::_Assign_grow
PUBLIC	?_Tidy@?$_Hash_vec@V?$allocator@V?$_List_unchecked_iterator@V?$_List_val@U?$_List_simple_types@U?$pair@$$CB_KUBucket@@@std@@@std@@@std@@@std@@@std@@@std@@QEAAXXZ ; std::_Hash_vec<std::allocator<std::_List_unchecked_iterator<std::_List_val<std::_List_simple_types<std::pair<unsigned __int64 const ,Bucket> > > > > >::_Tidy
PUBLIC	??1?$_Hash_vec@V?$allocator@V?$_List_unchecked_iterator@V?$_List_val@U?$_List_simple_types@U?$pair@$$CB_KUBucket@@@std@@@std@@@std@@@std@@@std@@@std@@QEAA@XZ ; std::_Hash_vec<std::allocator<std::_List_unchecked_iterator<std::_List_val<std::_List_simple_types<std::pair<unsigned __int64 const ,Bucket> > > > > >::~_Hash_vec<std::allocator<std::_List_unchecked_iterator<std::_List_val<std::_List_simple_types<std::pair<unsigned __int64 const ,Bucket> > > > > >
PUBLIC	??0?$_Vector_val@U?$_Simple_types@V?$_List_unchecked_iterator@V?$_List_val@U?$_List_simple_types@U?$pair@$$CB_KUBucket@@@std@@@std@@@std@@@std@@@std@@@std@@QEAA@XZ ; std::_Vector_val<std::_Simple_types<std::_List_unchecked_iterator<std::_List_val<std::_List_simple_types<std::pair<unsigned __int64 const ,Bucket> > > > > >::_Vector_val<std::_Simple_types<std::_List_unchecked_iterator<std::_List_val<std::_List_simple_types<std::pair<unsigned __int64 const ,Bucket> > > > > >
PUBLIC	?_Get_first@?$_Compressed_pair@V?$allocator@V?$_List_unchecked_iterator@V?$_List_val@U?$_List_simple_types@U?$pair@$$CB_KUBucket@@@std@@@std@@@std@@@std@@@std@@V?$_Vector_val@U?$_Simple_types@V?$_List_unchecked_iterator@V?$_List_val@U?$_List_simple_types@U?$pair@$$CB_KUBucket@@@std@@@std@@@std@@@std@@@std@@@2@$00@std@@QEAAAEAV?$allocator@V?$_List_unchecked_iterator@V?$_List_val@U?$_List_simple_types@U?$pair@$$CB_KUBucket@@@std@@@std@@@std@@@std@@@2@XZ ; std::_Compressed_pair<std::allocator<std::_List_unchecked_iterator<std::_List_val<std::_List_simple_types<std::pair<unsigned __int64 const ,Bucket> > > > >,std::_Vector_val<std::_Simple_types<std::_List_unchecked_iterator<std::_List_val<std::_List_simple_types<std::pair<unsigned __int64 const ,Bucket> > > > > >,1>::_Get_first
PUBLIC	?_Get_first@?$_Compressed_pair@V?$allocator@V?$_List_unchecked_iterator@V?$_List_val@U?$_List_simple_types@U?$pair@$$CB_KUBucket@@@std@@@std@@@std@@@std@@@std@@V?$_Vector_val@U?$_Simple_types@V?$_List_unchecked_iterator@V?$_List_val@U?$_List_simple_types@U?$pair@$$CB_KUBucket@@@std@@@std@@@std@@@std@@@std@@@2@$00@std@@QEBAAEBV?$allocator@V?$_List_unchecked_iterator@V?$_List_val@U?$_List_simple_types@U?$pair@$$CB_KUBucket@@@std@@@std@@@std@@@std@@@2@XZ ; std::_Compressed_pair<std::allocator<std::_List_unchecked_iterator<std::_List_val<std::_List_simple_types<std::pair<unsigned __int64 const ,Bucket> > > > >,std::_Vector_val<std::_Simple_types<std::_List_unchecked_iterator<std::_List_val<std::_List_simple_types<std::pair<unsigned __int64 const ,Bucket> > > > > >,1>::_Get_first
PUBLIC	??1?$_Hash@V?$_Umap_traits@_KUBucket@@V?$_Uhash_compare@_KU?$hash@_K@std@@U?$equal_to@_K@2@@std@@V?$allocator@U?$pair@$$CB_KUBucket@@@std@@@3@$0A@@std@@@std@@QEAA@XZ ; std::_Hash<std::_Umap_traits<unsigned __int64,Bucket,std::_Uhash_compare<unsigned __int64,std::hash<unsigned __int64>,std::equal_to<unsigned __int64> >,std::allocator<std::pair<unsigned __int64 const ,Bucket> >,0> >::~_Hash<std::_Umap_traits<unsigned __int64,Bucket,std::_Uhash_compare<unsigned __int64,std::hash<unsigned __int64>,std::equal_to<unsigned __int64> >,std::allocator<std::pair<unsigned __int64 const ,Bucket> >,0> >
PUBLIC	??0?$unordered_map@_KUBucket@@U?$hash@_K@std@@U?$equal_to@_K@3@V?$allocator@U?$pair@$$CB_KUBucket@@@std@@@3@@std@@QEAA@XZ ; std::unordered_map<unsigned __int64,Bucket,std::hash<unsigned __int64>,std::equal_to<unsigned __int64>,std::allocator<std::pair<unsigned __int64 const ,Bucket> > >::unordered_map<unsigned __int64,Bucket,std::hash<unsigned __int64>,std::equal_to<unsigned __int64>,std::allocator<std::pair<unsigned __int64 const ,Bucket> > >
PUBLIC	??1?$unordered_map@_KUBucket@@U?$hash@_K@std@@U?$equal_to@_K@3@V?$allocator@U?$pair@$$CB_KUBucket@@@std@@@3@@std@@QEAA@XZ ; std::unordered_map<unsigned __int64,Bucket,std::hash<unsigned __int64>,std::equal_to<unsigned __int64>,std::allocator<std::pair<unsigned __int64 const ,Bucket> > >::~unordered_map<unsigned __int64,Bucket,std::hash<unsigned __int64>,std::equal_to<unsigned __int64>,std::allocator<std::pair<unsigned __int64 const ,Bucket> > >
PUBLIC	??0?$allocator@_K@std@@QEAA@XZ			; std::allocator<unsigned __int64>::allocator<unsigned __int64>
PUBLIC	??0?$_Uset_traits@_KV?$_Uhash_compare@_KU?$hash@_K@std@@U?$equal_to@_K@2@@std@@V?$allocator@_K@2@$0A@@std@@QEAA@AEBV?$_Uhash_compare@_KU?$hash@_K@std@@U?$equal_to@_K@2@@1@@Z ; std::_Uset_traits<unsigned __int64,std::_Uhash_compare<unsigned __int64,std::hash<unsigned __int64>,std::equal_to<unsigned __int64> >,std::allocator<unsigned __int64>,0>::_Uset_traits<unsigned __int64,std::_Uhash_compare<unsigned __int64,std::hash<unsigned __int64>,std::equal_to<unsigned __int64> >,std::allocator<unsigned __int64>,0>
PUBLIC	?_Kfn@?$_Uset_traits@_KV?$_Uhash_compare@_KU?$hash@_K@std@@U?$equal_to@_K@2@@std@@V?$allocator@_K@2@$0A@@std@@SAAEB_KAEB_K@Z ; std::_Uset_traits<unsigned __int64,std::_Uhash_compare<unsigned __int64,std::hash<unsigned __int64>,std::equal_to<unsigned __int64> >,std::allocator<unsigned __int64>,0>::_Kfn
PUBLIC	?deallocate@?$allocator@U?$_List_node@_KPEAX@std@@@std@@QEAAXQEAU?$_List_node@_KPEAX@2@_K@Z ; std::allocator<std::_List_node<unsigned __int64,void *> >::deallocate
PUBLIC	?allocate@?$allocator@U?$_List_node@_KPEAX@std@@@std@@QEAAPEAU?$_List_node@_KPEAX@2@_K@Z ; std::allocator<std::_List_node<unsigned __int64,void *> >::allocate
PUBLIC	?deallocate@?$_Default_allocator_traits@V?$allocator@U?$_List_node@_KPEAX@std@@@std@@@std@@SAXAEAV?$allocator@U?$_List_node@_KPEAX@std@@@2@QEAU?$_List_node@_KPEAX@2@_K@Z ; std::_Default_allocator_traits<std::allocator<std::_List_node<unsigned __int64,void *> > >::deallocate
PUBLIC	?max_size@?$_Default_allocator_traits@V?$allocator@U?$_List_node@_KPEAX@std@@@std@@@std@@SA_KAEBV?$allocator@U?$_List_node@_KPEAX@std@@@2@@Z ; std::_Default_allocator_traits<std::allocator<std::_List_node<unsigned __int64,void *> > >::max_size
PUBLIC	??0?$list@_KV?$allocator@_K@std@@@std@@QEAA@AEBV?$allocator@_K@1@@Z ; std::list<unsigned __int64,std::allocator<unsigned __int64> >::list<unsigned __int64,std::allocator<unsigned __int64> >
PUBLIC	??1?$list@_KV?$allocator@_K@std@@@std@@QEAA@XZ	; std::list<unsigned __int64,std::allocator<unsigned __int64> >::~list<unsigned __int64,std::allocator<unsigned __int64> >
PUBLIC	?begin@?$list@_KV?$allocator@_K@std@@@std@@QEAA?AV?$_List_iterator@V?$_List_val@U?$_List_simple_types@_K@std@@@std@@@2@XZ ; std::list<unsigned __int64,std::allocator<unsigned __int64> >::begin
PUBLIC	?end@?$list@_KV?$allocator@_K@std@@@std@@QEAA?AV?$_List_iterator@V?$_List_val@U?$_List_simple_types@_K@std@@@std@@@2@XZ ; std::list<unsigned __int64,std::allocator<unsigned __int64> >::end
PUBLIC	?_Unchecked_begin@?$list@_KV?$allocator@_K@std@@@std@@QEAA?AV?$_List_unchecked_iterator@V?$_List_val@U?$_List_simple_types@_K@std@@@std@@@2@XZ ; std::list<unsigned __int64,std::allocator<unsigned __int64> >::_Unchecked_begin
PUBLIC	?_Unchecked_end@?$list@_KV?$allocator@_K@std@@@std@@QEAA?AV?$_List_unchecked_iterator@V?$_List_val@U?$_List_simple_types@_K@std@@@std@@@2@XZ ; std::list<unsigned __int64,std::allocator<unsigned __int64> >::_Unchecked_end
PUBLIC	?_Make_iter@?$list@_KV?$allocator@_K@std@@@std@@QEBA?AV?$_List_iterator@V?$_List_val@U?$_List_simple_types@_K@std@@@std@@@2@PEAU?$_List_node@_KPEAX@2@@Z ; std::list<unsigned __int64,std::allocator<unsigned __int64> >::_Make_iter
PUBLIC	?max_size@?$list@_KV?$allocator@_K@std@@@std@@QEBA_KXZ ; std::list<unsigned __int64,std::allocator<unsigned __int64> >::max_size
PUBLIC	?_Unchecked_erase@?$list@_KV?$allocator@_K@std@@@std@@AEAAPEAU?$_List_node@_KPEAX@2@QEAU32@@Z ; std::list<unsigned __int64,std::allocator<unsigned __int64> >::_Unchecked_erase
PUBLIC	?_Unchecked_erase@?$list@_KV?$allocator@_K@std@@@std@@AEAAPEAU?$_List_node@_KPEAX@2@PEAU32@QEAU32@@Z ; std::list<unsigned __int64,std::allocator<unsigned __int64> >::_Unchecked_erase
PUBLIC	?clear@?$list@_KV?$allocator@_K@std@@@std@@QEAAXXZ ; std::list<unsigned __int64,std::allocator<unsigned __int64> >::clear
PUBLIC	?_Tidy@?$list@_KV?$allocator@_K@std@@@std@@AEAAXXZ ; std::list<unsigned __int64,std::allocator<unsigned __int64> >::_Tidy
PUBLIC	?_Alloc_sentinel_and_proxy@?$list@_KV?$allocator@_K@std@@@std@@AEAAXXZ ; std::list<unsigned __int64,std::allocator<unsigned __int64> >::_Alloc_sentinel_and_proxy
PUBLIC	?_Getal@?$list@_KV?$allocator@_K@std@@@std@@AEAAAEAV?$allocator@U?$_List_node@_KPEAX@std@@@2@XZ ; std::list<unsigned __int64,std::allocator<unsigned __int64> >::_Getal
PUBLIC	?_Getal@?$list@_KV?$allocator@_K@std@@@std@@AEBAAEBV?$allocator@U?$_List_node@_KPEAX@std@@@2@XZ ; std::list<unsigned __int64,std::allocator<unsigned __int64> >::_Getal
PUBLIC	??0?$_List_val@U?$_List_simple_types@_K@std@@@std@@QEAA@XZ ; std::_List_val<std::_List_simple_types<unsigned __int64> >::_List_val<std::_List_simple_types<unsigned __int64> >
PUBLIC	?_Orphan_ptr2@?$_List_val@U?$_List_simple_types@_K@std@@@std@@QEAAXPEAU?$_List_node@_KPEAX@2@@Z ; std::_List_val<std::_List_simple_types<unsigned __int64> >::_Orphan_ptr2
PUBLIC	?_Orphan_non_end@?$_List_val@U?$_List_simple_types@_K@std@@@std@@QEAAXXZ ; std::_List_val<std::_List_simple_types<unsigned __int64> >::_Orphan_non_end
PUBLIC	?_Unchecked_splice@?$_List_val@U?$_List_simple_types@_K@std@@@std@@SAPEAU?$_List_node@_KPEAX@2@QEAU32@00@Z ; std::_List_val<std::_List_simple_types<unsigned __int64> >::_Unchecked_splice
PUBLIC	?_Get_first@?$_Compressed_pair@V?$allocator@U?$_List_node@_KPEAX@std@@@std@@V?$_List_val@U?$_List_simple_types@_K@std@@@2@$00@std@@QEAAAEAV?$allocator@U?$_List_node@_KPEAX@std@@@2@XZ ; std::_Compressed_pair<std::allocator<std::_List_node<unsigned __int64,void *> >,std::_List_val<std::_List_simple_types<unsigned __int64> >,1>::_Get_first
PUBLIC	?_Get_first@?$_Compressed_pair@V?$allocator@U?$_List_node@_KPEAX@std@@@std@@V?$_List_val@U?$_List_simple_types@_K@std@@@2@$00@std@@QEBAAEBV?$allocator@U?$_List_node@_KPEAX@std@@@2@XZ ; std::_Compressed_pair<std::allocator<std::_List_node<unsigned __int64,void *> >,std::_List_val<std::_List_simple_types<unsigned __int64> >,1>::_Get_first
PUBLIC	??0?$_Hash@V?$_Uset_traits@_KV?$_Uhash_compare@_KU?$hash@_K@std@@U?$equal_to@_K@2@@std@@V?$allocator@_K@2@$0A@@std@@@std@@IEAA@AEBV?$_Uhash_compare@_KU?$hash@_K@std@@U?$equal_to@_K@2@@1@AEBV?$allocator@_K@1@@Z ; std::_Hash<std::_Uset_traits<unsigned __int64,std::_Uhash_compare<unsigned __int64,std::hash<unsigned __int64>,std::equal_to<unsigned __int64> >,std::allocator<unsigned __int64>,0> >::_Hash<std::_Uset_traits<unsigned __int64,std::_Uhash_compare<unsigned __int64,std::hash<unsigned __int64>,std::equal_to<unsigned __int64> >,std::allocator<unsigned __int64>,0> >
PUBLIC	?begin@?$_Hash@V?$_Uset_traits@_KV?$_Uhash_compare@_KU?$hash@_K@std@@U?$equal_to@_K@2@@std@@V?$allocator@_K@2@$0A@@std@@@std@@QEAA?AV?$_List_const_iterator@V?$_List_val@U?$_List_simple_types@_K@std@@@std@@@2@XZ ; std::_Hash<std::_Uset_traits<unsigned __int64,std::_Uhash_compare<unsigned __int64,std::hash<unsigned __int64>,std::equal_to<unsigned __int64> >,std::allocator<unsigned __int64>,0> >::begin
PUBLIC	?end@?$_Hash@V?$_Uset_traits@_KV?$_Uhash_compare@_KU?$hash@_K@std@@U?$equal_to@_K@2@@std@@V?$allocator@_K@2@$0A@@std@@@std@@QEAA?AV?$_List_const_iterator@V?$_List_val@U?$_List_simple_types@_K@std@@@std@@@2@XZ ; std::_Hash<std::_Uset_traits<unsigned __int64,std::_Uhash_compare<unsigned __int64,std::hash<unsigned __int64>,std::equal_to<unsigned __int64> >,std::allocator<unsigned __int64>,0> >::end
PUBLIC	?_Unchecked_begin@?$_Hash@V?$_Uset_traits@_KV?$_Uhash_compare@_KU?$hash@_K@std@@U?$equal_to@_K@2@@std@@V?$allocator@_K@2@$0A@@std@@@std@@QEAA?AV?$_List_unchecked_const_iterator@V?$_List_val@U?$_List_simple_types@_K@std@@@std@@U_Iterator_base0@2@@2@XZ ; std::_Hash<std::_Uset_traits<unsigned __int64,std::_Uhash_compare<unsigned __int64,std::hash<unsigned __int64>,std::equal_to<unsigned __int64> >,std::allocator<unsigned __int64>,0> >::_Unchecked_begin
PUBLIC	?_Unchecked_end@?$_Hash@V?$_Uset_traits@_KV?$_Uhash_compare@_KU?$hash@_K@std@@U?$equal_to@_K@2@@std@@V?$allocator@_K@2@$0A@@std@@@std@@QEAA?AV?$_List_unchecked_const_iterator@V?$_List_val@U?$_List_simple_types@_K@std@@@std@@U_Iterator_base0@2@@2@XZ ; std::_Hash<std::_Uset_traits<unsigned __int64,std::_Uhash_compare<unsigned __int64,std::hash<unsigned __int64>,std::equal_to<unsigned __int64> >,std::allocator<unsigned __int64>,0> >::_Unchecked_end
PUBLIC	?bucket_count@?$_Hash@V?$_Uset_traits@_KV?$_Uhash_compare@_KU?$hash@_K@std@@U?$equal_to@_K@2@@std@@V?$allocator@_K@2@$0A@@std@@@std@@QEBA_KXZ ; std::_Hash<std::_Uset_traits<unsigned __int64,std::_Uhash_compare<unsigned __int64,std::hash<unsigned __int64>,std::equal_to<unsigned __int64> >,std::allocator<unsigned __int64>,0> >::bucket_count
PUBLIC	?bucket@?$_Hash@V?$_Uset_traits@_KV?$_Uhash_compare@_KU?$hash@_K@std@@U?$equal_to@_K@2@@std@@V?$allocator@_K@2@$0A@@std@@@std@@QEBA_KAEB_K@Z ; std::_Hash<std::_Uset_traits<unsigned __int64,std::_Uhash_compare<unsigned __int64,std::hash<unsigned __int64>,std::equal_to<unsigned __int64> >,std::allocator<unsigned __int64>,0> >::bucket
PUBLIC	?max_load_factor@?$_Hash@V?$_Uset_traits@_KV?$_Uhash_compare@_KU?$hash@_K@std@@U?$equal_to@_K@2@@std@@V?$allocator@_K@2@$0A@@std@@@std@@QEBAMXZ ; std::_Hash<std::_Uset_traits<unsigned __int64,std::_Uhash_compare<unsigned __int64,std::hash<unsigned __int64>,std::equal_to<unsigned __int64> >,std::allocator<unsigned __int64>,0> >::max_load_factor
PUBLIC	?insert@?$_Hash@V?$_Uset_traits@_KV?$_Uhash_compare@_KU?$hash@_K@std@@U?$equal_to@_K@2@@std@@V?$allocator@_K@2@$0A@@std@@@std@@QEAA?AU?$pair@V?$_List_const_iterator@V?$_List_val@U?$_List_simple_types@_K@std@@@std@@@std@@_N@2@AEB_K@Z ; std::_Hash<std::_Uset_traits<unsigned __int64,std::_Uhash_compare<unsigned __int64,std::hash<unsigned __int64>,std::equal_to<unsigned __int64> >,std::allocator<unsigned __int64>,0> >::insert
PUBLIC	?insert@?$_Hash@V?$_Uset_traits@_KV?$_Uhash_compare@_KU?$hash@_K@std@@U?$equal_to@_K@2@@std@@V?$allocator@_K@2@$0A@@std@@@std@@QEAA?AU?$pair@V?$_List_const_iterator@V?$_List_val@U?$_List_simple_types@_K@std@@@std@@@std@@_N@2@$$QEA_K@Z ; std::_Hash<std::_Uset_traits<unsigned __int64,std::_Uhash_compare<unsigned __int64,std::hash<unsigned __int64>,std::equal_to<unsigned __int64> >,std::allocator<unsigned __int64>,0> >::insert
PUBLIC	?_Unchecked_erase@?$_Hash@V?$_Uset_traits@_KV?$_Uhash_compare@_KU?$hash@_K@std@@U?$equal_to@_K@2@@std@@V?$allocator@_K@2@$0A@@std@@@std@@AEAAPEAU?$_List_node@_KPEAX@2@PEAU32@QEAU32@@Z ; std::_Hash<std::_Uset_traits<unsigned __int64,std::_Uhash_compare<unsigned __int64,std::hash<unsigned __int64>,std::equal_to<unsigned __int64> >,std::allocator<unsigned __int64>,0> >::_Unchecked_erase
PUBLIC	?erase@?$_Hash@V?$_Uset_traits@_KV?$_Uhash_compare@_KU?$hash@_K@std@@U?$equal_to@_K@2@@std@@V?$allocator@_K@2@$0A@@std@@@std@@QEAA_KAEB_K@Z ; std::_Hash<std::_Uset_traits<unsigned __int64,std::_Uhash_compare<unsigned __int64,std::hash<unsigned __int64>,std::equal_to<unsigned __int64> >,std::allocator<unsigned __int64>,0> >::erase
PUBLIC	?clear@?$_Hash@V?$_Uset_traits@_KV?$_Uhash_compare@_KU?$hash@_K@std@@U?$equal_to@_K@2@@std@@V?$allocator@_K@2@$0A@@std@@@std@@QEAAXXZ ; std::_Hash<std::_Uset_traits<unsigned __int64,std::_Uhash_compare<unsigned __int64,std::hash<unsigned __int64>,std::equal_to<unsigned __int64> >,std::allocator<unsigned __int64>,0> >::clear
PUBLIC	?_Insert_new_node_before@?$_Hash@V?$_Uset_traits@_KV?$_Uhash_compare@_KU?$hash@_K@std@@U?$equal_to@_K@2@@std@@V?$allocator@_K@2@$0A@@std@@@std@@IEAAPEAU?$_List_node@_KPEAX@2@_KQEAU32@1@Z ; std::_Hash<std::_Uset_traits<unsigned __int64,std::_Uhash_compare<unsigned __int64,std::hash<unsigned __int64>,std::equal_to<unsigned __int64> >,std::allocator<unsigned __int64>,0> >::_Insert_new_node_before
PUBLIC	?_Check_max_size@?$_Hash@V?$_Uset_traits@_KV?$_Uhash_compare@_KU?$hash@_K@std@@U?$equal_to@_K@2@@std@@V?$allocator@_K@2@$0A@@std@@@std@@IEBAXXZ ; std::_Hash<std::_Uset_traits<unsigned __int64,std::_Uhash_compare<unsigned __int64,std::hash<unsigned __int64>,std::equal_to<unsigned __int64> >,std::allocator<unsigned __int64>,0> >::_Check_max_size
PUBLIC	?_Check_rehash_required_1@?$_Hash@V?$_Uset_traits@_KV?$_Uhash_compare@_KU?$hash@_K@std@@U?$equal_to@_K@2@@std@@V?$allocator@_K@2@$0A@@std@@@std@@IEBA_NXZ ; std::_Hash<std::_Uset_traits<unsigned __int64,std::_Uhash_compare<unsigned __int64,std::hash<unsigned __int64>,std::equal_to<unsigned __int64> >,std::allocator<unsigned __int64>,0> >::_Check_rehash_required_1
PUBLIC	?_Rehash_for_1@?$_Hash@V?$_Uset_traits@_KV?$_Uhash_compare@_KU?$hash@_K@std@@U?$equal_to@_K@2@@std@@V?$allocator@_K@2@$0A@@std@@@std@@IEAAXXZ ; std::_Hash<std::_Uset_traits<unsigned __int64,std::_Uhash_compare<unsigned __int64,std::hash<unsigned __int64>,std::equal_to<unsigned __int64> >,std::allocator<unsigned __int64>,0> >::_Rehash_for_1
PUBLIC	?_Erase_bucket@?$_Hash@V?$_Uset_traits@_KV?$_Uhash_compare@_KU?$hash@_K@std@@U?$equal_to@_K@2@@std@@V?$allocator@_K@2@$0A@@std@@@std@@IEAAXPEAU?$_List_node@_KPEAX@2@_K@Z ; std::_Hash<std::_Uset_traits<unsigned __int64,std::_Uhash_compare<unsigned __int64,std::hash<unsigned __int64>,std::equal_to<unsigned __int64> >,std::allocator<unsigned __int64>,0> >::_Erase_bucket
PUBLIC	?_Min_load_factor_buckets@?$_Hash@V?$_Uset_traits@_KV?$_Uhash_compare@_KU?$hash@_K@std@@U?$equal_to@_K@2@@std@@V?$allocator@_K@2@$0A@@std@@@std@@IEBA_K_K@Z ; std::_Hash<std::_Uset_traits<unsigned __int64,std::_Uhash_compare<unsigned __int64,std::hash<unsigned __int64>,std::equal_to<unsigned __int64> >,std::allocator<unsigned __int64>,0> >::_Min_load_factor_buckets
PUBLIC	?_Desired_grow_bucket_count@?$_Hash@V?$_Uset_traits@_KV?$_Uhash_compare@_KU?$hash@_K@std@@U?$equal_to@_K@2@@std@@V?$allocator@_K@2@$0A@@std@@@std@@IEBA_K_K@Z ; std::_Hash<std::_Uset_traits<unsigned __int64,std::_Uhash_compare<unsigned __int64,std::hash<unsigned __int64>,std::equal_to<unsigned __int64> >,std::allocator<unsigned __int64>,0> >::_Desired_grow_bucket_count
PUBLIC	?_Forced_rehash@?$_Hash@V?$_Uset_traits@_KV?$_Uhash_compare@_KU?$hash@_K@std@@U?$equal_to@_K@2@@std@@V?$allocator@_K@2@$0A@@std@@@std@@IEAAX_K@Z ; std::_Hash<std::_Uset_traits<unsigned __int64,std::_Uhash_compare<unsigned __int64,std::hash<unsigned __int64>,std::equal_to<unsigned __int64> >,std::allocator<unsigned __int64>,0> >::_Forced_rehash
PUBLIC	?_Max_bucket_size@?$_Hash@V?$_Uset_traits@_KV?$_Uhash_compare@_KU?$hash@_K@std@@U?$equal_to@_K@2@@std@@V?$allocator@_K@2@$0A@@std@@@std@@IEAAAEAMXZ ; std::_Hash<std::_Uset_traits<unsigned __int64,std::_Uhash_compare<unsigned __int64,std::hash<unsigned __int64>,std::equal_to<unsigned __int64> >,std::allocator<unsigned __int64>,0> >::_Max_bucket_size
PUBLIC	?_Max_bucket_size@?$_Hash@V?$_Uset_traits@_KV?$_Uhash_compare@_KU?$hash@_K@std@@U?$equal_to@_K@2@@std@@V?$allocator@_K@2@$0A@@std@@@std@@IEBAAEBMXZ ; std::_Hash<std::_Uset_traits<unsigned __int64,std::_Uhash_compare<unsigned __int64,std::hash<unsigned __int64>,std::equal_to<unsigned __int64> >,std::allocator<unsigned __int64>,0> >::_Max_bucket_size
PUBLIC	?deallocate@?$allocator@V?$_List_unchecked_const_iterator@V?$_List_val@U?$_List_simple_types@_K@std@@@std@@U_Iterator_base0@2@@std@@@std@@QEAAXQEAV?$_List_unchecked_const_iterator@V?$_List_val@U?$_List_simple_types@_K@std@@@std@@U_Iterator_base0@2@@2@_K@Z ; std::allocator<std::_List_unchecked_const_iterator<std::_List_val<std::_List_simple_types<unsigned __int64> >,std::_Iterator_base0> >::deallocate
PUBLIC	?allocate@?$allocator@V?$_List_unchecked_const_iterator@V?$_List_val@U?$_List_simple_types@_K@std@@@std@@U_Iterator_base0@2@@std@@@std@@QEAAPEAV?$_List_unchecked_const_iterator@V?$_List_val@U?$_List_simple_types@_K@std@@@std@@U_Iterator_base0@2@@2@_K@Z ; std::allocator<std::_List_unchecked_const_iterator<std::_List_val<std::_List_simple_types<unsigned __int64> >,std::_Iterator_base0> >::allocate
PUBLIC	?max_size@?$_Default_allocator_traits@V?$allocator@V?$_List_unchecked_const_iterator@V?$_List_val@U?$_List_simple_types@_K@std@@@std@@U_Iterator_base0@2@@std@@@std@@@std@@SA_KAEBV?$allocator@V?$_List_unchecked_const_iterator@V?$_List_val@U?$_List_simple_types@_K@std@@@std@@U_Iterator_base0@2@@std@@@2@@Z ; std::_Default_allocator_traits<std::allocator<std::_List_unchecked_const_iterator<std::_List_val<std::_List_simple_types<unsigned __int64> >,std::_Iterator_base0> > >::max_size
PUBLIC	?size@?$_Hash_vec@V?$allocator@V?$_List_unchecked_const_iterator@V?$_List_val@U?$_List_simple_types@_K@std@@@std@@U_Iterator_base0@2@@std@@@std@@@std@@QEBA_KXZ ; std::_Hash_vec<std::allocator<std::_List_unchecked_const_iterator<std::_List_val<std::_List_simple_types<unsigned __int64> >,std::_Iterator_base0> > >::size
PUBLIC	?max_size@?$_Hash_vec@V?$allocator@V?$_List_unchecked_const_iterator@V?$_List_val@U?$_List_simple_types@_K@std@@@std@@U_Iterator_base0@2@@std@@@std@@@std@@QEBA_KXZ ; std::_Hash_vec<std::allocator<std::_List_unchecked_const_iterator<std::_List_val<std::_List_simple_types<unsigned __int64> >,std::_Iterator_base0> > >::max_size
PUBLIC	?capacity@?$_Hash_vec@V?$allocator@V?$_List_unchecked_const_iterator@V?$_List_val@U?$_List_simple_types@_K@std@@@std@@U_Iterator_base0@2@@std@@@std@@@std@@QEBA_KXZ ; std::_Hash_vec<std::allocator<std::_List_unchecked_const_iterator<std::_List_val<std::_List_simple_types<unsigned __int64> >,std::_Iterator_base0> > >::capacity
PUBLIC	?_Assign_grow@?$_Hash_vec@V?$allocator@V?$_List_unchecked_const_iterator@V?$_List_val@U?$_List_simple_types@_K@std@@@std@@U_Iterator_base0@2@@std@@@std@@@std@@QEAAX_KV?$_List_unchecked_const_iterator@V?$_List_val@U?$_List_simple_types@_K@std@@@std@@U_Iterator_base0@2@@2@@Z ; std::_Hash_vec<std::allocator<std::_List_unchecked_const_iterator<std::_List_val<std::_List_simple_types<unsigned __int64> >,std::_Iterator_base0> > >::_Assign_grow
PUBLIC	?_Tidy@?$_Hash_vec@V?$allocator@V?$_List_unchecked_const_iterator@V?$_List_val@U?$_List_simple_types@_K@std@@@std@@U_Iterator_base0@2@@std@@@std@@@std@@QEAAXXZ ; std::_Hash_vec<std::allocator<std::_List_unchecked_const_iterator<std::_List_val<std::_List_simple_types<unsigned __int64> >,std::_Iterator_base0> > >::_Tidy
PUBLIC	??1?$_Hash_vec@V?$allocator@V?$_List_unchecked_const_iterator@V?$_List_val@U?$_List_simple_types@_K@std@@@std@@U_Iterator_base0@2@@std@@@std@@@std@@QEAA@XZ ; std::_Hash_vec<std::allocator<std::_List_unchecked_const_iterator<std::_List_val<std::_List_simple_types<unsigned __int64> >,std::_Iterator_base0> > >::~_Hash_vec<std::allocator<std::_List_unchecked_const_iterator<std::_List_val<std::_List_simple_types<unsigned __int64> >,std::_Iterator_base0> > >
PUBLIC	??0?$_Vector_val@U?$_Simple_types@V?$_List_unchecked_const_iterator@V?$_List_val@U?$_List_simple_types@_K@std@@@std@@U_Iterator_base0@2@@std@@@std@@@std@@QEAA@XZ ; std::_Vector_val<std::_Simple_types<std::_List_unchecked_const_iterator<std::_List_val<std::_List_simple_types<unsigned __int64> >,std::_Iterator_base0> > >::_Vector_val<std::_Simple_types<std::_List_unchecked_const_iterator<std::_List_val<std::_List_simple_types<unsigned __int64> >,std::_Iterator_base0> > >
PUBLIC	?_Get_first@?$_Compressed_pair@V?$allocator@V?$_List_unchecked_const_iterator@V?$_List_val@U?$_List_simple_types@_K@std@@@std@@U_Iterator_base0@2@@std@@@std@@V?$_Vector_val@U?$_Simple_types@V?$_List_unchecked_const_iterator@V?$_List_val@U?$_List_simple_types@_K@std@@@std@@U_Iterator_base0@2@@std@@@std@@@2@$00@std@@QEAAAEAV?$allocator@V?$_List_unchecked_const_iterator@V?$_List_val@U?$_List_simple_types@_K@std@@@std@@U_Iterator_base0@2@@std@@@2@XZ ; std::_Compressed_pair<std::allocator<std::_List_unchecked_const_iterator<std::_List_val<std::_List_simple_types<unsigned __int64> >,std::_Iterator_base0> >,std::_Vector_val<std::_Simple_types<std::_List_unchecked_const_iterator<std::_List_val<std::_List_simple_types<unsigned __int64> >,std::_Iterator_base0> > >,1>::_Get_first
PUBLIC	?_Get_first@?$_Compressed_pair@V?$allocator@V?$_List_unchecked_const_iterator@V?$_List_val@U?$_List_simple_types@_K@std@@@std@@U_Iterator_base0@2@@std@@@std@@V?$_Vector_val@U?$_Simple_types@V?$_List_unchecked_const_iterator@V?$_List_val@U?$_List_simple_types@_K@std@@@std@@U_Iterator_base0@2@@std@@@std@@@2@$00@std@@QEBAAEBV?$allocator@V?$_List_unchecked_const_iterator@V?$_List_val@U?$_List_simple_types@_K@std@@@std@@U_Iterator_base0@2@@std@@@2@XZ ; std::_Compressed_pair<std::allocator<std::_List_unchecked_const_iterator<std::_List_val<std::_List_simple_types<unsigned __int64> >,std::_Iterator_base0> >,std::_Vector_val<std::_Simple_types<std::_List_unchecked_const_iterator<std::_List_val<std::_List_simple_types<unsigned __int64> >,std::_Iterator_base0> > >,1>::_Get_first
PUBLIC	??1?$_Hash@V?$_Uset_traits@_KV?$_Uhash_compare@_KU?$hash@_K@std@@U?$equal_to@_K@2@@std@@V?$allocator@_K@2@$0A@@std@@@std@@QEAA@XZ ; std::_Hash<std::_Uset_traits<unsigned __int64,std::_Uhash_compare<unsigned __int64,std::hash<unsigned __int64>,std::equal_to<unsigned __int64> >,std::allocator<unsigned __int64>,0> >::~_Hash<std::_Uset_traits<unsigned __int64,std::_Uhash_compare<unsigned __int64,std::hash<unsigned __int64>,std::equal_to<unsigned __int64> >,std::allocator<unsigned __int64>,0> >
PUBLIC	??0?$unordered_set@_KU?$hash@_K@std@@U?$equal_to@_K@2@V?$allocator@_K@2@@std@@QEAA@XZ ; std::unordered_set<unsigned __int64,std::hash<unsigned __int64>,std::equal_to<unsigned __int64>,std::allocator<unsigned __int64> >::unordered_set<unsigned __int64,std::hash<unsigned __int64>,std::equal_to<unsigned __int64>,std::allocator<unsigned __int64> >
PUBLIC	??1?$unordered_set@_KU?$hash@_K@std@@U?$equal_to@_K@2@V?$allocator@_K@2@@std@@QEAA@XZ ; std::unordered_set<unsigned __int64,std::hash<unsigned __int64>,std::equal_to<unsigned __int64>,std::allocator<unsigned __int64> >::~unordered_set<unsigned __int64,std::hash<unsigned __int64>,std::equal_to<unsigned __int64>,std::allocator<unsigned __int64> >
PUBLIC	??0TMemory@@QEAA@XZ				; TMemory::TMemory
PUBLIC	?Allocate@TMemory@@QEAA?AUBucket@@_K@Z		; TMemory::Allocate
PUBLIC	?Delete@TMemory@@QEAAXAEAUBucket@@@Z		; TMemory::Delete
PUBLIC	??1TMemory@@QEAA@XZ				; TMemory::~TMemory
PUBLIC	??0?$_List_unchecked_const_iterator@V?$_List_val@U?$_List_simple_types@_K@std@@@std@@U_Iterator_base12@2@@std@@QEAA@PEAU?$_List_node@_KPEAX@1@PEBV?$_List_val@U?$_List_simple_types@_K@std@@@1@@Z ; std::_List_unchecked_const_iterator<std::_List_val<std::_List_simple_types<unsigned __int64> >,std::_Iterator_base12>::_List_unchecked_const_iterator<std::_List_val<std::_List_simple_types<unsigned __int64> >,std::_Iterator_base12>
PUBLIC	??1?$_List_unchecked_const_iterator@V?$_List_val@U?$_List_simple_types@_K@std@@@std@@U_Iterator_base12@2@@std@@QEAA@XZ ; std::_List_unchecked_const_iterator<std::_List_val<std::_List_simple_types<unsigned __int64> >,std::_Iterator_base12>::~_List_unchecked_const_iterator<std::_List_val<std::_List_simple_types<unsigned __int64> >,std::_Iterator_base12>
PUBLIC	??0?$_List_unchecked_const_iterator@V?$_List_val@U?$_List_simple_types@_K@std@@@std@@U_Iterator_base12@2@@std@@QEAA@AEBV01@@Z ; std::_List_unchecked_const_iterator<std::_List_val<std::_List_simple_types<unsigned __int64> >,std::_Iterator_base12>::_List_unchecked_const_iterator<std::_List_val<std::_List_simple_types<unsigned __int64> >,std::_Iterator_base12>
PUBLIC	??0?$_List_unchecked_const_iterator@V?$_List_val@U?$_List_simple_types@_K@std@@@std@@U_Iterator_base12@2@@std@@QEAA@$$QEAV01@@Z ; std::_List_unchecked_const_iterator<std::_List_val<std::_List_simple_types<unsigned __int64> >,std::_Iterator_base12>::_List_unchecked_const_iterator<std::_List_val<std::_List_simple_types<unsigned __int64> >,std::_Iterator_base12>
PUBLIC	??D?$_List_const_iterator@V?$_List_val@U?$_List_simple_types@_K@std@@@std@@@std@@QEBAAEB_KXZ ; std::_List_const_iterator<std::_List_val<std::_List_simple_types<unsigned __int64> > >::operator*
PUBLIC	?_Verify_range@std@@YAXAEBV?$_List_const_iterator@V?$_List_val@U?$_List_simple_types@_K@std@@@std@@@1@0@Z ; std::_Verify_range
PUBLIC	?_Unwrapped@?$_List_const_iterator@V?$_List_val@U?$_List_simple_types@_K@std@@@std@@@std@@QEBA?AV?$_List_unchecked_const_iterator@V?$_List_val@U?$_List_simple_types@_K@std@@@std@@U_Iterator_base0@2@@2@XZ ; std::_List_const_iterator<std::_List_val<std::_List_simple_types<unsigned __int64> > >::_Unwrapped
PUBLIC	?_Seek_to@?$_List_const_iterator@V?$_List_val@U?$_List_simple_types@_K@std@@@std@@@std@@QEAAXV?$_List_unchecked_const_iterator@V?$_List_val@U?$_List_simple_types@_K@std@@@std@@U_Iterator_base0@2@@2@@Z ; std::_List_const_iterator<std::_List_val<std::_List_simple_types<unsigned __int64> > >::_Seek_to
PUBLIC	??1?$_List_const_iterator@V?$_List_val@U?$_List_simple_types@_K@std@@@std@@@std@@QEAA@XZ ; std::_List_const_iterator<std::_List_val<std::_List_simple_types<unsigned __int64> > >::~_List_const_iterator<std::_List_val<std::_List_simple_types<unsigned __int64> > >
PUBLIC	??0?$_List_const_iterator@V?$_List_val@U?$_List_simple_types@_K@std@@@std@@@std@@QEAA@AEBV01@@Z ; std::_List_const_iterator<std::_List_val<std::_List_simple_types<unsigned __int64> > >::_List_const_iterator<std::_List_val<std::_List_simple_types<unsigned __int64> > >
PUBLIC	??0?$_List_const_iterator@V?$_List_val@U?$_List_simple_types@_K@std@@@std@@@std@@QEAA@$$QEAV01@@Z ; std::_List_const_iterator<std::_List_val<std::_List_simple_types<unsigned __int64> > >::_List_const_iterator<std::_List_val<std::_List_simple_types<unsigned __int64> > >
PUBLIC	??0?$_List_const_iterator@V?$_List_val@U?$_List_simple_types@_K@std@@@std@@@std@@QEAA@PEAU?$_List_node@_KPEAX@1@PEBV?$_List_val@U?$_List_simple_types@_K@std@@@1@@Z ; std::_List_const_iterator<std::_List_val<std::_List_simple_types<unsigned __int64> > >::_List_const_iterator<std::_List_val<std::_List_simple_types<unsigned __int64> > >
PUBLIC	??1?$pair@V?$_List_const_iterator@V?$_List_val@U?$_List_simple_types@_K@std@@@std@@@std@@_N@std@@QEAA@XZ ; std::pair<std::_List_const_iterator<std::_List_val<std::_List_simple_types<unsigned __int64> > >,bool>::~pair<std::_List_const_iterator<std::_List_val<std::_List_simple_types<unsigned __int64> > >,bool>
PUBLIC	??0?$_List_unchecked_const_iterator@V?$_List_val@U?$_List_simple_types@U?$pair@$$CB_KUBucket@@@std@@@std@@@std@@U_Iterator_base0@2@@std@@QEAA@PEAU?$_List_node@U?$pair@$$CB_KUBucket@@@std@@PEAX@1@PEBV?$_List_val@U?$_List_simple_types@U?$pair@$$CB_KUBucket@@@std@@@std@@@1@@Z ; std::_List_unchecked_const_iterator<std::_List_val<std::_List_simple_types<std::pair<unsigned __int64 const ,Bucket> > >,std::_Iterator_base0>::_List_unchecked_const_iterator<std::_List_val<std::_List_simple_types<std::pair<unsigned __int64 const ,Bucket> > >,std::_Iterator_base0>
PUBLIC	??D?$_List_unchecked_const_iterator@V?$_List_val@U?$_List_simple_types@U?$pair@$$CB_KUBucket@@@std@@@std@@@std@@U_Iterator_base0@2@@std@@QEBAAEBU?$pair@$$CB_KUBucket@@@1@XZ ; std::_List_unchecked_const_iterator<std::_List_val<std::_List_simple_types<std::pair<unsigned __int64 const ,Bucket> > >,std::_Iterator_base0>::operator*
PUBLIC	??E?$_List_unchecked_const_iterator@V?$_List_val@U?$_List_simple_types@U?$pair@$$CB_KUBucket@@@std@@@std@@@std@@U_Iterator_base0@2@@std@@QEAAAEAV01@XZ ; std::_List_unchecked_const_iterator<std::_List_val<std::_List_simple_types<std::pair<unsigned __int64 const ,Bucket> > >,std::_Iterator_base0>::operator++
PUBLIC	??F?$_List_unchecked_const_iterator@V?$_List_val@U?$_List_simple_types@U?$pair@$$CB_KUBucket@@@std@@@std@@@std@@U_Iterator_base0@2@@std@@QEAAAEAV01@XZ ; std::_List_unchecked_const_iterator<std::_List_val<std::_List_simple_types<std::pair<unsigned __int64 const ,Bucket> > >,std::_Iterator_base0>::operator--
PUBLIC	??8?$_List_unchecked_const_iterator@V?$_List_val@U?$_List_simple_types@U?$pair@$$CB_KUBucket@@@std@@@std@@@std@@U_Iterator_base0@2@@std@@QEBA_NAEBV01@@Z ; std::_List_unchecked_const_iterator<std::_List_val<std::_List_simple_types<std::pair<unsigned __int64 const ,Bucket> > >,std::_Iterator_base0>::operator==
PUBLIC	??D?$_List_unchecked_iterator@V?$_List_val@U?$_List_simple_types@U?$pair@$$CB_KUBucket@@@std@@@std@@@std@@@std@@QEBAAEAU?$pair@$$CB_KUBucket@@@1@XZ ; std::_List_unchecked_iterator<std::_List_val<std::_List_simple_types<std::pair<unsigned __int64 const ,Bucket> > > >::operator*
PUBLIC	??E?$_List_unchecked_iterator@V?$_List_val@U?$_List_simple_types@U?$pair@$$CB_KUBucket@@@std@@@std@@@std@@@std@@QEAAAEAV01@XZ ; std::_List_unchecked_iterator<std::_List_val<std::_List_simple_types<std::pair<unsigned __int64 const ,Bucket> > > >::operator++
PUBLIC	??0?$_List_unchecked_iterator@V?$_List_val@U?$_List_simple_types@U?$pair@$$CB_KUBucket@@@std@@@std@@@std@@@std@@QEAA@PEAU?$_List_node@U?$pair@$$CB_KUBucket@@@std@@PEAX@1@PEBV?$_List_val@U?$_List_simple_types@U?$pair@$$CB_KUBucket@@@std@@@std@@@1@@Z ; std::_List_unchecked_iterator<std::_List_val<std::_List_simple_types<std::pair<unsigned __int64 const ,Bucket> > > >::_List_unchecked_iterator<std::_List_val<std::_List_simple_types<std::pair<unsigned __int64 const ,Bucket> > > >
PUBLIC	??$min_element@V?$_List_const_iterator@V?$_List_val@U?$_List_simple_types@_K@std@@@std@@@std@@@std@@YA?AV?$_List_const_iterator@V?$_List_val@U?$_List_simple_types@_K@std@@@std@@@0@V10@0@Z ; std::min_element<std::_List_const_iterator<std::_List_val<std::_List_simple_types<unsigned __int64> > > >
PUBLIC	??$_Erase@_K@?$_Hash@V?$_Uset_traits@_KV?$_Uhash_compare@_KU?$hash@_K@std@@U?$equal_to@_K@2@@std@@V?$allocator@_K@2@$0A@@std@@@std@@AEAA_KAEB_K@Z ; std::_Hash<std::_Uset_traits<unsigned __int64,std::_Uhash_compare<unsigned __int64,std::hash<unsigned __int64>,std::equal_to<unsigned __int64> >,std::allocator<unsigned __int64>,0> >::_Erase<unsigned __int64>
PUBLIC	??$?R_K@?$_Uhash_compare@_KU?$hash@_K@std@@U?$equal_to@_K@2@@std@@QEBA_KAEB_K@Z ; std::_Uhash_compare<unsigned __int64,std::hash<unsigned __int64>,std::equal_to<unsigned __int64> >::operator()<unsigned __int64>
PUBLIC	??$?R_K_K@?$_Uhash_compare@_KU?$hash@_K@std@@U?$equal_to@_K@2@@std@@QEBA_NAEB_K0@Z ; std::_Uhash_compare<unsigned __int64,std::hash<unsigned __int64>,std::equal_to<unsigned __int64> >::operator()<unsigned __int64,unsigned __int64>
PUBLIC	??$make_pair@AEA_KAEAUBucket@@@std@@YA?AU?$pair@_KUBucket@@@0@AEA_KAEAUBucket@@@Z ; std::make_pair<unsigned __int64 &,Bucket &>
PUBLIC	??$?0_KUBucket@@$0A@@?$pair@$$CB_KUBucket@@@std@@QEAA@$$QEAU?$pair@_KUBucket@@@1@@Z ; std::pair<unsigned __int64 const ,Bucket>::pair<unsigned __int64 const ,Bucket><unsigned __int64,Bucket,0>
PUBLIC	??$insert@U?$pair@_KUBucket@@@std@@$0A@@?$unordered_map@_KUBucket@@U?$hash@_K@std@@U?$equal_to@_K@3@V?$allocator@U?$pair@$$CB_KUBucket@@@std@@@3@@std@@QEAA?AU?$pair@V?$_List_iterator@V?$_List_val@U?$_List_simple_types@U?$pair@$$CB_KUBucket@@@std@@@std@@@std@@@std@@_N@1@$$QEAU?$pair@_KUBucket@@@1@@Z ; std::unordered_map<unsigned __int64,Bucket,std::hash<unsigned __int64>,std::equal_to<unsigned __int64>,std::allocator<std::pair<unsigned __int64 const ,Bucket> > >::insert<std::pair<unsigned __int64,Bucket>,0>
PUBLIC	??0?$_List_unchecked_const_iterator@V?$_List_val@U?$_List_simple_types@U?$pair@$$CB_KUBucket@@@std@@@std@@@std@@U_Iterator_base12@2@@std@@QEAA@PEAU?$_List_node@U?$pair@$$CB_KUBucket@@@std@@PEAX@1@PEBV?$_List_val@U?$_List_simple_types@U?$pair@$$CB_KUBucket@@@std@@@std@@@1@@Z ; std::_List_unchecked_const_iterator<std::_List_val<std::_List_simple_types<std::pair<unsigned __int64 const ,Bucket> > >,std::_Iterator_base12>::_List_unchecked_const_iterator<std::_List_val<std::_List_simple_types<std::pair<unsigned __int64 const ,Bucket> > >,std::_Iterator_base12>
PUBLIC	??1?$_List_unchecked_const_iterator@V?$_List_val@U?$_List_simple_types@U?$pair@$$CB_KUBucket@@@std@@@std@@@std@@U_Iterator_base12@2@@std@@QEAA@XZ ; std::_List_unchecked_const_iterator<std::_List_val<std::_List_simple_types<std::pair<unsigned __int64 const ,Bucket> > >,std::_Iterator_base12>::~_List_unchecked_const_iterator<std::_List_val<std::_List_simple_types<std::pair<unsigned __int64 const ,Bucket> > >,std::_Iterator_base12>
PUBLIC	??0?$_List_unchecked_const_iterator@V?$_List_val@U?$_List_simple_types@U?$pair@$$CB_KUBucket@@@std@@@std@@@std@@U_Iterator_base12@2@@std@@QEAA@$$QEAV01@@Z ; std::_List_unchecked_const_iterator<std::_List_val<std::_List_simple_types<std::pair<unsigned __int64 const ,Bucket> > >,std::_Iterator_base12>::_List_unchecked_const_iterator<std::_List_val<std::_List_simple_types<std::pair<unsigned __int64 const ,Bucket> > >,std::_Iterator_base12>
PUBLIC	??1?$_List_const_iterator@V?$_List_val@U?$_List_simple_types@U?$pair@$$CB_KUBucket@@@std@@@std@@@std@@@std@@QEAA@XZ ; std::_List_const_iterator<std::_List_val<std::_List_simple_types<std::pair<unsigned __int64 const ,Bucket> > > >::~_List_const_iterator<std::_List_val<std::_List_simple_types<std::pair<unsigned __int64 const ,Bucket> > > >
PUBLIC	??0?$_List_const_iterator@V?$_List_val@U?$_List_simple_types@U?$pair@$$CB_KUBucket@@@std@@@std@@@std@@@std@@QEAA@$$QEAV01@@Z ; std::_List_const_iterator<std::_List_val<std::_List_simple_types<std::pair<unsigned __int64 const ,Bucket> > > >::_List_const_iterator<std::_List_val<std::_List_simple_types<std::pair<unsigned __int64 const ,Bucket> > > >
PUBLIC	??0?$_List_const_iterator@V?$_List_val@U?$_List_simple_types@U?$pair@$$CB_KUBucket@@@std@@@std@@@std@@@std@@QEAA@PEAU?$_List_node@U?$pair@$$CB_KUBucket@@@std@@PEAX@1@PEBV?$_List_val@U?$_List_simple_types@U?$pair@$$CB_KUBucket@@@std@@@std@@@1@@Z ; std::_List_const_iterator<std::_List_val<std::_List_simple_types<std::pair<unsigned __int64 const ,Bucket> > > >::_List_const_iterator<std::_List_val<std::_List_simple_types<std::pair<unsigned __int64 const ,Bucket> > > >
PUBLIC	??1?$_List_iterator@V?$_List_val@U?$_List_simple_types@U?$pair@$$CB_KUBucket@@@std@@@std@@@std@@@std@@QEAA@XZ ; std::_List_iterator<std::_List_val<std::_List_simple_types<std::pair<unsigned __int64 const ,Bucket> > > >::~_List_iterator<std::_List_val<std::_List_simple_types<std::pair<unsigned __int64 const ,Bucket> > > >
PUBLIC	??0?$_List_iterator@V?$_List_val@U?$_List_simple_types@U?$pair@$$CB_KUBucket@@@std@@@std@@@std@@@std@@QEAA@$$QEAV01@@Z ; std::_List_iterator<std::_List_val<std::_List_simple_types<std::pair<unsigned __int64 const ,Bucket> > > >::_List_iterator<std::_List_val<std::_List_simple_types<std::pair<unsigned __int64 const ,Bucket> > > >
PUBLIC	??0?$_List_iterator@V?$_List_val@U?$_List_simple_types@U?$pair@$$CB_KUBucket@@@std@@@std@@@std@@@std@@QEAA@PEAU?$_List_node@U?$pair@$$CB_KUBucket@@@std@@PEAX@1@PEBV?$_List_val@U?$_List_simple_types@U?$pair@$$CB_KUBucket@@@std@@@std@@@1@@Z ; std::_List_iterator<std::_List_val<std::_List_simple_types<std::pair<unsigned __int64 const ,Bucket> > > >::_List_iterator<std::_List_val<std::_List_simple_types<std::pair<unsigned __int64 const ,Bucket> > > >
PUBLIC	??1?$pair@V?$_List_iterator@V?$_List_val@U?$_List_simple_types@U?$pair@$$CB_KUBucket@@@std@@@std@@@std@@@std@@_N@std@@QEAA@XZ ; std::pair<std::_List_iterator<std::_List_val<std::_List_simple_types<std::pair<unsigned __int64 const ,Bucket> > > >,bool>::~pair<std::_List_iterator<std::_List_val<std::_List_simple_types<std::pair<unsigned __int64 const ,Bucket> > > >,bool>
PUBLIC	?deallocate@?$allocator@U_Container_proxy@std@@@std@@QEAAXQEAU_Container_proxy@2@_K@Z ; std::allocator<std::_Container_proxy>::deallocate
PUBLIC	?allocate@?$allocator@U_Container_proxy@std@@@std@@QEAAPEAU_Container_proxy@2@_K@Z ; std::allocator<std::_Container_proxy>::allocate
PUBLIC	??$?0V?$_List_unchecked_const_iterator@V?$_List_val@U?$_List_simple_types@_K@std@@@std@@U_Iterator_base0@2@@std@@@?$allocator@U_Container_proxy@std@@@std@@QEAA@AEBV?$allocator@V?$_List_unchecked_const_iterator@V?$_List_val@U?$_List_simple_types@_K@std@@@std@@U_Iterator_base0@2@@std@@@1@@Z ; std::allocator<std::_Container_proxy>::allocator<std::_Container_proxy><std::_List_unchecked_const_iterator<std::_List_val<std::_List_simple_types<unsigned __int64> >,std::_Iterator_base0> >
PUBLIC	??$exchange@PEAU_Container_proxy@std@@$$T@std@@YAPEAU_Container_proxy@0@AEAPEAU10@$$QEA$$T@Z ; std::exchange<std::_Container_proxy *,std::nullptr_t>
PUBLIC	??$_Delete_plain_internal@V?$allocator@U_Container_proxy@std@@@std@@@std@@YAXAEAV?$allocator@U_Container_proxy@std@@@0@QEAU_Container_proxy@0@@Z ; std::_Delete_plain_internal<std::allocator<std::_Container_proxy> >
PUBLIC	??$emplace@_K@?$_Hash@V?$_Uset_traits@_KV?$_Uhash_compare@_KU?$hash@_K@std@@U?$equal_to@_K@2@@std@@V?$allocator@_K@2@$0A@@std@@@std@@QEAA?AU?$pair@V?$_List_const_iterator@V?$_List_val@U?$_List_simple_types@_K@std@@@std@@@std@@_N@1@$$QEA_K@Z ; std::_Hash<std::_Uset_traits<unsigned __int64,std::_Uhash_compare<unsigned __int64,std::hash<unsigned __int64>,std::equal_to<unsigned __int64> >,std::allocator<unsigned __int64>,0> >::emplace<unsigned __int64>
PUBLIC	??$emplace@AEB_K@?$_Hash@V?$_Uset_traits@_KV?$_Uhash_compare@_KU?$hash@_K@std@@U?$equal_to@_K@2@@std@@V?$allocator@_K@2@$0A@@std@@@std@@QEAA?AU?$pair@V?$_List_const_iterator@V?$_List_val@U?$_List_simple_types@_K@std@@@std@@@std@@_N@1@AEB_K@Z ; std::_Hash<std::_Uset_traits<unsigned __int64,std::_Uhash_compare<unsigned __int64,std::hash<unsigned __int64>,std::equal_to<unsigned __int64> >,std::allocator<unsigned __int64>,0> >::emplace<unsigned __int64 const &>
PUBLIC	??1?$_List_iterator@V?$_List_val@U?$_List_simple_types@_K@std@@@std@@@std@@QEAA@XZ ; std::_List_iterator<std::_List_val<std::_List_simple_types<unsigned __int64> > >::~_List_iterator<std::_List_val<std::_List_simple_types<unsigned __int64> > >
PUBLIC	??0?$_List_iterator@V?$_List_val@U?$_List_simple_types@_K@std@@@std@@@std@@QEAA@PEAU?$_List_node@_KPEAX@1@PEBV?$_List_val@U?$_List_simple_types@_K@std@@@1@@Z ; std::_List_iterator<std::_List_val<std::_List_simple_types<unsigned __int64> > >::_List_iterator<std::_List_val<std::_List_simple_types<unsigned __int64> > >
PUBLIC	??$?0U?$_List_node@_KPEAX@std@@@?$allocator@U_Container_proxy@std@@@std@@QEAA@AEBV?$allocator@U?$_List_node@_KPEAX@std@@@1@@Z ; std::allocator<std::_Container_proxy>::allocator<std::_Container_proxy><std::_List_node<unsigned __int64,void *> >
PUBLIC	??$?0V?$_List_unchecked_iterator@V?$_List_val@U?$_List_simple_types@U?$pair@$$CB_KUBucket@@@std@@@std@@@std@@@std@@@?$allocator@U_Container_proxy@std@@@std@@QEAA@AEBV?$allocator@V?$_List_unchecked_iterator@V?$_List_val@U?$_List_simple_types@U?$pair@$$CB_KUBucket@@@std@@@std@@@std@@@std@@@1@@Z ; std::allocator<std::_Container_proxy>::allocator<std::_Container_proxy><std::_List_unchecked_iterator<std::_List_val<std::_List_simple_types<std::pair<unsigned __int64 const ,Bucket> > > > >
PUBLIC	??$?0U?$_List_node@U?$pair@$$CB_KUBucket@@@std@@PEAX@std@@@?$allocator@U_Container_proxy@std@@@std@@QEAA@AEBV?$allocator@U?$_List_node@U?$pair@$$CB_KUBucket@@@std@@PEAX@std@@@1@@Z ; std::allocator<std::_Container_proxy>::allocator<std::_Container_proxy><std::_List_node<std::pair<unsigned __int64 const ,Bucket>,void *> >
PUBLIC	??0?$_List_unchecked_const_iterator@V?$_List_val@U?$_List_simple_types@_K@std@@@std@@U_Iterator_base0@2@@std@@QEAA@PEAU?$_List_node@_KPEAX@1@PEBV?$_List_val@U?$_List_simple_types@_K@std@@@1@@Z ; std::_List_unchecked_const_iterator<std::_List_val<std::_List_simple_types<unsigned __int64> >,std::_Iterator_base0>::_List_unchecked_const_iterator<std::_List_val<std::_List_simple_types<unsigned __int64> >,std::_Iterator_base0>
PUBLIC	??D?$_List_unchecked_const_iterator@V?$_List_val@U?$_List_simple_types@_K@std@@@std@@U_Iterator_base0@2@@std@@QEBAAEB_KXZ ; std::_List_unchecked_const_iterator<std::_List_val<std::_List_simple_types<unsigned __int64> >,std::_Iterator_base0>::operator*
PUBLIC	??E?$_List_unchecked_const_iterator@V?$_List_val@U?$_List_simple_types@_K@std@@@std@@U_Iterator_base0@2@@std@@QEAAAEAV01@XZ ; std::_List_unchecked_const_iterator<std::_List_val<std::_List_simple_types<unsigned __int64> >,std::_Iterator_base0>::operator++
PUBLIC	??F?$_List_unchecked_const_iterator@V?$_List_val@U?$_List_simple_types@_K@std@@@std@@U_Iterator_base0@2@@std@@QEAAAEAV01@XZ ; std::_List_unchecked_const_iterator<std::_List_val<std::_List_simple_types<unsigned __int64> >,std::_Iterator_base0>::operator--
PUBLIC	??8?$_List_unchecked_const_iterator@V?$_List_val@U?$_List_simple_types@_K@std@@@std@@U_Iterator_base0@2@@std@@QEBA_NAEBV01@@Z ; std::_List_unchecked_const_iterator<std::_List_val<std::_List_simple_types<unsigned __int64> >,std::_Iterator_base0>::operator==
PUBLIC	??$_Destroy_range@PEAV?$_List_unchecked_const_iterator@V?$_List_val@U?$_List_simple_types@_K@std@@@std@@U_Iterator_base0@2@@std@@PEAV12@@std@@YAXPEAV?$_List_unchecked_const_iterator@V?$_List_val@U?$_List_simple_types@_K@std@@@std@@U_Iterator_base0@2@@0@QEAV10@@Z ; std::_Destroy_range<std::_List_unchecked_const_iterator<std::_List_val<std::_List_simple_types<unsigned __int64> >,std::_Iterator_base0> *,std::_List_unchecked_const_iterator<std::_List_val<std::_List_simple_types<unsigned __int64> >,std::_Iterator_base0> *>
PUBLIC	??$?0AEBV?$allocator@_K@std@@$0A@@?$_Hash_vec@V?$allocator@V?$_List_unchecked_const_iterator@V?$_List_val@U?$_List_simple_types@_K@std@@@std@@U_Iterator_base0@2@@std@@@std@@@std@@QEAA@AEBV?$allocator@_K@1@@Z ; std::_Hash_vec<std::allocator<std::_List_unchecked_const_iterator<std::_List_val<std::_List_simple_types<unsigned __int64> >,std::_Iterator_base0> > >::_Hash_vec<std::allocator<std::_List_unchecked_const_iterator<std::_List_val<std::_List_simple_types<unsigned __int64> >,std::_Iterator_base0> > ><std::allocator<unsigned __int64> const &,0>
PUBLIC	??0?$_List_unchecked_iterator@V?$_List_val@U?$_List_simple_types@_K@std@@@std@@@std@@QEAA@PEAU?$_List_node@_KPEAX@1@PEBV?$_List_val@U?$_List_simple_types@_K@std@@@1@@Z ; std::_List_unchecked_iterator<std::_List_val<std::_List_simple_types<unsigned __int64> > >::_List_unchecked_iterator<std::_List_val<std::_List_simple_types<unsigned __int64> > >
PUBLIC	??$_Free_non_head@V?$allocator@U?$_List_node@_KPEAX@std@@@std@@@?$_List_node@_KPEAX@std@@SAXAEAV?$allocator@U?$_List_node@_KPEAX@std@@@1@PEAU01@@Z ; std::_List_node<unsigned __int64,void *>::_Free_non_head<std::allocator<std::_List_node<unsigned __int64,void *> > >
PUBLIC	??$_Freenode0@V?$allocator@U?$_List_node@_KPEAX@std@@@std@@@?$_List_node@_KPEAX@std@@SAXAEAV?$allocator@U?$_List_node@_KPEAX@std@@@1@PEAU01@@Z ; std::_List_node<unsigned __int64,void *>::_Freenode0<std::allocator<std::_List_node<unsigned __int64,void *> > >
PUBLIC	??$addressof@V?$_List_val@U?$_List_simple_types@_K@std@@@std@@@std@@YAPEAV?$_List_val@U?$_List_simple_types@_K@std@@@0@AEAV10@@Z ; std::addressof<std::_List_val<std::_List_simple_types<unsigned __int64> > >
PUBLIC	??$_Destroy_range@PEAV?$_List_unchecked_iterator@V?$_List_val@U?$_List_simple_types@U?$pair@$$CB_KUBucket@@@std@@@std@@@std@@@std@@PEAV12@@std@@YAXPEAV?$_List_unchecked_iterator@V?$_List_val@U?$_List_simple_types@U?$pair@$$CB_KUBucket@@@std@@@std@@@std@@@0@QEAV10@@Z ; std::_Destroy_range<std::_List_unchecked_iterator<std::_List_val<std::_List_simple_types<std::pair<unsigned __int64 const ,Bucket> > > > *,std::_List_unchecked_iterator<std::_List_val<std::_List_simple_types<std::pair<unsigned __int64 const ,Bucket> > > > *>
PUBLIC	??$?0AEBV?$allocator@U?$pair@$$CB_KUBucket@@@std@@@std@@$0A@@?$_Hash_vec@V?$allocator@V?$_List_unchecked_iterator@V?$_List_val@U?$_List_simple_types@U?$pair@$$CB_KUBucket@@@std@@@std@@@std@@@std@@@std@@@std@@QEAA@AEBV?$allocator@U?$pair@$$CB_KUBucket@@@std@@@1@@Z ; std::_Hash_vec<std::allocator<std::_List_unchecked_iterator<std::_List_val<std::_List_simple_types<std::pair<unsigned __int64 const ,Bucket> > > > > >::_Hash_vec<std::allocator<std::_List_unchecked_iterator<std::_List_val<std::_List_simple_types<std::pair<unsigned __int64 const ,Bucket> > > > > ><std::allocator<std::pair<unsigned __int64 const ,Bucket> > const &,0>
PUBLIC	??$_Free_non_head@V?$allocator@U?$_List_node@U?$pair@$$CB_KUBucket@@@std@@PEAX@std@@@std@@@?$_List_node@U?$pair@$$CB_KUBucket@@@std@@PEAX@std@@SAXAEAV?$allocator@U?$_List_node@U?$pair@$$CB_KUBucket@@@std@@PEAX@std@@@1@PEAU01@@Z ; std::_List_node<std::pair<unsigned __int64 const ,Bucket>,void *>::_Free_non_head<std::allocator<std::_List_node<std::pair<unsigned __int64 const ,Bucket>,void *> > >
PUBLIC	??$_Freenode0@V?$allocator@U?$_List_node@U?$pair@$$CB_KUBucket@@@std@@PEAX@std@@@std@@@?$_List_node@U?$pair@$$CB_KUBucket@@@std@@PEAX@std@@SAXAEAV?$allocator@U?$_List_node@U?$pair@$$CB_KUBucket@@@std@@PEAX@std@@@1@PEAU01@@Z ; std::_List_node<std::pair<unsigned __int64 const ,Bucket>,void *>::_Freenode0<std::allocator<std::_List_node<std::pair<unsigned __int64 const ,Bucket>,void *> > >
PUBLIC	??$?0U_Zero_then_variadic_args_t@std@@M@?$_Compressed_pair@U?$hash@_K@std@@V?$_Compressed_pair@U?$equal_to@_K@std@@M$00@2@$00@std@@QEAA@U_Zero_then_variadic_args_t@1@$$QEAU21@$$QEAM@Z ; std::_Compressed_pair<std::hash<unsigned __int64>,std::_Compressed_pair<std::equal_to<unsigned __int64>,float,1>,1>::_Compressed_pair<std::hash<unsigned __int64>,std::_Compressed_pair<std::equal_to<unsigned __int64>,float,1>,1><std::_Zero_then_variadic_args_t,float>
PUBLIC	??$?0M@?$_Compressed_pair@U?$equal_to@_K@std@@M$00@std@@QEAA@U_Zero_then_variadic_args_t@1@$$QEAM@Z ; std::_Compressed_pair<std::equal_to<unsigned __int64>,float,1>::_Compressed_pair<std::equal_to<unsigned __int64>,float,1><float>
PUBLIC	??$uninitialized_fill@PEAV?$_List_unchecked_const_iterator@V?$_List_val@U?$_List_simple_types@_K@std@@@std@@U_Iterator_base0@2@@std@@V12@@std@@YAXQEAV?$_List_unchecked_const_iterator@V?$_List_val@U?$_List_simple_types@_K@std@@@std@@U_Iterator_base0@2@@0@0AEBV10@@Z ; std::uninitialized_fill<std::_List_unchecked_const_iterator<std::_List_val<std::_List_simple_types<unsigned __int64> >,std::_Iterator_base0> *,std::_List_unchecked_const_iterator<std::_List_val<std::_List_simple_types<unsigned __int64> >,std::_Iterator_base0> >
PUBLIC	??$fill@PEAV?$_List_unchecked_const_iterator@V?$_List_val@U?$_List_simple_types@_K@std@@@std@@U_Iterator_base0@2@@std@@V12@@std@@YAXQEAV?$_List_unchecked_const_iterator@V?$_List_val@U?$_List_simple_types@_K@std@@@std@@U_Iterator_base0@2@@0@0AEBV10@@Z ; std::fill<std::_List_unchecked_const_iterator<std::_List_val<std::_List_simple_types<unsigned __int64> >,std::_Iterator_base0> *,std::_List_unchecked_const_iterator<std::_List_val<std::_List_simple_types<unsigned __int64> >,std::_Iterator_base0> >
PUBLIC	??$max@_K@std@@YAAEB_KAEB_K0@Z			; std::max<unsigned __int64>
PUBLIC	??$_Deallocate@$0BA@$0A@@std@@YAXPEAX_K@Z	; std::_Deallocate<16,0>
PUBLIC	??$?0AEBV?$allocator@_K@std@@$$V@?$_Compressed_pair@V?$allocator@U?$_List_node@_KPEAX@std@@@std@@V?$_List_val@U?$_List_simple_types@_K@std@@@2@$00@std@@QEAA@U_One_then_variadic_args_t@1@AEBV?$allocator@_K@1@@Z ; std::_Compressed_pair<std::allocator<std::_List_node<unsigned __int64,void *> >,std::_List_val<std::_List_simple_types<unsigned __int64> >,1>::_Compressed_pair<std::allocator<std::_List_node<unsigned __int64,void *> >,std::_List_val<std::_List_simple_types<unsigned __int64> >,1><std::allocator<unsigned __int64> const &>
PUBLIC	??$?0_K@?$allocator@U?$_List_node@_KPEAX@std@@@std@@QEAA@AEBV?$allocator@_K@1@@Z ; std::allocator<std::_List_node<unsigned __int64,void *> >::allocator<std::_List_node<unsigned __int64,void *> ><unsigned __int64>
PUBLIC	??$uninitialized_fill@PEAV?$_List_unchecked_iterator@V?$_List_val@U?$_List_simple_types@U?$pair@$$CB_KUBucket@@@std@@@std@@@std@@@std@@V12@@std@@YAXQEAV?$_List_unchecked_iterator@V?$_List_val@U?$_List_simple_types@U?$pair@$$CB_KUBucket@@@std@@@std@@@std@@@0@0AEBV10@@Z ; std::uninitialized_fill<std::_List_unchecked_iterator<std::_List_val<std::_List_simple_types<std::pair<unsigned __int64 const ,Bucket> > > > *,std::_List_unchecked_iterator<std::_List_val<std::_List_simple_types<std::pair<unsigned __int64 const ,Bucket> > > > >
PUBLIC	??$fill@PEAV?$_List_unchecked_iterator@V?$_List_val@U?$_List_simple_types@U?$pair@$$CB_KUBucket@@@std@@@std@@@std@@@std@@V12@@std@@YAXQEAV?$_List_unchecked_iterator@V?$_List_val@U?$_List_simple_types@U?$pair@$$CB_KUBucket@@@std@@@std@@@std@@@0@0AEBV10@@Z ; std::fill<std::_List_unchecked_iterator<std::_List_val<std::_List_simple_types<std::pair<unsigned __int64 const ,Bucket> > > > *,std::_List_unchecked_iterator<std::_List_val<std::_List_simple_types<std::pair<unsigned __int64 const ,Bucket> > > > >
PUBLIC	??$?0AEBV?$allocator@U?$pair@$$CB_KUBucket@@@std@@@std@@$$V@?$_Compressed_pair@V?$allocator@U?$_List_node@U?$pair@$$CB_KUBucket@@@std@@PEAX@std@@@std@@V?$_List_val@U?$_List_simple_types@U?$pair@$$CB_KUBucket@@@std@@@std@@@2@$00@std@@QEAA@U_One_then_variadic_args_t@1@AEBV?$allocator@U?$pair@$$CB_KUBucket@@@std@@@1@@Z ; std::_Compressed_pair<std::allocator<std::_List_node<std::pair<unsigned __int64 const ,Bucket>,void *> >,std::_List_val<std::_List_simple_types<std::pair<unsigned __int64 const ,Bucket> > >,1>::_Compressed_pair<std::allocator<std::_List_node<std::pair<unsigned __int64 const ,Bucket>,void *> >,std::_List_val<std::_List_simple_types<std::pair<unsigned __int64 const ,Bucket> > >,1><std::allocator<std::pair<unsigned __int64 const ,Bucket> > const &>
PUBLIC	??$?0U?$pair@$$CB_KUBucket@@@std@@@?$allocator@U?$_List_node@U?$pair@$$CB_KUBucket@@@std@@PEAX@std@@@std@@QEAA@AEBV?$allocator@U?$pair@$$CB_KUBucket@@@std@@@1@@Z ; std::allocator<std::_List_node<std::pair<unsigned __int64 const ,Bucket>,void *> >::allocator<std::_List_node<std::pair<unsigned __int64 const ,Bucket>,void *> ><std::pair<unsigned __int64 const ,Bucket> >
PUBLIC	??$_Get_size_of_n@$07@std@@YA_K_K@Z		; std::_Get_size_of_n<8>
PUBLIC	??$_Allocate@$0BA@U_Default_allocate_traits@std@@$0A@@std@@YAPEAX_K@Z ; std::_Allocate<16,std::_Default_allocate_traits,0>
PUBLIC	??0?$_Container_proxy_ptr12@V?$allocator@U_Container_proxy@std@@@std@@@std@@QEAA@AEAV?$allocator@U_Container_proxy@std@@@1@AEAU_Container_base12@1@@Z ; std::_Container_proxy_ptr12<std::allocator<std::_Container_proxy> >::_Container_proxy_ptr12<std::allocator<std::_Container_proxy> >
PUBLIC	??1?$_Container_proxy_ptr12@V?$allocator@U_Container_proxy@std@@@std@@@std@@QEAA@XZ ; std::_Container_proxy_ptr12<std::allocator<std::_Container_proxy> >::~_Container_proxy_ptr12<std::allocator<std::_Container_proxy> >
PUBLIC	??$_Construct_in_place@PEAU?$_List_node@_KPEAX@std@@AEAPEAU12@@std@@YAXAEAPEAU?$_List_node@_KPEAX@0@0@Z ; std::_Construct_in_place<std::_List_node<unsigned __int64,void *> *,std::_List_node<unsigned __int64,void *> * &>
PUBLIC	??$_Construct_in_place@PEAU?$_List_node@U?$pair@$$CB_KUBucket@@@std@@PEAX@std@@AEAPEAU12@@std@@YAXAEAPEAU?$_List_node@U?$pair@$$CB_KUBucket@@@std@@PEAX@0@0@Z ; std::_Construct_in_place<std::_List_node<std::pair<unsigned __int64 const ,Bucket>,void *> *,std::_List_node<std::pair<unsigned __int64 const ,Bucket>,void *> * &>
PUBLIC	??$_Unfancy@U_Container_proxy@std@@@std@@YAPEAU_Container_proxy@0@PEAU10@@Z ; std::_Unfancy<std::_Container_proxy>
PUBLIC	??$_Get_size_of_n@$0BI@@std@@YA_K_K@Z		; std::_Get_size_of_n<24>
PUBLIC	??$_Get_size_of_n@$0DA@@std@@YA_K_K@Z		; std::_Get_size_of_n<48>
PUBLIC	??$_Get_size_of_n@$0BA@@std@@YA_K_K@Z		; std::_Get_size_of_n<16>
PUBLIC	??$addressof@U_Container_proxy@std@@@std@@YAPEAU_Container_proxy@0@AEAU10@@Z ; std::addressof<std::_Container_proxy>
PUBLIC	??$construct_at@U_Container_proxy@std@@PEAU_Container_base12@2@$0A@@std@@YAPEAU_Container_proxy@0@QEAU10@$$QEAPEAU_Container_base12@0@@Z ; std::construct_at<std::_Container_proxy,std::_Container_base12 *,0>
PUBLIC	??$min_element@V?$_List_const_iterator@V?$_List_val@U?$_List_simple_types@_K@std@@@std@@@std@@U?$less@X@2@@std@@YA?AV?$_List_const_iterator@V?$_List_val@U?$_List_simple_types@_K@std@@@std@@@0@V10@0U?$less@X@0@@Z ; std::min_element<std::_List_const_iterator<std::_List_val<std::_List_simple_types<unsigned __int64> > >,std::less<void> >
PUBLIC	??$_Find_last@_K@?$_Hash@V?$_Uset_traits@_KV?$_Uhash_compare@_KU?$hash@_K@std@@U?$equal_to@_K@2@@std@@V?$allocator@_K@2@$0A@@std@@@std@@IEBA?AU?$_Hash_find_last_result@PEAU?$_List_node@_KPEAX@std@@@1@AEB_K_K@Z ; std::_Hash<std::_Uset_traits<unsigned __int64,std::_Uhash_compare<unsigned __int64,std::hash<unsigned __int64>,std::equal_to<unsigned __int64> >,std::allocator<unsigned __int64>,0> >::_Find_last<unsigned __int64>
PUBLIC	??$?0AEA_KAEAUBucket@@$0A@@?$pair@_KUBucket@@@std@@QEAA@AEA_KAEAUBucket@@@Z ; std::pair<unsigned __int64,Bucket>::pair<unsigned __int64,Bucket><unsigned __int64 &,Bucket &,0>
PUBLIC	??$emplace@U?$pair@_KUBucket@@@std@@@?$_Hash@V?$_Umap_traits@_KUBucket@@V?$_Uhash_compare@_KU?$hash@_K@std@@U?$equal_to@_K@2@@std@@V?$allocator@U?$pair@$$CB_KUBucket@@@std@@@3@$0A@@std@@@std@@QEAA?AU?$pair@V?$_List_iterator@V?$_List_val@U?$_List_simple_types@U?$pair@$$CB_KUBucket@@@std@@@std@@@std@@@std@@_N@1@$$QEAU?$pair@_KUBucket@@@1@@Z ; std::_Hash<std::_Umap_traits<unsigned __int64,Bucket,std::_Uhash_compare<unsigned __int64,std::hash<unsigned __int64>,std::equal_to<unsigned __int64> >,std::allocator<std::pair<unsigned __int64 const ,Bucket> >,0> >::emplace<std::pair<unsigned __int64,Bucket> >
PUBLIC	??$_Deallocate_plain@V?$allocator@U_Container_proxy@std@@@std@@@std@@YAXAEAV?$allocator@U_Container_proxy@std@@@0@QEAU_Container_proxy@0@@Z ; std::_Deallocate_plain<std::allocator<std::_Container_proxy> >
PUBLIC	?_Extract@?$_In_place_key_extract_set@_K_K@std@@SAAEB_KAEB_K@Z ; std::_In_place_key_extract_set<unsigned __int64,unsigned __int64>::_Extract
PUBLIC	??0?$_Alloc_construct_ptr@V?$allocator@U?$_List_node@_KPEAX@std@@@std@@@std@@QEAA@AEAV?$allocator@U?$_List_node@_KPEAX@std@@@1@@Z ; std::_Alloc_construct_ptr<std::allocator<std::_List_node<unsigned __int64,void *> > >::_Alloc_construct_ptr<std::allocator<std::_List_node<unsigned __int64,void *> > >
PUBLIC	?_Release@?$_Alloc_construct_ptr@V?$allocator@U?$_List_node@_KPEAX@std@@@std@@@std@@QEAAPEAU?$_List_node@_KPEAX@2@XZ ; std::_Alloc_construct_ptr<std::allocator<std::_List_node<unsigned __int64,void *> > >::_Release
PUBLIC	?_Allocate@?$_Alloc_construct_ptr@V?$allocator@U?$_List_node@_KPEAX@std@@@std@@@std@@QEAAXXZ ; std::_Alloc_construct_ptr<std::allocator<std::_List_node<unsigned __int64,void *> > >::_Allocate
PUBLIC	??1?$_Alloc_construct_ptr@V?$allocator@U?$_List_node@_KPEAX@std@@@std@@@std@@QEAA@XZ ; std::_Alloc_construct_ptr<std::allocator<std::_List_node<unsigned __int64,void *> > >::~_Alloc_construct_ptr<std::allocator<std::_List_node<unsigned __int64,void *> > >
PUBLIC	??1?$_List_node_emplace_op2@V?$allocator@U?$_List_node@_KPEAX@std@@@std@@@std@@QEAA@XZ ; std::_List_node_emplace_op2<std::allocator<std::_List_node<unsigned __int64,void *> > >::~_List_node_emplace_op2<std::allocator<std::_List_node<unsigned __int64,void *> > >
PUBLIC	??$?0_K@?$_List_node_emplace_op2@V?$allocator@U?$_List_node@_KPEAX@std@@@std@@@std@@QEAA@AEAV?$allocator@U?$_List_node@_KPEAX@std@@@1@$$QEA_K@Z ; std::_List_node_emplace_op2<std::allocator<std::_List_node<unsigned __int64,void *> > >::_List_node_emplace_op2<std::allocator<std::_List_node<unsigned __int64,void *> > ><unsigned __int64>
PUBLIC	??$?0V?$_List_iterator@V?$_List_val@U?$_List_simple_types@_K@std@@@std@@@std@@_N$0A@@?$pair@V?$_List_const_iterator@V?$_List_val@U?$_List_simple_types@_K@std@@@std@@@std@@_N@std@@QEAA@$$QEAV?$_List_iterator@V?$_List_val@U?$_List_simple_types@_K@std@@@std@@@1@$$QEA_N@Z ; std::pair<std::_List_const_iterator<std::_List_val<std::_List_simple_types<unsigned __int64> > >,bool>::pair<std::_List_const_iterator<std::_List_val<std::_List_simple_types<unsigned __int64> > >,bool><std::_List_iterator<std::_List_val<std::_List_simple_types<unsigned __int64> > >,bool,0>
PUBLIC	??$?0AEB_K@?$_List_node_emplace_op2@V?$allocator@U?$_List_node@_KPEAX@std@@@std@@@std@@QEAA@AEAV?$allocator@U?$_List_node@_KPEAX@std@@@1@AEB_K@Z ; std::_List_node_emplace_op2<std::allocator<std::_List_node<unsigned __int64,void *> > >::_List_node_emplace_op2<std::allocator<std::_List_node<unsigned __int64,void *> > ><unsigned __int64 const &>
PUBLIC	??$?0AEBV?$allocator@_K@std@@$$V@?$_Compressed_pair@V?$allocator@V?$_List_unchecked_const_iterator@V?$_List_val@U?$_List_simple_types@_K@std@@@std@@U_Iterator_base0@2@@std@@@std@@V?$_Vector_val@U?$_Simple_types@V?$_List_unchecked_const_iterator@V?$_List_val@U?$_List_simple_types@_K@std@@@std@@U_Iterator_base0@2@@std@@@std@@@2@$00@std@@QEAA@U_One_then_variadic_args_t@1@AEBV?$allocator@_K@1@@Z ; std::_Compressed_pair<std::allocator<std::_List_unchecked_const_iterator<std::_List_val<std::_List_simple_types<unsigned __int64> >,std::_Iterator_base0> >,std::_Vector_val<std::_Simple_types<std::_List_unchecked_const_iterator<std::_List_val<std::_List_simple_types<unsigned __int64> >,std::_Iterator_base0> > >,1>::_Compressed_pair<std::allocator<std::_List_unchecked_const_iterator<std::_List_val<std::_List_simple_types<unsigned __int64> >,std::_Iterator_base0> >,std::_Vector_val<std::_Simple_types<std::_List_unchecked_const_iterator<std::_List_val<std::_List_simple_types<unsigned __int64> >,std::_Iterator_base0> > >,1><std::allocator<unsigned __int64> const &>
PUBLIC	??$?0_K@?$allocator@V?$_List_unchecked_const_iterator@V?$_List_val@U?$_List_simple_types@_K@std@@@std@@U_Iterator_base0@2@@std@@@std@@QEAA@AEBV?$allocator@_K@1@@Z ; std::allocator<std::_List_unchecked_const_iterator<std::_List_val<std::_List_simple_types<unsigned __int64> >,std::_Iterator_base0> >::allocator<std::_List_unchecked_const_iterator<std::_List_val<std::_List_simple_types<unsigned __int64> >,std::_Iterator_base0> ><unsigned __int64>
PUBLIC	??$_Alloc_proxy@V?$allocator@U_Container_proxy@std@@@std@@@_Container_base12@std@@QEAAX$$QEAV?$allocator@U_Container_proxy@std@@@1@@Z ; std::_Container_base12::_Alloc_proxy<std::allocator<std::_Container_proxy> >
PUBLIC	??$_Freenode@V?$allocator@U?$_List_node@_KPEAX@std@@@std@@@?$_List_node@_KPEAX@std@@SAXAEAV?$allocator@U?$_List_node@_KPEAX@std@@@1@PEAU01@@Z ; std::_List_node<unsigned __int64,void *>::_Freenode<std::allocator<std::_List_node<unsigned __int64,void *> > >
PUBLIC	??$_Destroy_in_place@PEAU?$_List_node@_KPEAX@std@@@std@@YAXAEAPEAU?$_List_node@_KPEAX@0@@Z ; std::_Destroy_in_place<std::_List_node<unsigned __int64,void *> *>
PUBLIC	??$?0AEBV?$allocator@U?$pair@$$CB_KUBucket@@@std@@@std@@$$V@?$_Compressed_pair@V?$allocator@V?$_List_unchecked_iterator@V?$_List_val@U?$_List_simple_types@U?$pair@$$CB_KUBucket@@@std@@@std@@@std@@@std@@@std@@V?$_Vector_val@U?$_Simple_types@V?$_List_unchecked_iterator@V?$_List_val@U?$_List_simple_types@U?$pair@$$CB_KUBucket@@@std@@@std@@@std@@@std@@@std@@@2@$00@std@@QEAA@U_One_then_variadic_args_t@1@AEBV?$allocator@U?$pair@$$CB_KUBucket@@@std@@@1@@Z ; std::_Compressed_pair<std::allocator<std::_List_unchecked_iterator<std::_List_val<std::_List_simple_types<std::pair<unsigned __int64 const ,Bucket> > > > >,std::_Vector_val<std::_Simple_types<std::_List_unchecked_iterator<std::_List_val<std::_List_simple_types<std::pair<unsigned __int64 const ,Bucket> > > > > >,1>::_Compressed_pair<std::allocator<std::_List_unchecked_iterator<std::_List_val<std::_List_simple_types<std::pair<unsigned __int64 const ,Bucket> > > > >,std::_Vector_val<std::_Simple_types<std::_List_unchecked_iterator<std::_List_val<std::_List_simple_types<std::pair<unsigned __int64 const ,Bucket> > > > > >,1><std::allocator<std::pair<unsigned __int64 const ,Bucket> > const &>
PUBLIC	??$?0U?$pair@$$CB_KUBucket@@@std@@@?$allocator@V?$_List_unchecked_iterator@V?$_List_val@U?$_List_simple_types@U?$pair@$$CB_KUBucket@@@std@@@std@@@std@@@std@@@std@@QEAA@AEBV?$allocator@U?$pair@$$CB_KUBucket@@@std@@@1@@Z ; std::allocator<std::_List_unchecked_iterator<std::_List_val<std::_List_simple_types<std::pair<unsigned __int64 const ,Bucket> > > > >::allocator<std::_List_unchecked_iterator<std::_List_val<std::_List_simple_types<std::pair<unsigned __int64 const ,Bucket> > > > ><std::pair<unsigned __int64 const ,Bucket> >
PUBLIC	??$_Freenode@V?$allocator@U?$_List_node@U?$pair@$$CB_KUBucket@@@std@@PEAX@std@@@std@@@?$_List_node@U?$pair@$$CB_KUBucket@@@std@@PEAX@std@@SAXAEAV?$allocator@U?$_List_node@U?$pair@$$CB_KUBucket@@@std@@PEAX@std@@@1@PEAU01@@Z ; std::_List_node<std::pair<unsigned __int64 const ,Bucket>,void *>::_Freenode<std::allocator<std::_List_node<std::pair<unsigned __int64 const ,Bucket>,void *> > >
PUBLIC	??$_Destroy_in_place@PEAU?$_List_node@U?$pair@$$CB_KUBucket@@@std@@PEAX@std@@@std@@YAXAEAPEAU?$_List_node@U?$pair@$$CB_KUBucket@@@std@@PEAX@0@@Z ; std::_Destroy_in_place<std::_List_node<std::pair<unsigned __int64 const ,Bucket>,void *> *>
PUBLIC	??$_Get_unwrapped@AEBQEAV?$_List_unchecked_const_iterator@V?$_List_val@U?$_List_simple_types@_K@std@@@std@@U_Iterator_base0@2@@std@@@std@@YA?A_TAEBQEAV?$_List_unchecked_const_iterator@V?$_List_val@U?$_List_simple_types@_K@std@@@std@@U_Iterator_base0@2@@0@@Z ; std::_Get_unwrapped<std::_List_unchecked_const_iterator<std::_List_val<std::_List_simple_types<unsigned __int64> >,std::_Iterator_base0> * const &>
PUBLIC	??$_Adl_verify_range@PEAV?$_List_unchecked_const_iterator@V?$_List_val@U?$_List_simple_types@_K@std@@@std@@U_Iterator_base0@2@@std@@PEAV12@@std@@YAXAEBQEAV?$_List_unchecked_const_iterator@V?$_List_val@U?$_List_simple_types@_K@std@@@std@@U_Iterator_base0@2@@0@0@Z ; std::_Adl_verify_range<std::_List_unchecked_const_iterator<std::_List_val<std::_List_simple_types<unsigned __int64> >,std::_Iterator_base0> *,std::_List_unchecked_const_iterator<std::_List_val<std::_List_simple_types<unsigned __int64> >,std::_Iterator_base0> *>
PUBLIC	??0?$_Uninitialized_backout@PEAV?$_List_unchecked_const_iterator@V?$_List_val@U?$_List_simple_types@_K@std@@@std@@U_Iterator_base0@2@@std@@@std@@QEAA@PEAV?$_List_unchecked_const_iterator@V?$_List_val@U?$_List_simple_types@_K@std@@@std@@U_Iterator_base0@2@@1@@Z ; std::_Uninitialized_backout<std::_List_unchecked_const_iterator<std::_List_val<std::_List_simple_types<unsigned __int64> >,std::_Iterator_base0> *>::_Uninitialized_backout<std::_List_unchecked_const_iterator<std::_List_val<std::_List_simple_types<unsigned __int64> >,std::_Iterator_base0> *>
PUBLIC	??1?$_Uninitialized_backout@PEAV?$_List_unchecked_const_iterator@V?$_List_val@U?$_List_simple_types@_K@std@@@std@@U_Iterator_base0@2@@std@@@std@@QEAA@XZ ; std::_Uninitialized_backout<std::_List_unchecked_const_iterator<std::_List_val<std::_List_simple_types<unsigned __int64> >,std::_Iterator_base0> *>::~_Uninitialized_backout<std::_List_unchecked_const_iterator<std::_List_val<std::_List_simple_types<unsigned __int64> >,std::_Iterator_base0> *>
PUBLIC	?_Release@?$_Uninitialized_backout@PEAV?$_List_unchecked_const_iterator@V?$_List_val@U?$_List_simple_types@_K@std@@@std@@U_Iterator_base0@2@@std@@@std@@QEAAPEAV?$_List_unchecked_const_iterator@V?$_List_val@U?$_List_simple_types@_K@std@@@std@@U_Iterator_base0@2@@2@XZ ; std::_Uninitialized_backout<std::_List_unchecked_const_iterator<std::_List_val<std::_List_simple_types<unsigned __int64> >,std::_Iterator_base0> *>::_Release
PUBLIC	??$_Emplace_back@AEBV?$_List_unchecked_const_iterator@V?$_List_val@U?$_List_simple_types@_K@std@@@std@@U_Iterator_base0@2@@std@@@?$_Uninitialized_backout@PEAV?$_List_unchecked_const_iterator@V?$_List_val@U?$_List_simple_types@_K@std@@@std@@U_Iterator_base0@2@@std@@@std@@QEAAXAEBV?$_List_unchecked_const_iterator@V?$_List_val@U?$_List_simple_types@_K@std@@@std@@U_Iterator_base0@2@@1@@Z ; std::_Uninitialized_backout<std::_List_unchecked_const_iterator<std::_List_val<std::_List_simple_types<unsigned __int64> >,std::_Iterator_base0> *>::_Emplace_back<std::_List_unchecked_const_iterator<std::_List_val<std::_List_simple_types<unsigned __int64> >,std::_Iterator_base0> const &>
PUBLIC	??$_Get_unwrapped@AEBQEAV?$_List_unchecked_iterator@V?$_List_val@U?$_List_simple_types@U?$pair@$$CB_KUBucket@@@std@@@std@@@std@@@std@@@std@@YA?A_TAEBQEAV?$_List_unchecked_iterator@V?$_List_val@U?$_List_simple_types@U?$pair@$$CB_KUBucket@@@std@@@std@@@std@@@0@@Z ; std::_Get_unwrapped<std::_List_unchecked_iterator<std::_List_val<std::_List_simple_types<std::pair<unsigned __int64 const ,Bucket> > > > * const &>
PUBLIC	??$_Adl_verify_range@PEAV?$_List_unchecked_iterator@V?$_List_val@U?$_List_simple_types@U?$pair@$$CB_KUBucket@@@std@@@std@@@std@@@std@@PEAV12@@std@@YAXAEBQEAV?$_List_unchecked_iterator@V?$_List_val@U?$_List_simple_types@U?$pair@$$CB_KUBucket@@@std@@@std@@@std@@@0@0@Z ; std::_Adl_verify_range<std::_List_unchecked_iterator<std::_List_val<std::_List_simple_types<std::pair<unsigned __int64 const ,Bucket> > > > *,std::_List_unchecked_iterator<std::_List_val<std::_List_simple_types<std::pair<unsigned __int64 const ,Bucket> > > > *>
PUBLIC	??0?$_Uninitialized_backout@PEAV?$_List_unchecked_iterator@V?$_List_val@U?$_List_simple_types@U?$pair@$$CB_KUBucket@@@std@@@std@@@std@@@std@@@std@@QEAA@PEAV?$_List_unchecked_iterator@V?$_List_val@U?$_List_simple_types@U?$pair@$$CB_KUBucket@@@std@@@std@@@std@@@1@@Z ; std::_Uninitialized_backout<std::_List_unchecked_iterator<std::_List_val<std::_List_simple_types<std::pair<unsigned __int64 const ,Bucket> > > > *>::_Uninitialized_backout<std::_List_unchecked_iterator<std::_List_val<std::_List_simple_types<std::pair<unsigned __int64 const ,Bucket> > > > *>
PUBLIC	??1?$_Uninitialized_backout@PEAV?$_List_unchecked_iterator@V?$_List_val@U?$_List_simple_types@U?$pair@$$CB_KUBucket@@@std@@@std@@@std@@@std@@@std@@QEAA@XZ ; std::_Uninitialized_backout<std::_List_unchecked_iterator<std::_List_val<std::_List_simple_types<std::pair<unsigned __int64 const ,Bucket> > > > *>::~_Uninitialized_backout<std::_List_unchecked_iterator<std::_List_val<std::_List_simple_types<std::pair<unsigned __int64 const ,Bucket> > > > *>
PUBLIC	?_Release@?$_Uninitialized_backout@PEAV?$_List_unchecked_iterator@V?$_List_val@U?$_List_simple_types@U?$pair@$$CB_KUBucket@@@std@@@std@@@std@@@std@@@std@@QEAAPEAV?$_List_unchecked_iterator@V?$_List_val@U?$_List_simple_types@U?$pair@$$CB_KUBucket@@@std@@@std@@@std@@@2@XZ ; std::_Uninitialized_backout<std::_List_unchecked_iterator<std::_List_val<std::_List_simple_types<std::pair<unsigned __int64 const ,Bucket> > > > *>::_Release
PUBLIC	??$_Emplace_back@AEBV?$_List_unchecked_iterator@V?$_List_val@U?$_List_simple_types@U?$pair@$$CB_KUBucket@@@std@@@std@@@std@@@std@@@?$_Uninitialized_backout@PEAV?$_List_unchecked_iterator@V?$_List_val@U?$_List_simple_types@U?$pair@$$CB_KUBucket@@@std@@@std@@@std@@@std@@@std@@QEAAXAEBV?$_List_unchecked_iterator@V?$_List_val@U?$_List_simple_types@U?$pair@$$CB_KUBucket@@@std@@@std@@@std@@@1@@Z ; std::_Uninitialized_backout<std::_List_unchecked_iterator<std::_List_val<std::_List_simple_types<std::pair<unsigned __int64 const ,Bucket> > > > *>::_Emplace_back<std::_List_unchecked_iterator<std::_List_val<std::_List_simple_types<std::pair<unsigned __int64 const ,Bucket> > > > const &>
PUBLIC	??$_Allocate_manually_vector_aligned@U_Default_allocate_traits@std@@@std@@YAPEAX_K@Z ; std::_Allocate_manually_vector_aligned<std::_Default_allocate_traits>
PUBLIC	??$addressof@PEAU?$_List_node@_KPEAX@std@@@std@@YAPEAPEAU?$_List_node@_KPEAX@0@AEAPEAU10@@Z ; std::addressof<std::_List_node<unsigned __int64,void *> *>
PUBLIC	??$construct_at@PEAU?$_List_node@_KPEAX@std@@AEAPEAU12@$0A@@std@@YAPEAPEAU?$_List_node@_KPEAX@0@QEAPEAU10@AEAPEAU10@@Z ; std::construct_at<std::_List_node<unsigned __int64,void *> *,std::_List_node<unsigned __int64,void *> * &,0>
PUBLIC	??$addressof@PEAU?$_List_node@U?$pair@$$CB_KUBucket@@@std@@PEAX@std@@@std@@YAPEAPEAU?$_List_node@U?$pair@$$CB_KUBucket@@@std@@PEAX@0@AEAPEAU10@@Z ; std::addressof<std::_List_node<std::pair<unsigned __int64 const ,Bucket>,void *> *>
PUBLIC	??$construct_at@PEAU?$_List_node@U?$pair@$$CB_KUBucket@@@std@@PEAX@std@@AEAPEAU12@$0A@@std@@YAPEAPEAU?$_List_node@U?$pair@$$CB_KUBucket@@@std@@PEAX@0@QEAPEAU10@AEAPEAU10@@Z ; std::construct_at<std::_List_node<std::pair<unsigned __int64 const ,Bucket>,void *> *,std::_List_node<std::pair<unsigned __int64 const ,Bucket>,void *> * &,0>
PUBLIC	??$addressof@_K@std@@YAPEA_KAEA_K@Z		; std::addressof<unsigned __int64>
PUBLIC	??$destroy@_K@?$_Default_allocator_traits@V?$allocator@U?$_List_node@_KPEAX@std@@@std@@@std@@SAXAEAV?$allocator@U?$_List_node@_KPEAX@std@@@1@QEA_K@Z ; std::_Default_allocator_traits<std::allocator<std::_List_node<unsigned __int64,void *> > >::destroy<unsigned __int64>
PUBLIC	??$exchange@PEAU?$_List_node@_KPEAX@std@@$$T@std@@YAPEAU?$_List_node@_KPEAX@0@AEAPEAU10@$$QEA$$T@Z ; std::exchange<std::_List_node<unsigned __int64,void *> *,std::nullptr_t>
PUBLIC	??$_Construct_in_place@PEAU?$_List_node@_KPEAX@std@@AEBQEAU12@@std@@YAXAEAPEAU?$_List_node@_KPEAX@0@AEBQEAU10@@Z ; std::_Construct_in_place<std::_List_node<unsigned __int64,void *> *,std::_List_node<unsigned __int64,void *> * const &>
PUBLIC	??$addressof@$$CBV?$_List_val@U?$_List_simple_types@_K@std@@@std@@@std@@YAPEBV?$_List_val@U?$_List_simple_types@_K@std@@@0@AEBV10@@Z ; std::addressof<std::_List_val<std::_List_simple_types<unsigned __int64> > const >
PUBLIC	??0_Clear_guard@?$_Hash@V?$_Uset_traits@_KV?$_Uhash_compare@_KU?$hash@_K@std@@U?$equal_to@_K@2@@std@@V?$allocator@_K@2@$0A@@std@@@std@@QEAA@QEAV12@@Z ; std::_Hash<std::_Uset_traits<unsigned __int64,std::_Uhash_compare<unsigned __int64,std::hash<unsigned __int64>,std::equal_to<unsigned __int64> >,std::allocator<unsigned __int64>,0> >::_Clear_guard::_Clear_guard
PUBLIC	??1_Clear_guard@?$_Hash@V?$_Uset_traits@_KV?$_Uhash_compare@_KU?$hash@_K@std@@U?$equal_to@_K@2@@std@@V?$allocator@_K@2@$0A@@std@@@std@@QEAA@XZ ; std::_Hash<std::_Uset_traits<unsigned __int64,std::_Uhash_compare<unsigned __int64,std::hash<unsigned __int64>,std::equal_to<unsigned __int64> >,std::allocator<unsigned __int64>,0> >::_Clear_guard::~_Clear_guard
PUBLIC	??$min@_K@std@@YAAEB_KAEB_K0@Z			; std::min<unsigned __int64>
PUBLIC	??0_Range_eraser@?$_Hash@V?$_Uset_traits@_KV?$_Uhash_compare@_KU?$hash@_K@std@@U?$equal_to@_K@2@@std@@V?$allocator@_K@2@$0A@@std@@@std@@QEAA@AEAV?$list@_KV?$allocator@_K@std@@@2@QEAU?$_List_node@_KPEAX@2@@Z ; std::_Hash<std::_Uset_traits<unsigned __int64,std::_Uhash_compare<unsigned __int64,std::hash<unsigned __int64>,std::equal_to<unsigned __int64> >,std::allocator<unsigned __int64>,0> >::_Range_eraser::_Range_eraser
PUBLIC	?_Bump_erased@_Range_eraser@?$_Hash@V?$_Uset_traits@_KV?$_Uhash_compare@_KU?$hash@_K@std@@U?$equal_to@_K@2@@std@@V?$allocator@_K@2@$0A@@std@@@std@@QEAAXXZ ; std::_Hash<std::_Uset_traits<unsigned __int64,std::_Uhash_compare<unsigned __int64,std::hash<unsigned __int64>,std::equal_to<unsigned __int64> >,std::allocator<unsigned __int64>,0> >::_Range_eraser::_Bump_erased
PUBLIC	??1_Range_eraser@?$_Hash@V?$_Uset_traits@_KV?$_Uhash_compare@_KU?$hash@_K@std@@U?$equal_to@_K@2@@std@@V?$allocator@_K@2@$0A@@std@@@std@@QEAA@XZ ; std::_Hash<std::_Uset_traits<unsigned __int64,std::_Uhash_compare<unsigned __int64,std::hash<unsigned __int64>,std::equal_to<unsigned __int64> >,std::allocator<unsigned __int64>,0> >::_Range_eraser::~_Range_eraser
PUBLIC	??$_Adl_verify_range@V?$_List_const_iterator@V?$_List_val@U?$_List_simple_types@_K@std@@@std@@@std@@V12@@std@@YAXAEBV?$_List_const_iterator@V?$_List_val@U?$_List_simple_types@_K@std@@@std@@@0@0@Z ; std::_Adl_verify_range<std::_List_const_iterator<std::_List_val<std::_List_simple_types<unsigned __int64> > >,std::_List_const_iterator<std::_List_val<std::_List_simple_types<unsigned __int64> > > >
PUBLIC	??$_Get_unwrapped@AEAV?$_List_const_iterator@V?$_List_val@U?$_List_simple_types@_K@std@@@std@@@std@@@std@@YA?A_TAEAV?$_List_const_iterator@V?$_List_val@U?$_List_simple_types@_K@std@@@std@@@0@@Z ; std::_Get_unwrapped<std::_List_const_iterator<std::_List_val<std::_List_simple_types<unsigned __int64> > > &>
PUBLIC	??$_Pass_fn@U?$less@X@std@@@std@@YA?A_PAEAU?$less@X@0@@Z ; std::_Pass_fn<std::less<void> >
PUBLIC	??$_Min_element_unchecked@V?$_List_unchecked_const_iterator@V?$_List_val@U?$_List_simple_types@_K@std@@@std@@U_Iterator_base0@2@@std@@U?$less@X@2@@std@@YA?AV?$_List_unchecked_const_iterator@V?$_List_val@U?$_List_simple_types@_K@std@@@std@@U_Iterator_base0@2@@0@V10@0U?$less@X@0@@Z ; std::_Min_element_unchecked<std::_List_unchecked_const_iterator<std::_List_val<std::_List_simple_types<unsigned __int64> >,std::_Iterator_base0>,std::less<void> >
PUBLIC	??$_Seek_wrapped@V?$_List_const_iterator@V?$_List_val@U?$_List_simple_types@_K@std@@@std@@@std@@V?$_List_unchecked_const_iterator@V?$_List_val@U?$_List_simple_types@_K@std@@@std@@U_Iterator_base0@2@@2@@std@@YAXAEAV?$_List_const_iterator@V?$_List_val@U?$_List_simple_types@_K@std@@@std@@@0@$$QEAV?$_List_unchecked_const_iterator@V?$_List_val@U?$_List_simple_types@_K@std@@@std@@U_Iterator_base0@2@@0@@Z ; std::_Seek_wrapped<std::_List_const_iterator<std::_List_val<std::_List_simple_types<unsigned __int64> > >,std::_List_unchecked_const_iterator<std::_List_val<std::_List_simple_types<unsigned __int64> >,std::_Iterator_base0> >
PUBLIC	?_Extract@?$_In_place_key_extract_map@_KU?$pair@_KUBucket@@@std@@@std@@SAAEB_KAEBU?$pair@_KUBucket@@@2@@Z ; std::_In_place_key_extract_map<unsigned __int64,std::pair<unsigned __int64,Bucket> >::_Extract
PUBLIC	??$_Find_last@_K@?$_Hash@V?$_Umap_traits@_KUBucket@@V?$_Uhash_compare@_KU?$hash@_K@std@@U?$equal_to@_K@2@@std@@V?$allocator@U?$pair@$$CB_KUBucket@@@std@@@3@$0A@@std@@@std@@IEBA?AU?$_Hash_find_last_result@PEAU?$_List_node@U?$pair@$$CB_KUBucket@@@std@@PEAX@std@@@1@AEB_K_K@Z ; std::_Hash<std::_Umap_traits<unsigned __int64,Bucket,std::_Uhash_compare<unsigned __int64,std::hash<unsigned __int64>,std::equal_to<unsigned __int64> >,std::allocator<std::pair<unsigned __int64 const ,Bucket> >,0> >::_Find_last<unsigned __int64>
PUBLIC	??0?$_Alloc_construct_ptr@V?$allocator@U?$_List_node@U?$pair@$$CB_KUBucket@@@std@@PEAX@std@@@std@@@std@@QEAA@AEAV?$allocator@U?$_List_node@U?$pair@$$CB_KUBucket@@@std@@PEAX@std@@@1@@Z ; std::_Alloc_construct_ptr<std::allocator<std::_List_node<std::pair<unsigned __int64 const ,Bucket>,void *> > >::_Alloc_construct_ptr<std::allocator<std::_List_node<std::pair<unsigned __int64 const ,Bucket>,void *> > >
PUBLIC	?_Release@?$_Alloc_construct_ptr@V?$allocator@U?$_List_node@U?$pair@$$CB_KUBucket@@@std@@PEAX@std@@@std@@@std@@QEAAPEAU?$_List_node@U?$pair@$$CB_KUBucket@@@std@@PEAX@2@XZ ; std::_Alloc_construct_ptr<std::allocator<std::_List_node<std::pair<unsigned __int64 const ,Bucket>,void *> > >::_Release
PUBLIC	?_Allocate@?$_Alloc_construct_ptr@V?$allocator@U?$_List_node@U?$pair@$$CB_KUBucket@@@std@@PEAX@std@@@std@@@std@@QEAAXXZ ; std::_Alloc_construct_ptr<std::allocator<std::_List_node<std::pair<unsigned __int64 const ,Bucket>,void *> > >::_Allocate
PUBLIC	??1?$_Alloc_construct_ptr@V?$allocator@U?$_List_node@U?$pair@$$CB_KUBucket@@@std@@PEAX@std@@@std@@@std@@QEAA@XZ ; std::_Alloc_construct_ptr<std::allocator<std::_List_node<std::pair<unsigned __int64 const ,Bucket>,void *> > >::~_Alloc_construct_ptr<std::allocator<std::_List_node<std::pair<unsigned __int64 const ,Bucket>,void *> > >
PUBLIC	??1?$_List_node_emplace_op2@V?$allocator@U?$_List_node@U?$pair@$$CB_KUBucket@@@std@@PEAX@std@@@std@@@std@@QEAA@XZ ; std::_List_node_emplace_op2<std::allocator<std::_List_node<std::pair<unsigned __int64 const ,Bucket>,void *> > >::~_List_node_emplace_op2<std::allocator<std::_List_node<std::pair<unsigned __int64 const ,Bucket>,void *> > >
PUBLIC	??$?0U?$pair@_KUBucket@@@std@@@?$_List_node_emplace_op2@V?$allocator@U?$_List_node@U?$pair@$$CB_KUBucket@@@std@@PEAX@std@@@std@@@std@@QEAA@AEAV?$allocator@U?$_List_node@U?$pair@$$CB_KUBucket@@@std@@PEAX@std@@@1@$$QEAU?$pair@_KUBucket@@@1@@Z ; std::_List_node_emplace_op2<std::allocator<std::_List_node<std::pair<unsigned __int64 const ,Bucket>,void *> > >::_List_node_emplace_op2<std::allocator<std::_List_node<std::pair<unsigned __int64 const ,Bucket>,void *> > ><std::pair<unsigned __int64,Bucket> >
PUBLIC	??$_Kfn@$$CB_KUBucket@@@?$_Umap_traits@_KUBucket@@V?$_Uhash_compare@_KU?$hash@_K@std@@U?$equal_to@_K@2@@std@@V?$allocator@U?$pair@$$CB_KUBucket@@@std@@@3@$0A@@std@@SAAEB_KAEBU?$pair@$$CB_KUBucket@@@1@@Z ; std::_Umap_traits<unsigned __int64,Bucket,std::_Uhash_compare<unsigned __int64,std::hash<unsigned __int64>,std::equal_to<unsigned __int64> >,std::allocator<std::pair<unsigned __int64 const ,Bucket> >,0>::_Kfn<unsigned __int64 const ,Bucket>
PUBLIC	??$?0V?$_List_iterator@V?$_List_val@U?$_List_simple_types@U?$pair@$$CB_KUBucket@@@std@@@std@@@std@@@std@@_N$0A@@?$pair@V?$_List_iterator@V?$_List_val@U?$_List_simple_types@U?$pair@$$CB_KUBucket@@@std@@@std@@@std@@@std@@_N@std@@QEAA@$$QEAV?$_List_iterator@V?$_List_val@U?$_List_simple_types@U?$pair@$$CB_KUBucket@@@std@@@std@@@std@@@1@$$QEA_N@Z ; std::pair<std::_List_iterator<std::_List_val<std::_List_simple_types<std::pair<unsigned __int64 const ,Bucket> > > >,bool>::pair<std::_List_iterator<std::_List_val<std::_List_simple_types<std::pair<unsigned __int64 const ,Bucket> > > >,bool><std::_List_iterator<std::_List_val<std::_List_simple_types<std::pair<unsigned __int64 const ,Bucket> > > >,bool,0>
PUBLIC	?deallocate@?$_Default_allocator_traits@V?$allocator@U_Container_proxy@std@@@std@@@std@@SAXAEAV?$allocator@U_Container_proxy@std@@@2@QEAU_Container_proxy@2@_K@Z ; std::_Default_allocator_traits<std::allocator<std::_Container_proxy> >::deallocate
PUBLIC	??$construct@_K_K@?$_Default_allocator_traits@V?$allocator@U?$_List_node@_KPEAX@std@@@std@@@std@@SAXAEAV?$allocator@U?$_List_node@_KPEAX@std@@@1@QEA_K$$QEA_K@Z ; std::_Default_allocator_traits<std::allocator<std::_List_node<unsigned __int64,void *> > >::construct<unsigned __int64,unsigned __int64>
PUBLIC	??$construct@_KAEB_K@?$_Default_allocator_traits@V?$allocator@U?$_List_node@_KPEAX@std@@@std@@@std@@SAXAEAV?$allocator@U?$_List_node@_KPEAX@std@@@1@QEA_KAEB_K@Z ; std::_Default_allocator_traits<std::allocator<std::_List_node<unsigned __int64,void *> > >::construct<unsigned __int64,unsigned __int64 const &>
PUBLIC	??$addressof@U?$pair@$$CB_KUBucket@@@std@@@std@@YAPEAU?$pair@$$CB_KUBucket@@@0@AEAU10@@Z ; std::addressof<std::pair<unsigned __int64 const ,Bucket> >
PUBLIC	??$destroy@U?$pair@$$CB_KUBucket@@@std@@@?$_Default_allocator_traits@V?$allocator@U?$_List_node@U?$pair@$$CB_KUBucket@@@std@@PEAX@std@@@std@@@std@@SAXAEAV?$allocator@U?$_List_node@U?$pair@$$CB_KUBucket@@@std@@PEAX@std@@@1@QEAU?$pair@$$CB_KUBucket@@@1@@Z ; std::_Default_allocator_traits<std::allocator<std::_List_node<std::pair<unsigned __int64 const ,Bucket>,void *> > >::destroy<std::pair<unsigned __int64 const ,Bucket> >
PUBLIC	??$_Verify_range@V?$_List_unchecked_const_iterator@V?$_List_val@U?$_List_simple_types@_K@std@@@std@@U_Iterator_base0@2@@std@@@std@@YAXQEBV?$_List_unchecked_const_iterator@V?$_List_val@U?$_List_simple_types@_K@std@@@std@@U_Iterator_base0@2@@0@0@Z ; std::_Verify_range<std::_List_unchecked_const_iterator<std::_List_val<std::_List_simple_types<unsigned __int64> >,std::_Iterator_base0> >
PUBLIC	??$_Construct_in_place@V?$_List_unchecked_const_iterator@V?$_List_val@U?$_List_simple_types@_K@std@@@std@@U_Iterator_base0@2@@std@@AEBV12@@std@@YAXAEAV?$_List_unchecked_const_iterator@V?$_List_val@U?$_List_simple_types@_K@std@@@std@@U_Iterator_base0@2@@0@AEBV10@@Z ; std::_Construct_in_place<std::_List_unchecked_const_iterator<std::_List_val<std::_List_simple_types<unsigned __int64> >,std::_Iterator_base0>,std::_List_unchecked_const_iterator<std::_List_val<std::_List_simple_types<unsigned __int64> >,std::_Iterator_base0> const &>
PUBLIC	??$_Verify_range@V?$_List_unchecked_iterator@V?$_List_val@U?$_List_simple_types@U?$pair@$$CB_KUBucket@@@std@@@std@@@std@@@std@@@std@@YAXQEBV?$_List_unchecked_iterator@V?$_List_val@U?$_List_simple_types@U?$pair@$$CB_KUBucket@@@std@@@std@@@std@@@0@0@Z ; std::_Verify_range<std::_List_unchecked_iterator<std::_List_val<std::_List_simple_types<std::pair<unsigned __int64 const ,Bucket> > > > >
PUBLIC	??$_Construct_in_place@V?$_List_unchecked_iterator@V?$_List_val@U?$_List_simple_types@U?$pair@$$CB_KUBucket@@@std@@@std@@@std@@@std@@AEBV12@@std@@YAXAEAV?$_List_unchecked_iterator@V?$_List_val@U?$_List_simple_types@U?$pair@$$CB_KUBucket@@@std@@@std@@@std@@@0@AEBV10@@Z ; std::_Construct_in_place<std::_List_unchecked_iterator<std::_List_val<std::_List_simple_types<std::pair<unsigned __int64 const ,Bucket> > > >,std::_List_unchecked_iterator<std::_List_val<std::_List_simple_types<std::pair<unsigned __int64 const ,Bucket> > > > const &>
PUBLIC	??$destroy_at@_K@std@@YAXQEA_K@Z		; std::destroy_at<unsigned __int64>
PUBLIC	??$construct_at@PEAU?$_List_node@_KPEAX@std@@AEBQEAU12@$0A@@std@@YAPEAPEAU?$_List_node@_KPEAX@0@QEAPEAU10@AEBQEAU10@@Z ; std::construct_at<std::_List_node<unsigned __int64,void *> *,std::_List_node<unsigned __int64,void *> * const &,0>
PUBLIC	??$exchange@PEAU?$_List_node@U?$pair@$$CB_KUBucket@@@std@@PEAX@std@@$$T@std@@YAPEAU?$_List_node@U?$pair@$$CB_KUBucket@@@std@@PEAX@0@AEAPEAU10@$$QEA$$T@Z ; std::exchange<std::_List_node<std::pair<unsigned __int64 const ,Bucket>,void *> *,std::nullptr_t>
PUBLIC	??$_Construct_in_place@PEAU?$_List_node@U?$pair@$$CB_KUBucket@@@std@@PEAX@std@@AEBQEAU12@@std@@YAXAEAPEAU?$_List_node@U?$pair@$$CB_KUBucket@@@std@@PEAX@0@AEBQEAU10@@Z ; std::_Construct_in_place<std::_List_node<std::pair<unsigned __int64 const ,Bucket>,void *> *,std::_List_node<std::pair<unsigned __int64 const ,Bucket>,void *> * const &>
PUBLIC	??$addressof@$$CBV?$_List_val@U?$_List_simple_types@U?$pair@$$CB_KUBucket@@@std@@@std@@@std@@@std@@YAPEBV?$_List_val@U?$_List_simple_types@U?$pair@$$CB_KUBucket@@@std@@@std@@@0@AEBV10@@Z ; std::addressof<std::_List_val<std::_List_simple_types<std::pair<unsigned __int64 const ,Bucket> > > const >
PUBLIC	??0_Clear_guard@?$_Hash@V?$_Umap_traits@_KUBucket@@V?$_Uhash_compare@_KU?$hash@_K@std@@U?$equal_to@_K@2@@std@@V?$allocator@U?$pair@$$CB_KUBucket@@@std@@@3@$0A@@std@@@std@@QEAA@QEAV12@@Z ; std::_Hash<std::_Umap_traits<unsigned __int64,Bucket,std::_Uhash_compare<unsigned __int64,std::hash<unsigned __int64>,std::equal_to<unsigned __int64> >,std::allocator<std::pair<unsigned __int64 const ,Bucket> >,0> >::_Clear_guard::_Clear_guard
PUBLIC	??1_Clear_guard@?$_Hash@V?$_Umap_traits@_KUBucket@@V?$_Uhash_compare@_KU?$hash@_K@std@@U?$equal_to@_K@2@@std@@V?$allocator@U?$pair@$$CB_KUBucket@@@std@@@3@$0A@@std@@@std@@QEAA@XZ ; std::_Hash<std::_Umap_traits<unsigned __int64,Bucket,std::_Uhash_compare<unsigned __int64,std::hash<unsigned __int64>,std::equal_to<unsigned __int64> >,std::allocator<std::pair<unsigned __int64 const ,Bucket> >,0> >::_Clear_guard::~_Clear_guard
PUBLIC	??$_Hash_representation@_K@std@@YA_KAEB_K@Z	; std::_Hash_representation<unsigned __int64>
PUBLIC	??0_Range_eraser@?$_Hash@V?$_Umap_traits@_KUBucket@@V?$_Uhash_compare@_KU?$hash@_K@std@@U?$equal_to@_K@2@@std@@V?$allocator@U?$pair@$$CB_KUBucket@@@std@@@3@$0A@@std@@@std@@QEAA@AEAV?$list@U?$pair@$$CB_KUBucket@@@std@@V?$allocator@U?$pair@$$CB_KUBucket@@@std@@@2@@2@QEAU?$_List_node@U?$pair@$$CB_KUBucket@@@std@@PEAX@2@@Z ; std::_Hash<std::_Umap_traits<unsigned __int64,Bucket,std::_Uhash_compare<unsigned __int64,std::hash<unsigned __int64>,std::equal_to<unsigned __int64> >,std::allocator<std::pair<unsigned __int64 const ,Bucket> >,0> >::_Range_eraser::_Range_eraser
PUBLIC	?_Bump_erased@_Range_eraser@?$_Hash@V?$_Umap_traits@_KUBucket@@V?$_Uhash_compare@_KU?$hash@_K@std@@U?$equal_to@_K@2@@std@@V?$allocator@U?$pair@$$CB_KUBucket@@@std@@@3@$0A@@std@@@std@@QEAAXXZ ; std::_Hash<std::_Umap_traits<unsigned __int64,Bucket,std::_Uhash_compare<unsigned __int64,std::hash<unsigned __int64>,std::equal_to<unsigned __int64> >,std::allocator<std::pair<unsigned __int64 const ,Bucket> >,0> >::_Range_eraser::_Bump_erased
PUBLIC	??1_Range_eraser@?$_Hash@V?$_Umap_traits@_KUBucket@@V?$_Uhash_compare@_KU?$hash@_K@std@@U?$equal_to@_K@2@@std@@V?$allocator@U?$pair@$$CB_KUBucket@@@std@@@3@$0A@@std@@@std@@QEAA@XZ ; std::_Hash<std::_Umap_traits<unsigned __int64,Bucket,std::_Uhash_compare<unsigned __int64,std::hash<unsigned __int64>,std::equal_to<unsigned __int64> >,std::allocator<std::pair<unsigned __int64 const ,Bucket> >,0> >::_Range_eraser::~_Range_eraser
PUBLIC	??$_Debug_lt_pred@AEAU?$less@X@std@@AEB_KAEB_K$0A@@std@@YA_NAEAU?$less@X@0@AEB_K1@Z ; std::_Debug_lt_pred<std::less<void> &,unsigned __int64 const &,unsigned __int64 const &,0>
PUBLIC	??$?RAEB_KAEB_K@?$less@X@std@@QEBA_NAEB_K0@Z	; std::less<void>::operator()<unsigned __int64 const &,unsigned __int64 const &>
PUBLIC	??$construct@U?$pair@$$CB_KUBucket@@@std@@U?$pair@_KUBucket@@@2@@?$_Default_allocator_traits@V?$allocator@U?$_List_node@U?$pair@$$CB_KUBucket@@@std@@PEAX@std@@@std@@@std@@SAXAEAV?$allocator@U?$_List_node@U?$pair@$$CB_KUBucket@@@std@@PEAX@std@@@1@QEAU?$pair@$$CB_KUBucket@@@1@$$QEAU?$pair@_KUBucket@@@1@@Z ; std::_Default_allocator_traits<std::allocator<std::_List_node<std::pair<unsigned __int64 const ,Bucket>,void *> > >::construct<std::pair<unsigned __int64 const ,Bucket>,std::pair<unsigned __int64,Bucket> >
PUBLIC	??$construct_at@_K_K$0A@@std@@YAPEA_KQEA_K$$QEA_K@Z ; std::construct_at<unsigned __int64,unsigned __int64,0>
PUBLIC	??$construct_at@_KAEB_K$0A@@std@@YAPEA_KQEA_KAEB_K@Z ; std::construct_at<unsigned __int64,unsigned __int64 const &,0>
PUBLIC	??$destroy_at@U?$pair@$$CB_KUBucket@@@std@@@std@@YAXQEAU?$pair@$$CB_KUBucket@@@0@@Z ; std::destroy_at<std::pair<unsigned __int64 const ,Bucket> >
PUBLIC	??$addressof@V?$_List_unchecked_const_iterator@V?$_List_val@U?$_List_simple_types@_K@std@@@std@@U_Iterator_base0@2@@std@@@std@@YAPEAV?$_List_unchecked_const_iterator@V?$_List_val@U?$_List_simple_types@_K@std@@@std@@U_Iterator_base0@2@@0@AEAV10@@Z ; std::addressof<std::_List_unchecked_const_iterator<std::_List_val<std::_List_simple_types<unsigned __int64> >,std::_Iterator_base0> >
PUBLIC	??$construct_at@V?$_List_unchecked_const_iterator@V?$_List_val@U?$_List_simple_types@_K@std@@@std@@U_Iterator_base0@2@@std@@AEBV12@$0A@@std@@YAPEAV?$_List_unchecked_const_iterator@V?$_List_val@U?$_List_simple_types@_K@std@@@std@@U_Iterator_base0@2@@0@QEAV10@AEBV10@@Z ; std::construct_at<std::_List_unchecked_const_iterator<std::_List_val<std::_List_simple_types<unsigned __int64> >,std::_Iterator_base0>,std::_List_unchecked_const_iterator<std::_List_val<std::_List_simple_types<unsigned __int64> >,std::_Iterator_base0> const &,0>
PUBLIC	??$addressof@V?$_List_unchecked_iterator@V?$_List_val@U?$_List_simple_types@U?$pair@$$CB_KUBucket@@@std@@@std@@@std@@@std@@@std@@YAPEAV?$_List_unchecked_iterator@V?$_List_val@U?$_List_simple_types@U?$pair@$$CB_KUBucket@@@std@@@std@@@std@@@0@AEAV10@@Z ; std::addressof<std::_List_unchecked_iterator<std::_List_val<std::_List_simple_types<std::pair<unsigned __int64 const ,Bucket> > > > >
PUBLIC	??$construct_at@V?$_List_unchecked_iterator@V?$_List_val@U?$_List_simple_types@U?$pair@$$CB_KUBucket@@@std@@@std@@@std@@@std@@AEBV12@$0A@@std@@YAPEAV?$_List_unchecked_iterator@V?$_List_val@U?$_List_simple_types@U?$pair@$$CB_KUBucket@@@std@@@std@@@std@@@0@QEAV10@AEBV10@@Z ; std::construct_at<std::_List_unchecked_iterator<std::_List_val<std::_List_simple_types<std::pair<unsigned __int64 const ,Bucket> > > >,std::_List_unchecked_iterator<std::_List_val<std::_List_simple_types<std::pair<unsigned __int64 const ,Bucket> > > > const &,0>
PUBLIC	??$construct_at@PEAU?$_List_node@U?$pair@$$CB_KUBucket@@@std@@PEAX@std@@AEBQEAU12@$0A@@std@@YAPEAPEAU?$_List_node@U?$pair@$$CB_KUBucket@@@std@@PEAX@0@QEAPEAU10@AEBQEAU10@@Z ; std::construct_at<std::_List_node<std::pair<unsigned __int64 const ,Bucket>,void *> *,std::_List_node<std::pair<unsigned __int64 const ,Bucket>,void *> * const &,0>
PUBLIC	??$_Fnv1a_append_value@_K@std@@YA_K_KAEB_K@Z	; std::_Fnv1a_append_value<unsigned __int64>
PUBLIC	??$construct_at@U?$pair@$$CB_KUBucket@@@std@@U?$pair@_KUBucket@@@2@$0A@@std@@YAPEAU?$pair@$$CB_KUBucket@@@0@QEAU10@$$QEAU?$pair@_KUBucket@@@0@@Z ; std::construct_at<std::pair<unsigned __int64 const ,Bucket>,std::pair<unsigned __int64,Bucket>,0>
PUBLIC	__JustMyCode_Default
PUBLIC	??_7exception@std@@6B@				; std::exception::`vftable'
PUBLIC	??_C@_0BC@EOODALEL@Unknown?5exception@		; `string'
PUBLIC	??_7bad_alloc@std@@6B@				; std::bad_alloc::`vftable'
PUBLIC	??_7bad_array_new_length@std@@6B@		; std::bad_array_new_length::`vftable'
PUBLIC	??_C@_0BF@KINCDENJ@bad?5array?5new?5length@	; `string'
PUBLIC	_TI3?AVbad_array_new_length@std@@
PUBLIC	_CTA3?AVbad_array_new_length@std@@
PUBLIC	??_R0?AVbad_array_new_length@std@@@8		; std::bad_array_new_length `RTTI Type Descriptor'
PUBLIC	_CT??_R0?AVbad_array_new_length@std@@@8??0bad_array_new_length@std@@QEAA@AEBV01@@Z24
PUBLIC	??_R0?AVbad_alloc@std@@@8			; std::bad_alloc `RTTI Type Descriptor'
PUBLIC	_CT??_R0?AVbad_alloc@std@@@8??0bad_alloc@std@@QEAA@AEBV01@@Z24
PUBLIC	??_R0?AVexception@std@@@8			; std::exception `RTTI Type Descriptor'
PUBLIC	_CT??_R0?AVexception@std@@@8??0exception@std@@QEAA@AEBV01@@Z24
PUBLIC	?__LINE__Var@?0??_Adjust_manually_vector_aligned@std@@YAXAEAPEAXAEA_K@Z@4JA ; `std::_Adjust_manually_vector_aligned'::`1'::__LINE__Var
PUBLIC	??_C@_0BB@FCMFBGOM@invalid?5argument@		; `string'
PUBLIC	??_C@_02DKCKIIND@?$CFs@				; `string'
PUBLIC	??_C@_0GA@FLDGEGM@C?3?2Program?5Files?2Microsoft?5Visu@ ; `string'
PUBLIC	??_C@_1MA@IKJDCOIC@?$AAC?$AA?3?$AA?2?$AAP?$AAr?$AAo?$AAg?$AAr?$AAa?$AAm?$AA?5?$AAF?$AAi?$AAl?$AAe@ ; `string'
PUBLIC	??_C@_11LOCGONAA@@				; `string'
PUBLIC	??_C@_1CG@JNLFBNGN@?$AA?$CC?$AAi?$AAn?$AAv?$AAa?$AAl?$AAi?$AAd?$AA?5?$AAa?$AAr?$AAg?$AAu?$AAm?$AAe@ ; `string'
PUBLIC	??_C@_0BJ@LFDBABJJ@ITERATOR?5LIST?5CORRUPTED?$CB@ ; `string'
PUBLIC	??_C@_1DG@PLBPCAEM@?$AA?$CC?$AAI?$AAT?$AAE?$AAR?$AAA?$AAT?$AAO?$AAR?$AA?5?$AAL?$AAI?$AAS?$AAT?$AA?5@ ; `string'
PUBLIC	?_Min_buckets@?$_Hash@V?$_Umap_traits@_KUBucket@@V?$_Uhash_compare@_KU?$hash@_K@std@@U?$equal_to@_K@2@@std@@V?$allocator@U?$pair@$$CB_KUBucket@@@std@@@3@$0A@@std@@@std@@2_KB ; std::_Hash<std::_Umap_traits<unsigned __int64,Bucket,std::_Uhash_compare<unsigned __int64,std::hash<unsigned __int64>,std::equal_to<unsigned __int64> >,std::allocator<std::pair<unsigned __int64 const ,Bucket> >,0> >::_Min_buckets
PUBLIC	?_Min_buckets@?$_Hash@V?$_Uset_traits@_KV?$_Uhash_compare@_KU?$hash@_K@std@@U?$equal_to@_K@2@@std@@V?$allocator@_K@2@$0A@@std@@@std@@2_KB ; std::_Hash<std::_Uset_traits<unsigned __int64,std::_Uhash_compare<unsigned __int64,std::hash<unsigned __int64>,std::equal_to<unsigned __int64> >,std::allocator<unsigned __int64>,0> >::_Min_buckets
PUBLIC	??_C@_0DD@MBIHGLJE@cannot?5dereference?5value?9initia@ ; `string'
PUBLIC	??_C@_0FN@EEGLACMD@C?3?2Program?5Files?2Microsoft?5Visu@ ; `string'
PUBLIC	??_C@_1LK@GCOFKPID@?$AAC?$AA?3?$AA?2?$AAP?$AAr?$AAo?$AAg?$AAr?$AAa?$AAm?$AA?5?$AAF?$AAi?$AAl?$AAe@ ; `string'
PUBLIC	??_C@_1GK@NKIMOCIG@?$AA?$CC?$AAc?$AAa?$AAn?$AAn?$AAo?$AAt?$AA?5?$AAd?$AAe?$AAr?$AAe?$AAf?$AAe?$AAr@ ; `string'
PUBLIC	??_C@_0CF@JCBFHMPL@cannot?5dereference?5end?5list?5ite@ ; `string'
PUBLIC	??_C@_1EO@CNEFBDCF@?$AA?$CC?$AAc?$AAa?$AAn?$AAn?$AAo?$AAt?$AA?5?$AAd?$AAe?$AAr?$AAe?$AAf?$AAe?$AAr@ ; `string'
PUBLIC	??_C@_0DG@KGHKKGBC@null?5pointer?5cannot?5point?5to?5a?5@ ; `string'
PUBLIC	??_C@_1HA@FACCKGGH@?$AA?$CC?$AAn?$AAu?$AAl?$AAl?$AA?5?$AAp?$AAo?$AAi?$AAn?$AAt?$AAe?$AAr?$AA?5?$AAc@ ; `string'
PUBLIC	??_C@_0BL@GOIGLPKN@unordered_map?1set?5too?5long@ ; `string'
PUBLIC	??_C@_0BK@OGNNAFAB@invalid?5hash?5bucket?5count@ ; `string'
PUBLIC	??_C@_0BJ@HAJGEHKO@transposed?5pointer?5range@	; `string'
PUBLIC	??_C@_0GB@IHPKJKEH@C?3?2Program?5Files?2Microsoft?5Visu@ ; `string'
PUBLIC	??_C@_1MC@NIKDFAJH@?$AAC?$AA?3?$AA?2?$AAP?$AAr?$AAo?$AAg?$AAr?$AAa?$AAm?$AA?5?$AAF?$AAi?$AAl?$AAe@ ; `string'
PUBLIC	??_C@_1DG@FJIKMGFD@?$AA?$CC?$AAt?$AAr?$AAa?$AAn?$AAs?$AAp?$AAo?$AAs?$AAe?$AAd?$AA?5?$AAp?$AAo?$AAi@ ; `string'
PUBLIC	??_C@_0DG@GAGDEJEE@list?5iterators?5in?5range?5are?5fro@ ; `string'
PUBLIC	??_C@_1HA@KAMKPLHN@?$AA?$CC?$AAl?$AAi?$AAs?$AAt?$AA?5?$AAi?$AAt?$AAe?$AAr?$AAa?$AAt?$AAo?$AAr?$AAs@ ; `string'
PUBLIC	??_C@_0BD@FEEMDEPI@invalid?5comparator@		; `string'
PUBLIC	??_C@_1CK@NDNHPKPI@?$AA?$CC?$AAi?$AAn?$AAv?$AAa?$AAl?$AAi?$AAd?$AA?5?$AAc?$AAo?$AAm?$AAp?$AAa?$AAr@ ; `string'
PUBLIC	??_R4exception@std@@6B@				; std::exception::`RTTI Complete Object Locator'
PUBLIC	??_R3exception@std@@8				; std::exception::`RTTI Class Hierarchy Descriptor'
PUBLIC	??_R2exception@std@@8				; std::exception::`RTTI Base Class Array'
PUBLIC	??_R1A@?0A@EA@exception@std@@8			; std::exception::`RTTI Base Class Descriptor at (0,-1,0,64)'
PUBLIC	??_R4bad_alloc@std@@6B@				; std::bad_alloc::`RTTI Complete Object Locator'
PUBLIC	??_R3bad_alloc@std@@8				; std::bad_alloc::`RTTI Class Hierarchy Descriptor'
PUBLIC	??_R2bad_alloc@std@@8				; std::bad_alloc::`RTTI Base Class Array'
PUBLIC	??_R1A@?0A@EA@bad_alloc@std@@8			; std::bad_alloc::`RTTI Base Class Descriptor at (0,-1,0,64)'
PUBLIC	??_R4bad_array_new_length@std@@6B@		; std::bad_array_new_length::`RTTI Complete Object Locator'
PUBLIC	??_R3bad_array_new_length@std@@8		; std::bad_array_new_length::`RTTI Class Hierarchy Descriptor'
PUBLIC	??_R2bad_array_new_length@std@@8		; std::bad_array_new_length::`RTTI Base Class Array'
PUBLIC	??_R1A@?0A@EA@bad_array_new_length@std@@8	; std::bad_array_new_length::`RTTI Base Class Descriptor at (0,-1,0,64)'
PUBLIC	__real@3f800000
PUBLIC	__real@5f000000
EXTRN	??2@YAPEAX_K@Z:PROC				; operator new
EXTRN	??3@YAXPEAX@Z:PROC				; operator delete
EXTRN	??3@YAXPEAX_K@Z:PROC				; operator delete
EXTRN	__imp__invalid_parameter:PROC
EXTRN	__imp_ceilf:PROC
EXTRN	__imp_free:PROC
EXTRN	__imp_malloc:PROC
EXTRN	__imp__CrtDbgReport:PROC
EXTRN	__imp_??0_Lockit@std@@QEAA@H@Z:PROC
EXTRN	__imp_??1_Lockit@std@@QEAA@XZ:PROC
EXTRN	__std_exception_copy:PROC
EXTRN	__std_exception_destroy:PROC
EXTRN	??_Eexception@std@@UEAAPEAXI@Z:PROC		; std::exception::`vector deleting destructor'
EXTRN	??_Ebad_alloc@std@@UEAAPEAXI@Z:PROC		; std::bad_alloc::`vector deleting destructor'
EXTRN	??_Ebad_array_new_length@std@@UEAAPEAXI@Z:PROC	; std::bad_array_new_length::`vector deleting destructor'
EXTRN	?_Xlength_error@std@@YAXPEBD@Z:PROC		; std::_Xlength_error
EXTRN	_CxxThrowException:PROC
EXTRN	__CheckForDebuggerJustMyCode:PROC
EXTRN	__CxxFrameHandler4:PROC
EXTRN	??_7type_info@@6B@:BYTE				; type_info::`vftable'
EXTRN	_fltused:DWORD
;	COMDAT pdata
pdata	SEGMENT
$pdata$?is_constant_evaluated@std@@YA_NXZ DD imagerel $LN3
	DD	imagerel $LN3+31
	DD	imagerel $unwind$?is_constant_evaluated@std@@YA_NXZ
pdata	ENDS
;	COMDAT pdata
pdata	SEGMENT
$pdata$?max@?$numeric_limits@_J@std@@SA_JXZ DD imagerel $LN3
	DD	imagerel $LN3+39
	DD	imagerel $unwind$?max@?$numeric_limits@_J@std@@SA_JXZ
pdata	ENDS
;	COMDAT pdata
pdata	SEGMENT
$pdata$??2@YAPEAX_KPEAX@Z DD imagerel $LN3
	DD	imagerel $LN3+42
	DD	imagerel $unwind$??2@YAPEAX_KPEAX@Z
pdata	ENDS
;	COMDAT pdata
pdata	SEGMENT
$pdata$?_Fnv1a_append_bytes@std@@YA_K_KQEBE_K@Z DD imagerel $LN6
	DD	imagerel $LN6+136
	DD	imagerel $unwind$?_Fnv1a_append_bytes@std@@YA_K_KQEBE_K@Z
pdata	ENDS
;	COMDAT pdata
pdata	SEGMENT
$pdata$??0exception@std@@QEAA@QEBDH@Z DD imagerel $LN3
	DD	imagerel $LN3+95
	DD	imagerel $unwind$??0exception@std@@QEAA@QEBDH@Z
pdata	ENDS
;	COMDAT pdata
pdata	SEGMENT
$pdata$??0exception@std@@QEAA@AEBV01@@Z DD imagerel $LN3
	DD	imagerel $LN3+102
	DD	imagerel $unwind$??0exception@std@@QEAA@AEBV01@@Z
pdata	ENDS
;	COMDAT pdata
pdata	SEGMENT
$pdata$??1exception@std@@UEAA@XZ DD imagerel $LN3
	DD	imagerel $LN3+63
	DD	imagerel $unwind$??1exception@std@@UEAA@XZ
pdata	ENDS
;	COMDAT pdata
pdata	SEGMENT
$pdata$?what@exception@std@@UEBAPEBDXZ DD imagerel $LN5
	DD	imagerel $LN5+73
	DD	imagerel $unwind$?what@exception@std@@UEBAPEBDXZ
pdata	ENDS
;	COMDAT pdata
pdata	SEGMENT
$pdata$??_Gexception@std@@UEAAPEAXI@Z DD imagerel $LN4
	DD	imagerel $LN4+62
	DD	imagerel $unwind$??_Gexception@std@@UEAAPEAXI@Z
pdata	ENDS
;	COMDAT pdata
pdata	SEGMENT
$pdata$??0bad_alloc@std@@AEAA@QEBD@Z DD imagerel $LN3
	DD	imagerel $LN3+75
	DD	imagerel $unwind$??0bad_alloc@std@@AEAA@QEBD@Z
pdata	ENDS
;	COMDAT pdata
pdata	SEGMENT
$pdata$??1bad_alloc@std@@UEAA@XZ DD imagerel $LN3
	DD	imagerel $LN3+30
	DD	imagerel $unwind$??1bad_alloc@std@@UEAA@XZ
pdata	ENDS
;	COMDAT pdata
pdata	SEGMENT
$pdata$??0bad_alloc@std@@QEAA@AEBV01@@Z DD imagerel $LN3
	DD	imagerel $LN3+57
	DD	imagerel $unwind$??0bad_alloc@std@@QEAA@AEBV01@@Z
pdata	ENDS
;	COMDAT pdata
pdata	SEGMENT
$pdata$??_Gbad_alloc@std@@UEAAPEAXI@Z DD imagerel $LN4
	DD	imagerel $LN4+62
	DD	imagerel $unwind$??_Gbad_alloc@std@@UEAAPEAXI@Z
pdata	ENDS
;	COMDAT pdata
pdata	SEGMENT
$pdata$??0bad_array_new_length@std@@QEAA@XZ DD imagerel $LN3
	DD	imagerel $LN3+67
	DD	imagerel $unwind$??0bad_array_new_length@std@@QEAA@XZ
pdata	ENDS
;	COMDAT pdata
pdata	SEGMENT
$pdata$??1bad_array_new_length@std@@UEAA@XZ DD imagerel $LN3
	DD	imagerel $LN3+30
	DD	imagerel $unwind$??1bad_array_new_length@std@@UEAA@XZ
pdata	ENDS
;	COMDAT pdata
pdata	SEGMENT
$pdata$??0bad_array_new_length@std@@QEAA@AEBV01@@Z DD imagerel $LN3
	DD	imagerel $LN3+57
	DD	imagerel $unwind$??0bad_array_new_length@std@@QEAA@AEBV01@@Z
pdata	ENDS
;	COMDAT pdata
pdata	SEGMENT
$pdata$??_Gbad_array_new_length@std@@UEAAPEAXI@Z DD imagerel $LN4
	DD	imagerel $LN4+62
	DD	imagerel $unwind$??_Gbad_array_new_length@std@@UEAAPEAXI@Z
pdata	ENDS
;	COMDAT pdata
pdata	SEGMENT
$pdata$?_Throw_bad_array_new_length@std@@YAXXZ DD imagerel $LN3
	DD	imagerel $LN3+57
	DD	imagerel $unwind$?_Throw_bad_array_new_length@std@@YAXXZ
pdata	ENDS
;	COMDAT pdata
pdata	SEGMENT
$pdata$?_Allocate@_Default_allocate_traits@std@@SAPEAX_K@Z DD imagerel $LN3
	DD	imagerel $LN3+42
	DD	imagerel $unwind$?_Allocate@_Default_allocate_traits@std@@SAPEAX_K@Z
pdata	ENDS
;	COMDAT pdata
pdata	SEGMENT
$pdata$?_Adjust_manually_vector_aligned@std@@YAXAEAPEAXAEA_K@Z DD imagerel $LN21
	DD	imagerel $LN21+433
	DD	imagerel $unwind$?_Adjust_manually_vector_aligned@std@@YAXAEAPEAXAEA_K@Z
pdata	ENDS
;	COMDAT pdata
pdata	SEGMENT
$pdata$?_Adopt@_Iterator_base0@std@@QEAAXPEBX@Z DD imagerel $LN3
	DD	imagerel $LN3+38
	DD	imagerel $unwind$?_Adopt@_Iterator_base0@std@@QEAAXPEBX@Z
pdata	ENDS
;	COMDAT pdata
pdata	SEGMENT
$pdata$??0_Container_proxy@std@@QEAA@PEAU_Container_base12@1@@Z DD imagerel $LN3
	DD	imagerel $LN3+65
	DD	imagerel $unwind$??0_Container_proxy@std@@QEAA@PEAU_Container_base12@1@@Z
pdata	ENDS
;	COMDAT pdata
pdata	SEGMENT
$pdata$??0_Container_base12@std@@QEAA@XZ DD imagerel $LN3
	DD	imagerel $LN3+48
	DD	imagerel $unwind$??0_Container_base12@std@@QEAA@XZ
pdata	ENDS
;	COMDAT pdata
pdata	SEGMENT
$pdata$?_Orphan_all@_Container_base12@std@@QEAAXXZ DD imagerel $LN5
	DD	imagerel $LN5+65
	DD	imagerel $unwind$?_Orphan_all@_Container_base12@std@@QEAAXXZ
pdata	ENDS
;	COMDAT pdata
pdata	SEGMENT
$pdata$?_Orphan_all_unlocked_v3@_Container_base12@std@@AEAAXXZ DD imagerel $LN7
	DD	imagerel $LN7+114
	DD	imagerel $unwind$?_Orphan_all_unlocked_v3@_Container_base12@std@@AEAAXXZ
pdata	ENDS
;	COMDAT pdata
pdata	SEGMENT
$pdata$?_Orphan_all_locked_v3@_Container_base12@std@@AEAAXXZ DD imagerel $LN3
	DD	imagerel $LN3+67
	DD	imagerel $unwind$?_Orphan_all_locked_v3@_Container_base12@std@@AEAAXXZ
pdata	ENDS
;	COMDAT pdata
pdata	SEGMENT
$pdata$??0_Iterator_base12@std@@QEAA@XZ DD imagerel $LN3
	DD	imagerel $LN3+60
	DD	imagerel $unwind$??0_Iterator_base12@std@@QEAA@XZ
pdata	ENDS
;	COMDAT pdata
pdata	SEGMENT
$pdata$??0_Iterator_base12@std@@QEAA@AEBU01@@Z DD imagerel $LN3
	DD	imagerel $LN3+78
	DD	imagerel $unwind$??0_Iterator_base12@std@@QEAA@AEBU01@@Z
pdata	ENDS
;	COMDAT pdata
pdata	SEGMENT
$pdata$??4_Iterator_base12@std@@QEAAAEAU01@AEBU01@@Z DD imagerel $LN5
	DD	imagerel $LN5+82
	DD	imagerel $unwind$??4_Iterator_base12@std@@QEAAAEAU01@AEBU01@@Z
pdata	ENDS
;	COMDAT pdata
pdata	SEGMENT
$pdata$??1_Iterator_base12@std@@QEAA@XZ DD imagerel $LN5
	DD	imagerel $LN5+65
	DD	imagerel $unwind$??1_Iterator_base12@std@@QEAA@XZ
pdata	ENDS
;	COMDAT pdata
pdata	SEGMENT
$pdata$?_Adopt@_Iterator_base12@std@@QEAAXPEBU_Container_base12@2@@Z DD imagerel $LN5
	DD	imagerel $LN5+78
	DD	imagerel $unwind$?_Adopt@_Iterator_base12@std@@QEAAXPEBU_Container_base12@2@@Z
pdata	ENDS
;	COMDAT pdata
pdata	SEGMENT
$pdata$?_Getcont@_Iterator_base12@std@@QEBAPEBU_Container_base12@2@XZ DD imagerel $LN5
	DD	imagerel $LN5+71
	DD	imagerel $unwind$?_Getcont@_Iterator_base12@std@@QEBAPEBU_Container_base12@2@XZ
pdata	ENDS
;	COMDAT pdata
pdata	SEGMENT
$pdata$?_Assign_unlocked@_Iterator_base12@std@@AEAAXAEBU12@@Z DD imagerel $LN6
	DD	imagerel $LN6+96
	DD	imagerel $unwind$?_Assign_unlocked@_Iterator_base12@std@@AEAAXAEBU12@@Z
pdata	ENDS
;	COMDAT pdata
pdata	SEGMENT
$pdata$?_Assign_locked@_Iterator_base12@std@@AEAAXAEBU12@@Z DD imagerel $LN3
	DD	imagerel $LN3+76
	DD	imagerel $unwind$?_Assign_locked@_Iterator_base12@std@@AEAAXAEBU12@@Z
pdata	ENDS
;	COMDAT pdata
pdata	SEGMENT
$pdata$?_Adopt_unlocked@_Iterator_base12@std@@AEAAXPEBU_Container_base12@2@@Z DD imagerel $LN6
	DD	imagerel $LN6+138
	DD	imagerel $unwind$?_Adopt_unlocked@_Iterator_base12@std@@AEAAXPEBU_Container_base12@2@@Z
pdata	ENDS
;	COMDAT pdata
pdata	SEGMENT
$pdata$?_Adopt_locked@_Iterator_base12@std@@AEAAXPEBU_Container_base12@2@@Z DD imagerel $LN3
	DD	imagerel $LN3+76
	DD	imagerel $unwind$?_Adopt_locked@_Iterator_base12@std@@AEAAXPEBU_Container_base12@2@@Z
pdata	ENDS
;	COMDAT pdata
pdata	SEGMENT
$pdata$?_Orphan_me_unlocked_v3@_Iterator_base12@std@@AEAAXXZ DD imagerel $LN15
	DD	imagerel $LN15+257
	DD	imagerel $unwind$?_Orphan_me_unlocked_v3@_Iterator_base12@std@@AEAAXXZ
pdata	ENDS
;	COMDAT pdata
pdata	SEGMENT
$pdata$?_Orphan_me_locked_v3@_Iterator_base12@std@@AEAAXXZ DD imagerel $LN3
	DD	imagerel $LN3+67
	DD	imagerel $unwind$?_Orphan_me_locked_v3@_Iterator_base12@std@@AEAAXXZ
pdata	ENDS
;	COMDAT pdata
pdata	SEGMENT
$pdata$??$exchange@PEAU_Iterator_base12@std@@$$T@std@@YAPEAU_Iterator_base12@0@AEAPEAU10@$$QEA$$T@Z DD imagerel $LN3
	DD	imagerel $LN3+67
	DD	imagerel $unwind$??$exchange@PEAU_Iterator_base12@std@@$$T@std@@YAPEAU_Iterator_base12@0@AEAPEAU10@$$QEA$$T@Z
pdata	ENDS
;	COMDAT pdata
pdata	SEGMENT
$pdata$?_Release@_Basic_container_proxy_ptr12@std@@QEAAXXZ DD imagerel $LN3
	DD	imagerel $LN3+44
	DD	imagerel $unwind$?_Release@_Basic_container_proxy_ptr12@std@@QEAAXXZ
pdata	ENDS
;	COMDAT pdata
pdata	SEGMENT
$pdata$??0_Basic_container_proxy_ptr12@std@@IEAA@XZ DD imagerel $LN3
	DD	imagerel $LN3+48
	DD	imagerel $unwind$??0_Basic_container_proxy_ptr12@std@@IEAA@XZ
pdata	ENDS
;	COMDAT pdata
pdata	SEGMENT
$pdata$??$addressof@U_Container_base12@std@@@std@@YAPEAU_Container_base12@0@AEAU10@@Z DD imagerel $LN3
	DD	imagerel $LN3+37
	DD	imagerel $unwind$??$addressof@U_Container_base12@std@@@std@@YAPEAU_Container_base12@0@AEAU10@@Z
pdata	ENDS
;	COMDAT pdata
pdata	SEGMENT
$pdata$??$_Construct_in_place@U_Container_proxy@std@@PEAU_Container_base12@2@@std@@YAXAEAU_Container_proxy@0@$$QEAPEAU_Container_base12@0@@Z DD imagerel $LN5
	DD	imagerel $LN5+115
	DD	imagerel $unwind$??$_Construct_in_place@U_Container_proxy@std@@PEAU_Container_base12@2@@std@@YAXAEAU_Container_proxy@0@$$QEAPEAU_Container_base12@0@@Z
pdata	ENDS
;	COMDAT pdata
pdata	SEGMENT
$pdata$?_Floor_of_log_2@std@@YAK_K@Z DD imagerel $LN3
	DD	imagerel $LN3+59
	DD	imagerel $unwind$?_Floor_of_log_2@std@@YAK_K@Z
pdata	ENDS
;	COMDAT pdata
pdata	SEGMENT
$pdata$?_Ceiling_of_log_2@std@@YAK_K@Z DD imagerel $LN3
	DD	imagerel $LN3+50
	DD	imagerel $unwind$?_Ceiling_of_log_2@std@@YAK_K@Z
pdata	ENDS
;	COMDAT pdata
pdata	SEGMENT
$pdata$??0Bucket@@QEAA@XZ DD imagerel $LN3
	DD	imagerel $LN3+58
	DD	imagerel $unwind$??0Bucket@@QEAA@XZ
pdata	ENDS
;	COMDAT pdata
pdata	SEGMENT
$pdata$??R?$_Conditionally_enabled_hash@_K$00@std@@QEBA_KAEB_K@Z DD imagerel $LN3
	DD	imagerel $LN3+47
	DD	imagerel $unwind$??R?$_Conditionally_enabled_hash@_K$00@std@@QEBA_KAEB_K@Z
pdata	ENDS
;	COMDAT pdata
pdata	SEGMENT
$pdata$?_Do_hash@?$hash@_K@std@@SA_KAEB_K@Z DD imagerel $LN3
	DD	imagerel $LN3+42
	DD	imagerel $unwind$?_Do_hash@?$hash@_K@std@@SA_KAEB_K@Z
pdata	ENDS
;	COMDAT pdata
pdata	SEGMENT
$pdata$??0?$_Uhash_compare@_KU?$hash@_K@std@@U?$equal_to@_K@2@@std@@QEAA@XZ DD imagerel $LN3
	DD	imagerel $LN3+74
	DD	imagerel $unwind$??0?$_Uhash_compare@_KU?$hash@_K@std@@U?$equal_to@_K@2@@std@@QEAA@XZ
pdata	ENDS
;	COMDAT pdata
pdata	SEGMENT
$pdata$?_Get_max_bucket_size@?$_Uhash_compare@_KU?$hash@_K@std@@U?$equal_to@_K@2@@std@@QEAAAEAMXZ DD imagerel $LN3
	DD	imagerel $LN3+37
	DD	imagerel $unwind$?_Get_max_bucket_size@?$_Uhash_compare@_KU?$hash@_K@std@@U?$equal_to@_K@2@@std@@QEAAAEAMXZ
pdata	ENDS
;	COMDAT pdata
pdata	SEGMENT
$pdata$?_Get_max_bucket_size@?$_Uhash_compare@_KU?$hash@_K@std@@U?$equal_to@_K@2@@std@@QEBAAEBMXZ DD imagerel $LN3
	DD	imagerel $LN3+37
	DD	imagerel $unwind$?_Get_max_bucket_size@?$_Uhash_compare@_KU?$hash@_K@std@@U?$equal_to@_K@2@@std@@QEBAAEBMXZ
pdata	ENDS
;	COMDAT pdata
pdata	SEGMENT
$pdata$??R?$equal_to@_K@std@@QEBA_NAEB_K0@Z DD imagerel $LN5
	DD	imagerel $LN5+79
	DD	imagerel $unwind$??R?$equal_to@_K@std@@QEBA_NAEB_K0@Z
pdata	ENDS
;	COMDAT pdata
pdata	SEGMENT
$pdata$?_Get_first@?$_Compressed_pair@U?$equal_to@_K@std@@M$00@std@@QEBAAEBU?$equal_to@_K@2@XZ DD imagerel $LN3
	DD	imagerel $LN3+37
	DD	imagerel $unwind$?_Get_first@?$_Compressed_pair@U?$equal_to@_K@std@@M$00@std@@QEBAAEBU?$equal_to@_K@2@XZ
pdata	ENDS
;	COMDAT pdata
pdata	SEGMENT
$pdata$?_Get_first@?$_Compressed_pair@U?$hash@_K@std@@V?$_Compressed_pair@U?$equal_to@_K@std@@M$00@2@$00@std@@QEBAAEBU?$hash@_K@2@XZ DD imagerel $LN3
	DD	imagerel $LN3+37
	DD	imagerel $unwind$?_Get_first@?$_Compressed_pair@U?$hash@_K@std@@V?$_Compressed_pair@U?$equal_to@_K@std@@M$00@2@$00@std@@QEBAAEBU?$hash@_K@2@XZ
pdata	ENDS
;	COMDAT pdata
pdata	SEGMENT
$pdata$??0?$allocator@U?$pair@$$CB_KUBucket@@@std@@@std@@QEAA@XZ DD imagerel $LN3
	DD	imagerel $LN3+37
	DD	imagerel $unwind$??0?$allocator@U?$pair@$$CB_KUBucket@@@std@@@std@@QEAA@XZ
pdata	ENDS
;	COMDAT pdata
pdata	SEGMENT
$pdata$??0?$_Umap_traits@_KUBucket@@V?$_Uhash_compare@_KU?$hash@_K@std@@U?$equal_to@_K@2@@std@@V?$allocator@U?$pair@$$CB_KUBucket@@@std@@@3@$0A@@std@@QEAA@AEBV?$_Uhash_compare@_KU?$hash@_K@std@@U?$equal_to@_K@2@@1@@Z DD imagerel $LN3
	DD	imagerel $LN3+54
	DD	imagerel $unwind$??0?$_Umap_traits@_KUBucket@@V?$_Uhash_compare@_KU?$hash@_K@std@@U?$equal_to@_K@2@@std@@V?$allocator@U?$pair@$$CB_KUBucket@@@std@@@3@$0A@@std@@QEAA@AEBV?$_Uhash_compare@_KU?$hash@_K@std@@U?$equal_to@_K@2@@1@@Z
pdata	ENDS
;	COMDAT pdata
pdata	SEGMENT
$pdata$?deallocate@?$allocator@U?$_List_node@U?$pair@$$CB_KUBucket@@@std@@PEAX@std@@@std@@QEAAXQEAU?$_List_node@U?$pair@$$CB_KUBucket@@@std@@PEAX@2@_K@Z DD imagerel $LN13
	DD	imagerel $LN13+193
	DD	imagerel $unwind$?deallocate@?$allocator@U?$_List_node@U?$pair@$$CB_KUBucket@@@std@@PEAX@std@@@std@@QEAAXQEAU?$_List_node@U?$pair@$$CB_KUBucket@@@std@@PEAX@2@_K@Z
pdata	ENDS
;	COMDAT pdata
pdata	SEGMENT
$pdata$?allocate@?$allocator@U?$_List_node@U?$pair@$$CB_KUBucket@@@std@@PEAX@std@@@std@@QEAAPEAU?$_List_node@U?$pair@$$CB_KUBucket@@@std@@PEAX@2@_K@Z DD imagerel $LN3
	DD	imagerel $LN3+55
	DD	imagerel $unwind$?allocate@?$allocator@U?$_List_node@U?$pair@$$CB_KUBucket@@@std@@PEAX@std@@@std@@QEAAPEAU?$_List_node@U?$pair@$$CB_KUBucket@@@std@@PEAX@2@_K@Z
pdata	ENDS
;	COMDAT pdata
pdata	SEGMENT
$pdata$?deallocate@?$_Default_allocator_traits@V?$allocator@U?$_List_node@U?$pair@$$CB_KUBucket@@@std@@PEAX@std@@@std@@@std@@SAXAEAV?$allocator@U?$_List_node@U?$pair@$$CB_KUBucket@@@std@@PEAX@std@@@2@QEAU?$_List_node@U?$pair@$$CB_KUBucket@@@std@@PEAX@2@_K@Z DD imagerel $LN5
	DD	imagerel $LN5+91
	DD	imagerel $unwind$?deallocate@?$_Default_allocator_traits@V?$allocator@U?$_List_node@U?$pair@$$CB_KUBucket@@@std@@PEAX@std@@@std@@@std@@SAXAEAV?$allocator@U?$_List_node@U?$pair@$$CB_KUBucket@@@std@@PEAX@std@@@2@QEAU?$_List_node@U?$pair@$$CB_KUBucket@@@std@@PEAX@2@_K@Z
pdata	ENDS
;	COMDAT pdata
pdata	SEGMENT
$pdata$?max_size@?$_Default_allocator_traits@V?$allocator@U?$_List_node@U?$pair@$$CB_KUBucket@@@std@@PEAX@std@@@std@@@std@@SA_KAEBV?$allocator@U?$_List_node@U?$pair@$$CB_KUBucket@@@std@@PEAX@std@@@2@@Z DD imagerel $LN3
	DD	imagerel $LN3+43
	DD	imagerel $unwind$?max_size@?$_Default_allocator_traits@V?$allocator@U?$_List_node@U?$pair@$$CB_KUBucket@@@std@@PEAX@std@@@std@@@std@@SA_KAEBV?$allocator@U?$_List_node@U?$pair@$$CB_KUBucket@@@std@@PEAX@std@@@2@@Z
pdata	ENDS
;	COMDAT pdata
pdata	SEGMENT
$pdata$??0?$list@U?$pair@$$CB_KUBucket@@@std@@V?$allocator@U?$pair@$$CB_KUBucket@@@std@@@2@@std@@QEAA@AEBV?$allocator@U?$pair@$$CB_KUBucket@@@std@@@1@@Z DD imagerel $LN3
	DD	imagerel $LN3+76
	DD	imagerel $unwind$??0?$list@U?$pair@$$CB_KUBucket@@@std@@V?$allocator@U?$pair@$$CB_KUBucket@@@std@@@2@@std@@QEAA@AEBV?$allocator@U?$pair@$$CB_KUBucket@@@std@@@1@@Z
pdata	ENDS
;	COMDAT pdata
pdata	SEGMENT
$pdata$??1?$list@U?$pair@$$CB_KUBucket@@@std@@V?$allocator@U?$pair@$$CB_KUBucket@@@std@@@2@@std@@QEAA@XZ DD imagerel $LN3
	DD	imagerel $LN3+87
	DD	imagerel $unwind$??1?$list@U?$pair@$$CB_KUBucket@@@std@@V?$allocator@U?$pair@$$CB_KUBucket@@@std@@@2@@std@@QEAA@XZ
pdata	ENDS
;	COMDAT pdata
pdata	SEGMENT
$pdata$?_Unchecked_begin@?$list@U?$pair@$$CB_KUBucket@@@std@@V?$allocator@U?$pair@$$CB_KUBucket@@@std@@@2@@std@@QEAA?AV?$_List_unchecked_iterator@V?$_List_val@U?$_List_simple_types@U?$pair@$$CB_KUBucket@@@std@@@std@@@std@@@2@XZ DD imagerel $LN3
	DD	imagerel $LN3+65
	DD	imagerel $unwind$?_Unchecked_begin@?$list@U?$pair@$$CB_KUBucket@@@std@@V?$allocator@U?$pair@$$CB_KUBucket@@@std@@@2@@std@@QEAA?AV?$_List_unchecked_iterator@V?$_List_val@U?$_List_simple_types@U?$pair@$$CB_KUBucket@@@std@@@std@@@std@@@2@XZ
pdata	ENDS
;	COMDAT pdata
pdata	SEGMENT
$pdata$?_Unchecked_end@?$list@U?$pair@$$CB_KUBucket@@@std@@V?$allocator@U?$pair@$$CB_KUBucket@@@std@@@2@@std@@QEAA?AV?$_List_unchecked_iterator@V?$_List_val@U?$_List_simple_types@U?$pair@$$CB_KUBucket@@@std@@@std@@@std@@@2@XZ DD imagerel $LN3
	DD	imagerel $LN3+62
	DD	imagerel $unwind$?_Unchecked_end@?$list@U?$pair@$$CB_KUBucket@@@std@@V?$allocator@U?$pair@$$CB_KUBucket@@@std@@@2@@std@@QEAA?AV?$_List_unchecked_iterator@V?$_List_val@U?$_List_simple_types@U?$pair@$$CB_KUBucket@@@std@@@std@@@std@@@2@XZ
pdata	ENDS
;	COMDAT pdata
pdata	SEGMENT
$pdata$?_Make_iter@?$list@U?$pair@$$CB_KUBucket@@@std@@V?$allocator@U?$pair@$$CB_KUBucket@@@std@@@2@@std@@QEBA?AV?$_List_iterator@V?$_List_val@U?$_List_simple_types@U?$pair@$$CB_KUBucket@@@std@@@std@@@std@@@2@PEAU?$_List_node@U?$pair@$$CB_KUBucket@@@std@@PEAX@2@@Z DD imagerel $LN3
	DD	imagerel $LN3+75
	DD	imagerel $unwind$?_Make_iter@?$list@U?$pair@$$CB_KUBucket@@@std@@V?$allocator@U?$pair@$$CB_KUBucket@@@std@@@2@@std@@QEBA?AV?$_List_iterator@V?$_List_val@U?$_List_simple_types@U?$pair@$$CB_KUBucket@@@std@@@std@@@std@@@2@PEAU?$_List_node@U?$pair@$$CB_KUBucket@@@std@@PEAX@2@@Z
pdata	ENDS
;	COMDAT pdata
pdata	SEGMENT
$pdata$?max_size@?$list@U?$pair@$$CB_KUBucket@@@std@@V?$allocator@U?$pair@$$CB_KUBucket@@@std@@@2@@std@@QEBA_KXZ DD imagerel $LN3
	DD	imagerel $LN3+79
	DD	imagerel $unwind$?max_size@?$list@U?$pair@$$CB_KUBucket@@@std@@V?$allocator@U?$pair@$$CB_KUBucket@@@std@@@2@@std@@QEBA_KXZ
pdata	ENDS
;	COMDAT pdata
pdata	SEGMENT
$pdata$?_Unchecked_erase@?$list@U?$pair@$$CB_KUBucket@@@std@@V?$allocator@U?$pair@$$CB_KUBucket@@@std@@@2@@std@@AEAAPEAU?$_List_node@U?$pair@$$CB_KUBucket@@@std@@PEAX@2@PEAU32@QEAU32@@Z DD imagerel $LN16
	DD	imagerel $LN16+490
	DD	imagerel $unwind$?_Unchecked_erase@?$list@U?$pair@$$CB_KUBucket@@@std@@V?$allocator@U?$pair@$$CB_KUBucket@@@std@@@2@@std@@AEAAPEAU?$_List_node@U?$pair@$$CB_KUBucket@@@std@@PEAX@2@PEAU32@QEAU32@@Z
pdata	ENDS
;	COMDAT pdata
pdata	SEGMENT
$pdata$?clear@?$list@U?$pair@$$CB_KUBucket@@@std@@V?$allocator@U?$pair@$$CB_KUBucket@@@std@@@2@@std@@QEAAXXZ DD imagerel $LN3
	DD	imagerel $LN3+142
	DD	imagerel $unwind$?clear@?$list@U?$pair@$$CB_KUBucket@@@std@@V?$allocator@U?$pair@$$CB_KUBucket@@@std@@@2@@std@@QEAAXXZ
pdata	ENDS
;	COMDAT pdata
pdata	SEGMENT
$pdata$?_Tidy@?$list@U?$pair@$$CB_KUBucket@@@std@@V?$allocator@U?$pair@$$CB_KUBucket@@@std@@@2@@std@@AEAAXXZ DD imagerel $LN3
	DD	imagerel $LN3+97
	DD	imagerel $unwind$?_Tidy@?$list@U?$pair@$$CB_KUBucket@@@std@@V?$allocator@U?$pair@$$CB_KUBucket@@@std@@@2@@std@@AEAAXXZ
pdata	ENDS
;	COMDAT pdata
pdata	SEGMENT
$pdata$?_Alloc_sentinel_and_proxy@?$list@U?$pair@$$CB_KUBucket@@@std@@V?$allocator@U?$pair@$$CB_KUBucket@@@std@@@2@@std@@AEAAXXZ DD imagerel $LN4
	DD	imagerel $LN4+196
	DD	imagerel $unwind$?_Alloc_sentinel_and_proxy@?$list@U?$pair@$$CB_KUBucket@@@std@@V?$allocator@U?$pair@$$CB_KUBucket@@@std@@@2@@std@@AEAAXXZ
pdata	ENDS
;	COMDAT pdata
pdata	SEGMENT
$pdata$?dtor$0@?0??_Alloc_sentinel_and_proxy@?$list@U?$pair@$$CB_KUBucket@@@std@@V?$allocator@U?$pair@$$CB_KUBucket@@@std@@@2@@std@@AEAAXXZ@4HA DD imagerel ?dtor$0@?0??_Alloc_sentinel_and_proxy@?$list@U?$pair@$$CB_KUBucket@@@std@@V?$allocator@U?$pair@$$CB_KUBucket@@@std@@@2@@std@@AEAAXXZ@4HA
	DD	imagerel ?dtor$0@?0??_Alloc_sentinel_and_proxy@?$list@U?$pair@$$CB_KUBucket@@@std@@V?$allocator@U?$pair@$$CB_KUBucket@@@std@@@2@@std@@AEAAXXZ@4HA+25
	DD	imagerel $unwind$?dtor$0@?0??_Alloc_sentinel_and_proxy@?$list@U?$pair@$$CB_KUBucket@@@std@@V?$allocator@U?$pair@$$CB_KUBucket@@@std@@@2@@std@@AEAAXXZ@4HA
pdata	ENDS
;	COMDAT pdata
pdata	SEGMENT
$pdata$?_Getal@?$list@U?$pair@$$CB_KUBucket@@@std@@V?$allocator@U?$pair@$$CB_KUBucket@@@std@@@2@@std@@AEAAAEAV?$allocator@U?$_List_node@U?$pair@$$CB_KUBucket@@@std@@PEAX@std@@@2@XZ DD imagerel $LN3
	DD	imagerel $LN3+45
	DD	imagerel $unwind$?_Getal@?$list@U?$pair@$$CB_KUBucket@@@std@@V?$allocator@U?$pair@$$CB_KUBucket@@@std@@@2@@std@@AEAAAEAV?$allocator@U?$_List_node@U?$pair@$$CB_KUBucket@@@std@@PEAX@std@@@2@XZ
pdata	ENDS
;	COMDAT pdata
pdata	SEGMENT
$pdata$?_Getal@?$list@U?$pair@$$CB_KUBucket@@@std@@V?$allocator@U?$pair@$$CB_KUBucket@@@std@@@2@@std@@AEBAAEBV?$allocator@U?$_List_node@U?$pair@$$CB_KUBucket@@@std@@PEAX@std@@@2@XZ DD imagerel $LN3
	DD	imagerel $LN3+45
	DD	imagerel $unwind$?_Getal@?$list@U?$pair@$$CB_KUBucket@@@std@@V?$allocator@U?$pair@$$CB_KUBucket@@@std@@@2@@std@@AEBAAEBV?$allocator@U?$_List_node@U?$pair@$$CB_KUBucket@@@std@@PEAX@std@@@2@XZ
pdata	ENDS
;	COMDAT pdata
pdata	SEGMENT
$pdata$??0?$_List_val@U?$_List_simple_types@U?$pair@$$CB_KUBucket@@@std@@@std@@@std@@QEAA@XZ DD imagerel $LN3
	DD	imagerel $LN3+70
	DD	imagerel $unwind$??0?$_List_val@U?$_List_simple_types@U?$pair@$$CB_KUBucket@@@std@@@std@@@std@@QEAA@XZ
pdata	ENDS
;	COMDAT pdata
pdata	SEGMENT
$pdata$?_Orphan_non_end@?$_List_val@U?$_List_simple_types@U?$pair@$$CB_KUBucket@@@std@@@std@@@std@@QEAAXXZ DD imagerel $LN7
	DD	imagerel $LN7+170
	DD	imagerel $unwind$?_Orphan_non_end@?$_List_val@U?$_List_simple_types@U?$pair@$$CB_KUBucket@@@std@@@std@@@std@@QEAAXXZ
pdata	ENDS
;	COMDAT pdata
pdata	SEGMENT
$pdata$?_Unchecked_splice@?$_List_val@U?$_List_simple_types@U?$pair@$$CB_KUBucket@@@std@@@std@@@std@@SAPEAU?$_List_node@U?$pair@$$CB_KUBucket@@@std@@PEAX@2@QEAU32@00@Z DD imagerel $LN3
	DD	imagerel $LN3+167
	DD	imagerel $unwind$?_Unchecked_splice@?$_List_val@U?$_List_simple_types@U?$pair@$$CB_KUBucket@@@std@@@std@@@std@@SAPEAU?$_List_node@U?$pair@$$CB_KUBucket@@@std@@PEAX@2@QEAU32@00@Z
pdata	ENDS
;	COMDAT pdata
pdata	SEGMENT
$pdata$?_Get_first@?$_Compressed_pair@V?$allocator@U?$_List_node@U?$pair@$$CB_KUBucket@@@std@@PEAX@std@@@std@@V?$_List_val@U?$_List_simple_types@U?$pair@$$CB_KUBucket@@@std@@@std@@@2@$00@std@@QEAAAEAV?$allocator@U?$_List_node@U?$pair@$$CB_KUBucket@@@std@@PEAX@std@@@2@XZ DD imagerel $LN3
	DD	imagerel $LN3+37
	DD	imagerel $unwind$?_Get_first@?$_Compressed_pair@V?$allocator@U?$_List_node@U?$pair@$$CB_KUBucket@@@std@@PEAX@std@@@std@@V?$_List_val@U?$_List_simple_types@U?$pair@$$CB_KUBucket@@@std@@@std@@@2@$00@std@@QEAAAEAV?$allocator@U?$_List_node@U?$pair@$$CB_KUBucket@@@std@@PEAX@std@@@2@XZ
pdata	ENDS
;	COMDAT pdata
pdata	SEGMENT
$pdata$?_Get_first@?$_Compressed_pair@V?$allocator@U?$_List_node@U?$pair@$$CB_KUBucket@@@std@@PEAX@std@@@std@@V?$_List_val@U?$_List_simple_types@U?$pair@$$CB_KUBucket@@@std@@@std@@@2@$00@std@@QEBAAEBV?$allocator@U?$_List_node@U?$pair@$$CB_KUBucket@@@std@@PEAX@std@@@2@XZ DD imagerel $LN3
	DD	imagerel $LN3+37
	DD	imagerel $unwind$?_Get_first@?$_Compressed_pair@V?$allocator@U?$_List_node@U?$pair@$$CB_KUBucket@@@std@@PEAX@std@@@std@@V?$_List_val@U?$_List_simple_types@U?$pair@$$CB_KUBucket@@@std@@@std@@@2@$00@std@@QEBAAEBV?$allocator@U?$_List_node@U?$pair@$$CB_KUBucket@@@std@@PEAX@std@@@2@XZ
pdata	ENDS
;	COMDAT pdata
pdata	SEGMENT
$pdata$??0?$_Hash@V?$_Umap_traits@_KUBucket@@V?$_Uhash_compare@_KU?$hash@_K@std@@U?$equal_to@_K@2@@std@@V?$allocator@U?$pair@$$CB_KUBucket@@@std@@@3@$0A@@std@@@std@@IEAA@AEBV?$_Uhash_compare@_KU?$hash@_K@std@@U?$equal_to@_K@2@@1@AEBV?$allocator@U?$pair@$$CB_KUBucket@@@std@@@1@@Z DD imagerel $LN5
	DD	imagerel $LN5+229
	DD	imagerel $unwind$??0?$_Hash@V?$_Umap_traits@_KUBucket@@V?$_Uhash_compare@_KU?$hash@_K@std@@U?$equal_to@_K@2@@std@@V?$allocator@U?$pair@$$CB_KUBucket@@@std@@@3@$0A@@std@@@std@@IEAA@AEBV?$_Uhash_compare@_KU?$hash@_K@std@@U?$equal_to@_K@2@@1@AEBV?$allocator@U?$pair@$$CB_KUBucket@@@std@@@1@@Z
pdata	ENDS
;	COMDAT pdata
pdata	SEGMENT
$pdata$?dtor$0@?0???0?$_Hash@V?$_Umap_traits@_KUBucket@@V?$_Uhash_compare@_KU?$hash@_K@std@@U?$equal_to@_K@2@@std@@V?$allocator@U?$pair@$$CB_KUBucket@@@std@@@3@$0A@@std@@@std@@IEAA@AEBV?$_Uhash_compare@_KU?$hash@_K@std@@U?$equal_to@_K@2@@1@AEBV?$allocator@U?$pair@$$CB_KUBucket@@@std@@@1@@Z@4HA DD imagerel ?dtor$0@?0???0?$_Hash@V?$_Umap_traits@_KUBucket@@V?$_Uhash_compare@_KU?$hash@_K@std@@U?$equal_to@_K@2@@std@@V?$allocator@U?$pair@$$CB_KUBucket@@@std@@@3@$0A@@std@@@std@@IEAA@AEBV?$_Uhash_compare@_KU?$hash@_K@std@@U?$equal_to@_K@2@@1@AEBV?$allocator@U?$pair@$$CB_KUBucket@@@std@@@1@@Z@4HA
	DD	imagerel ?dtor$0@?0???0?$_Hash@V?$_Umap_traits@_KUBucket@@V?$_Uhash_compare@_KU?$hash@_K@std@@U?$equal_to@_K@2@@std@@V?$allocator@U?$pair@$$CB_KUBucket@@@std@@@3@$0A@@std@@@std@@IEAA@AEBV?$_Uhash_compare@_KU?$hash@_K@std@@U?$equal_to@_K@2@@1@AEBV?$allocator@U?$pair@$$CB_KUBucket@@@std@@@1@@Z@4HA+29
	DD	imagerel $unwind$?dtor$0@?0???0?$_Hash@V?$_Umap_traits@_KUBucket@@V?$_Uhash_compare@_KU?$hash@_K@std@@U?$equal_to@_K@2@@std@@V?$allocator@U?$pair@$$CB_KUBucket@@@std@@@3@$0A@@std@@@std@@IEAA@AEBV?$_Uhash_compare@_KU?$hash@_K@std@@U?$equal_to@_K@2@@1@AEBV?$allocator@U?$pair@$$CB_KUBucket@@@std@@@1@@Z@4HA
pdata	ENDS
;	COMDAT pdata
pdata	SEGMENT
$pdata$?dtor$1@?0???0?$_Hash@V?$_Umap_traits@_KUBucket@@V?$_Uhash_compare@_KU?$hash@_K@std@@U?$equal_to@_K@2@@std@@V?$allocator@U?$pair@$$CB_KUBucket@@@std@@@3@$0A@@std@@@std@@IEAA@AEBV?$_Uhash_compare@_KU?$hash@_K@std@@U?$equal_to@_K@2@@1@AEBV?$allocator@U?$pair@$$CB_KUBucket@@@std@@@1@@Z@4HA DD imagerel ?dtor$1@?0???0?$_Hash@V?$_Umap_traits@_KUBucket@@V?$_Uhash_compare@_KU?$hash@_K@std@@U?$equal_to@_K@2@@std@@V?$allocator@U?$pair@$$CB_KUBucket@@@std@@@3@$0A@@std@@@std@@IEAA@AEBV?$_Uhash_compare@_KU?$hash@_K@std@@U?$equal_to@_K@2@@1@AEBV?$allocator@U?$pair@$$CB_KUBucket@@@std@@@1@@Z@4HA
	DD	imagerel ?dtor$1@?0???0?$_Hash@V?$_Umap_traits@_KUBucket@@V?$_Uhash_compare@_KU?$hash@_K@std@@U?$equal_to@_K@2@@std@@V?$allocator@U?$pair@$$CB_KUBucket@@@std@@@3@$0A@@std@@@std@@IEAA@AEBV?$_Uhash_compare@_KU?$hash@_K@std@@U?$equal_to@_K@2@@1@AEBV?$allocator@U?$pair@$$CB_KUBucket@@@std@@@1@@Z@4HA+29
	DD	imagerel $unwind$?dtor$1@?0???0?$_Hash@V?$_Umap_traits@_KUBucket@@V?$_Uhash_compare@_KU?$hash@_K@std@@U?$equal_to@_K@2@@std@@V?$allocator@U?$pair@$$CB_KUBucket@@@std@@@3@$0A@@std@@@std@@IEAA@AEBV?$_Uhash_compare@_KU?$hash@_K@std@@U?$equal_to@_K@2@@1@AEBV?$allocator@U?$pair@$$CB_KUBucket@@@std@@@1@@Z@4HA
pdata	ENDS
;	COMDAT pdata
pdata	SEGMENT
$pdata$?_Unchecked_begin@?$_Hash@V?$_Umap_traits@_KUBucket@@V?$_Uhash_compare@_KU?$hash@_K@std@@U?$equal_to@_K@2@@std@@V?$allocator@U?$pair@$$CB_KUBucket@@@std@@@3@$0A@@std@@@std@@QEAA?AV?$_List_unchecked_iterator@V?$_List_val@U?$_List_simple_types@U?$pair@$$CB_KUBucket@@@std@@@std@@@std@@@2@XZ DD imagerel $LN3
	DD	imagerel $LN3+67
	DD	imagerel $unwind$?_Unchecked_begin@?$_Hash@V?$_Umap_traits@_KUBucket@@V?$_Uhash_compare@_KU?$hash@_K@std@@U?$equal_to@_K@2@@std@@V?$allocator@U?$pair@$$CB_KUBucket@@@std@@@3@$0A@@std@@@std@@QEAA?AV?$_List_unchecked_iterator@V?$_List_val@U?$_List_simple_types@U?$pair@$$CB_KUBucket@@@std@@@std@@@std@@@2@XZ
pdata	ENDS
;	COMDAT pdata
pdata	SEGMENT
$pdata$?_Unchecked_end@?$_Hash@V?$_Umap_traits@_KUBucket@@V?$_Uhash_compare@_KU?$hash@_K@std@@U?$equal_to@_K@2@@std@@V?$allocator@U?$pair@$$CB_KUBucket@@@std@@@3@$0A@@std@@@std@@QEAA?AV?$_List_unchecked_iterator@V?$_List_val@U?$_List_simple_types@U?$pair@$$CB_KUBucket@@@std@@@std@@@std@@@2@XZ DD imagerel $LN3
	DD	imagerel $LN3+67
	DD	imagerel $unwind$?_Unchecked_end@?$_Hash@V?$_Umap_traits@_KUBucket@@V?$_Uhash_compare@_KU?$hash@_K@std@@U?$equal_to@_K@2@@std@@V?$allocator@U?$pair@$$CB_KUBucket@@@std@@@3@$0A@@std@@@std@@QEAA?AV?$_List_unchecked_iterator@V?$_List_val@U?$_List_simple_types@U?$pair@$$CB_KUBucket@@@std@@@std@@@std@@@2@XZ
pdata	ENDS
;	COMDAT pdata
pdata	SEGMENT
$pdata$?bucket_count@?$_Hash@V?$_Umap_traits@_KUBucket@@V?$_Uhash_compare@_KU?$hash@_K@std@@U?$equal_to@_K@2@@std@@V?$allocator@U?$pair@$$CB_KUBucket@@@std@@@3@$0A@@std@@@std@@QEBA_KXZ DD imagerel $LN3
	DD	imagerel $LN3+41
	DD	imagerel $unwind$?bucket_count@?$_Hash@V?$_Umap_traits@_KUBucket@@V?$_Uhash_compare@_KU?$hash@_K@std@@U?$equal_to@_K@2@@std@@V?$allocator@U?$pair@$$CB_KUBucket@@@std@@@3@$0A@@std@@@std@@QEBA_KXZ
pdata	ENDS
;	COMDAT pdata
pdata	SEGMENT
$pdata$?bucket@?$_Hash@V?$_Umap_traits@_KUBucket@@V?$_Uhash_compare@_KU?$hash@_K@std@@U?$equal_to@_K@2@@std@@V?$allocator@U?$pair@$$CB_KUBucket@@@std@@@3@$0A@@std@@@std@@QEBA_KAEB_K@Z DD imagerel $LN3
	DD	imagerel $LN3+67
	DD	imagerel $unwind$?bucket@?$_Hash@V?$_Umap_traits@_KUBucket@@V?$_Uhash_compare@_KU?$hash@_K@std@@U?$equal_to@_K@2@@std@@V?$allocator@U?$pair@$$CB_KUBucket@@@std@@@3@$0A@@std@@@std@@QEBA_KAEB_K@Z
pdata	ENDS
;	COMDAT pdata
pdata	SEGMENT
$pdata$?max_load_factor@?$_Hash@V?$_Umap_traits@_KUBucket@@V?$_Uhash_compare@_KU?$hash@_K@std@@U?$equal_to@_K@2@@std@@V?$allocator@U?$pair@$$CB_KUBucket@@@std@@@3@$0A@@std@@@std@@QEBAMXZ DD imagerel $LN3
	DD	imagerel $LN3+46
	DD	imagerel $unwind$?max_load_factor@?$_Hash@V?$_Umap_traits@_KUBucket@@V?$_Uhash_compare@_KU?$hash@_K@std@@U?$equal_to@_K@2@@std@@V?$allocator@U?$pair@$$CB_KUBucket@@@std@@@3@$0A@@std@@@std@@QEBAMXZ
pdata	ENDS
;	COMDAT pdata
pdata	SEGMENT
$pdata$?_Unchecked_erase@?$_Hash@V?$_Umap_traits@_KUBucket@@V?$_Uhash_compare@_KU?$hash@_K@std@@U?$equal_to@_K@2@@std@@V?$allocator@U?$pair@$$CB_KUBucket@@@std@@@3@$0A@@std@@@std@@AEAAPEAU?$_List_node@U?$pair@$$CB_KUBucket@@@std@@PEAX@2@PEAU32@QEAU32@@Z DD imagerel $LN25
	DD	imagerel $LN25+721
	DD	imagerel $unwind$?_Unchecked_erase@?$_Hash@V?$_Umap_traits@_KUBucket@@V?$_Uhash_compare@_KU?$hash@_K@std@@U?$equal_to@_K@2@@std@@V?$allocator@U?$pair@$$CB_KUBucket@@@std@@@3@$0A@@std@@@std@@AEAAPEAU?$_List_node@U?$pair@$$CB_KUBucket@@@std@@PEAX@2@PEAU32@QEAU32@@Z
pdata	ENDS
;	COMDAT pdata
pdata	SEGMENT
$pdata$?clear@?$_Hash@V?$_Umap_traits@_KUBucket@@V?$_Uhash_compare@_KU?$hash@_K@std@@U?$equal_to@_K@2@@std@@V?$allocator@U?$pair@$$CB_KUBucket@@@std@@@3@$0A@@std@@@std@@QEAAXXZ DD imagerel $LN5
	DD	imagerel $LN5+218
	DD	imagerel $unwind$?clear@?$_Hash@V?$_Umap_traits@_KUBucket@@V?$_Uhash_compare@_KU?$hash@_K@std@@U?$equal_to@_K@2@@std@@V?$allocator@U?$pair@$$CB_KUBucket@@@std@@@3@$0A@@std@@@std@@QEAAXXZ
pdata	ENDS
;	COMDAT pdata
pdata	SEGMENT
$pdata$?_Insert_new_node_before@?$_Hash@V?$_Umap_traits@_KUBucket@@V?$_Uhash_compare@_KU?$hash@_K@std@@U?$equal_to@_K@2@@std@@V?$allocator@U?$pair@$$CB_KUBucket@@@std@@@3@$0A@@std@@@std@@IEAAPEAU?$_List_node@U?$pair@$$CB_KUBucket@@@std@@PEAX@2@_KQEAU32@1@Z DD imagerel $LN8
	DD	imagerel $LN8+374
	DD	imagerel $unwind$?_Insert_new_node_before@?$_Hash@V?$_Umap_traits@_KUBucket@@V?$_Uhash_compare@_KU?$hash@_K@std@@U?$equal_to@_K@2@@std@@V?$allocator@U?$pair@$$CB_KUBucket@@@std@@@3@$0A@@std@@@std@@IEAAPEAU?$_List_node@U?$pair@$$CB_KUBucket@@@std@@PEAX@2@_KQEAU32@1@Z
pdata	ENDS
;	COMDAT pdata
pdata	SEGMENT
$pdata$?_Check_max_size@?$_Hash@V?$_Umap_traits@_KUBucket@@V?$_Uhash_compare@_KU?$hash@_K@std@@U?$equal_to@_K@2@@std@@V?$allocator@U?$pair@$$CB_KUBucket@@@std@@@3@$0A@@std@@@std@@IEBAXXZ DD imagerel $LN4
	DD	imagerel $LN4+79
	DD	imagerel $unwind$?_Check_max_size@?$_Hash@V?$_Umap_traits@_KUBucket@@V?$_Uhash_compare@_KU?$hash@_K@std@@U?$equal_to@_K@2@@std@@V?$allocator@U?$pair@$$CB_KUBucket@@@std@@@3@$0A@@std@@@std@@IEBAXXZ
pdata	ENDS
;	COMDAT pdata
pdata	SEGMENT
$pdata$?_Check_rehash_required_1@?$_Hash@V?$_Umap_traits@_KUBucket@@V?$_Uhash_compare@_KU?$hash@_K@std@@U?$equal_to@_K@2@@std@@V?$allocator@U?$pair@$$CB_KUBucket@@@std@@@3@$0A@@std@@@std@@IEBA_NXZ DD imagerel $LN9
	DD	imagerel $LN9+212
	DD	imagerel $unwind$?_Check_rehash_required_1@?$_Hash@V?$_Umap_traits@_KUBucket@@V?$_Uhash_compare@_KU?$hash@_K@std@@U?$equal_to@_K@2@@std@@V?$allocator@U?$pair@$$CB_KUBucket@@@std@@@3@$0A@@std@@@std@@IEBA_NXZ
pdata	ENDS
;	COMDAT pdata
pdata	SEGMENT
$pdata$?_Rehash_for_1@?$_Hash@V?$_Umap_traits@_KUBucket@@V?$_Uhash_compare@_KU?$hash@_K@std@@U?$equal_to@_K@2@@std@@V?$allocator@U?$pair@$$CB_KUBucket@@@std@@@3@$0A@@std@@@std@@IEAAXXZ DD imagerel $LN3
	DD	imagerel $LN3+81
	DD	imagerel $unwind$?_Rehash_for_1@?$_Hash@V?$_Umap_traits@_KUBucket@@V?$_Uhash_compare@_KU?$hash@_K@std@@U?$equal_to@_K@2@@std@@V?$allocator@U?$pair@$$CB_KUBucket@@@std@@@3@$0A@@std@@@std@@IEAAXXZ
pdata	ENDS
;	COMDAT pdata
pdata	SEGMENT
$pdata$?_Min_load_factor_buckets@?$_Hash@V?$_Umap_traits@_KUBucket@@V?$_Uhash_compare@_KU?$hash@_K@std@@U?$equal_to@_K@2@@std@@V?$allocator@U?$pair@$$CB_KUBucket@@@std@@@3@$0A@@std@@@std@@IEBA_K_K@Z DD imagerel $LN6
	DD	imagerel $LN6+168
	DD	imagerel $unwind$?_Min_load_factor_buckets@?$_Hash@V?$_Umap_traits@_KUBucket@@V?$_Uhash_compare@_KU?$hash@_K@std@@U?$equal_to@_K@2@@std@@V?$allocator@U?$pair@$$CB_KUBucket@@@std@@@3@$0A@@std@@@std@@IEBA_K_K@Z
pdata	ENDS
;	COMDAT pdata
pdata	SEGMENT
$pdata$?_Desired_grow_bucket_count@?$_Hash@V?$_Umap_traits@_KUBucket@@V?$_Uhash_compare@_KU?$hash@_K@std@@U?$equal_to@_K@2@@std@@V?$allocator@U?$pair@$$CB_KUBucket@@@std@@@3@$0A@@std@@@std@@IEBA_K_K@Z DD imagerel $LN5
	DD	imagerel $LN5+148
	DD	imagerel $unwind$?_Desired_grow_bucket_count@?$_Hash@V?$_Umap_traits@_KUBucket@@V?$_Uhash_compare@_KU?$hash@_K@std@@U?$equal_to@_K@2@@std@@V?$allocator@U?$pair@$$CB_KUBucket@@@std@@@3@$0A@@std@@@std@@IEBA_K_K@Z
pdata	ENDS
;	COMDAT pdata
pdata	SEGMENT
$pdata$?_Forced_rehash@?$_Hash@V?$_Umap_traits@_KUBucket@@V?$_Uhash_compare@_KU?$hash@_K@std@@U?$equal_to@_K@2@@std@@V?$allocator@U?$pair@$$CB_KUBucket@@@std@@@3@$0A@@std@@@std@@IEAAX_K@Z DD imagerel $LN16
	DD	imagerel $LN16+804
	DD	imagerel $unwind$?_Forced_rehash@?$_Hash@V?$_Umap_traits@_KUBucket@@V?$_Uhash_compare@_KU?$hash@_K@std@@U?$equal_to@_K@2@@std@@V?$allocator@U?$pair@$$CB_KUBucket@@@std@@@3@$0A@@std@@@std@@IEAAX_K@Z
pdata	ENDS
;	COMDAT pdata
pdata	SEGMENT
$pdata$?_Max_bucket_size@?$_Hash@V?$_Umap_traits@_KUBucket@@V?$_Uhash_compare@_KU?$hash@_K@std@@U?$equal_to@_K@2@@std@@V?$allocator@U?$pair@$$CB_KUBucket@@@std@@@3@$0A@@std@@@std@@IEAAAEAMXZ DD imagerel $LN3
	DD	imagerel $LN3+45
	DD	imagerel $unwind$?_Max_bucket_size@?$_Hash@V?$_Umap_traits@_KUBucket@@V?$_Uhash_compare@_KU?$hash@_K@std@@U?$equal_to@_K@2@@std@@V?$allocator@U?$pair@$$CB_KUBucket@@@std@@@3@$0A@@std@@@std@@IEAAAEAMXZ
pdata	ENDS
;	COMDAT pdata
pdata	SEGMENT
$pdata$?_Max_bucket_size@?$_Hash@V?$_Umap_traits@_KUBucket@@V?$_Uhash_compare@_KU?$hash@_K@std@@U?$equal_to@_K@2@@std@@V?$allocator@U?$pair@$$CB_KUBucket@@@std@@@3@$0A@@std@@@std@@IEBAAEBMXZ DD imagerel $LN3
	DD	imagerel $LN3+45
	DD	imagerel $unwind$?_Max_bucket_size@?$_Hash@V?$_Umap_traits@_KUBucket@@V?$_Uhash_compare@_KU?$hash@_K@std@@U?$equal_to@_K@2@@std@@V?$allocator@U?$pair@$$CB_KUBucket@@@std@@@3@$0A@@std@@@std@@IEBAAEBMXZ
pdata	ENDS
;	COMDAT pdata
pdata	SEGMENT
$pdata$?deallocate@?$allocator@V?$_List_unchecked_iterator@V?$_List_val@U?$_List_simple_types@U?$pair@$$CB_KUBucket@@@std@@@std@@@std@@@std@@@std@@QEAAXQEAV?$_List_unchecked_iterator@V?$_List_val@U?$_List_simple_types@U?$pair@$$CB_KUBucket@@@std@@@std@@@std@@@2@_K@Z DD imagerel $LN13
	DD	imagerel $LN13+196
	DD	imagerel $unwind$?deallocate@?$allocator@V?$_List_unchecked_iterator@V?$_List_val@U?$_List_simple_types@U?$pair@$$CB_KUBucket@@@std@@@std@@@std@@@std@@@std@@QEAAXQEAV?$_List_unchecked_iterator@V?$_List_val@U?$_List_simple_types@U?$pair@$$CB_KUBucket@@@std@@@std@@@std@@@2@_K@Z
pdata	ENDS
;	COMDAT pdata
pdata	SEGMENT
$pdata$?allocate@?$allocator@V?$_List_unchecked_iterator@V?$_List_val@U?$_List_simple_types@U?$pair@$$CB_KUBucket@@@std@@@std@@@std@@@std@@@std@@QEAAPEAV?$_List_unchecked_iterator@V?$_List_val@U?$_List_simple_types@U?$pair@$$CB_KUBucket@@@std@@@std@@@std@@@2@_K@Z DD imagerel $LN3
	DD	imagerel $LN3+55
	DD	imagerel $unwind$?allocate@?$allocator@V?$_List_unchecked_iterator@V?$_List_val@U?$_List_simple_types@U?$pair@$$CB_KUBucket@@@std@@@std@@@std@@@std@@@std@@QEAAPEAV?$_List_unchecked_iterator@V?$_List_val@U?$_List_simple_types@U?$pair@$$CB_KUBucket@@@std@@@std@@@std@@@2@_K@Z
pdata	ENDS
;	COMDAT pdata
pdata	SEGMENT
$pdata$?max_size@?$_Default_allocator_traits@V?$allocator@V?$_List_unchecked_iterator@V?$_List_val@U?$_List_simple_types@U?$pair@$$CB_KUBucket@@@std@@@std@@@std@@@std@@@std@@@std@@SA_KAEBV?$allocator@V?$_List_unchecked_iterator@V?$_List_val@U?$_List_simple_types@U?$pair@$$CB_KUBucket@@@std@@@std@@@std@@@std@@@2@@Z DD imagerel $LN3
	DD	imagerel $LN3+43
	DD	imagerel $unwind$?max_size@?$_Default_allocator_traits@V?$allocator@V?$_List_unchecked_iterator@V?$_List_val@U?$_List_simple_types@U?$pair@$$CB_KUBucket@@@std@@@std@@@std@@@std@@@std@@@std@@SA_KAEBV?$allocator@V?$_List_unchecked_iterator@V?$_List_val@U?$_List_simple_types@U?$pair@$$CB_KUBucket@@@std@@@std@@@std@@@std@@@2@@Z
pdata	ENDS
;	COMDAT pdata
pdata	SEGMENT
$pdata$?size@?$_Hash_vec@V?$allocator@V?$_List_unchecked_iterator@V?$_List_val@U?$_List_simple_types@U?$pair@$$CB_KUBucket@@@std@@@std@@@std@@@std@@@std@@@std@@QEBA_KXZ DD imagerel $LN3
	DD	imagerel $LN3+56
	DD	imagerel $unwind$?size@?$_Hash_vec@V?$allocator@V?$_List_unchecked_iterator@V?$_List_val@U?$_List_simple_types@U?$pair@$$CB_KUBucket@@@std@@@std@@@std@@@std@@@std@@@std@@QEBA_KXZ
pdata	ENDS
;	COMDAT pdata
pdata	SEGMENT
$pdata$?max_size@?$_Hash_vec@V?$allocator@V?$_List_unchecked_iterator@V?$_List_val@U?$_List_simple_types@U?$pair@$$CB_KUBucket@@@std@@@std@@@std@@@std@@@std@@@std@@QEBA_KXZ DD imagerel $LN3
	DD	imagerel $LN3+82
	DD	imagerel $unwind$?max_size@?$_Hash_vec@V?$allocator@V?$_List_unchecked_iterator@V?$_List_val@U?$_List_simple_types@U?$pair@$$CB_KUBucket@@@std@@@std@@@std@@@std@@@std@@@std@@QEBA_KXZ
pdata	ENDS
;	COMDAT pdata
pdata	SEGMENT
$pdata$?capacity@?$_Hash_vec@V?$allocator@V?$_List_unchecked_iterator@V?$_List_val@U?$_List_simple_types@U?$pair@$$CB_KUBucket@@@std@@@std@@@std@@@std@@@std@@@std@@QEBA_KXZ DD imagerel $LN3
	DD	imagerel $LN3+56
	DD	imagerel $unwind$?capacity@?$_Hash_vec@V?$allocator@V?$_List_unchecked_iterator@V?$_List_val@U?$_List_simple_types@U?$pair@$$CB_KUBucket@@@std@@@std@@@std@@@std@@@std@@@std@@QEBA_KXZ
pdata	ENDS
;	COMDAT pdata
pdata	SEGMENT
$pdata$?_Assign_grow@?$_Hash_vec@V?$allocator@V?$_List_unchecked_iterator@V?$_List_val@U?$_List_simple_types@U?$pair@$$CB_KUBucket@@@std@@@std@@@std@@@std@@@std@@@std@@QEAAX_KV?$_List_unchecked_iterator@V?$_List_val@U?$_List_simple_types@U?$pair@$$CB_KUBucket@@@std@@@std@@@std@@@2@@Z DD imagerel $LN6
	DD	imagerel $LN6+312
	DD	imagerel $unwind$?_Assign_grow@?$_Hash_vec@V?$allocator@V?$_List_unchecked_iterator@V?$_List_val@U?$_List_simple_types@U?$pair@$$CB_KUBucket@@@std@@@std@@@std@@@std@@@std@@@std@@QEAAX_KV?$_List_unchecked_iterator@V?$_List_val@U?$_List_simple_types@U?$pair@$$CB_KUBucket@@@std@@@std@@@std@@@2@@Z
pdata	ENDS
;	COMDAT pdata
pdata	SEGMENT
$pdata$?_Tidy@?$_Hash_vec@V?$allocator@V?$_List_unchecked_iterator@V?$_List_val@U?$_List_simple_types@U?$pair@$$CB_KUBucket@@@std@@@std@@@std@@@std@@@std@@@std@@QEAAXXZ DD imagerel $LN4
	DD	imagerel $LN4+162
	DD	imagerel $unwind$?_Tidy@?$_Hash_vec@V?$allocator@V?$_List_unchecked_iterator@V?$_List_val@U?$_List_simple_types@U?$pair@$$CB_KUBucket@@@std@@@std@@@std@@@std@@@std@@@std@@QEAAXXZ
pdata	ENDS
;	COMDAT pdata
pdata	SEGMENT
$pdata$??1?$_Hash_vec@V?$allocator@V?$_List_unchecked_iterator@V?$_List_val@U?$_List_simple_types@U?$pair@$$CB_KUBucket@@@std@@@std@@@std@@@std@@@std@@@std@@QEAA@XZ DD imagerel $LN3
	DD	imagerel $LN3+113
	DD	imagerel $unwind$??1?$_Hash_vec@V?$allocator@V?$_List_unchecked_iterator@V?$_List_val@U?$_List_simple_types@U?$pair@$$CB_KUBucket@@@std@@@std@@@std@@@std@@@std@@@std@@QEAA@XZ
pdata	ENDS
;	COMDAT pdata
pdata	SEGMENT
$pdata$??0?$_Vector_val@U?$_Simple_types@V?$_List_unchecked_iterator@V?$_List_val@U?$_List_simple_types@U?$pair@$$CB_KUBucket@@@std@@@std@@@std@@@std@@@std@@@std@@QEAA@XZ DD imagerel $LN3
	DD	imagerel $LN3+82
	DD	imagerel $unwind$??0?$_Vector_val@U?$_Simple_types@V?$_List_unchecked_iterator@V?$_List_val@U?$_List_simple_types@U?$pair@$$CB_KUBucket@@@std@@@std@@@std@@@std@@@std@@@std@@QEAA@XZ
pdata	ENDS
;	COMDAT pdata
pdata	SEGMENT
$pdata$?_Get_first@?$_Compressed_pair@V?$allocator@V?$_List_unchecked_iterator@V?$_List_val@U?$_List_simple_types@U?$pair@$$CB_KUBucket@@@std@@@std@@@std@@@std@@@std@@V?$_Vector_val@U?$_Simple_types@V?$_List_unchecked_iterator@V?$_List_val@U?$_List_simple_types@U?$pair@$$CB_KUBucket@@@std@@@std@@@std@@@std@@@std@@@2@$00@std@@QEAAAEAV?$allocator@V?$_List_unchecked_iterator@V?$_List_val@U?$_List_simple_types@U?$pair@$$CB_KUBucket@@@std@@@std@@@std@@@std@@@2@XZ DD imagerel $LN3
	DD	imagerel $LN3+37
	DD	imagerel $unwind$?_Get_first@?$_Compressed_pair@V?$allocator@V?$_List_unchecked_iterator@V?$_List_val@U?$_List_simple_types@U?$pair@$$CB_KUBucket@@@std@@@std@@@std@@@std@@@std@@V?$_Vector_val@U?$_Simple_types@V?$_List_unchecked_iterator@V?$_List_val@U?$_List_simple_types@U?$pair@$$CB_KUBucket@@@std@@@std@@@std@@@std@@@std@@@2@$00@std@@QEAAAEAV?$allocator@V?$_List_unchecked_iterator@V?$_List_val@U?$_List_simple_types@U?$pair@$$CB_KUBucket@@@std@@@std@@@std@@@std@@@2@XZ
pdata	ENDS
;	COMDAT pdata
pdata	SEGMENT
$pdata$?_Get_first@?$_Compressed_pair@V?$allocator@V?$_List_unchecked_iterator@V?$_List_val@U?$_List_simple_types@U?$pair@$$CB_KUBucket@@@std@@@std@@@std@@@std@@@std@@V?$_Vector_val@U?$_Simple_types@V?$_List_unchecked_iterator@V?$_List_val@U?$_List_simple_types@U?$pair@$$CB_KUBucket@@@std@@@std@@@std@@@std@@@std@@@2@$00@std@@QEBAAEBV?$allocator@V?$_List_unchecked_iterator@V?$_List_val@U?$_List_simple_types@U?$pair@$$CB_KUBucket@@@std@@@std@@@std@@@std@@@2@XZ DD imagerel $LN3
	DD	imagerel $LN3+37
	DD	imagerel $unwind$?_Get_first@?$_Compressed_pair@V?$allocator@V?$_List_unchecked_iterator@V?$_List_val@U?$_List_simple_types@U?$pair@$$CB_KUBucket@@@std@@@std@@@std@@@std@@@std@@V?$_Vector_val@U?$_Simple_types@V?$_List_unchecked_iterator@V?$_List_val@U?$_List_simple_types@U?$pair@$$CB_KUBucket@@@std@@@std@@@std@@@std@@@std@@@2@$00@std@@QEBAAEBV?$allocator@V?$_List_unchecked_iterator@V?$_List_val@U?$_List_simple_types@U?$pair@$$CB_KUBucket@@@std@@@std@@@std@@@std@@@2@XZ
pdata	ENDS
;	COMDAT pdata
pdata	SEGMENT
$pdata$??1?$_Hash@V?$_Umap_traits@_KUBucket@@V?$_Uhash_compare@_KU?$hash@_K@std@@U?$equal_to@_K@2@@std@@V?$allocator@U?$pair@$$CB_KUBucket@@@std@@@3@$0A@@std@@@std@@QEAA@XZ DD imagerel $LN3
	DD	imagerel $LN3+53
	DD	imagerel $unwind$??1?$_Hash@V?$_Umap_traits@_KUBucket@@V?$_Uhash_compare@_KU?$hash@_K@std@@U?$equal_to@_K@2@@std@@V?$allocator@U?$pair@$$CB_KUBucket@@@std@@@3@$0A@@std@@@std@@QEAA@XZ
pdata	ENDS
;	COMDAT pdata
pdata	SEGMENT
$pdata$??0?$unordered_map@_KUBucket@@U?$hash@_K@std@@U?$equal_to@_K@3@V?$allocator@U?$pair@$$CB_KUBucket@@@std@@@3@@std@@QEAA@XZ DD imagerel $LN4
	DD	imagerel $LN4+83
	DD	imagerel $unwind$??0?$unordered_map@_KUBucket@@U?$hash@_K@std@@U?$equal_to@_K@3@V?$allocator@U?$pair@$$CB_KUBucket@@@std@@@3@@std@@QEAA@XZ
pdata	ENDS
;	COMDAT pdata
pdata	SEGMENT
$pdata$??1?$unordered_map@_KUBucket@@U?$hash@_K@std@@U?$equal_to@_K@3@V?$allocator@U?$pair@$$CB_KUBucket@@@std@@@3@@std@@QEAA@XZ DD imagerel $LN3
	DD	imagerel $LN3+30
	DD	imagerel $unwind$??1?$unordered_map@_KUBucket@@U?$hash@_K@std@@U?$equal_to@_K@3@V?$allocator@U?$pair@$$CB_KUBucket@@@std@@@3@@std@@QEAA@XZ
pdata	ENDS
;	COMDAT pdata
pdata	SEGMENT
$pdata$??0?$allocator@_K@std@@QEAA@XZ DD imagerel $LN3
	DD	imagerel $LN3+37
	DD	imagerel $unwind$??0?$allocator@_K@std@@QEAA@XZ
pdata	ENDS
;	COMDAT pdata
pdata	SEGMENT
$pdata$??0?$_Uset_traits@_KV?$_Uhash_compare@_KU?$hash@_K@std@@U?$equal_to@_K@2@@std@@V?$allocator@_K@2@$0A@@std@@QEAA@AEBV?$_Uhash_compare@_KU?$hash@_K@std@@U?$equal_to@_K@2@@1@@Z DD imagerel $LN3
	DD	imagerel $LN3+54
	DD	imagerel $unwind$??0?$_Uset_traits@_KV?$_Uhash_compare@_KU?$hash@_K@std@@U?$equal_to@_K@2@@std@@V?$allocator@_K@2@$0A@@std@@QEAA@AEBV?$_Uhash_compare@_KU?$hash@_K@std@@U?$equal_to@_K@2@@1@@Z
pdata	ENDS
;	COMDAT pdata
pdata	SEGMENT
$pdata$?_Kfn@?$_Uset_traits@_KV?$_Uhash_compare@_KU?$hash@_K@std@@U?$equal_to@_K@2@@std@@V?$allocator@_K@2@$0A@@std@@SAAEB_KAEB_K@Z DD imagerel $LN3
	DD	imagerel $LN3+37
	DD	imagerel $unwind$?_Kfn@?$_Uset_traits@_KV?$_Uhash_compare@_KU?$hash@_K@std@@U?$equal_to@_K@2@@std@@V?$allocator@_K@2@$0A@@std@@SAAEB_KAEB_K@Z
pdata	ENDS
;	COMDAT pdata
pdata	SEGMENT
$pdata$?deallocate@?$allocator@U?$_List_node@_KPEAX@std@@@std@@QEAAXQEAU?$_List_node@_KPEAX@2@_K@Z DD imagerel $LN13
	DD	imagerel $LN13+193
	DD	imagerel $unwind$?deallocate@?$allocator@U?$_List_node@_KPEAX@std@@@std@@QEAAXQEAU?$_List_node@_KPEAX@2@_K@Z
pdata	ENDS
;	COMDAT pdata
pdata	SEGMENT
$pdata$?allocate@?$allocator@U?$_List_node@_KPEAX@std@@@std@@QEAAPEAU?$_List_node@_KPEAX@2@_K@Z DD imagerel $LN3
	DD	imagerel $LN3+55
	DD	imagerel $unwind$?allocate@?$allocator@U?$_List_node@_KPEAX@std@@@std@@QEAAPEAU?$_List_node@_KPEAX@2@_K@Z
pdata	ENDS
;	COMDAT pdata
pdata	SEGMENT
$pdata$?deallocate@?$_Default_allocator_traits@V?$allocator@U?$_List_node@_KPEAX@std@@@std@@@std@@SAXAEAV?$allocator@U?$_List_node@_KPEAX@std@@@2@QEAU?$_List_node@_KPEAX@2@_K@Z DD imagerel $LN5
	DD	imagerel $LN5+91
	DD	imagerel $unwind$?deallocate@?$_Default_allocator_traits@V?$allocator@U?$_List_node@_KPEAX@std@@@std@@@std@@SAXAEAV?$allocator@U?$_List_node@_KPEAX@std@@@2@QEAU?$_List_node@_KPEAX@2@_K@Z
pdata	ENDS
;	COMDAT pdata
pdata	SEGMENT
$pdata$?max_size@?$_Default_allocator_traits@V?$allocator@U?$_List_node@_KPEAX@std@@@std@@@std@@SA_KAEBV?$allocator@U?$_List_node@_KPEAX@std@@@2@@Z DD imagerel $LN3
	DD	imagerel $LN3+43
	DD	imagerel $unwind$?max_size@?$_Default_allocator_traits@V?$allocator@U?$_List_node@_KPEAX@std@@@std@@@std@@SA_KAEBV?$allocator@U?$_List_node@_KPEAX@std@@@2@@Z
pdata	ENDS
;	COMDAT pdata
pdata	SEGMENT
$pdata$??0?$list@_KV?$allocator@_K@std@@@std@@QEAA@AEBV?$allocator@_K@1@@Z DD imagerel $LN3
	DD	imagerel $LN3+76
	DD	imagerel $unwind$??0?$list@_KV?$allocator@_K@std@@@std@@QEAA@AEBV?$allocator@_K@1@@Z
pdata	ENDS
;	COMDAT pdata
pdata	SEGMENT
$pdata$??1?$list@_KV?$allocator@_K@std@@@std@@QEAA@XZ DD imagerel $LN3
	DD	imagerel $LN3+87
	DD	imagerel $unwind$??1?$list@_KV?$allocator@_K@std@@@std@@QEAA@XZ
pdata	ENDS
;	COMDAT pdata
pdata	SEGMENT
$pdata$?begin@?$list@_KV?$allocator@_K@std@@@std@@QEAA?AV?$_List_iterator@V?$_List_val@U?$_List_simple_types@_K@std@@@std@@@2@XZ DD imagerel $LN3
	DD	imagerel $LN3+90
	DD	imagerel $unwind$?begin@?$list@_KV?$allocator@_K@std@@@std@@QEAA?AV?$_List_iterator@V?$_List_val@U?$_List_simple_types@_K@std@@@std@@@2@XZ
pdata	ENDS
;	COMDAT pdata
pdata	SEGMENT
$pdata$?end@?$list@_KV?$allocator@_K@std@@@std@@QEAA?AV?$_List_iterator@V?$_List_val@U?$_List_simple_types@_K@std@@@std@@@2@XZ DD imagerel $LN3
	DD	imagerel $LN3+87
	DD	imagerel $unwind$?end@?$list@_KV?$allocator@_K@std@@@std@@QEAA?AV?$_List_iterator@V?$_List_val@U?$_List_simple_types@_K@std@@@std@@@2@XZ
pdata	ENDS
;	COMDAT pdata
pdata	SEGMENT
$pdata$?_Unchecked_begin@?$list@_KV?$allocator@_K@std@@@std@@QEAA?AV?$_List_unchecked_iterator@V?$_List_val@U?$_List_simple_types@_K@std@@@std@@@2@XZ DD imagerel $LN3
	DD	imagerel $LN3+65
	DD	imagerel $unwind$?_Unchecked_begin@?$list@_KV?$allocator@_K@std@@@std@@QEAA?AV?$_List_unchecked_iterator@V?$_List_val@U?$_List_simple_types@_K@std@@@std@@@2@XZ
pdata	ENDS
;	COMDAT pdata
pdata	SEGMENT
$pdata$?_Unchecked_end@?$list@_KV?$allocator@_K@std@@@std@@QEAA?AV?$_List_unchecked_iterator@V?$_List_val@U?$_List_simple_types@_K@std@@@std@@@2@XZ DD imagerel $LN3
	DD	imagerel $LN3+62
	DD	imagerel $unwind$?_Unchecked_end@?$list@_KV?$allocator@_K@std@@@std@@QEAA?AV?$_List_unchecked_iterator@V?$_List_val@U?$_List_simple_types@_K@std@@@std@@@2@XZ
pdata	ENDS
;	COMDAT pdata
pdata	SEGMENT
$pdata$?_Make_iter@?$list@_KV?$allocator@_K@std@@@std@@QEBA?AV?$_List_iterator@V?$_List_val@U?$_List_simple_types@_K@std@@@std@@@2@PEAU?$_List_node@_KPEAX@2@@Z DD imagerel $LN3
	DD	imagerel $LN3+75
	DD	imagerel $unwind$?_Make_iter@?$list@_KV?$allocator@_K@std@@@std@@QEBA?AV?$_List_iterator@V?$_List_val@U?$_List_simple_types@_K@std@@@std@@@2@PEAU?$_List_node@_KPEAX@2@@Z
pdata	ENDS
;	COMDAT pdata
pdata	SEGMENT
$pdata$?max_size@?$list@_KV?$allocator@_K@std@@@std@@QEBA_KXZ DD imagerel $LN3
	DD	imagerel $LN3+79
	DD	imagerel $unwind$?max_size@?$list@_KV?$allocator@_K@std@@@std@@QEBA_KXZ
pdata	ENDS
;	COMDAT pdata
pdata	SEGMENT
$pdata$?_Unchecked_erase@?$list@_KV?$allocator@_K@std@@@std@@AEAAPEAU?$_List_node@_KPEAX@2@QEAU32@@Z DD imagerel $LN3
	DD	imagerel $LN3+145
	DD	imagerel $unwind$?_Unchecked_erase@?$list@_KV?$allocator@_K@std@@@std@@AEAAPEAU?$_List_node@_KPEAX@2@QEAU32@@Z
pdata	ENDS
;	COMDAT pdata
pdata	SEGMENT
$pdata$?_Unchecked_erase@?$list@_KV?$allocator@_K@std@@@std@@AEAAPEAU?$_List_node@_KPEAX@2@PEAU32@QEAU32@@Z DD imagerel $LN16
	DD	imagerel $LN16+490
	DD	imagerel $unwind$?_Unchecked_erase@?$list@_KV?$allocator@_K@std@@@std@@AEAAPEAU?$_List_node@_KPEAX@2@PEAU32@QEAU32@@Z
pdata	ENDS
;	COMDAT pdata
pdata	SEGMENT
$pdata$?clear@?$list@_KV?$allocator@_K@std@@@std@@QEAAXXZ DD imagerel $LN3
	DD	imagerel $LN3+142
	DD	imagerel $unwind$?clear@?$list@_KV?$allocator@_K@std@@@std@@QEAAXXZ
pdata	ENDS
;	COMDAT pdata
pdata	SEGMENT
$pdata$?_Tidy@?$list@_KV?$allocator@_K@std@@@std@@AEAAXXZ DD imagerel $LN3
	DD	imagerel $LN3+97
	DD	imagerel $unwind$?_Tidy@?$list@_KV?$allocator@_K@std@@@std@@AEAAXXZ
pdata	ENDS
;	COMDAT pdata
pdata	SEGMENT
$pdata$?_Alloc_sentinel_and_proxy@?$list@_KV?$allocator@_K@std@@@std@@AEAAXXZ DD imagerel $LN4
	DD	imagerel $LN4+196
	DD	imagerel $unwind$?_Alloc_sentinel_and_proxy@?$list@_KV?$allocator@_K@std@@@std@@AEAAXXZ
pdata	ENDS
;	COMDAT pdata
pdata	SEGMENT
$pdata$?dtor$0@?0??_Alloc_sentinel_and_proxy@?$list@_KV?$allocator@_K@std@@@std@@AEAAXXZ@4HA DD imagerel ?dtor$0@?0??_Alloc_sentinel_and_proxy@?$list@_KV?$allocator@_K@std@@@std@@AEAAXXZ@4HA
	DD	imagerel ?dtor$0@?0??_Alloc_sentinel_and_proxy@?$list@_KV?$allocator@_K@std@@@std@@AEAAXXZ@4HA+25
	DD	imagerel $unwind$?dtor$0@?0??_Alloc_sentinel_and_proxy@?$list@_KV?$allocator@_K@std@@@std@@AEAAXXZ@4HA
pdata	ENDS
;	COMDAT pdata
pdata	SEGMENT
$pdata$?_Getal@?$list@_KV?$allocator@_K@std@@@std@@AEAAAEAV?$allocator@U?$_List_node@_KPEAX@std@@@2@XZ DD imagerel $LN3
	DD	imagerel $LN3+45
	DD	imagerel $unwind$?_Getal@?$list@_KV?$allocator@_K@std@@@std@@AEAAAEAV?$allocator@U?$_List_node@_KPEAX@std@@@2@XZ
pdata	ENDS
;	COMDAT pdata
pdata	SEGMENT
$pdata$?_Getal@?$list@_KV?$allocator@_K@std@@@std@@AEBAAEBV?$allocator@U?$_List_node@_KPEAX@std@@@2@XZ DD imagerel $LN3
	DD	imagerel $LN3+45
	DD	imagerel $unwind$?_Getal@?$list@_KV?$allocator@_K@std@@@std@@AEBAAEBV?$allocator@U?$_List_node@_KPEAX@std@@@2@XZ
pdata	ENDS
;	COMDAT pdata
pdata	SEGMENT
$pdata$??0?$_List_val@U?$_List_simple_types@_K@std@@@std@@QEAA@XZ DD imagerel $LN3
	DD	imagerel $LN3+70
	DD	imagerel $unwind$??0?$_List_val@U?$_List_simple_types@_K@std@@@std@@QEAA@XZ
pdata	ENDS
;	COMDAT pdata
pdata	SEGMENT
$pdata$?_Orphan_ptr2@?$_List_val@U?$_List_simple_types@_K@std@@@std@@QEAAXPEAU?$_List_node@_KPEAX@2@@Z DD imagerel $LN8
	DD	imagerel $LN8+202
	DD	imagerel $unwind$?_Orphan_ptr2@?$_List_val@U?$_List_simple_types@_K@std@@@std@@QEAAXPEAU?$_List_node@_KPEAX@2@@Z
pdata	ENDS
;	COMDAT pdata
pdata	SEGMENT
$pdata$?_Orphan_non_end@?$_List_val@U?$_List_simple_types@_K@std@@@std@@QEAAXXZ DD imagerel $LN7
	DD	imagerel $LN7+170
	DD	imagerel $unwind$?_Orphan_non_end@?$_List_val@U?$_List_simple_types@_K@std@@@std@@QEAAXXZ
pdata	ENDS
;	COMDAT pdata
pdata	SEGMENT
$pdata$?_Unchecked_splice@?$_List_val@U?$_List_simple_types@_K@std@@@std@@SAPEAU?$_List_node@_KPEAX@2@QEAU32@00@Z DD imagerel $LN3
	DD	imagerel $LN3+167
	DD	imagerel $unwind$?_Unchecked_splice@?$_List_val@U?$_List_simple_types@_K@std@@@std@@SAPEAU?$_List_node@_KPEAX@2@QEAU32@00@Z
pdata	ENDS
;	COMDAT pdata
pdata	SEGMENT
$pdata$?_Get_first@?$_Compressed_pair@V?$allocator@U?$_List_node@_KPEAX@std@@@std@@V?$_List_val@U?$_List_simple_types@_K@std@@@2@$00@std@@QEAAAEAV?$allocator@U?$_List_node@_KPEAX@std@@@2@XZ DD imagerel $LN3
	DD	imagerel $LN3+37
	DD	imagerel $unwind$?_Get_first@?$_Compressed_pair@V?$allocator@U?$_List_node@_KPEAX@std@@@std@@V?$_List_val@U?$_List_simple_types@_K@std@@@2@$00@std@@QEAAAEAV?$allocator@U?$_List_node@_KPEAX@std@@@2@XZ
pdata	ENDS
;	COMDAT pdata
pdata	SEGMENT
$pdata$?_Get_first@?$_Compressed_pair@V?$allocator@U?$_List_node@_KPEAX@std@@@std@@V?$_List_val@U?$_List_simple_types@_K@std@@@2@$00@std@@QEBAAEBV?$allocator@U?$_List_node@_KPEAX@std@@@2@XZ DD imagerel $LN3
	DD	imagerel $LN3+37
	DD	imagerel $unwind$?_Get_first@?$_Compressed_pair@V?$allocator@U?$_List_node@_KPEAX@std@@@std@@V?$_List_val@U?$_List_simple_types@_K@std@@@2@$00@std@@QEBAAEBV?$allocator@U?$_List_node@_KPEAX@std@@@2@XZ
pdata	ENDS
;	COMDAT pdata
pdata	SEGMENT
$pdata$??0?$_Hash@V?$_Uset_traits@_KV?$_Uhash_compare@_KU?$hash@_K@std@@U?$equal_to@_K@2@@std@@V?$allocator@_K@2@$0A@@std@@@std@@IEAA@AEBV?$_Uhash_compare@_KU?$hash@_K@std@@U?$equal_to@_K@2@@1@AEBV?$allocator@_K@1@@Z DD imagerel $LN5
	DD	imagerel $LN5+237
	DD	imagerel $unwind$??0?$_Hash@V?$_Uset_traits@_KV?$_Uhash_compare@_KU?$hash@_K@std@@U?$equal_to@_K@2@@std@@V?$allocator@_K@2@$0A@@std@@@std@@IEAA@AEBV?$_Uhash_compare@_KU?$hash@_K@std@@U?$equal_to@_K@2@@1@AEBV?$allocator@_K@1@@Z
pdata	ENDS
;	COMDAT pdata
pdata	SEGMENT
$pdata$?dtor$0@?0???0?$_Hash@V?$_Uset_traits@_KV?$_Uhash_compare@_KU?$hash@_K@std@@U?$equal_to@_K@2@@std@@V?$allocator@_K@2@$0A@@std@@@std@@IEAA@AEBV?$_Uhash_compare@_KU?$hash@_K@std@@U?$equal_to@_K@2@@1@AEBV?$allocator@_K@1@@Z@4HA DD imagerel ?dtor$0@?0???0?$_Hash@V?$_Uset_traits@_KV?$_Uhash_compare@_KU?$hash@_K@std@@U?$equal_to@_K@2@@std@@V?$allocator@_K@2@$0A@@std@@@std@@IEAA@AEBV?$_Uhash_compare@_KU?$hash@_K@std@@U?$equal_to@_K@2@@1@AEBV?$allocator@_K@1@@Z@4HA
	DD	imagerel ?dtor$0@?0???0?$_Hash@V?$_Uset_traits@_KV?$_Uhash_compare@_KU?$hash@_K@std@@U?$equal_to@_K@2@@std@@V?$allocator@_K@2@$0A@@std@@@std@@IEAA@AEBV?$_Uhash_compare@_KU?$hash@_K@std@@U?$equal_to@_K@2@@1@AEBV?$allocator@_K@1@@Z@4HA+29
	DD	imagerel $unwind$?dtor$0@?0???0?$_Hash@V?$_Uset_traits@_KV?$_Uhash_compare@_KU?$hash@_K@std@@U?$equal_to@_K@2@@std@@V?$allocator@_K@2@$0A@@std@@@std@@IEAA@AEBV?$_Uhash_compare@_KU?$hash@_K@std@@U?$equal_to@_K@2@@1@AEBV?$allocator@_K@1@@Z@4HA
pdata	ENDS
;	COMDAT pdata
pdata	SEGMENT
$pdata$?dtor$1@?0???0?$_Hash@V?$_Uset_traits@_KV?$_Uhash_compare@_KU?$hash@_K@std@@U?$equal_to@_K@2@@std@@V?$allocator@_K@2@$0A@@std@@@std@@IEAA@AEBV?$_Uhash_compare@_KU?$hash@_K@std@@U?$equal_to@_K@2@@1@AEBV?$allocator@_K@1@@Z@4HA DD imagerel ?dtor$1@?0???0?$_Hash@V?$_Uset_traits@_KV?$_Uhash_compare@_KU?$hash@_K@std@@U?$equal_to@_K@2@@std@@V?$allocator@_K@2@$0A@@std@@@std@@IEAA@AEBV?$_Uhash_compare@_KU?$hash@_K@std@@U?$equal_to@_K@2@@1@AEBV?$allocator@_K@1@@Z@4HA
	DD	imagerel ?dtor$1@?0???0?$_Hash@V?$_Uset_traits@_KV?$_Uhash_compare@_KU?$hash@_K@std@@U?$equal_to@_K@2@@std@@V?$allocator@_K@2@$0A@@std@@@std@@IEAA@AEBV?$_Uhash_compare@_KU?$hash@_K@std@@U?$equal_to@_K@2@@1@AEBV?$allocator@_K@1@@Z@4HA+29
	DD	imagerel $unwind$?dtor$1@?0???0?$_Hash@V?$_Uset_traits@_KV?$_Uhash_compare@_KU?$hash@_K@std@@U?$equal_to@_K@2@@std@@V?$allocator@_K@2@$0A@@std@@@std@@IEAA@AEBV?$_Uhash_compare@_KU?$hash@_K@std@@U?$equal_to@_K@2@@1@AEBV?$allocator@_K@1@@Z@4HA
pdata	ENDS
;	COMDAT pdata
pdata	SEGMENT
$pdata$?begin@?$_Hash@V?$_Uset_traits@_KV?$_Uhash_compare@_KU?$hash@_K@std@@U?$equal_to@_K@2@@std@@V?$allocator@_K@2@$0A@@std@@@std@@QEAA?AV?$_List_const_iterator@V?$_List_val@U?$_List_simple_types@_K@std@@@std@@@2@XZ DD imagerel $LN3
	DD	imagerel $LN3+91
	DD	imagerel $unwind$?begin@?$_Hash@V?$_Uset_traits@_KV?$_Uhash_compare@_KU?$hash@_K@std@@U?$equal_to@_K@2@@std@@V?$allocator@_K@2@$0A@@std@@@std@@QEAA?AV?$_List_const_iterator@V?$_List_val@U?$_List_simple_types@_K@std@@@std@@@2@XZ
pdata	ENDS
;	COMDAT pdata
pdata	SEGMENT
$pdata$?end@?$_Hash@V?$_Uset_traits@_KV?$_Uhash_compare@_KU?$hash@_K@std@@U?$equal_to@_K@2@@std@@V?$allocator@_K@2@$0A@@std@@@std@@QEAA?AV?$_List_const_iterator@V?$_List_val@U?$_List_simple_types@_K@std@@@std@@@2@XZ DD imagerel $LN3
	DD	imagerel $LN3+91
	DD	imagerel $unwind$?end@?$_Hash@V?$_Uset_traits@_KV?$_Uhash_compare@_KU?$hash@_K@std@@U?$equal_to@_K@2@@std@@V?$allocator@_K@2@$0A@@std@@@std@@QEAA?AV?$_List_const_iterator@V?$_List_val@U?$_List_simple_types@_K@std@@@std@@@2@XZ
pdata	ENDS
;	COMDAT pdata
pdata	SEGMENT
$pdata$?_Unchecked_begin@?$_Hash@V?$_Uset_traits@_KV?$_Uhash_compare@_KU?$hash@_K@std@@U?$equal_to@_K@2@@std@@V?$allocator@_K@2@$0A@@std@@@std@@QEAA?AV?$_List_unchecked_const_iterator@V?$_List_val@U?$_List_simple_types@_K@std@@@std@@U_Iterator_base0@2@@2@XZ DD imagerel $LN3
	DD	imagerel $LN3+77
	DD	imagerel $unwind$?_Unchecked_begin@?$_Hash@V?$_Uset_traits@_KV?$_Uhash_compare@_KU?$hash@_K@std@@U?$equal_to@_K@2@@std@@V?$allocator@_K@2@$0A@@std@@@std@@QEAA?AV?$_List_unchecked_const_iterator@V?$_List_val@U?$_List_simple_types@_K@std@@@std@@U_Iterator_base0@2@@2@XZ
pdata	ENDS
;	COMDAT pdata
pdata	SEGMENT
$pdata$?_Unchecked_end@?$_Hash@V?$_Uset_traits@_KV?$_Uhash_compare@_KU?$hash@_K@std@@U?$equal_to@_K@2@@std@@V?$allocator@_K@2@$0A@@std@@@std@@QEAA?AV?$_List_unchecked_const_iterator@V?$_List_val@U?$_List_simple_types@_K@std@@@std@@U_Iterator_base0@2@@2@XZ DD imagerel $LN3
	DD	imagerel $LN3+77
	DD	imagerel $unwind$?_Unchecked_end@?$_Hash@V?$_Uset_traits@_KV?$_Uhash_compare@_KU?$hash@_K@std@@U?$equal_to@_K@2@@std@@V?$allocator@_K@2@$0A@@std@@@std@@QEAA?AV?$_List_unchecked_const_iterator@V?$_List_val@U?$_List_simple_types@_K@std@@@std@@U_Iterator_base0@2@@2@XZ
pdata	ENDS
;	COMDAT pdata
pdata	SEGMENT
$pdata$?bucket_count@?$_Hash@V?$_Uset_traits@_KV?$_Uhash_compare@_KU?$hash@_K@std@@U?$equal_to@_K@2@@std@@V?$allocator@_K@2@$0A@@std@@@std@@QEBA_KXZ DD imagerel $LN3
	DD	imagerel $LN3+41
	DD	imagerel $unwind$?bucket_count@?$_Hash@V?$_Uset_traits@_KV?$_Uhash_compare@_KU?$hash@_K@std@@U?$equal_to@_K@2@@std@@V?$allocator@_K@2@$0A@@std@@@std@@QEBA_KXZ
pdata	ENDS
;	COMDAT pdata
pdata	SEGMENT
$pdata$?bucket@?$_Hash@V?$_Uset_traits@_KV?$_Uhash_compare@_KU?$hash@_K@std@@U?$equal_to@_K@2@@std@@V?$allocator@_K@2@$0A@@std@@@std@@QEBA_KAEB_K@Z DD imagerel $LN3
	DD	imagerel $LN3+67
	DD	imagerel $unwind$?bucket@?$_Hash@V?$_Uset_traits@_KV?$_Uhash_compare@_KU?$hash@_K@std@@U?$equal_to@_K@2@@std@@V?$allocator@_K@2@$0A@@std@@@std@@QEBA_KAEB_K@Z
pdata	ENDS
;	COMDAT pdata
pdata	SEGMENT
$pdata$?max_load_factor@?$_Hash@V?$_Uset_traits@_KV?$_Uhash_compare@_KU?$hash@_K@std@@U?$equal_to@_K@2@@std@@V?$allocator@_K@2@$0A@@std@@@std@@QEBAMXZ DD imagerel $LN3
	DD	imagerel $LN3+46
	DD	imagerel $unwind$?max_load_factor@?$_Hash@V?$_Uset_traits@_KV?$_Uhash_compare@_KU?$hash@_K@std@@U?$equal_to@_K@2@@std@@V?$allocator@_K@2@$0A@@std@@@std@@QEBAMXZ
pdata	ENDS
;	COMDAT pdata
pdata	SEGMENT
$pdata$?insert@?$_Hash@V?$_Uset_traits@_KV?$_Uhash_compare@_KU?$hash@_K@std@@U?$equal_to@_K@2@@std@@V?$allocator@_K@2@$0A@@std@@@std@@QEAA?AU?$pair@V?$_List_const_iterator@V?$_List_val@U?$_List_simple_types@_K@std@@@std@@@std@@_N@2@AEB_K@Z DD imagerel $LN5
	DD	imagerel $LN5+80
	DD	imagerel $unwind$?insert@?$_Hash@V?$_Uset_traits@_KV?$_Uhash_compare@_KU?$hash@_K@std@@U?$equal_to@_K@2@@std@@V?$allocator@_K@2@$0A@@std@@@std@@QEAA?AU?$pair@V?$_List_const_iterator@V?$_List_val@U?$_List_simple_types@_K@std@@@std@@@std@@_N@2@AEB_K@Z
pdata	ENDS
;	COMDAT pdata
pdata	SEGMENT
$pdata$?insert@?$_Hash@V?$_Uset_traits@_KV?$_Uhash_compare@_KU?$hash@_K@std@@U?$equal_to@_K@2@@std@@V?$allocator@_K@2@$0A@@std@@@std@@QEAA?AU?$pair@V?$_List_const_iterator@V?$_List_val@U?$_List_simple_types@_K@std@@@std@@@std@@_N@2@$$QEA_K@Z DD imagerel $LN5
	DD	imagerel $LN5+80
	DD	imagerel $unwind$?insert@?$_Hash@V?$_Uset_traits@_KV?$_Uhash_compare@_KU?$hash@_K@std@@U?$equal_to@_K@2@@std@@V?$allocator@_K@2@$0A@@std@@@std@@QEAA?AU?$pair@V?$_List_const_iterator@V?$_List_val@U?$_List_simple_types@_K@std@@@std@@@std@@_N@2@$$QEA_K@Z
pdata	ENDS
;	COMDAT pdata
pdata	SEGMENT
$pdata$?_Unchecked_erase@?$_Hash@V?$_Uset_traits@_KV?$_Uhash_compare@_KU?$hash@_K@std@@U?$equal_to@_K@2@@std@@V?$allocator@_K@2@$0A@@std@@@std@@AEAAPEAU?$_List_node@_KPEAX@2@PEAU32@QEAU32@@Z DD imagerel $LN25
	DD	imagerel $LN25+721
	DD	imagerel $unwind$?_Unchecked_erase@?$_Hash@V?$_Uset_traits@_KV?$_Uhash_compare@_KU?$hash@_K@std@@U?$equal_to@_K@2@@std@@V?$allocator@_K@2@$0A@@std@@@std@@AEAAPEAU?$_List_node@_KPEAX@2@PEAU32@QEAU32@@Z
pdata	ENDS
;	COMDAT pdata
pdata	SEGMENT
$pdata$?erase@?$_Hash@V?$_Uset_traits@_KV?$_Uhash_compare@_KU?$hash@_K@std@@U?$equal_to@_K@2@@std@@V?$allocator@_K@2@$0A@@std@@@std@@QEAA_KAEB_K@Z DD imagerel $LN3
	DD	imagerel $LN3+51
	DD	imagerel $unwind$?erase@?$_Hash@V?$_Uset_traits@_KV?$_Uhash_compare@_KU?$hash@_K@std@@U?$equal_to@_K@2@@std@@V?$allocator@_K@2@$0A@@std@@@std@@QEAA_KAEB_K@Z
pdata	ENDS
;	COMDAT pdata
pdata	SEGMENT
$pdata$?clear@?$_Hash@V?$_Uset_traits@_KV?$_Uhash_compare@_KU?$hash@_K@std@@U?$equal_to@_K@2@@std@@V?$allocator@_K@2@$0A@@std@@@std@@QEAAXXZ DD imagerel $LN5
	DD	imagerel $LN5+218
	DD	imagerel $unwind$?clear@?$_Hash@V?$_Uset_traits@_KV?$_Uhash_compare@_KU?$hash@_K@std@@U?$equal_to@_K@2@@std@@V?$allocator@_K@2@$0A@@std@@@std@@QEAAXXZ
pdata	ENDS
;	COMDAT pdata
pdata	SEGMENT
$pdata$?_Insert_new_node_before@?$_Hash@V?$_Uset_traits@_KV?$_Uhash_compare@_KU?$hash@_K@std@@U?$equal_to@_K@2@@std@@V?$allocator@_K@2@$0A@@std@@@std@@IEAAPEAU?$_List_node@_KPEAX@2@_KQEAU32@1@Z DD imagerel $LN8
	DD	imagerel $LN8+374
	DD	imagerel $unwind$?_Insert_new_node_before@?$_Hash@V?$_Uset_traits@_KV?$_Uhash_compare@_KU?$hash@_K@std@@U?$equal_to@_K@2@@std@@V?$allocator@_K@2@$0A@@std@@@std@@IEAAPEAU?$_List_node@_KPEAX@2@_KQEAU32@1@Z
pdata	ENDS
;	COMDAT pdata
pdata	SEGMENT
$pdata$?_Check_max_size@?$_Hash@V?$_Uset_traits@_KV?$_Uhash_compare@_KU?$hash@_K@std@@U?$equal_to@_K@2@@std@@V?$allocator@_K@2@$0A@@std@@@std@@IEBAXXZ DD imagerel $LN4
	DD	imagerel $LN4+79
	DD	imagerel $unwind$?_Check_max_size@?$_Hash@V?$_Uset_traits@_KV?$_Uhash_compare@_KU?$hash@_K@std@@U?$equal_to@_K@2@@std@@V?$allocator@_K@2@$0A@@std@@@std@@IEBAXXZ
pdata	ENDS
;	COMDAT pdata
pdata	SEGMENT
$pdata$?_Check_rehash_required_1@?$_Hash@V?$_Uset_traits@_KV?$_Uhash_compare@_KU?$hash@_K@std@@U?$equal_to@_K@2@@std@@V?$allocator@_K@2@$0A@@std@@@std@@IEBA_NXZ DD imagerel $LN9
	DD	imagerel $LN9+212
	DD	imagerel $unwind$?_Check_rehash_required_1@?$_Hash@V?$_Uset_traits@_KV?$_Uhash_compare@_KU?$hash@_K@std@@U?$equal_to@_K@2@@std@@V?$allocator@_K@2@$0A@@std@@@std@@IEBA_NXZ
pdata	ENDS
;	COMDAT pdata
pdata	SEGMENT
$pdata$?_Rehash_for_1@?$_Hash@V?$_Uset_traits@_KV?$_Uhash_compare@_KU?$hash@_K@std@@U?$equal_to@_K@2@@std@@V?$allocator@_K@2@$0A@@std@@@std@@IEAAXXZ DD imagerel $LN3
	DD	imagerel $LN3+81
	DD	imagerel $unwind$?_Rehash_for_1@?$_Hash@V?$_Uset_traits@_KV?$_Uhash_compare@_KU?$hash@_K@std@@U?$equal_to@_K@2@@std@@V?$allocator@_K@2@$0A@@std@@@std@@IEAAXXZ
pdata	ENDS
;	COMDAT pdata
pdata	SEGMENT
$pdata$?_Erase_bucket@?$_Hash@V?$_Uset_traits@_KV?$_Uhash_compare@_KU?$hash@_K@std@@U?$equal_to@_K@2@@std@@V?$allocator@_K@2@$0A@@std@@@std@@IEAAXPEAU?$_List_node@_KPEAX@2@_K@Z DD imagerel $LN8
	DD	imagerel $LN8+205
	DD	imagerel $unwind$?_Erase_bucket@?$_Hash@V?$_Uset_traits@_KV?$_Uhash_compare@_KU?$hash@_K@std@@U?$equal_to@_K@2@@std@@V?$allocator@_K@2@$0A@@std@@@std@@IEAAXPEAU?$_List_node@_KPEAX@2@_K@Z
pdata	ENDS
;	COMDAT pdata
pdata	SEGMENT
$pdata$?_Min_load_factor_buckets@?$_Hash@V?$_Uset_traits@_KV?$_Uhash_compare@_KU?$hash@_K@std@@U?$equal_to@_K@2@@std@@V?$allocator@_K@2@$0A@@std@@@std@@IEBA_K_K@Z DD imagerel $LN6
	DD	imagerel $LN6+168
	DD	imagerel $unwind$?_Min_load_factor_buckets@?$_Hash@V?$_Uset_traits@_KV?$_Uhash_compare@_KU?$hash@_K@std@@U?$equal_to@_K@2@@std@@V?$allocator@_K@2@$0A@@std@@@std@@IEBA_K_K@Z
pdata	ENDS
;	COMDAT pdata
pdata	SEGMENT
$pdata$?_Desired_grow_bucket_count@?$_Hash@V?$_Uset_traits@_KV?$_Uhash_compare@_KU?$hash@_K@std@@U?$equal_to@_K@2@@std@@V?$allocator@_K@2@$0A@@std@@@std@@IEBA_K_K@Z DD imagerel $LN5
	DD	imagerel $LN5+148
	DD	imagerel $unwind$?_Desired_grow_bucket_count@?$_Hash@V?$_Uset_traits@_KV?$_Uhash_compare@_KU?$hash@_K@std@@U?$equal_to@_K@2@@std@@V?$allocator@_K@2@$0A@@std@@@std@@IEBA_K_K@Z
pdata	ENDS
;	COMDAT pdata
pdata	SEGMENT
$pdata$?_Forced_rehash@?$_Hash@V?$_Uset_traits@_KV?$_Uhash_compare@_KU?$hash@_K@std@@U?$equal_to@_K@2@@std@@V?$allocator@_K@2@$0A@@std@@@std@@IEAAX_K@Z DD imagerel $LN16
	DD	imagerel $LN16+804
	DD	imagerel $unwind$?_Forced_rehash@?$_Hash@V?$_Uset_traits@_KV?$_Uhash_compare@_KU?$hash@_K@std@@U?$equal_to@_K@2@@std@@V?$allocator@_K@2@$0A@@std@@@std@@IEAAX_K@Z
pdata	ENDS
;	COMDAT pdata
pdata	SEGMENT
$pdata$?_Max_bucket_size@?$_Hash@V?$_Uset_traits@_KV?$_Uhash_compare@_KU?$hash@_K@std@@U?$equal_to@_K@2@@std@@V?$allocator@_K@2@$0A@@std@@@std@@IEAAAEAMXZ DD imagerel $LN3
	DD	imagerel $LN3+45
	DD	imagerel $unwind$?_Max_bucket_size@?$_Hash@V?$_Uset_traits@_KV?$_Uhash_compare@_KU?$hash@_K@std@@U?$equal_to@_K@2@@std@@V?$allocator@_K@2@$0A@@std@@@std@@IEAAAEAMXZ
pdata	ENDS
;	COMDAT pdata
pdata	SEGMENT
$pdata$?_Max_bucket_size@?$_Hash@V?$_Uset_traits@_KV?$_Uhash_compare@_KU?$hash@_K@std@@U?$equal_to@_K@2@@std@@V?$allocator@_K@2@$0A@@std@@@std@@IEBAAEBMXZ DD imagerel $LN3
	DD	imagerel $LN3+45
	DD	imagerel $unwind$?_Max_bucket_size@?$_Hash@V?$_Uset_traits@_KV?$_Uhash_compare@_KU?$hash@_K@std@@U?$equal_to@_K@2@@std@@V?$allocator@_K@2@$0A@@std@@@std@@IEBAAEBMXZ
pdata	ENDS
;	COMDAT pdata
pdata	SEGMENT
$pdata$?deallocate@?$allocator@V?$_List_unchecked_const_iterator@V?$_List_val@U?$_List_simple_types@_K@std@@@std@@U_Iterator_base0@2@@std@@@std@@QEAAXQEAV?$_List_unchecked_const_iterator@V?$_List_val@U?$_List_simple_types@_K@std@@@std@@U_Iterator_base0@2@@2@_K@Z DD imagerel $LN13
	DD	imagerel $LN13+196
	DD	imagerel $unwind$?deallocate@?$allocator@V?$_List_unchecked_const_iterator@V?$_List_val@U?$_List_simple_types@_K@std@@@std@@U_Iterator_base0@2@@std@@@std@@QEAAXQEAV?$_List_unchecked_const_iterator@V?$_List_val@U?$_List_simple_types@_K@std@@@std@@U_Iterator_base0@2@@2@_K@Z
pdata	ENDS
;	COMDAT pdata
pdata	SEGMENT
$pdata$?allocate@?$allocator@V?$_List_unchecked_const_iterator@V?$_List_val@U?$_List_simple_types@_K@std@@@std@@U_Iterator_base0@2@@std@@@std@@QEAAPEAV?$_List_unchecked_const_iterator@V?$_List_val@U?$_List_simple_types@_K@std@@@std@@U_Iterator_base0@2@@2@_K@Z DD imagerel $LN3
	DD	imagerel $LN3+55
	DD	imagerel $unwind$?allocate@?$allocator@V?$_List_unchecked_const_iterator@V?$_List_val@U?$_List_simple_types@_K@std@@@std@@U_Iterator_base0@2@@std@@@std@@QEAAPEAV?$_List_unchecked_const_iterator@V?$_List_val@U?$_List_simple_types@_K@std@@@std@@U_Iterator_base0@2@@2@_K@Z
pdata	ENDS
;	COMDAT pdata
pdata	SEGMENT
$pdata$?max_size@?$_Default_allocator_traits@V?$allocator@V?$_List_unchecked_const_iterator@V?$_List_val@U?$_List_simple_types@_K@std@@@std@@U_Iterator_base0@2@@std@@@std@@@std@@SA_KAEBV?$allocator@V?$_List_unchecked_const_iterator@V?$_List_val@U?$_List_simple_types@_K@std@@@std@@U_Iterator_base0@2@@std@@@2@@Z DD imagerel $LN3
	DD	imagerel $LN3+43
	DD	imagerel $unwind$?max_size@?$_Default_allocator_traits@V?$allocator@V?$_List_unchecked_const_iterator@V?$_List_val@U?$_List_simple_types@_K@std@@@std@@U_Iterator_base0@2@@std@@@std@@@std@@SA_KAEBV?$allocator@V?$_List_unchecked_const_iterator@V?$_List_val@U?$_List_simple_types@_K@std@@@std@@U_Iterator_base0@2@@std@@@2@@Z
pdata	ENDS
;	COMDAT pdata
pdata	SEGMENT
$pdata$?size@?$_Hash_vec@V?$allocator@V?$_List_unchecked_const_iterator@V?$_List_val@U?$_List_simple_types@_K@std@@@std@@U_Iterator_base0@2@@std@@@std@@@std@@QEBA_KXZ DD imagerel $LN3
	DD	imagerel $LN3+56
	DD	imagerel $unwind$?size@?$_Hash_vec@V?$allocator@V?$_List_unchecked_const_iterator@V?$_List_val@U?$_List_simple_types@_K@std@@@std@@U_Iterator_base0@2@@std@@@std@@@std@@QEBA_KXZ
pdata	ENDS
;	COMDAT pdata
pdata	SEGMENT
$pdata$?max_size@?$_Hash_vec@V?$allocator@V?$_List_unchecked_const_iterator@V?$_List_val@U?$_List_simple_types@_K@std@@@std@@U_Iterator_base0@2@@std@@@std@@@std@@QEBA_KXZ DD imagerel $LN3
	DD	imagerel $LN3+82
	DD	imagerel $unwind$?max_size@?$_Hash_vec@V?$allocator@V?$_List_unchecked_const_iterator@V?$_List_val@U?$_List_simple_types@_K@std@@@std@@U_Iterator_base0@2@@std@@@std@@@std@@QEBA_KXZ
pdata	ENDS
;	COMDAT pdata
pdata	SEGMENT
$pdata$?capacity@?$_Hash_vec@V?$allocator@V?$_List_unchecked_const_iterator@V?$_List_val@U?$_List_simple_types@_K@std@@@std@@U_Iterator_base0@2@@std@@@std@@@std@@QEBA_KXZ DD imagerel $LN3
	DD	imagerel $LN3+56
	DD	imagerel $unwind$?capacity@?$_Hash_vec@V?$allocator@V?$_List_unchecked_const_iterator@V?$_List_val@U?$_List_simple_types@_K@std@@@std@@U_Iterator_base0@2@@std@@@std@@@std@@QEBA_KXZ
pdata	ENDS
;	COMDAT pdata
pdata	SEGMENT
$pdata$?_Assign_grow@?$_Hash_vec@V?$allocator@V?$_List_unchecked_const_iterator@V?$_List_val@U?$_List_simple_types@_K@std@@@std@@U_Iterator_base0@2@@std@@@std@@@std@@QEAAX_KV?$_List_unchecked_const_iterator@V?$_List_val@U?$_List_simple_types@_K@std@@@std@@U_Iterator_base0@2@@2@@Z DD imagerel $LN6
	DD	imagerel $LN6+312
	DD	imagerel $unwind$?_Assign_grow@?$_Hash_vec@V?$allocator@V?$_List_unchecked_const_iterator@V?$_List_val@U?$_List_simple_types@_K@std@@@std@@U_Iterator_base0@2@@std@@@std@@@std@@QEAAX_KV?$_List_unchecked_const_iterator@V?$_List_val@U?$_List_simple_types@_K@std@@@std@@U_Iterator_base0@2@@2@@Z
pdata	ENDS
;	COMDAT pdata
pdata	SEGMENT
$pdata$?_Tidy@?$_Hash_vec@V?$allocator@V?$_List_unchecked_const_iterator@V?$_List_val@U?$_List_simple_types@_K@std@@@std@@U_Iterator_base0@2@@std@@@std@@@std@@QEAAXXZ DD imagerel $LN4
	DD	imagerel $LN4+162
	DD	imagerel $unwind$?_Tidy@?$_Hash_vec@V?$allocator@V?$_List_unchecked_const_iterator@V?$_List_val@U?$_List_simple_types@_K@std@@@std@@U_Iterator_base0@2@@std@@@std@@@std@@QEAAXXZ
pdata	ENDS
;	COMDAT pdata
pdata	SEGMENT
$pdata$??1?$_Hash_vec@V?$allocator@V?$_List_unchecked_const_iterator@V?$_List_val@U?$_List_simple_types@_K@std@@@std@@U_Iterator_base0@2@@std@@@std@@@std@@QEAA@XZ DD imagerel $LN3
	DD	imagerel $LN3+113
	DD	imagerel $unwind$??1?$_Hash_vec@V?$allocator@V?$_List_unchecked_const_iterator@V?$_List_val@U?$_List_simple_types@_K@std@@@std@@U_Iterator_base0@2@@std@@@std@@@std@@QEAA@XZ
pdata	ENDS
;	COMDAT pdata
pdata	SEGMENT
$pdata$??0?$_Vector_val@U?$_Simple_types@V?$_List_unchecked_const_iterator@V?$_List_val@U?$_List_simple_types@_K@std@@@std@@U_Iterator_base0@2@@std@@@std@@@std@@QEAA@XZ DD imagerel $LN3
	DD	imagerel $LN3+82
	DD	imagerel $unwind$??0?$_Vector_val@U?$_Simple_types@V?$_List_unchecked_const_iterator@V?$_List_val@U?$_List_simple_types@_K@std@@@std@@U_Iterator_base0@2@@std@@@std@@@std@@QEAA@XZ
pdata	ENDS
;	COMDAT pdata
pdata	SEGMENT
$pdata$?_Get_first@?$_Compressed_pair@V?$allocator@V?$_List_unchecked_const_iterator@V?$_List_val@U?$_List_simple_types@_K@std@@@std@@U_Iterator_base0@2@@std@@@std@@V?$_Vector_val@U?$_Simple_types@V?$_List_unchecked_const_iterator@V?$_List_val@U?$_List_simple_types@_K@std@@@std@@U_Iterator_base0@2@@std@@@std@@@2@$00@std@@QEAAAEAV?$allocator@V?$_List_unchecked_const_iterator@V?$_List_val@U?$_List_simple_types@_K@std@@@std@@U_Iterator_base0@2@@std@@@2@XZ DD imagerel $LN3
	DD	imagerel $LN3+37
	DD	imagerel $unwind$?_Get_first@?$_Compressed_pair@V?$allocator@V?$_List_unchecked_const_iterator@V?$_List_val@U?$_List_simple_types@_K@std@@@std@@U_Iterator_base0@2@@std@@@std@@V?$_Vector_val@U?$_Simple_types@V?$_List_unchecked_const_iterator@V?$_List_val@U?$_List_simple_types@_K@std@@@std@@U_Iterator_base0@2@@std@@@std@@@2@$00@std@@QEAAAEAV?$allocator@V?$_List_unchecked_const_iterator@V?$_List_val@U?$_List_simple_types@_K@std@@@std@@U_Iterator_base0@2@@std@@@2@XZ
pdata	ENDS
;	COMDAT pdata
pdata	SEGMENT
$pdata$?_Get_first@?$_Compressed_pair@V?$allocator@V?$_List_unchecked_const_iterator@V?$_List_val@U?$_List_simple_types@_K@std@@@std@@U_Iterator_base0@2@@std@@@std@@V?$_Vector_val@U?$_Simple_types@V?$_List_unchecked_const_iterator@V?$_List_val@U?$_List_simple_types@_K@std@@@std@@U_Iterator_base0@2@@std@@@std@@@2@$00@std@@QEBAAEBV?$allocator@V?$_List_unchecked_const_iterator@V?$_List_val@U?$_List_simple_types@_K@std@@@std@@U_Iterator_base0@2@@std@@@2@XZ DD imagerel $LN3
	DD	imagerel $LN3+37
	DD	imagerel $unwind$?_Get_first@?$_Compressed_pair@V?$allocator@V?$_List_unchecked_const_iterator@V?$_List_val@U?$_List_simple_types@_K@std@@@std@@U_Iterator_base0@2@@std@@@std@@V?$_Vector_val@U?$_Simple_types@V?$_List_unchecked_const_iterator@V?$_List_val@U?$_List_simple_types@_K@std@@@std@@U_Iterator_base0@2@@std@@@std@@@2@$00@std@@QEBAAEBV?$allocator@V?$_List_unchecked_const_iterator@V?$_List_val@U?$_List_simple_types@_K@std@@@std@@U_Iterator_base0@2@@std@@@2@XZ
pdata	ENDS
;	COMDAT pdata
pdata	SEGMENT
$pdata$??1?$_Hash@V?$_Uset_traits@_KV?$_Uhash_compare@_KU?$hash@_K@std@@U?$equal_to@_K@2@@std@@V?$allocator@_K@2@$0A@@std@@@std@@QEAA@XZ DD imagerel $LN3
	DD	imagerel $LN3+53
	DD	imagerel $unwind$??1?$_Hash@V?$_Uset_traits@_KV?$_Uhash_compare@_KU?$hash@_K@std@@U?$equal_to@_K@2@@std@@V?$allocator@_K@2@$0A@@std@@@std@@QEAA@XZ
pdata	ENDS
;	COMDAT pdata
pdata	SEGMENT
$pdata$??0?$unordered_set@_KU?$hash@_K@std@@U?$equal_to@_K@2@V?$allocator@_K@2@@std@@QEAA@XZ DD imagerel $LN4
	DD	imagerel $LN4+83
	DD	imagerel $unwind$??0?$unordered_set@_KU?$hash@_K@std@@U?$equal_to@_K@2@V?$allocator@_K@2@@std@@QEAA@XZ
pdata	ENDS
;	COMDAT pdata
pdata	SEGMENT
$pdata$??1?$unordered_set@_KU?$hash@_K@std@@U?$equal_to@_K@2@V?$allocator@_K@2@@std@@QEAA@XZ DD imagerel $LN3
	DD	imagerel $LN3+30
	DD	imagerel $unwind$??1?$unordered_set@_KU?$hash@_K@std@@U?$equal_to@_K@2@V?$allocator@_K@2@@std@@QEAA@XZ
pdata	ENDS
;	COMDAT pdata
pdata	SEGMENT
$pdata$??0TMemory@@QEAA@XZ DD imagerel $LN6
	DD	imagerel $LN6+147
	DD	imagerel $unwind$??0TMemory@@QEAA@XZ
pdata	ENDS
;	COMDAT pdata
pdata	SEGMENT
$pdata$?dtor$0@?0???0TMemory@@QEAA@XZ@4HA DD imagerel ?dtor$0@?0???0TMemory@@QEAA@XZ@4HA
	DD	imagerel ?dtor$0@?0???0TMemory@@QEAA@XZ@4HA+28
	DD	imagerel $unwind$?dtor$0@?0???0TMemory@@QEAA@XZ@4HA
pdata	ENDS
;	COMDAT pdata
pdata	SEGMENT
$pdata$?dtor$1@?0???0TMemory@@QEAA@XZ@4HA DD imagerel ?dtor$1@?0???0TMemory@@QEAA@XZ@4HA
	DD	imagerel ?dtor$1@?0???0TMemory@@QEAA@XZ@4HA+32
	DD	imagerel $unwind$?dtor$1@?0???0TMemory@@QEAA@XZ@4HA
pdata	ENDS
;	COMDAT pdata
pdata	SEGMENT
$pdata$?Allocate@TMemory@@QEAA?AUBucket@@_K@Z DD imagerel $LN10
	DD	imagerel $LN10+581
	DD	imagerel $unwind$?Allocate@TMemory@@QEAA?AUBucket@@_K@Z
pdata	ENDS
;	COMDAT pdata
pdata	SEGMENT
$pdata$?Delete@TMemory@@QEAAXAEAUBucket@@@Z DD imagerel $LN5
	DD	imagerel $LN5+165
	DD	imagerel $unwind$?Delete@TMemory@@QEAAXAEAUBucket@@@Z
pdata	ENDS
;	COMDAT pdata
pdata	SEGMENT
$pdata$??1TMemory@@QEAA@XZ DD imagerel $LN6
	DD	imagerel $LN6+165
	DD	imagerel $unwind$??1TMemory@@QEAA@XZ
pdata	ENDS
;	COMDAT pdata
pdata	SEGMENT
$pdata$??0?$_List_unchecked_const_iterator@V?$_List_val@U?$_List_simple_types@_K@std@@@std@@U_Iterator_base12@2@@std@@QEAA@PEAU?$_List_node@_KPEAX@1@PEBV?$_List_val@U?$_List_simple_types@_K@std@@@1@@Z DD imagerel $LN3
	DD	imagerel $LN3+81
	DD	imagerel $unwind$??0?$_List_unchecked_const_iterator@V?$_List_val@U?$_List_simple_types@_K@std@@@std@@U_Iterator_base12@2@@std@@QEAA@PEAU?$_List_node@_KPEAX@1@PEBV?$_List_val@U?$_List_simple_types@_K@std@@@1@@Z
pdata	ENDS
;	COMDAT pdata
pdata	SEGMENT
$pdata$??1?$_List_unchecked_const_iterator@V?$_List_val@U?$_List_simple_types@_K@std@@@std@@U_Iterator_base12@2@@std@@QEAA@XZ DD imagerel $LN3
	DD	imagerel $LN3+30
	DD	imagerel $unwind$??1?$_List_unchecked_const_iterator@V?$_List_val@U?$_List_simple_types@_K@std@@@std@@U_Iterator_base12@2@@std@@QEAA@XZ
pdata	ENDS
;	COMDAT pdata
pdata	SEGMENT
$pdata$??0?$_List_unchecked_const_iterator@V?$_List_val@U?$_List_simple_types@_K@std@@@std@@U_Iterator_base12@2@@std@@QEAA@AEBV01@@Z DD imagerel $LN3
	DD	imagerel $LN3+59
	DD	imagerel $unwind$??0?$_List_unchecked_const_iterator@V?$_List_val@U?$_List_simple_types@_K@std@@@std@@U_Iterator_base12@2@@std@@QEAA@AEBV01@@Z
pdata	ENDS
;	COMDAT pdata
pdata	SEGMENT
$pdata$??0?$_List_unchecked_const_iterator@V?$_List_val@U?$_List_simple_types@_K@std@@@std@@U_Iterator_base12@2@@std@@QEAA@$$QEAV01@@Z DD imagerel $LN3
	DD	imagerel $LN3+59
	DD	imagerel $unwind$??0?$_List_unchecked_const_iterator@V?$_List_val@U?$_List_simple_types@_K@std@@@std@@U_Iterator_base12@2@@std@@QEAA@$$QEAV01@@Z
pdata	ENDS
;	COMDAT pdata
pdata	SEGMENT
$pdata$??D?$_List_const_iterator@V?$_List_val@U?$_List_simple_types@_K@std@@@std@@@std@@QEBAAEB_KXZ DD imagerel $LN21
	DD	imagerel $LN21+320
	DD	imagerel $unwind$??D?$_List_const_iterator@V?$_List_val@U?$_List_simple_types@_K@std@@@std@@@std@@QEBAAEB_KXZ
pdata	ENDS
;	COMDAT pdata
pdata	SEGMENT
$pdata$?_Verify_range@std@@YAXAEBV?$_List_const_iterator@V?$_List_val@U?$_List_simple_types@_K@std@@@std@@@1@0@Z DD imagerel $LN12
	DD	imagerel $LN12+191
	DD	imagerel $unwind$?_Verify_range@std@@YAXAEBV?$_List_const_iterator@V?$_List_val@U?$_List_simple_types@_K@std@@@std@@@1@0@Z
pdata	ENDS
;	COMDAT pdata
pdata	SEGMENT
$pdata$?_Unwrapped@?$_List_const_iterator@V?$_List_val@U?$_List_simple_types@_K@std@@@std@@@std@@QEBA?AV?$_List_unchecked_const_iterator@V?$_List_val@U?$_List_simple_types@_K@std@@@std@@U_Iterator_base0@2@@2@XZ DD imagerel $LN3
	DD	imagerel $LN3+84
	DD	imagerel $unwind$?_Unwrapped@?$_List_const_iterator@V?$_List_val@U?$_List_simple_types@_K@std@@@std@@@std@@QEBA?AV?$_List_unchecked_const_iterator@V?$_List_val@U?$_List_simple_types@_K@std@@@std@@U_Iterator_base0@2@@2@XZ
pdata	ENDS
;	COMDAT pdata
pdata	SEGMENT
$pdata$?_Seek_to@?$_List_const_iterator@V?$_List_val@U?$_List_simple_types@_K@std@@@std@@@std@@QEAAXV?$_List_unchecked_const_iterator@V?$_List_val@U?$_List_simple_types@_K@std@@@std@@U_Iterator_base0@2@@2@@Z DD imagerel $LN3
	DD	imagerel $LN3+50
	DD	imagerel $unwind$?_Seek_to@?$_List_const_iterator@V?$_List_val@U?$_List_simple_types@_K@std@@@std@@@std@@QEAAXV?$_List_unchecked_const_iterator@V?$_List_val@U?$_List_simple_types@_K@std@@@std@@U_Iterator_base0@2@@2@@Z
pdata	ENDS
;	COMDAT pdata
pdata	SEGMENT
$pdata$??1?$_List_const_iterator@V?$_List_val@U?$_List_simple_types@_K@std@@@std@@@std@@QEAA@XZ DD imagerel $LN3
	DD	imagerel $LN3+30
	DD	imagerel $unwind$??1?$_List_const_iterator@V?$_List_val@U?$_List_simple_types@_K@std@@@std@@@std@@QEAA@XZ
pdata	ENDS
;	COMDAT pdata
pdata	SEGMENT
$pdata$??0?$_List_const_iterator@V?$_List_val@U?$_List_simple_types@_K@std@@@std@@@std@@QEAA@AEBV01@@Z DD imagerel $LN3
	DD	imagerel $LN3+43
	DD	imagerel $unwind$??0?$_List_const_iterator@V?$_List_val@U?$_List_simple_types@_K@std@@@std@@@std@@QEAA@AEBV01@@Z
pdata	ENDS
;	COMDAT pdata
pdata	SEGMENT
$pdata$??0?$_List_const_iterator@V?$_List_val@U?$_List_simple_types@_K@std@@@std@@@std@@QEAA@$$QEAV01@@Z DD imagerel $LN3
	DD	imagerel $LN3+43
	DD	imagerel $unwind$??0?$_List_const_iterator@V?$_List_val@U?$_List_simple_types@_K@std@@@std@@@std@@QEAA@$$QEAV01@@Z
pdata	ENDS
;	COMDAT pdata
pdata	SEGMENT
$pdata$??0?$_List_const_iterator@V?$_List_val@U?$_List_simple_types@_K@std@@@std@@@std@@QEAA@PEAU?$_List_node@_KPEAX@1@PEBV?$_List_val@U?$_List_simple_types@_K@std@@@1@@Z DD imagerel $LN3
	DD	imagerel $LN3+52
	DD	imagerel $unwind$??0?$_List_const_iterator@V?$_List_val@U?$_List_simple_types@_K@std@@@std@@@std@@QEAA@PEAU?$_List_node@_KPEAX@1@PEBV?$_List_val@U?$_List_simple_types@_K@std@@@1@@Z
pdata	ENDS
;	COMDAT pdata
pdata	SEGMENT
$pdata$??1?$pair@V?$_List_const_iterator@V?$_List_val@U?$_List_simple_types@_K@std@@@std@@@std@@_N@std@@QEAA@XZ DD imagerel $LN3
	DD	imagerel $LN3+33
	DD	imagerel $unwind$??1?$pair@V?$_List_const_iterator@V?$_List_val@U?$_List_simple_types@_K@std@@@std@@@std@@_N@std@@QEAA@XZ
pdata	ENDS
;	COMDAT pdata
pdata	SEGMENT
$pdata$??0?$_List_unchecked_const_iterator@V?$_List_val@U?$_List_simple_types@U?$pair@$$CB_KUBucket@@@std@@@std@@@std@@U_Iterator_base0@2@@std@@QEAA@PEAU?$_List_node@U?$pair@$$CB_KUBucket@@@std@@PEAX@1@PEBV?$_List_val@U?$_List_simple_types@U?$pair@$$CB_KUBucket@@@std@@@std@@@1@@Z DD imagerel $LN3
	DD	imagerel $LN3+71
	DD	imagerel $unwind$??0?$_List_unchecked_const_iterator@V?$_List_val@U?$_List_simple_types@U?$pair@$$CB_KUBucket@@@std@@@std@@@std@@U_Iterator_base0@2@@std@@QEAA@PEAU?$_List_node@U?$pair@$$CB_KUBucket@@@std@@PEAX@1@PEBV?$_List_val@U?$_List_simple_types@U?$pair@$$CB_KUBucket@@@std@@@std@@@1@@Z
pdata	ENDS
;	COMDAT pdata
pdata	SEGMENT
$pdata$??D?$_List_unchecked_const_iterator@V?$_List_val@U?$_List_simple_types@U?$pair@$$CB_KUBucket@@@std@@@std@@@std@@U_Iterator_base0@2@@std@@QEBAAEBU?$pair@$$CB_KUBucket@@@1@XZ DD imagerel $LN3
	DD	imagerel $LN3+44
	DD	imagerel $unwind$??D?$_List_unchecked_const_iterator@V?$_List_val@U?$_List_simple_types@U?$pair@$$CB_KUBucket@@@std@@@std@@@std@@U_Iterator_base0@2@@std@@QEBAAEBU?$pair@$$CB_KUBucket@@@1@XZ
pdata	ENDS
;	COMDAT pdata
pdata	SEGMENT
$pdata$??E?$_List_unchecked_const_iterator@V?$_List_val@U?$_List_simple_types@U?$pair@$$CB_KUBucket@@@std@@@std@@@std@@U_Iterator_base0@2@@std@@QEAAAEAV01@XZ DD imagerel $LN3
	DD	imagerel $LN3+54
	DD	imagerel $unwind$??E?$_List_unchecked_const_iterator@V?$_List_val@U?$_List_simple_types@U?$pair@$$CB_KUBucket@@@std@@@std@@@std@@U_Iterator_base0@2@@std@@QEAAAEAV01@XZ
pdata	ENDS
;	COMDAT pdata
pdata	SEGMENT
$pdata$??F?$_List_unchecked_const_iterator@V?$_List_val@U?$_List_simple_types@U?$pair@$$CB_KUBucket@@@std@@@std@@@std@@U_Iterator_base0@2@@std@@QEAAAEAV01@XZ DD imagerel $LN3
	DD	imagerel $LN3+55
	DD	imagerel $unwind$??F?$_List_unchecked_const_iterator@V?$_List_val@U?$_List_simple_types@U?$pair@$$CB_KUBucket@@@std@@@std@@@std@@U_Iterator_base0@2@@std@@QEAAAEAV01@XZ
pdata	ENDS
;	COMDAT pdata
pdata	SEGMENT
$pdata$??8?$_List_unchecked_const_iterator@V?$_List_val@U?$_List_simple_types@U?$pair@$$CB_KUBucket@@@std@@@std@@@std@@U_Iterator_base0@2@@std@@QEBA_NAEBV01@@Z DD imagerel $LN5
	DD	imagerel $LN5+74
	DD	imagerel $unwind$??8?$_List_unchecked_const_iterator@V?$_List_val@U?$_List_simple_types@U?$pair@$$CB_KUBucket@@@std@@@std@@@std@@U_Iterator_base0@2@@std@@QEBA_NAEBV01@@Z
pdata	ENDS
;	COMDAT pdata
pdata	SEGMENT
$pdata$??D?$_List_unchecked_iterator@V?$_List_val@U?$_List_simple_types@U?$pair@$$CB_KUBucket@@@std@@@std@@@std@@@std@@QEBAAEAU?$pair@$$CB_KUBucket@@@1@XZ DD imagerel $LN3
	DD	imagerel $LN3+42
	DD	imagerel $unwind$??D?$_List_unchecked_iterator@V?$_List_val@U?$_List_simple_types@U?$pair@$$CB_KUBucket@@@std@@@std@@@std@@@std@@QEBAAEAU?$pair@$$CB_KUBucket@@@1@XZ
pdata	ENDS
;	COMDAT pdata
pdata	SEGMENT
$pdata$??E?$_List_unchecked_iterator@V?$_List_val@U?$_List_simple_types@U?$pair@$$CB_KUBucket@@@std@@@std@@@std@@@std@@QEAAAEAV01@XZ DD imagerel $LN3
	DD	imagerel $LN3+46
	DD	imagerel $unwind$??E?$_List_unchecked_iterator@V?$_List_val@U?$_List_simple_types@U?$pair@$$CB_KUBucket@@@std@@@std@@@std@@@std@@QEAAAEAV01@XZ
pdata	ENDS
;	COMDAT pdata
pdata	SEGMENT
$pdata$??0?$_List_unchecked_iterator@V?$_List_val@U?$_List_simple_types@U?$pair@$$CB_KUBucket@@@std@@@std@@@std@@@std@@QEAA@PEAU?$_List_node@U?$pair@$$CB_KUBucket@@@std@@PEAX@1@PEBV?$_List_val@U?$_List_simple_types@U?$pair@$$CB_KUBucket@@@std@@@std@@@1@@Z DD imagerel $LN3
	DD	imagerel $LN3+52
	DD	imagerel $unwind$??0?$_List_unchecked_iterator@V?$_List_val@U?$_List_simple_types@U?$pair@$$CB_KUBucket@@@std@@@std@@@std@@@std@@QEAA@PEAU?$_List_node@U?$pair@$$CB_KUBucket@@@std@@PEAX@1@PEBV?$_List_val@U?$_List_simple_types@U?$pair@$$CB_KUBucket@@@std@@@std@@@1@@Z
pdata	ENDS
;	COMDAT pdata
pdata	SEGMENT
$pdata$??$min_element@V?$_List_const_iterator@V?$_List_val@U?$_List_simple_types@_K@std@@@std@@@std@@@std@@YA?AV?$_List_const_iterator@V?$_List_val@U?$_List_simple_types@_K@std@@@std@@@0@V10@0@Z DD imagerel $LN9
	DD	imagerel $LN9+277
	DD	imagerel $unwind$??$min_element@V?$_List_const_iterator@V?$_List_val@U?$_List_simple_types@_K@std@@@std@@@std@@@std@@YA?AV?$_List_const_iterator@V?$_List_val@U?$_List_simple_types@_K@std@@@std@@@0@V10@0@Z
pdata	ENDS
;	COMDAT pdata
pdata	SEGMENT
$pdata$?dtor$0@?0???$min_element@V?$_List_const_iterator@V?$_List_val@U?$_List_simple_types@_K@std@@@std@@@std@@@std@@YA?AV?$_List_const_iterator@V?$_List_val@U?$_List_simple_types@_K@std@@@std@@@0@V10@0@Z@4HA DD imagerel ?dtor$0@?0???$min_element@V?$_List_const_iterator@V?$_List_val@U?$_List_simple_types@_K@std@@@std@@@std@@@std@@YA?AV?$_List_const_iterator@V?$_List_val@U?$_List_simple_types@_K@std@@@std@@@0@V10@0@Z@4HA
	DD	imagerel ?dtor$0@?0???$min_element@V?$_List_const_iterator@V?$_List_val@U?$_List_simple_types@_K@std@@@std@@@std@@@std@@YA?AV?$_List_const_iterator@V?$_List_val@U?$_List_simple_types@_K@std@@@std@@@0@V10@0@Z@4HA+28
	DD	imagerel $unwind$?dtor$0@?0???$min_element@V?$_List_const_iterator@V?$_List_val@U?$_List_simple_types@_K@std@@@std@@@std@@@std@@YA?AV?$_List_const_iterator@V?$_List_val@U?$_List_simple_types@_K@std@@@std@@@0@V10@0@Z@4HA
pdata	ENDS
;	COMDAT pdata
pdata	SEGMENT
$pdata$?dtor$1@?0???$min_element@V?$_List_const_iterator@V?$_List_val@U?$_List_simple_types@_K@std@@@std@@@std@@@std@@YA?AV?$_List_const_iterator@V?$_List_val@U?$_List_simple_types@_K@std@@@std@@@0@V10@0@Z@4HA DD imagerel ?dtor$1@?0???$min_element@V?$_List_const_iterator@V?$_List_val@U?$_List_simple_types@_K@std@@@std@@@std@@@std@@YA?AV?$_List_const_iterator@V?$_List_val@U?$_List_simple_types@_K@std@@@std@@@0@V10@0@Z@4HA
	DD	imagerel ?dtor$1@?0???$min_element@V?$_List_const_iterator@V?$_List_val@U?$_List_simple_types@_K@std@@@std@@@std@@@std@@YA?AV?$_List_const_iterator@V?$_List_val@U?$_List_simple_types@_K@std@@@std@@@0@V10@0@Z@4HA+28
	DD	imagerel $unwind$?dtor$1@?0???$min_element@V?$_List_const_iterator@V?$_List_val@U?$_List_simple_types@_K@std@@@std@@@std@@@std@@YA?AV?$_List_const_iterator@V?$_List_val@U?$_List_simple_types@_K@std@@@std@@@0@V10@0@Z@4HA
pdata	ENDS
;	COMDAT pdata
pdata	SEGMENT
$pdata$??$_Erase@_K@?$_Hash@V?$_Uset_traits@_KV?$_Uhash_compare@_KU?$hash@_K@std@@U?$equal_to@_K@2@@std@@V?$allocator@_K@2@$0A@@std@@@std@@AEAA_KAEB_K@Z DD imagerel $LN4
	DD	imagerel $LN4+191
	DD	imagerel $unwind$??$_Erase@_K@?$_Hash@V?$_Uset_traits@_KV?$_Uhash_compare@_KU?$hash@_K@std@@U?$equal_to@_K@2@@std@@V?$allocator@_K@2@$0A@@std@@@std@@AEAA_KAEB_K@Z
pdata	ENDS
;	COMDAT pdata
pdata	SEGMENT
$pdata$??$?R_K@?$_Uhash_compare@_KU?$hash@_K@std@@U?$equal_to@_K@2@@std@@QEBA_KAEB_K@Z DD imagerel $LN3
	DD	imagerel $LN3+67
	DD	imagerel $unwind$??$?R_K@?$_Uhash_compare@_KU?$hash@_K@std@@U?$equal_to@_K@2@@std@@QEBA_KAEB_K@Z
pdata	ENDS
;	COMDAT pdata
pdata	SEGMENT
$pdata$??$?R_K_K@?$_Uhash_compare@_KU?$hash@_K@std@@U?$equal_to@_K@2@@std@@QEBA_NAEB_K0@Z DD imagerel $LN5
	DD	imagerel $LN5+103
	DD	imagerel $unwind$??$?R_K_K@?$_Uhash_compare@_KU?$hash@_K@std@@U?$equal_to@_K@2@@std@@QEBA_NAEB_K0@Z
pdata	ENDS
;	COMDAT pdata
pdata	SEGMENT
$pdata$??$make_pair@AEA_KAEAUBucket@@@std@@YA?AU?$pair@_KUBucket@@@0@AEA_KAEAUBucket@@@Z DD imagerel $LN3
	DD	imagerel $LN3+64
	DD	imagerel $unwind$??$make_pair@AEA_KAEAUBucket@@@std@@YA?AU?$pair@_KUBucket@@@0@AEA_KAEAUBucket@@@Z
pdata	ENDS
;	COMDAT pdata
pdata	SEGMENT
$pdata$??$?0_KUBucket@@$0A@@?$pair@$$CB_KUBucket@@@std@@QEAA@$$QEAU?$pair@_KUBucket@@@1@@Z DD imagerel $LN3
	DD	imagerel $LN3+83
	DD	imagerel $unwind$??$?0_KUBucket@@$0A@@?$pair@$$CB_KUBucket@@@std@@QEAA@$$QEAU?$pair@_KUBucket@@@1@@Z
pdata	ENDS
;	COMDAT pdata
pdata	SEGMENT
$pdata$??$insert@U?$pair@_KUBucket@@@std@@$0A@@?$unordered_map@_KUBucket@@U?$hash@_K@std@@U?$equal_to@_K@3@V?$allocator@U?$pair@$$CB_KUBucket@@@std@@@3@@std@@QEAA?AU?$pair@V?$_List_iterator@V?$_List_val@U?$_List_simple_types@U?$pair@$$CB_KUBucket@@@std@@@std@@@std@@@std@@_N@1@$$QEAU?$pair@_KUBucket@@@1@@Z DD imagerel $LN5
	DD	imagerel $LN5+80
	DD	imagerel $unwind$??$insert@U?$pair@_KUBucket@@@std@@$0A@@?$unordered_map@_KUBucket@@U?$hash@_K@std@@U?$equal_to@_K@3@V?$allocator@U?$pair@$$CB_KUBucket@@@std@@@3@@std@@QEAA?AU?$pair@V?$_List_iterator@V?$_List_val@U?$_List_simple_types@U?$pair@$$CB_KUBucket@@@std@@@std@@@std@@@std@@_N@1@$$QEAU?$pair@_KUBucket@@@1@@Z
pdata	ENDS
;	COMDAT pdata
pdata	SEGMENT
$pdata$??0?$_List_unchecked_const_iterator@V?$_List_val@U?$_List_simple_types@U?$pair@$$CB_KUBucket@@@std@@@std@@@std@@U_Iterator_base12@2@@std@@QEAA@PEAU?$_List_node@U?$pair@$$CB_KUBucket@@@std@@PEAX@1@PEBV?$_List_val@U?$_List_simple_types@U?$pair@$$CB_KUBucket@@@std@@@std@@@1@@Z DD imagerel $LN3
	DD	imagerel $LN3+81
	DD	imagerel $unwind$??0?$_List_unchecked_const_iterator@V?$_List_val@U?$_List_simple_types@U?$pair@$$CB_KUBucket@@@std@@@std@@@std@@U_Iterator_base12@2@@std@@QEAA@PEAU?$_List_node@U?$pair@$$CB_KUBucket@@@std@@PEAX@1@PEBV?$_List_val@U?$_List_simple_types@U?$pair@$$CB_KUBucket@@@std@@@std@@@1@@Z
pdata	ENDS
;	COMDAT pdata
pdata	SEGMENT
$pdata$??1?$_List_unchecked_const_iterator@V?$_List_val@U?$_List_simple_types@U?$pair@$$CB_KUBucket@@@std@@@std@@@std@@U_Iterator_base12@2@@std@@QEAA@XZ DD imagerel $LN3
	DD	imagerel $LN3+30
	DD	imagerel $unwind$??1?$_List_unchecked_const_iterator@V?$_List_val@U?$_List_simple_types@U?$pair@$$CB_KUBucket@@@std@@@std@@@std@@U_Iterator_base12@2@@std@@QEAA@XZ
pdata	ENDS
;	COMDAT pdata
pdata	SEGMENT
$pdata$??0?$_List_unchecked_const_iterator@V?$_List_val@U?$_List_simple_types@U?$pair@$$CB_KUBucket@@@std@@@std@@@std@@U_Iterator_base12@2@@std@@QEAA@$$QEAV01@@Z DD imagerel $LN3
	DD	imagerel $LN3+59
	DD	imagerel $unwind$??0?$_List_unchecked_const_iterator@V?$_List_val@U?$_List_simple_types@U?$pair@$$CB_KUBucket@@@std@@@std@@@std@@U_Iterator_base12@2@@std@@QEAA@$$QEAV01@@Z
pdata	ENDS
;	COMDAT pdata
pdata	SEGMENT
$pdata$??1?$_List_const_iterator@V?$_List_val@U?$_List_simple_types@U?$pair@$$CB_KUBucket@@@std@@@std@@@std@@@std@@QEAA@XZ DD imagerel $LN3
	DD	imagerel $LN3+30
	DD	imagerel $unwind$??1?$_List_const_iterator@V?$_List_val@U?$_List_simple_types@U?$pair@$$CB_KUBucket@@@std@@@std@@@std@@@std@@QEAA@XZ
pdata	ENDS
;	COMDAT pdata
pdata	SEGMENT
$pdata$??0?$_List_const_iterator@V?$_List_val@U?$_List_simple_types@U?$pair@$$CB_KUBucket@@@std@@@std@@@std@@@std@@QEAA@$$QEAV01@@Z DD imagerel $LN3
	DD	imagerel $LN3+43
	DD	imagerel $unwind$??0?$_List_const_iterator@V?$_List_val@U?$_List_simple_types@U?$pair@$$CB_KUBucket@@@std@@@std@@@std@@@std@@QEAA@$$QEAV01@@Z
pdata	ENDS
;	COMDAT pdata
pdata	SEGMENT
$pdata$??0?$_List_const_iterator@V?$_List_val@U?$_List_simple_types@U?$pair@$$CB_KUBucket@@@std@@@std@@@std@@@std@@QEAA@PEAU?$_List_node@U?$pair@$$CB_KUBucket@@@std@@PEAX@1@PEBV?$_List_val@U?$_List_simple_types@U?$pair@$$CB_KUBucket@@@std@@@std@@@1@@Z DD imagerel $LN3
	DD	imagerel $LN3+52
	DD	imagerel $unwind$??0?$_List_const_iterator@V?$_List_val@U?$_List_simple_types@U?$pair@$$CB_KUBucket@@@std@@@std@@@std@@@std@@QEAA@PEAU?$_List_node@U?$pair@$$CB_KUBucket@@@std@@PEAX@1@PEBV?$_List_val@U?$_List_simple_types@U?$pair@$$CB_KUBucket@@@std@@@std@@@1@@Z
pdata	ENDS
;	COMDAT pdata
pdata	SEGMENT
$pdata$??1?$_List_iterator@V?$_List_val@U?$_List_simple_types@U?$pair@$$CB_KUBucket@@@std@@@std@@@std@@@std@@QEAA@XZ DD imagerel $LN3
	DD	imagerel $LN3+30
	DD	imagerel $unwind$??1?$_List_iterator@V?$_List_val@U?$_List_simple_types@U?$pair@$$CB_KUBucket@@@std@@@std@@@std@@@std@@QEAA@XZ
pdata	ENDS
;	COMDAT pdata
pdata	SEGMENT
$pdata$??0?$_List_iterator@V?$_List_val@U?$_List_simple_types@U?$pair@$$CB_KUBucket@@@std@@@std@@@std@@@std@@QEAA@$$QEAV01@@Z DD imagerel $LN3
	DD	imagerel $LN3+43
	DD	imagerel $unwind$??0?$_List_iterator@V?$_List_val@U?$_List_simple_types@U?$pair@$$CB_KUBucket@@@std@@@std@@@std@@@std@@QEAA@$$QEAV01@@Z
pdata	ENDS
;	COMDAT pdata
pdata	SEGMENT
$pdata$??0?$_List_iterator@V?$_List_val@U?$_List_simple_types@U?$pair@$$CB_KUBucket@@@std@@@std@@@std@@@std@@QEAA@PEAU?$_List_node@U?$pair@$$CB_KUBucket@@@std@@PEAX@1@PEBV?$_List_val@U?$_List_simple_types@U?$pair@$$CB_KUBucket@@@std@@@std@@@1@@Z DD imagerel $LN3
	DD	imagerel $LN3+52
	DD	imagerel $unwind$??0?$_List_iterator@V?$_List_val@U?$_List_simple_types@U?$pair@$$CB_KUBucket@@@std@@@std@@@std@@@std@@QEAA@PEAU?$_List_node@U?$pair@$$CB_KUBucket@@@std@@PEAX@1@PEBV?$_List_val@U?$_List_simple_types@U?$pair@$$CB_KUBucket@@@std@@@std@@@1@@Z
pdata	ENDS
;	COMDAT pdata
pdata	SEGMENT
$pdata$??1?$pair@V?$_List_iterator@V?$_List_val@U?$_List_simple_types@U?$pair@$$CB_KUBucket@@@std@@@std@@@std@@@std@@_N@std@@QEAA@XZ DD imagerel $LN3
	DD	imagerel $LN3+33
	DD	imagerel $unwind$??1?$pair@V?$_List_iterator@V?$_List_val@U?$_List_simple_types@U?$pair@$$CB_KUBucket@@@std@@@std@@@std@@@std@@_N@std@@QEAA@XZ
pdata	ENDS
;	COMDAT pdata
pdata	SEGMENT
$pdata$?deallocate@?$allocator@U_Container_proxy@std@@@std@@QEAAXQEAU_Container_proxy@2@_K@Z DD imagerel $LN13
	DD	imagerel $LN13+193
	DD	imagerel $unwind$?deallocate@?$allocator@U_Container_proxy@std@@@std@@QEAAXQEAU_Container_proxy@2@_K@Z
pdata	ENDS
;	COMDAT pdata
pdata	SEGMENT
$pdata$?allocate@?$allocator@U_Container_proxy@std@@@std@@QEAAPEAU_Container_proxy@2@_K@Z DD imagerel $LN3
	DD	imagerel $LN3+55
	DD	imagerel $unwind$?allocate@?$allocator@U_Container_proxy@std@@@std@@QEAAPEAU_Container_proxy@2@_K@Z
pdata	ENDS
;	COMDAT pdata
pdata	SEGMENT
$pdata$??$?0V?$_List_unchecked_const_iterator@V?$_List_val@U?$_List_simple_types@_K@std@@@std@@U_Iterator_base0@2@@std@@@?$allocator@U_Container_proxy@std@@@std@@QEAA@AEBV?$allocator@V?$_List_unchecked_const_iterator@V?$_List_val@U?$_List_simple_types@_K@std@@@std@@U_Iterator_base0@2@@std@@@1@@Z DD imagerel $LN3
	DD	imagerel $LN3+42
	DD	imagerel $unwind$??$?0V?$_List_unchecked_const_iterator@V?$_List_val@U?$_List_simple_types@_K@std@@@std@@U_Iterator_base0@2@@std@@@?$allocator@U_Container_proxy@std@@@std@@QEAA@AEBV?$allocator@V?$_List_unchecked_const_iterator@V?$_List_val@U?$_List_simple_types@_K@std@@@std@@U_Iterator_base0@2@@std@@@1@@Z
pdata	ENDS
;	COMDAT pdata
pdata	SEGMENT
$pdata$??$exchange@PEAU_Container_proxy@std@@$$T@std@@YAPEAU_Container_proxy@0@AEAPEAU10@$$QEA$$T@Z DD imagerel $LN3
	DD	imagerel $LN3+67
	DD	imagerel $unwind$??$exchange@PEAU_Container_proxy@std@@$$T@std@@YAPEAU_Container_proxy@0@AEAPEAU10@$$QEA$$T@Z
pdata	ENDS
;	COMDAT pdata
pdata	SEGMENT
$pdata$??$_Delete_plain_internal@V?$allocator@U_Container_proxy@std@@@std@@@std@@YAXAEAV?$allocator@U_Container_proxy@std@@@0@QEAU_Container_proxy@0@@Z DD imagerel $LN3
	DD	imagerel $LN3+51
	DD	imagerel $unwind$??$_Delete_plain_internal@V?$allocator@U_Container_proxy@std@@@std@@@std@@YAXAEAV?$allocator@U_Container_proxy@std@@@0@QEAU_Container_proxy@0@@Z
pdata	ENDS
;	COMDAT pdata
pdata	SEGMENT
$pdata$??$emplace@_K@?$_Hash@V?$_Uset_traits@_KV?$_Uhash_compare@_KU?$hash@_K@std@@U?$equal_to@_K@2@@std@@V?$allocator@_K@2@$0A@@std@@@std@@QEAA?AU?$pair@V?$_List_const_iterator@V?$_List_val@U?$_List_simple_types@_K@std@@@std@@@std@@_N@1@$$QEA_K@Z DD imagerel $LN10
	DD	imagerel $LN10+577
	DD	imagerel $unwind$??$emplace@_K@?$_Hash@V?$_Uset_traits@_KV?$_Uhash_compare@_KU?$hash@_K@std@@U?$equal_to@_K@2@@std@@V?$allocator@_K@2@$0A@@std@@@std@@QEAA?AU?$pair@V?$_List_const_iterator@V?$_List_val@U?$_List_simple_types@_K@std@@@std@@@std@@_N@1@$$QEA_K@Z
pdata	ENDS
;	COMDAT pdata
pdata	SEGMENT
$pdata$?dtor$2@?0???$emplace@_K@?$_Hash@V?$_Uset_traits@_KV?$_Uhash_compare@_KU?$hash@_K@std@@U?$equal_to@_K@2@@std@@V?$allocator@_K@2@$0A@@std@@@std@@QEAA?AU?$pair@V?$_List_const_iterator@V?$_List_val@U?$_List_simple_types@_K@std@@@std@@@std@@_N@1@$$QEA_K@Z@4HA DD imagerel ?dtor$2@?0???$emplace@_K@?$_Hash@V?$_Uset_traits@_KV?$_Uhash_compare@_KU?$hash@_K@std@@U?$equal_to@_K@2@@std@@V?$allocator@_K@2@$0A@@std@@@std@@QEAA?AU?$pair@V?$_List_const_iterator@V?$_List_val@U?$_List_simple_types@_K@std@@@std@@@std@@_N@1@$$QEA_K@Z@4HA
	DD	imagerel ?dtor$2@?0???$emplace@_K@?$_Hash@V?$_Uset_traits@_KV?$_Uhash_compare@_KU?$hash@_K@std@@U?$equal_to@_K@2@@std@@V?$allocator@_K@2@$0A@@std@@@std@@QEAA?AU?$pair@V?$_List_const_iterator@V?$_List_val@U?$_List_simple_types@_K@std@@@std@@@std@@_N@1@$$QEA_K@Z@4HA+25
	DD	imagerel $unwind$?dtor$2@?0???$emplace@_K@?$_Hash@V?$_Uset_traits@_KV?$_Uhash_compare@_KU?$hash@_K@std@@U?$equal_to@_K@2@@std@@V?$allocator@_K@2@$0A@@std@@@std@@QEAA?AU?$pair@V?$_List_const_iterator@V?$_List_val@U?$_List_simple_types@_K@std@@@std@@@std@@_N@1@$$QEA_K@Z@4HA
pdata	ENDS
;	COMDAT pdata
pdata	SEGMENT
$pdata$??$emplace@AEB_K@?$_Hash@V?$_Uset_traits@_KV?$_Uhash_compare@_KU?$hash@_K@std@@U?$equal_to@_K@2@@std@@V?$allocator@_K@2@$0A@@std@@@std@@QEAA?AU?$pair@V?$_List_const_iterator@V?$_List_val@U?$_List_simple_types@_K@std@@@std@@@std@@_N@1@AEB_K@Z DD imagerel $LN10
	DD	imagerel $LN10+577
	DD	imagerel $unwind$??$emplace@AEB_K@?$_Hash@V?$_Uset_traits@_KV?$_Uhash_compare@_KU?$hash@_K@std@@U?$equal_to@_K@2@@std@@V?$allocator@_K@2@$0A@@std@@@std@@QEAA?AU?$pair@V?$_List_const_iterator@V?$_List_val@U?$_List_simple_types@_K@std@@@std@@@std@@_N@1@AEB_K@Z
pdata	ENDS
;	COMDAT pdata
pdata	SEGMENT
$pdata$?dtor$2@?0???$emplace@AEB_K@?$_Hash@V?$_Uset_traits@_KV?$_Uhash_compare@_KU?$hash@_K@std@@U?$equal_to@_K@2@@std@@V?$allocator@_K@2@$0A@@std@@@std@@QEAA?AU?$pair@V?$_List_const_iterator@V?$_List_val@U?$_List_simple_types@_K@std@@@std@@@std@@_N@1@AEB_K@Z@4HA DD imagerel ?dtor$2@?0???$emplace@AEB_K@?$_Hash@V?$_Uset_traits@_KV?$_Uhash_compare@_KU?$hash@_K@std@@U?$equal_to@_K@2@@std@@V?$allocator@_K@2@$0A@@std@@@std@@QEAA?AU?$pair@V?$_List_const_iterator@V?$_List_val@U?$_List_simple_types@_K@std@@@std@@@std@@_N@1@AEB_K@Z@4HA
	DD	imagerel ?dtor$2@?0???$emplace@AEB_K@?$_Hash@V?$_Uset_traits@_KV?$_Uhash_compare@_KU?$hash@_K@std@@U?$equal_to@_K@2@@std@@V?$allocator@_K@2@$0A@@std@@@std@@QEAA?AU?$pair@V?$_List_const_iterator@V?$_List_val@U?$_List_simple_types@_K@std@@@std@@@std@@_N@1@AEB_K@Z@4HA+25
	DD	imagerel $unwind$?dtor$2@?0???$emplace@AEB_K@?$_Hash@V?$_Uset_traits@_KV?$_Uhash_compare@_KU?$hash@_K@std@@U?$equal_to@_K@2@@std@@V?$allocator@_K@2@$0A@@std@@@std@@QEAA?AU?$pair@V?$_List_const_iterator@V?$_List_val@U?$_List_simple_types@_K@std@@@std@@@std@@_N@1@AEB_K@Z@4HA
pdata	ENDS
;	COMDAT pdata
pdata	SEGMENT
$pdata$??1?$_List_iterator@V?$_List_val@U?$_List_simple_types@_K@std@@@std@@@std@@QEAA@XZ DD imagerel $LN3
	DD	imagerel $LN3+30
	DD	imagerel $unwind$??1?$_List_iterator@V?$_List_val@U?$_List_simple_types@_K@std@@@std@@@std@@QEAA@XZ
pdata	ENDS
;	COMDAT pdata
pdata	SEGMENT
$pdata$??0?$_List_iterator@V?$_List_val@U?$_List_simple_types@_K@std@@@std@@@std@@QEAA@PEAU?$_List_node@_KPEAX@1@PEBV?$_List_val@U?$_List_simple_types@_K@std@@@1@@Z DD imagerel $LN3
	DD	imagerel $LN3+52
	DD	imagerel $unwind$??0?$_List_iterator@V?$_List_val@U?$_List_simple_types@_K@std@@@std@@@std@@QEAA@PEAU?$_List_node@_KPEAX@1@PEBV?$_List_val@U?$_List_simple_types@_K@std@@@1@@Z
pdata	ENDS
;	COMDAT pdata
pdata	SEGMENT
$pdata$??$?0U?$_List_node@_KPEAX@std@@@?$allocator@U_Container_proxy@std@@@std@@QEAA@AEBV?$allocator@U?$_List_node@_KPEAX@std@@@1@@Z DD imagerel $LN3
	DD	imagerel $LN3+42
	DD	imagerel $unwind$??$?0U?$_List_node@_KPEAX@std@@@?$allocator@U_Container_proxy@std@@@std@@QEAA@AEBV?$allocator@U?$_List_node@_KPEAX@std@@@1@@Z
pdata	ENDS
;	COMDAT pdata
pdata	SEGMENT
$pdata$??$?0V?$_List_unchecked_iterator@V?$_List_val@U?$_List_simple_types@U?$pair@$$CB_KUBucket@@@std@@@std@@@std@@@std@@@?$allocator@U_Container_proxy@std@@@std@@QEAA@AEBV?$allocator@V?$_List_unchecked_iterator@V?$_List_val@U?$_List_simple_types@U?$pair@$$CB_KUBucket@@@std@@@std@@@std@@@std@@@1@@Z DD imagerel $LN3
	DD	imagerel $LN3+42
	DD	imagerel $unwind$??$?0V?$_List_unchecked_iterator@V?$_List_val@U?$_List_simple_types@U?$pair@$$CB_KUBucket@@@std@@@std@@@std@@@std@@@?$allocator@U_Container_proxy@std@@@std@@QEAA@AEBV?$allocator@V?$_List_unchecked_iterator@V?$_List_val@U?$_List_simple_types@U?$pair@$$CB_KUBucket@@@std@@@std@@@std@@@std@@@1@@Z
pdata	ENDS
;	COMDAT pdata
pdata	SEGMENT
$pdata$??$?0U?$_List_node@U?$pair@$$CB_KUBucket@@@std@@PEAX@std@@@?$allocator@U_Container_proxy@std@@@std@@QEAA@AEBV?$allocator@U?$_List_node@U?$pair@$$CB_KUBucket@@@std@@PEAX@std@@@1@@Z DD imagerel $LN3
	DD	imagerel $LN3+42
	DD	imagerel $unwind$??$?0U?$_List_node@U?$pair@$$CB_KUBucket@@@std@@PEAX@std@@@?$allocator@U_Container_proxy@std@@@std@@QEAA@AEBV?$allocator@U?$_List_node@U?$pair@$$CB_KUBucket@@@std@@PEAX@std@@@1@@Z
pdata	ENDS
;	COMDAT pdata
pdata	SEGMENT
$pdata$??0?$_List_unchecked_const_iterator@V?$_List_val@U?$_List_simple_types@_K@std@@@std@@U_Iterator_base0@2@@std@@QEAA@PEAU?$_List_node@_KPEAX@1@PEBV?$_List_val@U?$_List_simple_types@_K@std@@@1@@Z DD imagerel $LN3
	DD	imagerel $LN3+71
	DD	imagerel $unwind$??0?$_List_unchecked_const_iterator@V?$_List_val@U?$_List_simple_types@_K@std@@@std@@U_Iterator_base0@2@@std@@QEAA@PEAU?$_List_node@_KPEAX@1@PEBV?$_List_val@U?$_List_simple_types@_K@std@@@1@@Z
pdata	ENDS
;	COMDAT pdata
pdata	SEGMENT
$pdata$??D?$_List_unchecked_const_iterator@V?$_List_val@U?$_List_simple_types@_K@std@@@std@@U_Iterator_base0@2@@std@@QEBAAEB_KXZ DD imagerel $LN3
	DD	imagerel $LN3+44
	DD	imagerel $unwind$??D?$_List_unchecked_const_iterator@V?$_List_val@U?$_List_simple_types@_K@std@@@std@@U_Iterator_base0@2@@std@@QEBAAEB_KXZ
pdata	ENDS
;	COMDAT pdata
pdata	SEGMENT
$pdata$??E?$_List_unchecked_const_iterator@V?$_List_val@U?$_List_simple_types@_K@std@@@std@@U_Iterator_base0@2@@std@@QEAAAEAV01@XZ DD imagerel $LN3
	DD	imagerel $LN3+54
	DD	imagerel $unwind$??E?$_List_unchecked_const_iterator@V?$_List_val@U?$_List_simple_types@_K@std@@@std@@U_Iterator_base0@2@@std@@QEAAAEAV01@XZ
pdata	ENDS
;	COMDAT pdata
pdata	SEGMENT
$pdata$??F?$_List_unchecked_const_iterator@V?$_List_val@U?$_List_simple_types@_K@std@@@std@@U_Iterator_base0@2@@std@@QEAAAEAV01@XZ DD imagerel $LN3
	DD	imagerel $LN3+55
	DD	imagerel $unwind$??F?$_List_unchecked_const_iterator@V?$_List_val@U?$_List_simple_types@_K@std@@@std@@U_Iterator_base0@2@@std@@QEAAAEAV01@XZ
pdata	ENDS
;	COMDAT pdata
pdata	SEGMENT
$pdata$??8?$_List_unchecked_const_iterator@V?$_List_val@U?$_List_simple_types@_K@std@@@std@@U_Iterator_base0@2@@std@@QEBA_NAEBV01@@Z DD imagerel $LN5
	DD	imagerel $LN5+74
	DD	imagerel $unwind$??8?$_List_unchecked_const_iterator@V?$_List_val@U?$_List_simple_types@_K@std@@@std@@U_Iterator_base0@2@@std@@QEBA_NAEBV01@@Z
pdata	ENDS
;	COMDAT pdata
pdata	SEGMENT
$pdata$??$_Destroy_range@PEAV?$_List_unchecked_const_iterator@V?$_List_val@U?$_List_simple_types@_K@std@@@std@@U_Iterator_base0@2@@std@@PEAV12@@std@@YAXPEAV?$_List_unchecked_const_iterator@V?$_List_val@U?$_List_simple_types@_K@std@@@std@@U_Iterator_base0@2@@0@QEAV10@@Z DD imagerel $LN3
	DD	imagerel $LN3+38
	DD	imagerel $unwind$??$_Destroy_range@PEAV?$_List_unchecked_const_iterator@V?$_List_val@U?$_List_simple_types@_K@std@@@std@@U_Iterator_base0@2@@std@@PEAV12@@std@@YAXPEAV?$_List_unchecked_const_iterator@V?$_List_val@U?$_List_simple_types@_K@std@@@std@@U_Iterator_base0@2@@0@QEAV10@@Z
pdata	ENDS
;	COMDAT pdata
pdata	SEGMENT
$pdata$??$?0AEBV?$allocator@_K@std@@$0A@@?$_Hash_vec@V?$allocator@V?$_List_unchecked_const_iterator@V?$_List_val@U?$_List_simple_types@_K@std@@@std@@U_Iterator_base0@2@@std@@@std@@@std@@QEAA@AEBV?$allocator@_K@1@@Z DD imagerel $LN3
	DD	imagerel $LN3+111
	DD	imagerel $unwind$??$?0AEBV?$allocator@_K@std@@$0A@@?$_Hash_vec@V?$allocator@V?$_List_unchecked_const_iterator@V?$_List_val@U?$_List_simple_types@_K@std@@@std@@U_Iterator_base0@2@@std@@@std@@@std@@QEAA@AEBV?$allocator@_K@1@@Z
pdata	ENDS
;	COMDAT pdata
pdata	SEGMENT
$pdata$??0?$_List_unchecked_iterator@V?$_List_val@U?$_List_simple_types@_K@std@@@std@@@std@@QEAA@PEAU?$_List_node@_KPEAX@1@PEBV?$_List_val@U?$_List_simple_types@_K@std@@@1@@Z DD imagerel $LN3
	DD	imagerel $LN3+52
	DD	imagerel $unwind$??0?$_List_unchecked_iterator@V?$_List_val@U?$_List_simple_types@_K@std@@@std@@@std@@QEAA@PEAU?$_List_node@_KPEAX@1@PEBV?$_List_val@U?$_List_simple_types@_K@std@@@1@@Z
pdata	ENDS
;	COMDAT pdata
pdata	SEGMENT
$pdata$??$_Free_non_head@V?$allocator@U?$_List_node@_KPEAX@std@@@std@@@?$_List_node@_KPEAX@std@@SAXAEAV?$allocator@U?$_List_node@_KPEAX@std@@@1@PEAU01@@Z DD imagerel $LN6
	DD	imagerel $LN6+107
	DD	imagerel $unwind$??$_Free_non_head@V?$allocator@U?$_List_node@_KPEAX@std@@@std@@@?$_List_node@_KPEAX@std@@SAXAEAV?$allocator@U?$_List_node@_KPEAX@std@@@1@PEAU01@@Z
pdata	ENDS
;	COMDAT pdata
pdata	SEGMENT
$pdata$??$_Freenode0@V?$allocator@U?$_List_node@_KPEAX@std@@@std@@@?$_List_node@_KPEAX@std@@SAXAEAV?$allocator@U?$_List_node@_KPEAX@std@@@1@PEAU01@@Z DD imagerel $LN3
	DD	imagerel $LN3+86
	DD	imagerel $unwind$??$_Freenode0@V?$allocator@U?$_List_node@_KPEAX@std@@@std@@@?$_List_node@_KPEAX@std@@SAXAEAV?$allocator@U?$_List_node@_KPEAX@std@@@1@PEAU01@@Z
pdata	ENDS
;	COMDAT pdata
pdata	SEGMENT
$pdata$??$addressof@V?$_List_val@U?$_List_simple_types@_K@std@@@std@@@std@@YAPEAV?$_List_val@U?$_List_simple_types@_K@std@@@0@AEAV10@@Z DD imagerel $LN3
	DD	imagerel $LN3+37
	DD	imagerel $unwind$??$addressof@V?$_List_val@U?$_List_simple_types@_K@std@@@std@@@std@@YAPEAV?$_List_val@U?$_List_simple_types@_K@std@@@0@AEAV10@@Z
pdata	ENDS
;	COMDAT pdata
pdata	SEGMENT
$pdata$??$_Destroy_range@PEAV?$_List_unchecked_iterator@V?$_List_val@U?$_List_simple_types@U?$pair@$$CB_KUBucket@@@std@@@std@@@std@@@std@@PEAV12@@std@@YAXPEAV?$_List_unchecked_iterator@V?$_List_val@U?$_List_simple_types@U?$pair@$$CB_KUBucket@@@std@@@std@@@std@@@0@QEAV10@@Z DD imagerel $LN3
	DD	imagerel $LN3+38
	DD	imagerel $unwind$??$_Destroy_range@PEAV?$_List_unchecked_iterator@V?$_List_val@U?$_List_simple_types@U?$pair@$$CB_KUBucket@@@std@@@std@@@std@@@std@@PEAV12@@std@@YAXPEAV?$_List_unchecked_iterator@V?$_List_val@U?$_List_simple_types@U?$pair@$$CB_KUBucket@@@std@@@std@@@std@@@0@QEAV10@@Z
pdata	ENDS
;	COMDAT pdata
pdata	SEGMENT
$pdata$??$?0AEBV?$allocator@U?$pair@$$CB_KUBucket@@@std@@@std@@$0A@@?$_Hash_vec@V?$allocator@V?$_List_unchecked_iterator@V?$_List_val@U?$_List_simple_types@U?$pair@$$CB_KUBucket@@@std@@@std@@@std@@@std@@@std@@@std@@QEAA@AEBV?$allocator@U?$pair@$$CB_KUBucket@@@std@@@1@@Z DD imagerel $LN3
	DD	imagerel $LN3+111
	DD	imagerel $unwind$??$?0AEBV?$allocator@U?$pair@$$CB_KUBucket@@@std@@@std@@$0A@@?$_Hash_vec@V?$allocator@V?$_List_unchecked_iterator@V?$_List_val@U?$_List_simple_types@U?$pair@$$CB_KUBucket@@@std@@@std@@@std@@@std@@@std@@@std@@QEAA@AEBV?$allocator@U?$pair@$$CB_KUBucket@@@std@@@1@@Z
pdata	ENDS
;	COMDAT pdata
pdata	SEGMENT
$pdata$??$_Free_non_head@V?$allocator@U?$_List_node@U?$pair@$$CB_KUBucket@@@std@@PEAX@std@@@std@@@?$_List_node@U?$pair@$$CB_KUBucket@@@std@@PEAX@std@@SAXAEAV?$allocator@U?$_List_node@U?$pair@$$CB_KUBucket@@@std@@PEAX@std@@@1@PEAU01@@Z DD imagerel $LN6
	DD	imagerel $LN6+107
	DD	imagerel $unwind$??$_Free_non_head@V?$allocator@U?$_List_node@U?$pair@$$CB_KUBucket@@@std@@PEAX@std@@@std@@@?$_List_node@U?$pair@$$CB_KUBucket@@@std@@PEAX@std@@SAXAEAV?$allocator@U?$_List_node@U?$pair@$$CB_KUBucket@@@std@@PEAX@std@@@1@PEAU01@@Z
pdata	ENDS
;	COMDAT pdata
pdata	SEGMENT
$pdata$??$_Freenode0@V?$allocator@U?$_List_node@U?$pair@$$CB_KUBucket@@@std@@PEAX@std@@@std@@@?$_List_node@U?$pair@$$CB_KUBucket@@@std@@PEAX@std@@SAXAEAV?$allocator@U?$_List_node@U?$pair@$$CB_KUBucket@@@std@@PEAX@std@@@1@PEAU01@@Z DD imagerel $LN3
	DD	imagerel $LN3+86
	DD	imagerel $unwind$??$_Freenode0@V?$allocator@U?$_List_node@U?$pair@$$CB_KUBucket@@@std@@PEAX@std@@@std@@@?$_List_node@U?$pair@$$CB_KUBucket@@@std@@PEAX@std@@SAXAEAV?$allocator@U?$_List_node@U?$pair@$$CB_KUBucket@@@std@@PEAX@std@@@1@PEAU01@@Z
pdata	ENDS
;	COMDAT pdata
pdata	SEGMENT
$pdata$??$?0U_Zero_then_variadic_args_t@std@@M@?$_Compressed_pair@U?$hash@_K@std@@V?$_Compressed_pair@U?$equal_to@_K@std@@M$00@2@$00@std@@QEAA@U_Zero_then_variadic_args_t@1@$$QEAU21@$$QEAM@Z DD imagerel $LN3
	DD	imagerel $LN3+79
	DD	imagerel $unwind$??$?0U_Zero_then_variadic_args_t@std@@M@?$_Compressed_pair@U?$hash@_K@std@@V?$_Compressed_pair@U?$equal_to@_K@std@@M$00@2@$00@std@@QEAA@U_Zero_then_variadic_args_t@1@$$QEAU21@$$QEAM@Z
pdata	ENDS
;	COMDAT pdata
pdata	SEGMENT
$pdata$??$?0M@?$_Compressed_pair@U?$equal_to@_K@std@@M$00@std@@QEAA@U_Zero_then_variadic_args_t@1@$$QEAM@Z DD imagerel $LN3
	DD	imagerel $LN3+62
	DD	imagerel $unwind$??$?0M@?$_Compressed_pair@U?$equal_to@_K@std@@M$00@std@@QEAA@U_Zero_then_variadic_args_t@1@$$QEAM@Z
pdata	ENDS
;	COMDAT pdata
pdata	SEGMENT
$pdata$??$uninitialized_fill@PEAV?$_List_unchecked_const_iterator@V?$_List_val@U?$_List_simple_types@_K@std@@@std@@U_Iterator_base0@2@@std@@V12@@std@@YAXQEAV?$_List_unchecked_const_iterator@V?$_List_val@U?$_List_simple_types@_K@std@@@std@@U_Iterator_base0@2@@0@0AEBV10@@Z DD imagerel $LN6
	DD	imagerel $LN6+146
	DD	imagerel $unwind$??$uninitialized_fill@PEAV?$_List_unchecked_const_iterator@V?$_List_val@U?$_List_simple_types@_K@std@@@std@@U_Iterator_base0@2@@std@@V12@@std@@YAXQEAV?$_List_unchecked_const_iterator@V?$_List_val@U?$_List_simple_types@_K@std@@@std@@U_Iterator_base0@2@@0@0AEBV10@@Z
pdata	ENDS
;	COMDAT pdata
pdata	SEGMENT
$pdata$?dtor$0@?0???$uninitialized_fill@PEAV?$_List_unchecked_const_iterator@V?$_List_val@U?$_List_simple_types@_K@std@@@std@@U_Iterator_base0@2@@std@@V12@@std@@YAXQEAV?$_List_unchecked_const_iterator@V?$_List_val@U?$_List_simple_types@_K@std@@@std@@U_Iterator_base0@2@@0@0AEBV10@@Z@4HA DD imagerel ?dtor$0@?0???$uninitialized_fill@PEAV?$_List_unchecked_const_iterator@V?$_List_val@U?$_List_simple_types@_K@std@@@std@@U_Iterator_base0@2@@std@@V12@@std@@YAXQEAV?$_List_unchecked_const_iterator@V?$_List_val@U?$_List_simple_types@_K@std@@@std@@U_Iterator_base0@2@@0@0AEBV10@@Z@4HA
	DD	imagerel ?dtor$0@?0???$uninitialized_fill@PEAV?$_List_unchecked_const_iterator@V?$_List_val@U?$_List_simple_types@_K@std@@@std@@U_Iterator_base0@2@@std@@V12@@std@@YAXQEAV?$_List_unchecked_const_iterator@V?$_List_val@U?$_List_simple_types@_K@std@@@std@@U_Iterator_base0@2@@0@0AEBV10@@Z@4HA+25
	DD	imagerel $unwind$?dtor$0@?0???$uninitialized_fill@PEAV?$_List_unchecked_const_iterator@V?$_List_val@U?$_List_simple_types@_K@std@@@std@@U_Iterator_base0@2@@std@@V12@@std@@YAXQEAV?$_List_unchecked_const_iterator@V?$_List_val@U?$_List_simple_types@_K@std@@@std@@U_Iterator_base0@2@@0@0AEBV10@@Z@4HA
pdata	ENDS
;	COMDAT pdata
pdata	SEGMENT
$pdata$??$fill@PEAV?$_List_unchecked_const_iterator@V?$_List_val@U?$_List_simple_types@_K@std@@@std@@U_Iterator_base0@2@@std@@V12@@std@@YAXQEAV?$_List_unchecked_const_iterator@V?$_List_val@U?$_List_simple_types@_K@std@@@std@@U_Iterator_base0@2@@0@0AEBV10@@Z DD imagerel $LN7
	DD	imagerel $LN7+130
	DD	imagerel $unwind$??$fill@PEAV?$_List_unchecked_const_iterator@V?$_List_val@U?$_List_simple_types@_K@std@@@std@@U_Iterator_base0@2@@std@@V12@@std@@YAXQEAV?$_List_unchecked_const_iterator@V?$_List_val@U?$_List_simple_types@_K@std@@@std@@U_Iterator_base0@2@@0@0AEBV10@@Z
pdata	ENDS
;	COMDAT pdata
pdata	SEGMENT
$pdata$??$max@_K@std@@YAAEB_KAEB_K0@Z DD imagerel $LN5
	DD	imagerel $LN5+84
	DD	imagerel $unwind$??$max@_K@std@@YAAEB_KAEB_K0@Z
pdata	ENDS
;	COMDAT pdata
pdata	SEGMENT
$pdata$??$_Deallocate@$0BA@$0A@@std@@YAXPEAX_K@Z DD imagerel $LN6
	DD	imagerel $LN6+98
	DD	imagerel $unwind$??$_Deallocate@$0BA@$0A@@std@@YAXPEAX_K@Z
pdata	ENDS
;	COMDAT pdata
pdata	SEGMENT
$pdata$??$?0AEBV?$allocator@_K@std@@$$V@?$_Compressed_pair@V?$allocator@U?$_List_node@_KPEAX@std@@@std@@V?$_List_val@U?$_List_simple_types@_K@std@@@2@$00@std@@QEAA@U_One_then_variadic_args_t@1@AEBV?$allocator@_K@1@@Z DD imagerel $LN3
	DD	imagerel $LN3+71
	DD	imagerel $unwind$??$?0AEBV?$allocator@_K@std@@$$V@?$_Compressed_pair@V?$allocator@U?$_List_node@_KPEAX@std@@@std@@V?$_List_val@U?$_List_simple_types@_K@std@@@2@$00@std@@QEAA@U_One_then_variadic_args_t@1@AEBV?$allocator@_K@1@@Z
pdata	ENDS
;	COMDAT pdata
pdata	SEGMENT
$pdata$??$?0_K@?$allocator@U?$_List_node@_KPEAX@std@@@std@@QEAA@AEBV?$allocator@_K@1@@Z DD imagerel $LN3
	DD	imagerel $LN3+42
	DD	imagerel $unwind$??$?0_K@?$allocator@U?$_List_node@_KPEAX@std@@@std@@QEAA@AEBV?$allocator@_K@1@@Z
pdata	ENDS
;	COMDAT pdata
pdata	SEGMENT
$pdata$??$uninitialized_fill@PEAV?$_List_unchecked_iterator@V?$_List_val@U?$_List_simple_types@U?$pair@$$CB_KUBucket@@@std@@@std@@@std@@@std@@V12@@std@@YAXQEAV?$_List_unchecked_iterator@V?$_List_val@U?$_List_simple_types@U?$pair@$$CB_KUBucket@@@std@@@std@@@std@@@0@0AEBV10@@Z DD imagerel $LN6
	DD	imagerel $LN6+146
	DD	imagerel $unwind$??$uninitialized_fill@PEAV?$_List_unchecked_iterator@V?$_List_val@U?$_List_simple_types@U?$pair@$$CB_KUBucket@@@std@@@std@@@std@@@std@@V12@@std@@YAXQEAV?$_List_unchecked_iterator@V?$_List_val@U?$_List_simple_types@U?$pair@$$CB_KUBucket@@@std@@@std@@@std@@@0@0AEBV10@@Z
pdata	ENDS
;	COMDAT pdata
pdata	SEGMENT
$pdata$?dtor$0@?0???$uninitialized_fill@PEAV?$_List_unchecked_iterator@V?$_List_val@U?$_List_simple_types@U?$pair@$$CB_KUBucket@@@std@@@std@@@std@@@std@@V12@@std@@YAXQEAV?$_List_unchecked_iterator@V?$_List_val@U?$_List_simple_types@U?$pair@$$CB_KUBucket@@@std@@@std@@@std@@@0@0AEBV10@@Z@4HA DD imagerel ?dtor$0@?0???$uninitialized_fill@PEAV?$_List_unchecked_iterator@V?$_List_val@U?$_List_simple_types@U?$pair@$$CB_KUBucket@@@std@@@std@@@std@@@std@@V12@@std@@YAXQEAV?$_List_unchecked_iterator@V?$_List_val@U?$_List_simple_types@U?$pair@$$CB_KUBucket@@@std@@@std@@@std@@@0@0AEBV10@@Z@4HA
	DD	imagerel ?dtor$0@?0???$uninitialized_fill@PEAV?$_List_unchecked_iterator@V?$_List_val@U?$_List_simple_types@U?$pair@$$CB_KUBucket@@@std@@@std@@@std@@@std@@V12@@std@@YAXQEAV?$_List_unchecked_iterator@V?$_List_val@U?$_List_simple_types@U?$pair@$$CB_KUBucket@@@std@@@std@@@std@@@0@0AEBV10@@Z@4HA+25
	DD	imagerel $unwind$?dtor$0@?0???$uninitialized_fill@PEAV?$_List_unchecked_iterator@V?$_List_val@U?$_List_simple_types@U?$pair@$$CB_KUBucket@@@std@@@std@@@std@@@std@@V12@@std@@YAXQEAV?$_List_unchecked_iterator@V?$_List_val@U?$_List_simple_types@U?$pair@$$CB_KUBucket@@@std@@@std@@@std@@@0@0AEBV10@@Z@4HA
pdata	ENDS
;	COMDAT pdata
pdata	SEGMENT
$pdata$??$fill@PEAV?$_List_unchecked_iterator@V?$_List_val@U?$_List_simple_types@U?$pair@$$CB_KUBucket@@@std@@@std@@@std@@@std@@V12@@std@@YAXQEAV?$_List_unchecked_iterator@V?$_List_val@U?$_List_simple_types@U?$pair@$$CB_KUBucket@@@std@@@std@@@std@@@0@0AEBV10@@Z DD imagerel $LN7
	DD	imagerel $LN7+130
	DD	imagerel $unwind$??$fill@PEAV?$_List_unchecked_iterator@V?$_List_val@U?$_List_simple_types@U?$pair@$$CB_KUBucket@@@std@@@std@@@std@@@std@@V12@@std@@YAXQEAV?$_List_unchecked_iterator@V?$_List_val@U?$_List_simple_types@U?$pair@$$CB_KUBucket@@@std@@@std@@@std@@@0@0AEBV10@@Z
pdata	ENDS
;	COMDAT pdata
pdata	SEGMENT
$pdata$??$?0AEBV?$allocator@U?$pair@$$CB_KUBucket@@@std@@@std@@$$V@?$_Compressed_pair@V?$allocator@U?$_List_node@U?$pair@$$CB_KUBucket@@@std@@PEAX@std@@@std@@V?$_List_val@U?$_List_simple_types@U?$pair@$$CB_KUBucket@@@std@@@std@@@2@$00@std@@QEAA@U_One_then_variadic_args_t@1@AEBV?$allocator@U?$pair@$$CB_KUBucket@@@std@@@1@@Z DD imagerel $LN3
	DD	imagerel $LN3+71
	DD	imagerel $unwind$??$?0AEBV?$allocator@U?$pair@$$CB_KUBucket@@@std@@@std@@$$V@?$_Compressed_pair@V?$allocator@U?$_List_node@U?$pair@$$CB_KUBucket@@@std@@PEAX@std@@@std@@V?$_List_val@U?$_List_simple_types@U?$pair@$$CB_KUBucket@@@std@@@std@@@2@$00@std@@QEAA@U_One_then_variadic_args_t@1@AEBV?$allocator@U?$pair@$$CB_KUBucket@@@std@@@1@@Z
pdata	ENDS
;	COMDAT pdata
pdata	SEGMENT
$pdata$??$?0U?$pair@$$CB_KUBucket@@@std@@@?$allocator@U?$_List_node@U?$pair@$$CB_KUBucket@@@std@@PEAX@std@@@std@@QEAA@AEBV?$allocator@U?$pair@$$CB_KUBucket@@@std@@@1@@Z DD imagerel $LN3
	DD	imagerel $LN3+42
	DD	imagerel $unwind$??$?0U?$pair@$$CB_KUBucket@@@std@@@?$allocator@U?$_List_node@U?$pair@$$CB_KUBucket@@@std@@PEAX@std@@@std@@QEAA@AEBV?$allocator@U?$pair@$$CB_KUBucket@@@std@@@1@@Z
pdata	ENDS
;	COMDAT pdata
pdata	SEGMENT
$pdata$??$_Get_size_of_n@$07@std@@YA_K_K@Z DD imagerel $LN4
	DD	imagerel $LN4+80
	DD	imagerel $unwind$??$_Get_size_of_n@$07@std@@YA_K_K@Z
pdata	ENDS
;	COMDAT pdata
pdata	SEGMENT
$pdata$??$_Allocate@$0BA@U_Default_allocate_traits@std@@$0A@@std@@YAPEAX_K@Z DD imagerel $LN6
	DD	imagerel $LN6+86
	DD	imagerel $unwind$??$_Allocate@$0BA@U_Default_allocate_traits@std@@$0A@@std@@YAPEAX_K@Z
pdata	ENDS
;	COMDAT pdata
pdata	SEGMENT
$pdata$??0?$_Container_proxy_ptr12@V?$allocator@U_Container_proxy@std@@@std@@@std@@QEAA@AEAV?$allocator@U_Container_proxy@std@@@1@AEAU_Container_base12@1@@Z DD imagerel $LN3
	DD	imagerel $LN3+140
	DD	imagerel $unwind$??0?$_Container_proxy_ptr12@V?$allocator@U_Container_proxy@std@@@std@@@std@@QEAA@AEAV?$allocator@U_Container_proxy@std@@@1@AEAU_Container_base12@1@@Z
pdata	ENDS
;	COMDAT pdata
pdata	SEGMENT
$pdata$??1?$_Container_proxy_ptr12@V?$allocator@U_Container_proxy@std@@@std@@@std@@QEAA@XZ DD imagerel $LN4
	DD	imagerel $LN4+63
	DD	imagerel $unwind$??1?$_Container_proxy_ptr12@V?$allocator@U_Container_proxy@std@@@std@@@std@@QEAA@XZ
pdata	ENDS
;	COMDAT pdata
pdata	SEGMENT
$pdata$??$_Construct_in_place@PEAU?$_List_node@_KPEAX@std@@AEAPEAU12@@std@@YAXAEAPEAU?$_List_node@_KPEAX@0@0@Z DD imagerel $LN5
	DD	imagerel $LN5+113
	DD	imagerel $unwind$??$_Construct_in_place@PEAU?$_List_node@_KPEAX@std@@AEAPEAU12@@std@@YAXAEAPEAU?$_List_node@_KPEAX@0@0@Z
pdata	ENDS
;	COMDAT pdata
pdata	SEGMENT
$pdata$??$_Construct_in_place@PEAU?$_List_node@U?$pair@$$CB_KUBucket@@@std@@PEAX@std@@AEAPEAU12@@std@@YAXAEAPEAU?$_List_node@U?$pair@$$CB_KUBucket@@@std@@PEAX@0@0@Z DD imagerel $LN5
	DD	imagerel $LN5+113
	DD	imagerel $unwind$??$_Construct_in_place@PEAU?$_List_node@U?$pair@$$CB_KUBucket@@@std@@PEAX@std@@AEAPEAU12@@std@@YAXAEAPEAU?$_List_node@U?$pair@$$CB_KUBucket@@@std@@PEAX@0@0@Z
pdata	ENDS
;	COMDAT pdata
pdata	SEGMENT
$pdata$??$_Unfancy@U_Container_proxy@std@@@std@@YAPEAU_Container_proxy@0@PEAU10@@Z DD imagerel $LN3
	DD	imagerel $LN3+37
	DD	imagerel $unwind$??$_Unfancy@U_Container_proxy@std@@@std@@YAPEAU_Container_proxy@0@PEAU10@@Z
pdata	ENDS
;	COMDAT pdata
pdata	SEGMENT
$pdata$??$_Get_size_of_n@$0BI@@std@@YA_K_K@Z DD imagerel $LN4
	DD	imagerel $LN4+77
	DD	imagerel $unwind$??$_Get_size_of_n@$0BI@@std@@YA_K_K@Z
pdata	ENDS
;	COMDAT pdata
pdata	SEGMENT
$pdata$??$_Get_size_of_n@$0DA@@std@@YA_K_K@Z DD imagerel $LN4
	DD	imagerel $LN4+77
	DD	imagerel $unwind$??$_Get_size_of_n@$0DA@@std@@YA_K_K@Z
pdata	ENDS
;	COMDAT pdata
pdata	SEGMENT
$pdata$??$_Get_size_of_n@$0BA@@std@@YA_K_K@Z DD imagerel $LN4
	DD	imagerel $LN4+77
	DD	imagerel $unwind$??$_Get_size_of_n@$0BA@@std@@YA_K_K@Z
pdata	ENDS
;	COMDAT pdata
pdata	SEGMENT
$pdata$??$addressof@U_Container_proxy@std@@@std@@YAPEAU_Container_proxy@0@AEAU10@@Z DD imagerel $LN3
	DD	imagerel $LN3+37
	DD	imagerel $unwind$??$addressof@U_Container_proxy@std@@@std@@YAPEAU_Container_proxy@0@AEAU10@@Z
pdata	ENDS
;	COMDAT pdata
pdata	SEGMENT
$pdata$??$construct_at@U_Container_proxy@std@@PEAU_Container_base12@2@$0A@@std@@YAPEAU_Container_proxy@0@QEAU10@$$QEAPEAU_Container_base12@0@@Z DD imagerel $LN3
	DD	imagerel $LN3+72
	DD	imagerel $unwind$??$construct_at@U_Container_proxy@std@@PEAU_Container_base12@2@$0A@@std@@YAPEAU_Container_proxy@0@QEAU10@$$QEAPEAU_Container_base12@0@@Z
pdata	ENDS
;	COMDAT pdata
pdata	SEGMENT
$pdata$??$min_element@V?$_List_const_iterator@V?$_List_val@U?$_List_simple_types@_K@std@@@std@@@std@@U?$less@X@2@@std@@YA?AV?$_List_const_iterator@V?$_List_val@U?$_List_simple_types@_K@std@@@std@@@0@V10@0U?$less@X@0@@Z DD imagerel $LN7
	DD	imagerel $LN7+314
	DD	imagerel $unwind$??$min_element@V?$_List_const_iterator@V?$_List_val@U?$_List_simple_types@_K@std@@@std@@@std@@U?$less@X@2@@std@@YA?AV?$_List_const_iterator@V?$_List_val@U?$_List_simple_types@_K@std@@@std@@@0@V10@0U?$less@X@0@@Z
pdata	ENDS
;	COMDAT pdata
pdata	SEGMENT
$pdata$?dtor$0@?0???$min_element@V?$_List_const_iterator@V?$_List_val@U?$_List_simple_types@_K@std@@@std@@@std@@U?$less@X@2@@std@@YA?AV?$_List_const_iterator@V?$_List_val@U?$_List_simple_types@_K@std@@@std@@@0@V10@0U?$less@X@0@@Z@4HA DD imagerel ?dtor$0@?0???$min_element@V?$_List_const_iterator@V?$_List_val@U?$_List_simple_types@_K@std@@@std@@@std@@U?$less@X@2@@std@@YA?AV?$_List_const_iterator@V?$_List_val@U?$_List_simple_types@_K@std@@@std@@@0@V10@0U?$less@X@0@@Z@4HA
	DD	imagerel ?dtor$0@?0???$min_element@V?$_List_const_iterator@V?$_List_val@U?$_List_simple_types@_K@std@@@std@@@std@@U?$less@X@2@@std@@YA?AV?$_List_const_iterator@V?$_List_val@U?$_List_simple_types@_K@std@@@std@@@0@V10@0U?$less@X@0@@Z@4HA+28
	DD	imagerel $unwind$?dtor$0@?0???$min_element@V?$_List_const_iterator@V?$_List_val@U?$_List_simple_types@_K@std@@@std@@@std@@U?$less@X@2@@std@@YA?AV?$_List_const_iterator@V?$_List_val@U?$_List_simple_types@_K@std@@@std@@@0@V10@0U?$less@X@0@@Z@4HA
pdata	ENDS
;	COMDAT pdata
pdata	SEGMENT
$pdata$?dtor$1@?0???$min_element@V?$_List_const_iterator@V?$_List_val@U?$_List_simple_types@_K@std@@@std@@@std@@U?$less@X@2@@std@@YA?AV?$_List_const_iterator@V?$_List_val@U?$_List_simple_types@_K@std@@@std@@@0@V10@0U?$less@X@0@@Z@4HA DD imagerel ?dtor$1@?0???$min_element@V?$_List_const_iterator@V?$_List_val@U?$_List_simple_types@_K@std@@@std@@@std@@U?$less@X@2@@std@@YA?AV?$_List_const_iterator@V?$_List_val@U?$_List_simple_types@_K@std@@@std@@@0@V10@0U?$less@X@0@@Z@4HA
	DD	imagerel ?dtor$1@?0???$min_element@V?$_List_const_iterator@V?$_List_val@U?$_List_simple_types@_K@std@@@std@@@std@@U?$less@X@2@@std@@YA?AV?$_List_const_iterator@V?$_List_val@U?$_List_simple_types@_K@std@@@std@@@0@V10@0U?$less@X@0@@Z@4HA+28
	DD	imagerel $unwind$?dtor$1@?0???$min_element@V?$_List_const_iterator@V?$_List_val@U?$_List_simple_types@_K@std@@@std@@@std@@U?$less@X@2@@std@@YA?AV?$_List_const_iterator@V?$_List_val@U?$_List_simple_types@_K@std@@@std@@@0@V10@0U?$less@X@0@@Z@4HA
pdata	ENDS
;	COMDAT pdata
pdata	SEGMENT
$pdata$??$_Find_last@_K@?$_Hash@V?$_Uset_traits@_KV?$_Uhash_compare@_KU?$hash@_K@std@@U?$equal_to@_K@2@@std@@V?$allocator@_K@2@$0A@@std@@@std@@IEBA?AU?$_Hash_find_last_result@PEAU?$_List_node@_KPEAX@std@@@1@AEB_K_K@Z DD imagerel $LN9
	DD	imagerel $LN9+357
	DD	imagerel $unwind$??$_Find_last@_K@?$_Hash@V?$_Uset_traits@_KV?$_Uhash_compare@_KU?$hash@_K@std@@U?$equal_to@_K@2@@std@@V?$allocator@_K@2@$0A@@std@@@std@@IEBA?AU?$_Hash_find_last_result@PEAU?$_List_node@_KPEAX@std@@@1@AEB_K_K@Z
pdata	ENDS
;	COMDAT pdata
pdata	SEGMENT
$pdata$??$?0AEA_KAEAUBucket@@$0A@@?$pair@_KUBucket@@@std@@QEAA@AEA_KAEAUBucket@@@Z DD imagerel $LN3
	DD	imagerel $LN3+84
	DD	imagerel $unwind$??$?0AEA_KAEAUBucket@@$0A@@?$pair@_KUBucket@@@std@@QEAA@AEA_KAEAUBucket@@@Z
pdata	ENDS
;	COMDAT pdata
pdata	SEGMENT
$pdata$??$emplace@U?$pair@_KUBucket@@@std@@@?$_Hash@V?$_Umap_traits@_KUBucket@@V?$_Uhash_compare@_KU?$hash@_K@std@@U?$equal_to@_K@2@@std@@V?$allocator@U?$pair@$$CB_KUBucket@@@std@@@3@$0A@@std@@@std@@QEAA?AU?$pair@V?$_List_iterator@V?$_List_val@U?$_List_simple_types@U?$pair@$$CB_KUBucket@@@std@@@std@@@std@@@std@@_N@1@$$QEAU?$pair@_KUBucket@@@1@@Z DD imagerel $LN10
	DD	imagerel $LN10+577
	DD	imagerel $unwind$??$emplace@U?$pair@_KUBucket@@@std@@@?$_Hash@V?$_Umap_traits@_KUBucket@@V?$_Uhash_compare@_KU?$hash@_K@std@@U?$equal_to@_K@2@@std@@V?$allocator@U?$pair@$$CB_KUBucket@@@std@@@3@$0A@@std@@@std@@QEAA?AU?$pair@V?$_List_iterator@V?$_List_val@U?$_List_simple_types@U?$pair@$$CB_KUBucket@@@std@@@std@@@std@@@std@@_N@1@$$QEAU?$pair@_KUBucket@@@1@@Z
pdata	ENDS
;	COMDAT pdata
pdata	SEGMENT
$pdata$?dtor$2@?0???$emplace@U?$pair@_KUBucket@@@std@@@?$_Hash@V?$_Umap_traits@_KUBucket@@V?$_Uhash_compare@_KU?$hash@_K@std@@U?$equal_to@_K@2@@std@@V?$allocator@U?$pair@$$CB_KUBucket@@@std@@@3@$0A@@std@@@std@@QEAA?AU?$pair@V?$_List_iterator@V?$_List_val@U?$_List_simple_types@U?$pair@$$CB_KUBucket@@@std@@@std@@@std@@@std@@_N@1@$$QEAU?$pair@_KUBucket@@@1@@Z@4HA DD imagerel ?dtor$2@?0???$emplace@U?$pair@_KUBucket@@@std@@@?$_Hash@V?$_Umap_traits@_KUBucket@@V?$_Uhash_compare@_KU?$hash@_K@std@@U?$equal_to@_K@2@@std@@V?$allocator@U?$pair@$$CB_KUBucket@@@std@@@3@$0A@@std@@@std@@QEAA?AU?$pair@V?$_List_iterator@V?$_List_val@U?$_List_simple_types@U?$pair@$$CB_KUBucket@@@std@@@std@@@std@@@std@@_N@1@$$QEAU?$pair@_KUBucket@@@1@@Z@4HA
	DD	imagerel ?dtor$2@?0???$emplace@U?$pair@_KUBucket@@@std@@@?$_Hash@V?$_Umap_traits@_KUBucket@@V?$_Uhash_compare@_KU?$hash@_K@std@@U?$equal_to@_K@2@@std@@V?$allocator@U?$pair@$$CB_KUBucket@@@std@@@3@$0A@@std@@@std@@QEAA?AU?$pair@V?$_List_iterator@V?$_List_val@U?$_List_simple_types@U?$pair@$$CB_KUBucket@@@std@@@std@@@std@@@std@@_N@1@$$QEAU?$pair@_KUBucket@@@1@@Z@4HA+25
	DD	imagerel $unwind$?dtor$2@?0???$emplace@U?$pair@_KUBucket@@@std@@@?$_Hash@V?$_Umap_traits@_KUBucket@@V?$_Uhash_compare@_KU?$hash@_K@std@@U?$equal_to@_K@2@@std@@V?$allocator@U?$pair@$$CB_KUBucket@@@std@@@3@$0A@@std@@@std@@QEAA?AU?$pair@V?$_List_iterator@V?$_List_val@U?$_List_simple_types@U?$pair@$$CB_KUBucket@@@std@@@std@@@std@@@std@@_N@1@$$QEAU?$pair@_KUBucket@@@1@@Z@4HA
pdata	ENDS
;	COMDAT pdata
pdata	SEGMENT
$pdata$??$_Deallocate_plain@V?$allocator@U_Container_proxy@std@@@std@@@std@@YAXAEAV?$allocator@U_Container_proxy@std@@@0@QEAU_Container_proxy@0@@Z DD imagerel $LN3
	DD	imagerel $LN3+58
	DD	imagerel $unwind$??$_Deallocate_plain@V?$allocator@U_Container_proxy@std@@@std@@@std@@YAXAEAV?$allocator@U_Container_proxy@std@@@0@QEAU_Container_proxy@0@@Z
pdata	ENDS
;	COMDAT pdata
pdata	SEGMENT
$pdata$?_Extract@?$_In_place_key_extract_set@_K_K@std@@SAAEB_KAEB_K@Z DD imagerel $LN3
	DD	imagerel $LN3+37
	DD	imagerel $unwind$?_Extract@?$_In_place_key_extract_set@_K_K@std@@SAAEB_KAEB_K@Z
pdata	ENDS
;	COMDAT pdata
pdata	SEGMENT
$pdata$??0?$_Alloc_construct_ptr@V?$allocator@U?$_List_node@_KPEAX@std@@@std@@@std@@QEAA@AEAV?$allocator@U?$_List_node@_KPEAX@std@@@1@@Z DD imagerel $LN3
	DD	imagerel $LN3+65
	DD	imagerel $unwind$??0?$_Alloc_construct_ptr@V?$allocator@U?$_List_node@_KPEAX@std@@@std@@@std@@QEAA@AEAV?$allocator@U?$_List_node@_KPEAX@std@@@1@@Z
pdata	ENDS
;	COMDAT pdata
pdata	SEGMENT
$pdata$?_Release@?$_Alloc_construct_ptr@V?$allocator@U?$_List_node@_KPEAX@std@@@std@@@std@@QEAAPEAU?$_List_node@_KPEAX@2@XZ DD imagerel $LN3
	DD	imagerel $LN3+61
	DD	imagerel $unwind$?_Release@?$_Alloc_construct_ptr@V?$allocator@U?$_List_node@_KPEAX@std@@@std@@@std@@QEAAPEAU?$_List_node@_KPEAX@2@XZ
pdata	ENDS
;	COMDAT pdata
pdata	SEGMENT
$pdata$?_Allocate@?$_Alloc_construct_ptr@V?$allocator@U?$_List_node@_KPEAX@std@@@std@@@std@@QEAAXXZ DD imagerel $LN3
	DD	imagerel $LN3+78
	DD	imagerel $unwind$?_Allocate@?$_Alloc_construct_ptr@V?$allocator@U?$_List_node@_KPEAX@std@@@std@@@std@@QEAAXXZ
pdata	ENDS
;	COMDAT pdata
pdata	SEGMENT
$pdata$??1?$_Alloc_construct_ptr@V?$allocator@U?$_List_node@_KPEAX@std@@@std@@@std@@QEAA@XZ DD imagerel $LN4
	DD	imagerel $LN4+79
	DD	imagerel $unwind$??1?$_Alloc_construct_ptr@V?$allocator@U?$_List_node@_KPEAX@std@@@std@@@std@@QEAA@XZ
pdata	ENDS
;	COMDAT pdata
pdata	SEGMENT
$pdata$??1?$_List_node_emplace_op2@V?$allocator@U?$_List_node@_KPEAX@std@@@std@@@std@@QEAA@XZ DD imagerel $LN4
	DD	imagerel $LN4+102
	DD	imagerel $unwind$??1?$_List_node_emplace_op2@V?$allocator@U?$_List_node@_KPEAX@std@@@std@@@std@@QEAA@XZ
pdata	ENDS
;	COMDAT pdata
pdata	SEGMENT
$pdata$??$?0_K@?$_List_node_emplace_op2@V?$allocator@U?$_List_node@_KPEAX@std@@@std@@@std@@QEAA@AEAV?$allocator@U?$_List_node@_KPEAX@std@@@1@$$QEA_K@Z DD imagerel $LN4
	DD	imagerel $LN4+123
	DD	imagerel $unwind$??$?0_K@?$_List_node_emplace_op2@V?$allocator@U?$_List_node@_KPEAX@std@@@std@@@std@@QEAA@AEAV?$allocator@U?$_List_node@_KPEAX@std@@@1@$$QEA_K@Z
pdata	ENDS
;	COMDAT pdata
pdata	SEGMENT
$pdata$?dtor$0@?0???$?0_K@?$_List_node_emplace_op2@V?$allocator@U?$_List_node@_KPEAX@std@@@std@@@std@@QEAA@AEAV?$allocator@U?$_List_node@_KPEAX@std@@@1@$$QEA_K@Z@4HA DD imagerel ?dtor$0@?0???$?0_K@?$_List_node_emplace_op2@V?$allocator@U?$_List_node@_KPEAX@std@@@std@@@std@@QEAA@AEAV?$allocator@U?$_List_node@_KPEAX@std@@@1@$$QEA_K@Z@4HA
	DD	imagerel ?dtor$0@?0???$?0_K@?$_List_node_emplace_op2@V?$allocator@U?$_List_node@_KPEAX@std@@@std@@@std@@QEAA@AEAV?$allocator@U?$_List_node@_KPEAX@std@@@1@$$QEA_K@Z@4HA+25
	DD	imagerel $unwind$?dtor$0@?0???$?0_K@?$_List_node_emplace_op2@V?$allocator@U?$_List_node@_KPEAX@std@@@std@@@std@@QEAA@AEAV?$allocator@U?$_List_node@_KPEAX@std@@@1@$$QEA_K@Z@4HA
pdata	ENDS
;	COMDAT pdata
pdata	SEGMENT
$pdata$??$?0V?$_List_iterator@V?$_List_val@U?$_List_simple_types@_K@std@@@std@@@std@@_N$0A@@?$pair@V?$_List_const_iterator@V?$_List_val@U?$_List_simple_types@_K@std@@@std@@@std@@_N@std@@QEAA@$$QEAV?$_List_iterator@V?$_List_val@U?$_List_simple_types@_K@std@@@std@@@1@$$QEA_N@Z DD imagerel $LN3
	DD	imagerel $LN3+82
	DD	imagerel $unwind$??$?0V?$_List_iterator@V?$_List_val@U?$_List_simple_types@_K@std@@@std@@@std@@_N$0A@@?$pair@V?$_List_const_iterator@V?$_List_val@U?$_List_simple_types@_K@std@@@std@@@std@@_N@std@@QEAA@$$QEAV?$_List_iterator@V?$_List_val@U?$_List_simple_types@_K@std@@@std@@@1@$$QEA_N@Z
pdata	ENDS
;	COMDAT pdata
pdata	SEGMENT
$pdata$??$?0AEB_K@?$_List_node_emplace_op2@V?$allocator@U?$_List_node@_KPEAX@std@@@std@@@std@@QEAA@AEAV?$allocator@U?$_List_node@_KPEAX@std@@@1@AEB_K@Z DD imagerel $LN4
	DD	imagerel $LN4+123
